 libGLESv2

 Timestamp is 4f20d4ca (Wed Jan 25 23:21:30 2012)

 Preferred load address is 10000000

 Start         Length     Name                   Class
 0001:00000000 00000004H .CRT$XCA                CODE
 0001:00000004 00000004H .CRT$XCZ                CODE
 0001:00000008 00000004H .CRT$XIA                CODE
 0001:0000000c 00000004H .CRT$XIZ                CODE
 0001:00000010 00000004H .CRT$XPA                CODE
 0001:00000014 00000004H .CRT$XPZ                CODE
 0001:00000018 00000004H .CRT$XTA                CODE
 0001:0000001c 00000004H .CRT$XTZ                CODE
 0001:00000020 00021210H .rdata                  CODE
 0001:00021230 00000026H .rdata$debug            CODE
 0001:00021258 000fa380H .text                   CODE
 0001:0011b5d8 00000060H .xdata                  CODE
 0001:0011b638 0000003cH .idata$2                CODE
 0001:0011b674 00000014H .idata$3                CODE
 0001:0011b688 00000164H .idata$4                CODE
 0001:0011b7ec 000001ecH .idata$6                CODE
 0001:0011b9e0 00000ec9H .edata                  CODE
 0002:00000000 00000164H .idata$5                DATA
 0002:00000164 0000000cH .data                   DATA
 0002:00000170 0000001cH .bss                    DATA
 0003:00000000 000025f0H .pdata                  DATA

  Address         Publics by Value              Rva+Base       Lib:Object

 0000:00000000       ___safe_se_handler_count   00000000     <absolute>
 0000:00000000       ___safe_se_handler_table   00000000     <absolute>
 0001:00000000       __xc_a                     10001000     corelib0:crt0init.obj
 0001:00000004       __xc_z                     10001004     corelib0:crt0init.obj
 0001:00000008       __xi_a                     10001008     corelib0:crt0init.obj
 0001:0000000c       __xi_z                     1000100c     corelib0:crt0init.obj
 0001:00000010       __xp_a                     10001010     corelib0:crt0init.obj
 0001:00000014       __xp_z                     10001014     corelib0:crt0init.obj
 0001:00000018       __xt_a                     10001018     corelib0:crt0init.obj
 0001:0000001c       __xt_z                     1000101c     corelib0:crt0init.obj
 0001:000001a8       ??_C@_0EN@NPDOHGA@InitAccumUSECodeBlocks?3?5Failed?5t@ 100011a8     accum.obj
 0001:000001f8       ??_C@_0EE@ILGDEPOC@InitAccumUSECodeBlocks?3?5Couldn?8t@ 100011f8     accum.obj
 0001:00000240       ??_C@_0FA@PGGJFPP@InitAccumUSECodeBlocks?3?5Couldn?8t@ 10001240     accum.obj
 0001:00000290       ??_C@_0FE@OPIPJGGO@c?3?2data?2jatin?2powervr_build?2ddk1@ 10001290     accum.obj
 0001:000002e8       ??_C@_0EL@HAKEABCF@c?3?2data?2jatin?2powervr_build?2ddk1@ 100012e8     accum.obj
 0001:00000334       __real@bf800000            10001334     accum.obj
 0001:00000338       __real@3f800000            10001338     accum.obj
 0001:0000033c       __real@40000000            1000133c     accum.obj
 0001:00000340       __real@00000000            10001340     accum.obj
 0001:000004b0       ??_C@_0FI@LGFNLPLJ@c?3?2data?2jatin?2powervr_build?2ddk1@ 100014b0     binshader.obj
 0001:00000508       ??_C@_0FC@MGNJEBNG@SGXBS_CreateSharedShaderState?3?5T@ 10001508     binshader.obj
 0001:00000560       ??_C@_0EG@BJCHBLHL@UnpackBinary?3?5The?5hash?5in?5the?5bi@ 10001560     binshader.obj
 0001:000005a8       ??_C@_0FM@MGHCODHK@UnpackBinary?3?5The?5magic?5number?5i@ 100015a8     binshader.obj
 0001:00000604       ??_C@_0BJ@JDHFEKND@ReadU32?3?5Buffer?5overflow?$AA@ 10001604     binshader.obj
 0001:00000620       ??_C@_0FH@KMJOPGPN@UnpackRevision?3?5Couldn?8t?5find?5a?5@ 10001620     binshader.obj
 0001:00000678       ??_C@_0FL@HFFNCNMN@UnpackRevision?3?5This?5Revision?5be@ 10001678     binshader.obj
 0001:000006d4       ??_C@_0CD@FNLIBILM@UnpackRevision?3?5Skipping?5revisio@ 100016d4     binshader.obj
 0001:000006f8       ??_C@_0EP@GHKKLBMJ@UnpackRevision?3?5The?5Unipatch?5inp@ 100016f8     binshader.obj
 0001:00000748       ??_C@_0GA@JKNNFOHG@UnpackRevision?3?5The?5GLSL?5compile@ 10001748     binshader.obj
 0001:000007a8       ??_C@_0EI@CFFHOCKA@UnpackRevision?3?5The?5software?5ver@ 100017a8     binshader.obj
 0001:000007f0       ??_C@_0ED@HOGDOCK@UnpackRevision?3?5The?5u16ReservedA@ 100017f0     binshader.obj
 0001:00000838       ??_C@_0BCK@NBEOKDHH@UnpackRevision?3?5Corrupt?5binary?5s@ 10001838     binshader.obj
 0001:00000968       ??_C@_0IB@IFIAIHHI@UnpackRevision?3?5Corrupt?5binary?5s@ 10001968     binshader.obj
 0001:000009f0       ??_C@_0IK@IEKOLCDK@UnpackRevision?3?5Corrupt?5binary?5s@ 100019f0     binshader.obj
 0001:00000a80       ??_C@_0KG@FFFBMIFJ@UnpackRevision?3?5At?5least?5one?5of?5@ 10001a80     binshader.obj
 0001:00000b28       ??_C@_0GN@LEDBMJLJ@UnpackRevision?3?5The?5SGX?5core?5rev@ 10001b28     binshader.obj
 0001:00000b98       ??_C@_0IC@BFNKEKL@UnpackRevision?3?5Corrupt?5binary?5s@ 10001b98     binshader.obj
 0001:00000c20       ??_C@_0GP@DFEFGDOM@UnpackRevision?3?5Corrupt?5binary?5s@ 10001c20     binshader.obj
 0001:00000c90       ??_C@_0EA@COHNOPBK@UnpackRevision?3?5The?5SGX?5core?5fla@ 10001c90     binshader.obj
 0001:00000cd0       ??_C@_0BJ@LANDDBLN@ReadU16?3?5Buffer?5overflow?$AA@ 10001cd0     binshader.obj
 0001:00000cf0       ??_C@_0GP@IFAMCAEH@UnpackSharedShaderState?3?5re?9thro@ 10001cf0     binshader.obj
 0001:00000d60       ??_C@_0GO@HNLGJOGE@UnpackSharedShaderState?3?5re?9thro@ 10001d60     binshader.obj
 0001:00000dd0       ??_C@_0CN@FPIOLIBJ@SGXBS_Calloc?3?5Realloc?5failed?4?5Re@ 10001dd0     binshader.obj
 0001:00000e00       ??_C@_0CM@JONOJEKO@SGXBS_Calloc?3?5Calloc?5failed?4?5Ret@ 10001e00     binshader.obj
 0001:00000e2c       ??_C@_0BI@MEJDDGMD@ReadU8?3?5Buffer?5overflow?$AA@ 10001e2c     binshader.obj
 0001:00000e44       ??_C@_0BL@IEFJGKLN@ReadFloat?3?5Buffer?5overflow?$AA@ 10001e44     binshader.obj
 0001:00000e60       ??_C@_0BM@CJKFMFJH@ReadString?3?5Buffer?5overflow?$AA@ 10001e60     binshader.obj
 0001:00000e7c       ??_C@_0DI@GIBMFMMC@UnpackUniPatchInput?3?5UniPatch?5fa@ 10001e7c     binshader.obj
 0001:00000eb8       ??_C@_0EK@JNHDPNBA@UnpackUniPatchInput?3?5The?5UniPatc@ 10001eb8     binshader.obj
 0001:00000f08       ??_C@_0FM@BFFLNCBH@UnpackProgramBinary?3?5Couldn?8t?5fi@ 10001f08     binshader.obj
 0001:00000f68       ??_C@_0GA@PHOLEKIO@UnpackProgramBinary?3?5This?5Revisi@ 10001f68     binshader.obj
 0001:00000fc8       ??_C@_0CI@LJJEADMN@UnpackProgramBinary?3?5Skipping?5re@ 10001fc8     binshader.obj
 0001:00000ff0       ??_C@_0EN@MBDFGMDL@UnpackProgramBinary?3?5The?5softwar@ 10001ff0     binshader.obj
 0001:00001040       ??_C@_0EI@BMKLBGDC@UnpackProgramBinary?3?5The?5u16Rese@ 10002040     binshader.obj
 0001:00001088       ??_C@_0EN@BNCBONLF@UnpackProgramBinary?3?5The?5hash?5in@ 10002088     binshader.obj
 0001:000010d8       ??_C@_0GD@JGLIPGF@UnpackProgramBinary?3?5The?5magic?5n@ 100020d8     binshader.obj
 0001:000012a8       ??_C@_0FF@HJHNLHLG@c?3?2data?2jatin?2powervr_build?2ddk1@ 100022a8     bufobj.obj
 0001:00001300       ??_C@_0CC@KBBBBNHJ@ReclaimBufferObjectMemKRM?3?5Calle@ 10002300     bufobj.obj
 0001:00001324       ??_C@_0CE@NECJBKEL@DestroyBufferObjectGhostKRM?3?5Cal@ 10002324     bufobj.obj
 0001:00001348       ??_C@_0DA@DDAIGOKO@FreeBufferObject?3?5Problem?5freein@ 10002348     bufobj.obj
 0001:00001378       ??_C@_0CI@BHPENKLO@glBindBuffer?3?5CreateBufferObject@ 10002378     bufobj.obj
 0001:000013a0       ??_C@_0N@BONEPPLO@glBindBuffer?$AA@ 100023a0     bufobj.obj
 0001:000013b0       ??_C@_0BA@DMNLADIO@glDeleteBuffers?$AA@ 100023b0     bufobj.obj
 0001:000013c0       ??_C@_0N@LAOHBIBA@glGenBuffers?$AA@ 100023c0     bufobj.obj
 0001:000013d0       ??_C@_0CP@CCPHLIGN@glBufferData?3?5Can?8t?5allocate?5mem@ 100023d0     bufobj.obj
 0001:00001400       ??_C@_0EE@MAGINHPJ@glBufferData?3?5Can?8t?5update?1free?5@ 10002400     bufobj.obj
 0001:00001444       ??_C@_0N@JHHJMABP@glBufferData?$AA@ 10002444     bufobj.obj
 0001:00001458       ??_C@_0EA@HMGPGMMA@glBufferSubData?3?5Can?8t?5update?5da@ 10002458     bufobj.obj
 0001:00001498       ??_C@_0CL@FEPBBFGL@glBufferSubData?3?5No?5memory?5for?5o@ 10002498     bufobj.obj
 0001:000014c4       ??_C@_0BA@GAJMDBBN@glBufferSubData?$AA@ 100024c4     bufobj.obj
 0001:000014d4       ??_C@_0CH@MGCNBDDM@glMapBuffer?3?5Buffer?5didn?8t?5becom@ 100024d4     bufobj.obj
 0001:000014fc       ??_C@_0M@NNHDPACA@glMapBuffer?$AA@ 100024fc     bufobj.obj
 0001:00001508       ??_C@_0O@OFGHBLEO@glUnmapBuffer?$AA@ 10002508     bufobj.obj
 0001:00001680       ??_C@_0DF@GLBDIODB@Couldn?8t?5allocate?5USE?5fragment?5c@ 10002680     clear.obj
 0001:000016b8       ??_C@_0DD@MILFIDMN@Couldn?8t?5allocate?5USE?5vertex?5cod@ 100026b8     clear.obj
 0001:000016f0       ??_C@_0FE@BAKBHEGM@c?3?2data?2jatin?2powervr_build?2ddk1@ 100026f0     clear.obj
 0001:00001744       __real@44bfc000            10002744     clear.obj
 0001:00001748       ??_C@_0CA@KMPCDMKP@glClear?3?5Can?8t?5send?5clear?5prims?$AA@ 10002748     clear.obj
 0001:00001768       ??_C@_0CH@BIKEBNCL@glClear?3?5Can?8t?5send?5drawmask?5for@ 10002768     clear.obj
 0001:00001790       ??_C@_0BP@PPEGMJNN@glClear?3?5Can?8t?5prepare?5to?5draw?$AA@ 10002790     clear.obj
 0001:000017b0       ??_C@_07IBAPPAHJ@glClear?$AA@ 100027b0     clear.obj
 0001:000017b8       ??_C@_0N@OGLMDNKC@glClearColor?$AA@ 100027b8     clear.obj
 0001:000017c8       ??_C@_0O@FMBMCDIL@glClearDepthf?$AA@ 100027c8     clear.obj
 0001:000017d8       ??_C@_0P@KBLPBBFP@glClearStencil?$AA@ 100027d8     clear.obj
 0001:000019c0       ??_C@_0FJ@MMKAGKIO@c?3?2data?2jatin?2powervr_build?2ddk1@ 100029c0     drawvarray.obj
 0001:00001a1c       ??_C@_0DL@EJGAANDO@WriteDirect16Indices?3?5Bad?5eMode?5@ 10002a1c     drawvarray.obj
 0001:00001a58       ??_C@_0DL@EMJGPPFD@WriteDirect32Indices?3?5Bad?5eMode?5@ 10002a58     drawvarray.obj
 0001:00001a94       ??_C@_0CF@OPCOLKOD@glDrawArrays?3?5ValidateState?$CI?$CJ?5fa@ 10002a94     drawvarray.obj
 0001:00001abc       ??_C@_0CE@OFNEMIJL@glDrawArrays?3?5Can?8t?5prepare?5to?5d@ 10002abc     drawvarray.obj
 0001:00001ae0       ??_C@_0N@CMNPPOHA@glDrawArrays?$AA@ 10002ae0     drawvarray.obj
 0001:00001af0       ??_C@_0DD@LFLPAFCM@GetNumIndices?3?5Bad?5mode?5?$CI0x?$CFX?$CJ?5?9@ 10002af0     drawvarray.obj
 0001:00001b28       ??_C@_0EN@KPOHHGCE@CreateSequentialStaticIndices?3?5C@ 10002b28     drawvarray.obj
 0001:00001b78       ??_C@_0EM@OILMKBPC@CreateLineStripStaticIndices?3?5Ca@ 10002b78     drawvarray.obj
 0001:00001bc4       ??_C@_0DI@KOHBCCOJ@DrawBatchOnVBuffer?3?5Bad?5mode?5?$CI0x@ 10002bc4     drawvarray.obj
 0001:00001bfc       ??_C@_0DE@CBGMFHGC@DrawBatchOnVBuffer?3?5Out?5of?5memor@ 10002bfc     drawvarray.obj
 0001:00001c30       ??_C@_0CL@BAGDGJKF@DrawBatchOnVBuffer?3?5ValidateStat@ 10002c30     drawvarray.obj
 0001:00001c5c       ??_C@_0CE@EEAAHDAN@Ran?5out?5of?5sync?5objects?5on?5frame@ 10002c5c     drawvarray.obj
 0001:00001c80       ??_C@_0DF@CMCFEOJA@Index?5offset?5?$CFld?5is?5larger?5than?5@ 10002c80     drawvarray.obj
 0001:00001cb8       ??_C@_0CH@GKDJKBAC@glDrawElements?3?5ValidateState?$CI?$CJ?5@ 10002cb8     drawvarray.obj
 0001:00001ce0       ??_C@_0CG@JHPPPBMJ@glDrawElements?3?5Can?8t?5prepare?5to@ 10002ce0     drawvarray.obj
 0001:00001d08       ??_C@_0P@MENFIFGE@glDrawElements?$AA@ 10002d08     drawvarray.obj
 0001:00001d18       ??_C@_0DE@HBMCBJJL@Index?5offset?5?$CFu?5is?5larger?5than?5i@ 10002d18     drawvarray.obj
 0001:00001d50       ??_C@_0EE@NPKLEAAF@PickDrawElementsProc?3?5Failed?5to?5@ 10002d50     drawvarray.obj
 0001:00001d98       ??_C@_0FA@NJKGLILA@PickDrawElementsProc?3?5Resized?5dy@ 10002d98     drawvarray.obj
 0001:00001de8       ??_C@_0DH@DCBPMFGG@PickDrawElementsProc?3?5ScheduleTA@ 10002de8     drawvarray.obj
 0001:00001e20       ??_C@_0DP@JPEMBNKA@DetermineMinAndMaxIndices?3?5Bad?5t@ 10002e20     drawvarray.obj
 0001:00001e60       ??_C@_0DG@ODPFJHB@TransformIndicesTo16Bits?3?5Unsupp@ 10002e60     drawvarray.obj
 0001:00001e98       ??_C@_0CI@IPGPFDCC@TransformIndicesTo16Bits?3?5Out?5of@ 10002e98     drawvarray.obj
 0001:00001ec0       ??_C@_0CK@INANLONG@glMultiDrawArrays?3?5ValidateState@ 10002ec0     drawvarray.obj
 0001:00001eec       ??_C@_0CJ@BLMNCCMH@glMultiDrawArrays?3?5Can?8t?5prepare@ 10002eec     drawvarray.obj
 0001:00001f18       ??_C@_0DB@FBJOOIDG@glMultiDrawArrays?3?5Out?5of?5memory@ 10002f18     drawvarray.obj
 0001:00001f4c       ??_C@_0BC@IBABPJFA@glMultiDrawArrays?$AA@ 10002f4c     drawvarray.obj
 0001:00001f60       ??_C@_0DN@NFCEMMNB@MultiDrawBatchOnVBuffer?3?5Bad?5mod@ 10002f60     drawvarray.obj
 0001:00001fa0       ??_C@_0DJ@IMACCGPG@MultiDrawBatchOnVBuffer?3?5Out?5of?5@ 10002fa0     drawvarray.obj
 0001:00001fdc       ??_C@_0DA@OHOOFIBA@MultiDrawBatchOnVBuffer?3?5Validat@ 10002fdc     drawvarray.obj
 0001:0000200c       ??_C@_0CM@MPGFMFIO@glMultiDrawElements?3?5ValidateSta@ 1000300c     drawvarray.obj
 0001:00002038       ??_C@_0CL@MBCOBGOO@glMultiDrawElements?3?5Can?8t?5prepa@ 10003038     drawvarray.obj
 0001:00002064       ??_C@_0DD@IKCBJKIK@glMultiDrawElements?3?5Out?5of?5memo@ 10003064     drawvarray.obj
 0001:00002098       ??_C@_0DI@DHBKDLOL@glMultiDrawElements?3?5Out?5of?5memo@ 10003098     drawvarray.obj
 0001:000020d0       ??_C@_0DD@LIBOBONO@glMultiDrawElements?3?5Out?5of?5memo@ 100030d0     drawvarray.obj
 0001:00002104       ??_C@_0BE@MPDFJJLL@glMultiDrawElements?$AA@ 10003104     drawvarray.obj
 0001:00002118       ??_C@_0DK@JAHCKOAN@MultiDrawElementsDeindex?5Out?5of?5@ 10003118     drawvarray.obj
 0001:000022bc       sGLES2FunctionTable        100032bc     eglglue.obj
 0001:000022e8       ??_C@_0CD@LBFHKKNL@GLES2CreateGC?3?5Metrics?5init?5fail@ 100032e8     eglglue.obj
 0001:0000230c       ??_C@_0CF@LCECELKD@GLES2CreateGC?3?5Failed?5to?5init?5th@ 1000330c     eglglue.obj
 0001:00002338       ??_C@_0FG@ECIDNAMH@c?3?2data?2jatin?2powervr_build?2ddk1@ 10003338     eglglue.obj
 0001:00002390       ??_C@_0CN@LKHLDCKI@GLES2CreateGC?3?5Can?8t?5alloc?5memor@ 10003390     eglglue.obj
 0001:000023c0       ??_C@_0CN@GFNOGGAK@InitContext?3?5Failed?5to?5fill?5preg@ 100033c0     eglglue.obj
 0001:000023f0       ??_C@_0CI@CPPPKOPL@InitContext?3?5Failed?5to?5create?5bu@ 100033f0     eglglue.obj
 0001:00002418       ??_C@_0CB@EIJAAPDO@InitContext?3?5Invalid?5buffer?5type@ 10003418     eglglue.obj
 0001:00002440       ??_C@_0ED@CBCMAHJK@InitContext?3?5ignoring?5buffer?5typ@ 10003440     eglglue.obj
 0001:00002488       ??_C@_0EN@KJOOBKEP@InitContext?3?5ignoring?5buffer?5typ@ 10003488     eglglue.obj
 0001:000024d8       ??_C@_0CN@IAMEADJM@InitContext?3?5InitSpecialUSECodeB@ 100034d8     eglglue.obj
 0001:00002508       ??_C@_0DJ@LJHKOHIK@InitContext?3?5Couldn?8t?5initialise@ 10003508     eglglue.obj
 0001:00002544       ??_C@_0DB@HIMENPJO@InitContext?3?5CreateVertexArrayOb@ 10003544     eglglue.obj
 0001:00002578       ??_C@_0CM@PICJGCHD@InitContext?3?5CreateRenderBufferS@ 10003578     eglglue.obj
 0001:000025a4       ??_C@_0CG@DEHHKJLP@InitContext?3?5CreateBufObjState?5f@ 100035a4     eglglue.obj
 0001:000025cc       ??_C@_0CH@PJDBADDK@InitContext?3?5CreateProgramState?5@ 100035cc     eglglue.obj
 0001:000025f4       ??_C@_0CH@POFJNPNC@InitContext?3?5CreateTextureState?5@ 100035f4     eglglue.obj
 0001:0000261c       ??_C@_0CE@PPEACKGP@InitContext?3?5HashTableCreate?5fai@ 1000361c     eglglue.obj
 0001:00002640       ??_C@_0CN@IFILKDKH@InitContext?3?5Failed?5to?5create?5TA@ 10003640     eglglue.obj
 0001:00002670       ??_C@_0DI@EMJIGNPP@InitContext?3?5Couldn?8t?5create?5uns@ 10003670     eglglue.obj
 0001:000026a8       ??_C@_0CG@KFIFKAHF@InitContext?3?5CreateSharedState?5f@ 100036a8     eglglue.obj
 0001:000026d0       ??_C@_0CI@DKHFGFI@InitContext?3?5AllocateBRN26922Mem@ 100036d0     eglglue.obj
 0001:000026f8       ??_C@_0EH@GDEHDGJ@FreeContextSharedState?3?5PVRSRVDe@ 100036f8     eglglue.obj
 0001:00002740       ??_C@_0EJ@IGAIDCDO@FreeContextSharedState?3?5PVRSRVDe@ 10003740     eglglue.obj
 0001:00002790       ??_C@_0EI@EIAMFMMD@FreeContextSharedState?3?5PVRSRVDe@ 10003790     eglglue.obj
 0001:000027d8       ??_C@_0DC@LHAGPGKP@CreateSharedState?3?5Couldn?8t?5crea@ 100037d8     eglglue.obj
 0001:0000280c       ??_C@_0DN@FNJGKOMG@CreateSharedState?3?5Failed?5to?5cre@ 1000380c     eglglue.obj
 0001:0000284c       ??_C@_0DO@IIFCLGPC@CreateSharedState?3?5Failed?5to?5cre@ 1000384c     eglglue.obj
 0001:0000288c       ??_C@_0DM@LNCJHMDH@CreateSharedState?3?5Failed?5to?5cre@ 1000388c     eglglue.obj
 0001:000028c8       ??_C@_0EJ@BKMJGKGK@CreateSharedState?3?5Couldn?8t?5init@ 100038c8     eglglue.obj
 0001:00002918       ??_C@_0EF@DANIEHPF@CreateSharedState?3?5Couldn?8t?5init@ 10003918     eglglue.obj
 0001:00002960       ??_C@_0DL@OPPGANOI@CreateSharedState?3?5Couldn?8t?5init@ 10003960     eglglue.obj
 0001:000029a0       ??_C@_0EE@BMLAEGPJ@CreateSharedState?3?5PVRSRVDestroy@ 100039a0     eglglue.obj
 0001:000029e8       ??_C@_0EC@KCNPELEL@CreateSharedState?3?5PVRSRVCreateM@ 100039e8     eglglue.obj
 0001:00002a30       ??_C@_0EC@KMIBOLGN@CreateSharedState?3?5PVRSRVDestroy@ 10003a30     eglglue.obj
 0001:00002a78       ??_C@_0ED@GFIBOKDL@CreateSharedState?3?5PVRSRVCreateM@ 10003a78     eglglue.obj
 0001:00002ac0       ??_C@_0EB@GEMCON@CreateSharedState?3?5PVRSRVCreateM@ 10003ac0     eglglue.obj
 0001:00002b04       ??_C@_0BD@EDKDABEF@shaderanalysis?4txt?$AA@ 10003b04     eglglue.obj
 0001:00002b18       ??_C@_02BKFDOEMK@wt?$AA@   10003b18     eglglue.obj
 0001:00002b1c       ??_C@_0CJ@IBBNODEI@DeInitContext?3?5FreeTexStreamStat@ 10003b1c     eglglue.obj
 0001:00002b48       ??_C@_0CH@JKADMECB@DeInitContext?3?5FreeTextureState?5@ 10003b48     eglglue.obj
 0001:00002b70       ??_C@_0CI@GBDKOPCI@GLES2DestroyGC?3?5Failed?5to?5deinit@ 10003b70     eglglue.obj
 0001:00002b98       ??_C@_0DG@KPEKJEL@GLES2MakeCurrentGC?3?5Invalid?5draw@ 10003b98     eglglue.obj
 0001:00002bd0       ??_C@_0CF@DBPLPDGE@glFramebufferTexture2DMultisampl@ 10003bd0     eglglue.obj
 0001:00002bf8       ??_C@_0CE@LHFIFHEM@glRenderbufferStorageMultisample@ 10003bf8     eglglue.obj
 0001:00002c1c       ??_C@_0BI@PNJOCEBL@glDiscardFramebufferEXT?$AA@ 10003c1c     eglglue.obj
 0001:00002c34       ??_C@_0BD@OHHMDKJE@glIsVertexArrayOES?$AA@ 10003c34     eglglue.obj
 0001:00002c48       ??_C@_0BF@MLJKHCLD@glGenVertexArraysOES?$AA@ 10003c48     eglglue.obj
 0001:00002c60       ??_C@_0BI@JDOHIGAB@glDeleteVertexArraysOES?$AA@ 10003c60     eglglue.obj
 0001:00002c78       ??_C@_0BF@GDJHAHOE@glBindVertexArrayOES?$AA@ 10003c78     eglglue.obj
 0001:00002c90       ??_C@_0BD@PEKIFPFH@glProgramBinaryOES?$AA@ 10003c90     eglglue.obj
 0001:00002ca4       ??_C@_0BG@GMFJDPBI@glGetProgramBinaryOES?$AA@ 10003ca4     eglglue.obj
 0001:00002cbc       ??_C@_0BD@PIBFHNP@glTexBindStreamIMG?$AA@ 10003cbc     eglglue.obj
 0001:00002cd0       ??_C@_0BM@MBNDOCOP@glGetTexStreamDeviceNameIMG?$AA@ 10003cd0     eglglue.obj
 0001:00002cec       ??_C@_0CD@OCNNIBKN@glGetTexStreamDeviceAttributeivI@ 10003cec     eglglue.obj
 0001:00002d10       ??_C@_0BH@CPIJKLBJ@glMultiDrawElementsEXT?$AA@ 10003d10     eglglue.obj
 0001:00002d28       ??_C@_0BF@MOHHALAE@glMultiDrawArraysEXT?$AA@ 10003d28     eglglue.obj
 0001:00002d40       ??_C@_0CH@JLEJGINJ@glEGLImageTargetRenderbufferStor@ 10003d40     eglglue.obj
 0001:00002d68       ??_C@_0BN@FPPCHDBA@glEGLImageTargetTexture2DOES?$AA@ 10003d68     eglglue.obj
 0001:00002d88       ??_C@_0BH@HANHAAH@glGetBufferPointervOES?$AA@ 10003d88     eglglue.obj
 0001:00002da0       ??_C@_0BB@CEFEJGJJ@glUnmapBufferOES?$AA@ 10003da0     eglglue.obj
 0001:00002db4       ??_C@_0P@MBENIONB@glMapBufferOES?$AA@ 10003db4     eglglue.obj
 0001:00002f30       ??_C@_0FC@MLJEBPDN@c?3?2data?2jatin?2powervr_build?2ddk1@ 10003f30     fbo.obj
 0001:00002f88       ??_C@_0EM@KBDMHONC@FlushAttachableIfNeeded?3?5Schedul@ 10003f88     fbo.obj
 0001:00002fd8       ??_C@_0FB@KFAKONLO@FlushAttachableIfNeeded?3?5Schedul@ 10003fd8     fbo.obj
 0001:0000302c       ??_C@_0DO@PEBPLMAK@FBOAttachableHasBeenModified?3?5Co@ 1000402c     fbo.obj
 0001:0000306c       ??_C@_0DN@PFLJBCP@ComputeFrameBufferCompleteness?3?5@ 1000406c     fbo.obj
 0001:000030b0       ??_C@_0EJ@NPEBALNK@ComputeFrameBufferCompleteness?3?5@ 100040b0     fbo.obj
 0001:00003100       ??_C@_0EF@OHFJMGGP@GetFrameBufferCompleteness?3?5form@ 10004100     fbo.obj
 0001:00003148       ??_C@_0DH@IBJIGMG@ComputeFrameBufferCompleteness?3?5@ 10004148     fbo.obj
 0001:00003180       ??_C@_0BB@DGGHKKOH@glIsRenderbuffer?$AA@ 10004180     fbo.obj
 0001:00003194       ??_C@_0BD@EPOPJGFA@glBindRenderbuffer?$AA@ 10004194     fbo.obj
 0001:000031a8       ??_C@_0BG@KKOKEJDE@glDeleteRenderbuffers?$AA@ 100041a8     fbo.obj
 0001:000031c0       ??_C@_0BD@MIGEDNGJ@glGenRenderbuffers?$AA@ 100041c0     fbo.obj
 0001:000031d4       ??_C@_0BG@EOIILGMJ@glRenderbufferStorage?$AA@ 100041d4     fbo.obj
 0001:000031ec       ??_C@_0DI@BMPCKJML@SetupRenderbufferFromEGLImage?3?5U@ 100041ec     fbo.obj
 0001:00003224       ??_C@_0BN@FGKAECKO@glGetRenderbufferParameteriv?$AA@ 10004224     fbo.obj
 0001:00003244       ??_C@_0BA@FGBIJCNH@glIsFramebuffer?$AA@ 10004244     fbo.obj
 0001:00003254       ??_C@_0DE@LHIDPAAO@glBindFramebuffer?3?5ScheduleTA?5di@ 10004254     fbo.obj
 0001:00003288       ??_C@_0BC@CJMIBNO@glBindFramebuffer?$AA@ 10004288     fbo.obj
 0001:0000329c       ??_C@_0BF@DJNJENP@glDeleteFramebuffers?$AA@ 1000429c     fbo.obj
 0001:000032b4       ??_C@_0BC@FAPEBGID@glGenFramebuffers?$AA@ 100042b4     fbo.obj
 0001:000032c8       ??_C@_0BJ@GIOLHEAD@glCheckFramebufferStatus?$AA@ 100042c8     fbo.obj
 0001:000032e4       ??_C@_0BH@JCIFGDEF@glFramebufferTexture2D?$AA@ 100042e4     fbo.obj
 0001:000032fc       ??_C@_0BK@OJDINAOA@glFramebufferRenderbuffer?$AA@ 100042fc     fbo.obj
 0001:00003318       ??_C@_0CG@KLDGJEON@glGetFramebufferAttachmentParame@ 10004318     fbo.obj
 0001:00003340       ??_C@_0BB@BHNIMGDM@glGenerateMipmap?$AA@ 10004340     fbo.obj
 0001:00003354       ??_C@_0BH@FNCCEFL@OpenGL?5ES?5GLSL?5ES?51?400?$AA@ 10004354     get.obj
 0001:0000336c       ??_C@_0O@GGCHPDLB@OpenGL?5ES?52?40?$AA@ 1000436c     get.obj
 0001:0000337c       ??_C@_0BA@HDDICJEH@PowerVR?5SGX?5530?$AA@ 1000437c     get.obj
 0001:0000338c       ??_C@_0BJ@FGEHHHOH@Imagination?5Technologies?$AA@ 1000438c     get.obj
 0001:00003514       pszRenderer                10004514     get.obj
 0001:00003520       ??_C@_0FC@DFPAMABG@c?3?2data?2jatin?2powervr_build?2ddk1@ 10004520     get.obj
 0001:00003574       ??_C@_0BF@GHMDGFEM@glGetAttachedShaders?$AA@ 10004574     get.obj
 0001:0000358c       ??_C@_0O@NLMELLCJ@glGetBooleanv?$AA@ 1000458c     get.obj
 0001:0000359c       __real@41800000            1000459c     get.obj
 0001:000035a0       __real@43ff8000            100045a0     get.obj
 0001:000035a4       ??_C@_0M@CKCOBONE@glGetFloatv?$AA@ 100045a4     get.obj
 0001:000035b0       ??_C@_0O@DHHDCCLF@glGetIntegerv?$AA@ 100045b0     get.obj
 0001:000035c0       ??_C@_0BH@BMIEIFJP@glGetBufferParameteriv?$AA@ 100045c0     get.obj
 0001:000035d8       ??_C@_0BK@HONONNDB@glGetBufferParameterivOES?$AA@ 100045d8     get.obj
 0001:000035f4       ??_C@_0L@FPKAMKHB@glGetError?$AA@ 100045f4     get.obj
 0001:00003600       ??_C@_0O@JBDFPDMG@glGetShaderiv?$AA@ 10004600     get.obj
 0001:00003610       ??_C@_0P@FMMDFLCO@glGetProgramiv?$AA@ 10004610     get.obj
 0001:00003620       ??_C@_0BE@DHGHAJFL@glGetProgramInfoLog?$AA@ 10004620     get.obj
 0001:00003634       ??_C@_0BD@GIABBCMO@glGetShaderInfoLog?$AA@ 10004634     get.obj
 0001:00003648       ??_C@_0BC@ELEIFJEL@glGetShaderSource?$AA@ 10004648     get.obj
 0001:0000365c       ??_C@_0BJ@BGCPGHFI@glGetString?5unknown?5name?$AA@ 1000465c     get.obj
 0001:00003678       ??_C@_0M@OPOBFDCB@glGetString?$AA@ 10004678     get.obj
 0001:00003684       ??_C@_0BE@DGCNLNPP@glGetTexParameteriv?$AA@ 10004684     get.obj
 0001:00003698       ??_C@_0BE@DNHBPKMC@glGetTexParameterfv?$AA@ 10004698     get.obj
 0001:000036ac       ??_C@_0P@DFCJIBG@glGetUniformfv?$AA@ 100046ac     get.obj
 0001:000036bc       ??_C@_0P@IAONPCL@glGetUniformiv?$AA@ 100046bc     get.obj
 0001:000036cc       ??_C@_0BE@BEPGJDMM@glGetAttribLocation?$AA@ 100046cc     get.obj
 0001:000036e0       __real@45a06000            100046e0     get.obj
 0001:000036e4       __real@470d6100            100046e4     get.obj
 0001:000036e8       __real@45a03000            100046e8     get.obj
 0001:000036ec       __real@45a01800            100046ec     get.obj
 0001:000036f0       __real@45a00800            100046f0     get.obj
 0001:000036f4       __real@45a01000            100046f4     get.obj
 0001:000036f8       __real@45a00000            100046f8     get.obj
 0001:000036fc       ??_C@_0BE@HAHIEIOD@glGetVertexAttribfv?$AA@ 100046fc     get.obj
 0001:00003710       ??_C@_0BE@HLCEAPNO@glGetVertexAttribiv?$AA@ 10004710     get.obj
 0001:00003724       ??_C@_0BK@DOJMENLD@glGetVertexAttribPointerv?$AA@ 10004724     get.obj
 0001:00003740       ??_C@_0M@INHMIHKC@glIsEnabled?$AA@ 10004740     get.obj
 0001:0000374c       ??_C@_0L@KFPDMKNG@glIsBuffer?$AA@ 1000474c     get.obj
 0001:00003758       ??_C@_0M@INLOJDGO@glIsProgram?$AA@ 10004758     get.obj
 0001:00003764       ??_C@_0L@MDDLFIHC@glIsShader?$AA@ 10004764     get.obj
 0001:00003770       ??_C@_0M@NJHAEPDN@glIsTexture?$AA@ 10004770     get.obj
 0001:0000377c       ??_C@_0BL@MLAOOHPD@glGetShaderPrecisionFormat?$AA@ 1000477c     get.obj
 0001:00003900       ??_C@_0EA@PCLAMAJC@AllocateBRN26922Mem?3?5Failed?5to?5a@ 10004900     gles2errata.obj
 0001:00003940       ??_C@_0FK@EMFLJFPK@c?3?2data?2jatin?2powervr_build?2ddk1@ 10004940     gles2errata.obj
 0001:00003b04       ??_C@_0DD@FOHGDACG@MakeTextureMipmapLevels?3?5Unknown@ 10004b04     makemips.obj
 0001:00003b38       ??_C@_0EF@PABMPLIL@MakeTextureMipmapLevels?3?5The?5for@ 10004b38     makemips.obj
 0001:00003b80       ??_C@_0DD@DEOKBILD@MakeTextureMipmapLevels?3?5Base?5le@ 10004b80     makemips.obj
 0001:00003bb8       ??_C@_0FH@OBENAPFL@c?3?2data?2jatin?2powervr_build?2ddk1@ 10004bb8     makemips.obj
 0001:00003c10       ??_C@_0EE@NFMPPPHF@HardwareMakeTextureMipmapLevels?3@ 10004c10     makemips.obj
 0001:00003c54       ??_C@_0DJ@ONPFGLHH@HardwareMakeTextureMipmapLevels?3@ 10004c54     makemips.obj
 0001:00003c90       ??_C@_0DL@OIPECIIE@HardwareMakeTextureMipmapLevels?3@ 10004c90     makemips.obj
 0001:00003cd0       ??_C@_0EG@CGMBGJPI@HardwareMipGen?3?5Timeout?5failed?5o@ 10004cd0     makemips.obj
 0001:00003d18       ??_C@_0EE@LCPPLKAM@HardwareMipGen?3?5Failed?5to?5genera@ 10004d18     makemips.obj
 0001:00003d5c       ??_C@_0CL@IBOMPNIN@HardwareMipGen?3?5Unsupported?5text@ 10004d5c     makemips.obj
 0001:00003ef0       __real@447a0000            10004ef0     metrics.obj
 0001:00003ef8       ??_C@_0FG@CPAFNKJA@c?3?2data?2jatin?2powervr_build?2ddk1@ 10004ef8     metrics.obj
 0001:00003f50       ??_C@_0CE@FAGHEOD@InitMetrics?3?5Failed?5to?5get?5CPU?5f@ 10004f50     metrics.obj
 0001:00003f74       ??_C@_08CPADJEKC@H?5?9?$DO?5?5H?3?$AA@ 10004f74     metrics.obj
 0001:00003f80       ??_C@_06BLGEDDNA@?$CF7?42f?5?$AA@ 10004f80     metrics.obj
 0001:00003f88       __real@49800000            10004f88     metrics.obj
 0001:00003f8c       __real@41200000            10004f8c     metrics.obj
 0001:00003f90       ??_C@_08GMMAOODE@H?5?9?$DO?5VB?3?$AA@ 10004f90     metrics.obj
 0001:00003f9c       ??_C@_08MFHFMIIJ@?9?9?9?9?9?9?9?$HM?$AA@ 10004f9c     metrics.obj
 0001:00003fa8       ??_C@_08GGNFKEJM@?9?9?9?9?9?9?9?9?$AA@ 10004fa8     metrics.obj
 0001:00003fb4       ??_C@_04JKLOOGJH@?$CF7u?5?$AA@ 10004fb4     metrics.obj
 0001:00003fbc       ??_C@_08BJDHINAC@Bytes?5?5?3?$AA@ 10004fbc     metrics.obj
 0001:00003fc8       ??_C@_0DJ@OCNDBGGB@StartUpMemSpeedTest?3?5Failed?5host@ 10004fc8     metrics.obj
 0001:00004004       ??_C@_0DJ@IFFMLAD@StartUpMemSpeedTest?3?5Failed?5host@ 10005004     metrics.obj
 0001:00004040       ??_C@_0DF@LCKJNNFN@StartUpMemSpeedTest?3?5VB?5is?5too?5s@ 10005040     metrics.obj
 0001:00004078       ??_C@_0GP@DFJDGDGB@Running?5StartUpMemSpeedTest?4?5Hig@ 10005078     metrics.obj
 0001:000040e8       ??_C@_0CD@CEJJMLID@?5Texture?5allocation?5HWM?5?$DN?5?$CFu?5byt@ 100050e8     metrics.obj
 0001:0000410b       ??_C@_00CNPNBAHC@?$AA@     1000510b     metrics.obj
 0001:0000410c       ??_C@_0DC@FFJNNOJH@?5?5?5?5Color?5?5?5?5?5?5?5?5?5?5?5?$CF7d?1?$CF12?44f?1?$CF@ 1000510c     metrics.obj
 0001:00004140       ??_C@_0FH@BENFNHFM@?6?5?5?5?5?5?5?5?5?5?5?5?5Read?5Pixel?5Stats?5?5?$FL@ 10005140     metrics.obj
 0001:00004198       ??_C@_0DG@JMGJDACN@?5?5?5?5ShaderBinary?5?5?5?5?5?5?5?5?5?5?5?5?5?$CF7d@ 10005198     metrics.obj
 0001:000041d0       ??_C@_0DG@DLPNKMCG@?5?5?5?5ShaderSource?5?5?5?5?5?5?5?5?5?5?5?5?5?$CF7d@ 100051d0     metrics.obj
 0001:00004208       ??_C@_0DG@BMKCFADK@?5?5?5?5LinkProgram?5?5?5?5?5?5?5?5?5?5?5?5?5?5?$CF7d@ 10005208     metrics.obj
 0001:00004240       ??_C@_0DG@LIEBKGPO@?5?5?5?5CompileShader?5?5?5?5?5?5?5?5?5?5?5?5?$CF7d@ 10005240     metrics.obj
 0001:00004278       ??_C@_0HD@LFMNIAID@?6?5?5?5?5?5?5?5?5?5?5?5?5Shader?5Statistics?5?5@ 10005278     metrics.obj
 0001:000042ec       ??_C@_0CP@GPGPFNAE@?5?5?5?5Texture?5Readback?5?5?5?5?5?5?5?5?5?$CF7d@ 100052ec     metrics.obj
 0001:0000431c       ??_C@_0CP@EFPMDBGN@?5?5?5?5Load?5Ghost?5Texture?5?5?5?5?5?5?5?$CF7d@ 1000531c     metrics.obj
 0001:0000434c       ??_C@_0CP@DAAHPODP@?5?5?5?5TranslateLoadTexture?5?5?5?5?5?$CF7d@ 1000534c     metrics.obj
 0001:0000437c       ??_C@_0CP@JNIFKJHK@?5?5?5?5AllocateTexture?5?5?5?5?5?5?5?5?5?5?$CF7d@ 1000537c     metrics.obj
 0001:000043ac       ??_C@_0CP@MOJAODCF@?5?5?5?5CopySubImage?5?5?5?5?5?5?5?5?5?5?5?5?5?$CF7d@ 100053ac     metrics.obj
 0001:000043dc       ??_C@_0CP@FNPHHMFC@?5?5?5?5CopyImage?5?5?5?5?5?5?5?5?5?5?5?5?5?5?5?5?$CF7d@ 100053dc     metrics.obj
 0001:00004410       ??_C@_0FE@GHGGBGHD@?6?5?5?5?5?5?5?5?5?5?5?5?5Texture?5Statistics?5@ 10005410     metrics.obj
 0001:00004464       ??_C@_0DK@HEHPLLPA@?5?5?5?5CompSubTex?5?5?5?5?5?5?5?5?5?5?5?5?5?5?$CF7d?1@ 10005464     metrics.obj
 0001:000044a0       ??_C@_0DK@MONKCMGB@?5?5?5?5CompTex?5?5?5?5?5?5?5?5?5?5?5?5?5?5?5?5?5?$CF7d?1@ 100054a0     metrics.obj
 0001:000044dc       ??_C@_0DL@PBGOCKCE@?5?5?5?5TexSubImage?5?5?5?5?5?5?5?5?5?5?5?5?5?5?$CF7d@ 100054dc     metrics.obj
 0001:00004518       ??_C@_0DL@HLNBPNME@?5?5?5?5TexImage?5?5?5?5?5?5?5?5?5?5?5?5?5?5?5?5?5?$CF7d@ 10005518     metrics.obj
 0001:00004558       ??_C@_0GA@MMBGLFLK@?6?5?5?5?5?5?5?5?5?5?5?5?5Texture?5Statistics?5@ 10005558     metrics.obj
 0001:000045b8       ??_C@_0DI@ELKOOHD@?5Average?5Compress?5Sub?5Load?5MTexe@ 100055b8     metrics.obj
 0001:000045f0       ??_C@_0DI@PINBFANE@?5Average?5Compress?5Load?5MTexels?1s@ 100055f0     metrics.obj
 0001:00004628       ??_C@_0DI@EODDOBJD@?5Average?5TexSubImage?5Load?5MTexel@ 10005628     metrics.obj
 0001:00004660       ??_C@_0DI@NKHGKCH@?5Average?5TexImage?5Load?5MTexels?1s@ 10005660     metrics.obj
 0001:00004698       ??_C@_0DI@NNKCCHJN@?5?5PDS?5Codeheap?5?9?5Fragment?5?5?5?5?5?5?5@ 10005698     metrics.obj
 0001:000046d0       ??_C@_0DG@LHCMEMBE@?5?5USE?5Codeheap?5?9?5Vertex?5?5?5?5?5?5?5?5?5@ 100056d0     metrics.obj
 0001:00004708       ??_C@_0DG@DBNJEPBE@?5?5USE?5Codeheap?5?9?5Fragment?5?5?5?5?5?5?5@ 10005708     metrics.obj
 0001:00004740       ??_C@_0DG@OPNDDMOP@?5?5MTE?5State?5?5?5?5?5?5?5?5?5?5?5?5?5?5?5?5?5?5?5?5?5@ 10005740     metrics.obj
 0001:00004778       ??_C@_0DG@OIPPAFMB@?5?5USSE?5fragment?5data?5?5?5?5?5?5?5?5?5?5?5?5@ 10005778     metrics.obj
 0001:000047b0       ??_C@_0DG@IMCMIIHG@?5?5PDS?5fragment?5data?5?5?5?5?5?5?5?5?5?5?5?5?5@ 100057b0     metrics.obj
 0001:000047e8       ??_C@_0DG@IGEGAOAE@?5?5MTE?5Copy?5data?5?5?5?5?5?5?5?5?5?5?5?5?5?5?5?5?5@ 100057e8     metrics.obj
 0001:00004820       ??_C@_0DG@IINDIACB@?5?5PDS?5vertex?5data?5?5?5?5?5?5?5?5?5?5?5?5?5?5?5@ 10005820     metrics.obj
 0001:00004858       ??_C@_0DG@DIENLHBG@?5?5Index?5data?5?5?5?5?5?5?5?5?5?5?5?5?5?5?5?5?5?5?5?5@ 10005858     metrics.obj
 0001:00004890       ??_C@_0DG@NHBEBOIP@?5?5Vertex?5data?5?5?5?5?5?5?5?5?5?5?5?5?5?5?5?5?5?5?5@ 10005890     metrics.obj
 0001:000048c8       ??_C@_0DG@KFPHNCJL@?5?5VDM?5Control?5?5?5?5?5?5?5?5?5?5?5?5?5?5?5?5?5?5?5@ 100058c8     metrics.obj
 0001:00004900       __real@43800000            10005900     metrics.obj
 0001:00004908       ??_C@_0EM@GLMGILOC@?5Buffer?5Statistics?5?5?5?5?5?5?5?5?5?5?5?5?5?5@ 10005908     metrics.obj
 0001:00004954       ??_C@_0CM@GBFJOGGK@?5Max?5Code?5Heap?5operation?5?5?5?5?5?5?5?5@ 10005954     metrics.obj
 0001:00004980       ??_C@_0CM@DGGILPEP@?5Max?5Frame?5Resource?5Manager?5Wait@ 10005980     metrics.obj
 0001:000049ac       ??_C@_0CM@KELNCBJC@?5Max?5Frame?5Resource?5Manager?5op?4?5@ 100059ac     metrics.obj
 0001:000049d8       ??_C@_0CM@OHLMMOEE@?5Max?5NamesArray?5operation?5?5?5?5?5?5?5@ 100059d8     metrics.obj
 0001:00004a04       ??_C@_0CM@EELNJONE@?5Max?5EmitState?$CI?$CJ?5?5?5?5?5?5?5?5?5?5?5?5?5?5?5?5@ 10005a04     metrics.obj
 0001:00004a30       ??_C@_0CM@LFAOPFKJ@?5Max?5ValidateState?$CI?$CJ?5?5?5?5?5?5?5?5?5?5?5?5@ 10005a30     metrics.obj
 0001:00004a5c       ??_C@_0CM@DCFHDPOA@?5Max?5Wait?5for?5TA?5?5?5?5?5?5?5?5?5?5?5?5?5?5?5?5@ 10005a5c     metrics.obj
 0001:00004a88       ??_C@_0CM@EKAFKDGA@?5Max?5Wait?5for?53D?5?5?5?5?5?5?5?5?5?5?5?5?5?5?5?5@ 10005a88     metrics.obj
 0001:00004ab4       ??_C@_0CM@EIHMADKA@?5Max?5SGXKickTA?5?5?5?5?5?5?5?5?5?5?5?5?5?5?5?5?5?5@ 10005ab4     metrics.obj
 0001:00004ae0       ??_C@_0CM@PKAOIFH@?5Max?5Prepare?5to?5draw?5?5?5?5?5?5?5?5?5?5?5?5@ 10005ae0     metrics.obj
 0001:00004b10       ??_C@_0FB@CMJACELJ@?6?5?5?5?5?5?5?5?5?5?5?5?5Statistics?5per?5call@ 10005b10     metrics.obj
 0001:00004b64       ??_C@_0CO@GCICCIFB@?5PDSPixelShaderProgram?5?9?5variant@ 10005b64     metrics.obj
 0001:00004b94       ??_C@_0CO@ELFLDIK@?5PDSPixelShaderProgram?5?9?5variant@ 10005b94     metrics.obj
 0001:00004bc4       ??_C@_0BN@JCLCCDL@?5PDS?5Variant?5hit?1miss?5totals?$AA@ 10005bc4     metrics.obj
 0001:00004be4       ??_C@_01CLKCMJKC@?5?$AA@   10005be4     metrics.obj
 0001:00004be8       ??_C@_0DE@NDILEMMI@?5Element?5Fans?5?5?5?5?5?5?5?5?5?5?5?5?5?5?5?5?5?5?5@ 10005be8     metrics.obj
 0001:00004c1c       ??_C@_0DE@HGPCIELM@?5Element?5Strips?5?5?5?5?5?5?5?5?5?5?5?5?5?5?5?5?5@ 10005c1c     metrics.obj
 0001:00004c50       ??_C@_0DE@BBHOEAE@?5Element?5Triangles?5?5?5?5?5?5?5?5?5?5?5?5?5?5@ 10005c50     metrics.obj
 0001:00004c84       ??_C@_0DE@COFFMGIK@?5Element?5Line?5Strips?5?5?5?5?5?5?5?5?5?5?5?5@ 10005c84     metrics.obj
 0001:00004cb8       ??_C@_0DE@JGFBBCLP@?5Element?5Line?5Loops?5?5?5?5?5?5?5?5?5?5?5?5?5@ 10005cb8     metrics.obj
 0001:00004cec       ??_C@_0DE@IOFCEFMJ@?5Element?5Lines?5?5?5?5?5?5?5?5?5?5?5?5?5?5?5?5?5?5@ 10005cec     metrics.obj
 0001:00004d20       ??_C@_0DE@BCPIIBBP@?5Element?5Points?5?5?5?5?5?5?5?5?5?5?5?5?5?5?5?5?5@ 10005d20     metrics.obj
 0001:00004d54       ??_C@_0DE@HBFMJOGI@?5Array?5Fans?5?5?5?5?5?5?5?5?5?5?5?5?5?5?5?5?5?5?5?5?5@ 10005d54     metrics.obj
 0001:00004d88       ??_C@_0DE@KPLAMNGB@?5Array?5Strips?5?5?5?5?5?5?5?5?5?5?5?5?5?5?5?5?5?5?5@ 10005d88     metrics.obj
 0001:00004dbc       ??_C@_0DE@MOBOPPGM@?5Array?5Triangles?5?5?5?5?5?5?5?5?5?5?5?5?5?5?5?5@ 10005dbc     metrics.obj
 0001:00004df0       ??_C@_0DE@LOHOCEAP@?5Array?5Line?5Strips?5?5?5?5?5?5?5?5?5?5?5?5?5?5@ 10005df0     metrics.obj
 0001:00004e24       ??_C@_0DE@JNPBEIHA@?5Array?5Line?5Loops?5?5?5?5?5?5?5?5?5?5?5?5?5?5?5@ 10005e24     metrics.obj
 0001:00004e58       ??_C@_0DE@BBJLEKFE@?5Array?5Lines?5?5?5?5?5?5?5?5?5?5?5?5?5?5?5?5?5?5?5?5@ 10005e58     metrics.obj
 0001:00004e8c       ??_C@_0DE@FKPALCMO@?5Array?5Points?5?5?5?5?5?5?5?5?5?5?5?5?5?5?5?5?5?5?5@ 10005e8c     metrics.obj
 0001:00004ec0       ??_C@_0DE@EGHFHFEO@?5Total?5Index?5Data?5Generate?1Copy?5@ 10005ec0     metrics.obj
 0001:00004ef4       ??_C@_0DE@GAJGANIL@?5Total?5Vertex?5Data?5Copy?5?5?5?5?5?5?5?5?5@ 10005ef4     metrics.obj
 0001:00004f28       ??_C@_0DE@JGCIMOIP@?5Total?5Primitive?5Draw?5?5?5?5?5?5?5?5?5?5?5@ 10005f28     metrics.obj
 0001:00004f5c       ??_C@_0DE@IOAPJHKI@?5Total?5Code?5Heap?5operations?5?5?5?5?5@ 10005f5c     metrics.obj
 0001:00004f90       ??_C@_0DE@CPHOCJNP@?5Total?5Frame?5Resource?5Manager?5Wa@ 10005f90     metrics.obj
 0001:00004fc4       ??_C@_0DE@IJEPHAHI@?5Total?5Frame?5Resource?5Manager?5op@ 10005fc4     metrics.obj
 0001:00004ff8       ??_C@_0DE@MAJJKHE@?5Total?5NamesArray?5operations?5?5?5?5@ 10005ff8     metrics.obj
 0001:0000502c       ??_C@_0DE@GAOFCPCN@?5PDS?5Codeheap?5Alloc?5?9?5Fragment?5?5@ 1000602c     metrics.obj
 0001:00005060       ??_C@_0DE@PCDONOBC@?5USE?5Codeheap?5Alloc?5?9?5Vertex?5?5?5?5@ 10006060     metrics.obj
 0001:00005094       ??_C@_0DE@DNBGNPON@?5USE?5Codeheap?5Alloc?5?9?5Fragment?5?5@ 10006094     metrics.obj
 0001:000050c8       ??_C@_0DE@IDGBADAJ@?5?5?9?5BugFix?$CI?$CJ?5?5?5?5?5?5?5?5?5?5?5?5?5?5?5?5?5?5?5?5@ 100060c8     metrics.obj
 0001:000050fc       ??_C@_0DE@CBDPMBCI@?5?5?9?5WriteVDMControlStream?$CI?$CJ?5?5?5?5?5@ 100060fc     metrics.obj
 0001:00005130       ??_C@_0DE@CCLBFBMI@?5?5?9?5WriteMTEStateCopyPrograms?$CI?$CJ?5@ 10006130     metrics.obj
 0001:00005164       ??_C@_0DE@PGHBNPOE@?5?5?9?5WriteMTEState?$CI?$CJ?5?5?5?5?5?5?5?5?5?5?5?5?5@ 10006164     metrics.obj
 0001:00005198       ??_C@_0DE@GDNGCOFA@?5?5?9?5WritePDSUSEShaderSAProgram?$CIV@ 10006198     metrics.obj
 0001:000051cc       ??_C@_0DE@FNIBANND@?5?5?9?5WritePDSUSEShaderSAProgram?$CIF@ 100061cc     metrics.obj
 0001:00005200       ??_C@_0DJ@MNONBMMP@?5?5?9?5WritePDSVertexShaderProgramW@ 10006200     metrics.obj
 0001:0000523c       ??_C@_0DE@PAPIFHEF@?5?5?9?5PDSGenerateVertexShaderProgr@ 1000623c     metrics.obj
 0001:00005270       ??_C@_0DE@IMFHDJCP@?5?5?9?5PDSPatchVertexShaderProgram?$CI@ 10006270     metrics.obj
 0001:000052a4       ??_C@_0DF@CDFAHPMP@?5?5?9?5WritePDSVertexShaderProgramW@ 100062a4     metrics.obj
 0001:000052dc       ??_C@_0DE@JMCJMNGE@?5Total?5EmitState?$CI?$CJ?5?5?5?5?5?5?5?5?5?5?5?5?5?5@ 100062dc     metrics.obj
 0001:00005310       ??_C@_0DE@GNOMIDMJ@?5?5?9?5Setup_FragmentShader?$CI?$CJ?5?5?5?5?5?5@ 10006310     metrics.obj
 0001:00005344       ??_C@_0DE@JCMIMAJF@?5?5?9?5Setup_RenderState?$CI?$CJ?5?5?5?5?5?5?5?5?5@ 10006344     metrics.obj
 0001:00005378       ??_C@_0DE@LOOKFKAP@?5?5?9?5Setup_VertexShader?$CI?$CJ?5?5?5?5?5?5?5?5@ 10006378     metrics.obj
 0001:000053ac       ??_C@_0DE@JPEDCHEA@?5?5?9?5Setup_TextureState?$CI?$CJ?5?5?5?5?5?5?5?5@ 100063ac     metrics.obj
 0001:000053e0       ??_C@_0DE@HFGEFKFA@?5?5?9?5Setup_VAO_AttribPointers?$CI?$CJ?5?5@ 100063e0     metrics.obj
 0001:00005414       ??_C@_0DE@OIGMPEND@?5?5?9?5Setup_VAO_AttribStreams?$CI?$CJ?5?5?5@ 10006414     metrics.obj
 0001:00005448       ??_C@_0DE@HOLGGNLE@?5Total?5ValidateState?$CI?$CJ?5?5?5?5?5?5?5?5?5?5@ 10006448     metrics.obj
 0001:0000547c       ??_C@_0DE@KHDLILEH@?5Total?5Wait?5for?5TA?5?5?5?5?5?5?5?5?5?5?5?5?5?5@ 1000647c     metrics.obj
 0001:000054b0       ??_C@_0DE@JGJLKLEP@?5Total?5Wait?5for?53D?5?5?5?5?5?5?5?5?5?5?5?5?5?5@ 100064b0     metrics.obj
 0001:000054e4       ??_C@_0DI@EONHANDI@?5Total?5Renders?5?5?5?5?5?5?5?5?5?5?5?5?5?5?5?5?5?5@ 100064e4     metrics.obj
 0001:0000551c       ??_C@_0DG@JDPCEHDC@?5?5?5BufferData?5kick?5?3?5?5?5?5?5?5?5?5?5?5?5?5@ 1000651c     metrics.obj
 0001:00005554       ??_C@_0DG@DCHGHIOC@?5?5?5FlushAttachable?5kick?5?3?5?5?5?5?5?5?5@ 10006554     metrics.obj
 0001:0000558c       ??_C@_0DG@IONJKGNJ@?5?5?5BindFramebuffer?5kick?5?3?5?5?5?5?5?5?5@ 1000658c     metrics.obj
 0001:000055c4       ??_C@_0CE@HJHPOOGB@?5?5?5?$CFs?5kick?5limit?3?5?5?5?5?5?$CF10d?1?5?5?5?5?5@ 100065c4     metrics.obj
 0001:000055e8       ??_C@_0DE@OCOHBBBF@?5Total?5SGXKickTA?5?5?5?5?5?5?5?5?5?5?5?5?5?5?5?5@ 100065e8     metrics.obj
 0001:0000561c       ??_C@_0DE@KMCDFDBO@?5Total?5Prepare?5to?5draw?5?5?5?5?5?5?5?5?5?5@ 1000661c     metrics.obj
 0001:00005650       ??_C@_0EH@PJNKLEBF@?6?5?5?5?5?5?5?5?5?5?5?5?5Statistics?5per?5prof@ 10006650     metrics.obj
 0001:00005698       ??_C@_0DM@MBDMEFDE@?5Estimated?5FPS?5?5?5?5?5?5?5?5?5?5?5?5?5?5?5?5?5?5@ 10006698     metrics.obj
 0001:000056d4       ??_C@_0DM@CBHHBMND@?5Average?5Driver?5Time?5per?5Profile@ 100066d4     metrics.obj
 0001:00005710       ??_C@_0DM@HBGGAKON@?5Average?5Elapsed?5Time?5per?5Profil@ 10006710     metrics.obj
 0001:0000574c       ??_C@_0DG@FFGHIIAF@?5Profiled?5Frames?5?5?5?5?5?5?5?5?5?5?5?5?5?5?5?5@ 1000674c     metrics.obj
 0001:00005784       ??_C@_0DF@PMHFBKAL@?5Total?5Frames?5?5?5?5?5?5?5?5?5?5?5?5?5?5?5?5?5?5?5@ 10006784     metrics.obj
 0001:000057bc       ??_C@_0CN@JJJINHEC@Profiled?5frames?3?50?5?9?9?9?5no?5metric@ 100067bc     metrics.obj
 0001:000057ec       ??_C@_0CB@OIILBJPD@Warning?3?5Timer?5?$CFd?5in?5ON?5position@ 100067ec     metrics.obj
 0001:00005810       ??_C@_0CG@IKNGPLBF@GL_IMG_multisampled_render_to_te@ 10006810     misc.obj
 0001:00005838       ??_C@_0BH@FPLDHBDI@GL_IMG_program_binary?5?$AA@ 10006838     misc.obj
 0001:00005850       ??_C@_0BE@FHJHAHOC@GL_IMG_read_format?5?$AA@ 10006850     misc.obj
 0001:00005864       ??_C@_0CA@LDGOBLLP@GL_IMG_texture_format_BGRA8888?5?$AA@ 10006864     misc.obj
 0001:00005884       ??_C@_0BF@LNBCDGHP@GL_IMG_texture_npot?5?$AA@ 10006884     misc.obj
 0001:0000589c       ??_C@_0BI@CMPKADHK@GL_IMG_texture_stream2?5?$AA@ 1000689c     misc.obj
 0001:000058b4       ??_C@_0CC@OEOIKDCE@GL_IMG_texture_compression_pvrtc@ 100068b4     misc.obj
 0001:000058d8       ??_C@_0BG@EIJOAFHK@GL_IMG_shader_binary?5?$AA@ 100068d8     misc.obj
 0001:000058f0       ??_C@_0BL@FLFJALMG@GL_EXT_shader_texture_lod?5?$AA@ 100068f0     misc.obj
 0001:0000590c       ??_C@_0BM@KLOAFAHB@GL_EXT_discard_framebuffer?5?$AA@ 1000690c     misc.obj
 0001:00005928       ??_C@_0CA@LLABOCOD@GL_EXT_texture_format_BGRA8888?5?$AA@ 10006928     misc.obj
 0001:00005948       ??_C@_0BK@HNCIMGED@GL_EXT_multi_draw_arrays?5?$AA@ 10006948     misc.obj
 0001:00005964       ??_C@_0BB@CPCIPGAI@GL_OES_egl_sync?5?$AA@ 10006964     misc.obj
 0001:00005978       ??_C@_0BM@HMLBDPKO@GL_OES_vertex_array_object?5?$AA@ 10006978     misc.obj
 0001:00005994       ??_C@_0BN@GFHIMELP@GL_OES_standard_derivatives?5?$AA@ 10006994     misc.obj
 0001:000059b4       ??_C@_0BN@IPJAGHEM@GL_OES_packed_depth_stencil?5?$AA@ 100069b4     misc.obj
 0001:000059d4       ??_C@_0BL@BFGJNMLG@GL_OES_get_program_binary?5?$AA@ 100069d4     misc.obj
 0001:000059f0       ??_C@_0BG@DDLEGBKL@GL_OES_depth_texture?5?$AA@ 100069f0     misc.obj
 0001:00005a08       ??_C@_0CA@KKMJMEGI@GL_OES_required_internalformat?5?$AA@ 10006a08     misc.obj
 0001:00005a28       ??_C@_0BC@PAMKEGGC@GL_OES_EGL_image?5?$AA@ 10006a28     misc.obj
 0001:00005a3c       ??_C@_0CF@IJGGPEFF@GL_OES_compressed_ETC1_RGB8_text@ 10006a3c     misc.obj
 0001:00005a64       ??_C@_0CA@BJNHKODC@GL_OES_fragment_precision_high?5?$AA@ 10006a64     misc.obj
 0001:00005a84       ??_C@_0BC@JDOCIJBK@GL_OES_mapbuffer?5?$AA@ 10006a84     misc.obj
 0001:00005a98       ??_C@_0BL@EKJGK@GL_OES_element_index_uint?5?$AA@ 10006a98     misc.obj
 0001:00005ab4       ??_C@_0BL@PDLBAGFL@GL_OES_texture_half_float?5?$AA@ 10006ab4     misc.obj
 0001:00005ad0       ??_C@_0BG@PANOOMNC@GL_OES_texture_float?5?$AA@ 10006ad0     misc.obj
 0001:00005ae8       ??_C@_0BK@MAHJLLBG@GL_OES_vertex_half_float?5?$AA@ 10006ae8     misc.obj
 0001:00005b04       ??_C@_0BA@FPFHBIK@GL_OES_depth24?5?$AA@ 10006b04     misc.obj
 0001:00005b14       ??_C@_0BD@OIKJNOON@GL_OES_rgb8_rgba8?5?$AA@ 10006b14     misc.obj
 0001:00005d80       __real@3f000000            10006d80     misc.obj
 0001:00005d84       __real@437f0000            10006d84     misc.obj
 0001:00005d88       __real@47ffe000            10006d88     misc.obj
 0001:00005d90       ??_C@_0FD@MKJPKAKD@c?3?2data?2jatin?2powervr_build?2ddk1@ 10006d90     misc.obj
 0001:00005de4       ??_C@_0BF@JLMGKHEC@BuildExtensionString?$AA@ 10006de4     misc.obj
 0001:00005dfc       ??_C@_0BK@HMHKFPDA@EnableVaryingPrecisionOpt?$AA@ 10006dfc     misc.obj
 0001:00005e18       ??_C@_0BD@EALCLPCO@AllowTrilinearNPOT?$AA@ 10006e18     misc.obj
 0001:00005e2c       ??_C@_0BE@FLFPJHNL@InitialiseVSOutputs?$AA@ 10006e2c     misc.obj
 0001:00005e40       ??_C@_0BC@DBFGKKHD@OverloadTexLayout?$AA@ 10006e40     misc.obj
 0001:00005e54       ??_C@_0BD@IJHFDLDM@DumpShaderAnalysis?$AA@ 10006e54     misc.obj
 0001:00005e68       ??_C@_0O@EPDJKEBB@DumpUSPOutput?$AA@ 10006e68     misc.obj
 0001:00005e78       ??_C@_0BF@INKPIHNJ@DisableMetricsOutput?$AA@ 10006e78     misc.obj
 0001:00005e90       ??_C@_0BG@OKANBFIO@EnableMemorySpeedTest?$AA@ 10006e90     misc.obj
 0001:00005ea8       ??_C@_0BA@HGPCCFOD@ProfileEndFrame?$AA@ 10006ea8     misc.obj
 0001:00005eb8       ??_C@_0BC@EPKGFFNK@ProfileStartFrame?$AA@ 10006eb8     misc.obj
 0001:00005ecc       ??_C@_0BA@BCNPAIIG@DumpProfileData?$AA@ 10006ecc     misc.obj
 0001:00005edc       ??_C@_0BA@FMCJLEC@KickTAThreshold?$AA@ 10006edc     misc.obj
 0001:00005eec       ??_C@_0L@CDGAGNFA@KickTAMode?$AA@ 10006eec     misc.obj
 0001:00005ef8       ??_C@_0BI@LGOIAELG@PolygonFactorMultiplier?$AA@ 10006ef8     misc.obj
 0001:00005f10       ??_C@_0BH@KDGMFCIE@PolygonUnitsMultiplier?$AA@ 10006f10     misc.obj
 0001:00005f28       __real@c1800000            10006f28     misc.obj
 0001:00005f2c       ??_C@_0BO@DPALACCM@StrictBinaryVersionComparison?$AA@ 10006f2c     misc.obj
 0001:00005f4c       ??_C@_0BP@CNJFMOH@DefaultPregenMTECopyBufferSize?$AA@ 10006f4c     misc.obj
 0001:00005f6c       ??_C@_0BF@GMGALNEL@DefaultVDMBufferSize?$AA@ 10006f6c     misc.obj
 0001:00005f84       ??_C@_0BJ@FDELEOJK@DefaultPDSVertBufferSize?$AA@ 10006f84     misc.obj
 0001:00005fa0       ??_C@_0BH@EMCDMDFL@DefaultIndexBufferSize?$AA@ 10006fa0     misc.obj
 0001:00005fb8       ??_C@_0BE@JDMADPED@MaxVertexBufferSize?$AA@ 10006fb8     misc.obj
 0001:00005fcc       ??_C@_0BI@GMOOJAHB@DefaultVertexBufferSize?$AA@ 10006fcc     misc.obj
 0001:00005fe4       ??_C@_0BF@LKOMAPLC@DumpCompilerLogFiles?$AA@ 10006fe4     misc.obj
 0001:00005ffc       ??_C@_0BG@HOCAEBHA@AdjustShaderPrecision?$AA@ 10006ffc     misc.obj
 0001:00006014       ??_C@_0BE@CJIJABHD@EnableStaticMTECopy?$AA@ 10007014     misc.obj
 0001:00006028       ??_C@_0P@LPEGOECO@FlushBehaviour?$AA@ 10007028     misc.obj
 0001:00006038       ??_C@_0BH@EMEDPOLF@DisableHWTextureUpload?$AA@ 10007038     misc.obj
 0001:00006050       ??_C@_0BC@LONHONOF@DisableHWTQMipGen?$AA@ 10007050     misc.obj
 0001:00006064       ??_C@_0BG@MNNFDOBG@DisableHWTQBufferBlit?$AA@ 10007064     misc.obj
 0001:0000607c       ??_C@_0BG@JGJGPFCD@DisableHWTQNormalBlit?$AA@ 1000707c     misc.obj
 0001:00006094       ??_C@_0BJ@CAHNBNBG@DisableHWTQTextureUpload?$AA@ 10007094     misc.obj
 0001:000060b0       ??_C@_0BE@CONEIBKK@OptimisedValidation?$AA@ 100070b0     misc.obj
 0001:000060c4       ??_C@_0BA@FKGCDPP@FBODepthDiscard?$AA@ 100070c4     misc.obj
 0001:000060d4       ??_C@_0BE@NCEPNDKE@ExternalZBufferMode?$AA@ 100070d4     misc.obj
 0001:000060e8       ??_C@_08DFCPOKBK@glFinish?$AA@ 100070e8     misc.obj
 0001:000060f4       ??_C@_07COFELLJA@glFlush?$AA@ 100070f4     misc.obj
 0001:000060fc       ??_C@_06HEADGMBC@glHint?$AA@ 100070fc     misc.obj
 0001:00006104       __real@37800000            10007104     misc.obj
 0001:00006108       __real@4efffff7            10007108     misc.obj
 0001:0000610c       __real@0000000000000000    1000710c     misc.obj
 0001:00006114       __real@47800000            10007114     misc.obj
 0001:00006280       ??_C@_0CE@HECFBCPO@CreateNamesArray?3?5Invalid?5name?5t@ 10007280     names.obj
 0001:000062a8       ??_C@_0FE@ELBMEDLF@c?3?2data?2jatin?2powervr_build?2ddk1@ 100072a8     names.obj
 0001:000065cc       ??_C@_0DA@LIPENGKB@GetStridedSurfaceData?3?5Unsupport@ 100075cc     pixelop.obj
 0001:00006600       ??_C@_0FG@GJDPEHIP@c?3?2data?2jatin?2powervr_build?2ddk1@ 10007600     pixelop.obj
 0001:00006658       ??_C@_0O@JCCIGLOF@glPixelStorei?$AA@ 10007658     pixelop.obj
 0001:00006668       ??_C@_0BF@BGLAILLL@Unknown?5pixel?5format?$AA@ 10007668     pixelop.obj
 0001:00006680       __real@3a83126f            10007680     pixelop.obj
 0001:00006684       ??_C@_0CJ@KEJMLFLO@glReadPixels?3?5Failed?5to?5get?5stri@ 10007684     pixelop.obj
 0001:000066b0       ??_C@_0CA@NMCOODBC@glReadPixels?3?5Couldn?8t?5flush?5HW?$AA@ 100076b0     pixelop.obj
 0001:000066d0       ??_C@_0CB@ELLDLIOP@glReadPixels?3?5Surface?5is?5invalid@ 100076d0     pixelop.obj
 0001:000066f4       ??_C@_0N@CKFNNHOO@glReadPixels?$AA@ 100076f4     pixelop.obj
 0001:00006704       ??_C@_0M@NBFOMGAB@DITHER?5?5?5?5?5?$AA@ 10007704     profile.obj
 0001:00006710       ??_C@_0M@GCJIFGAP@DEPTHTEST?5?5?$AA@ 10007710     profile.obj
 0001:0000671c       ??_C@_0M@LGAEPNLF@STENCILTEST?$AA@ 1000771c     profile.obj
 0001:00006728       ??_C@_0M@NBPNKFEJ@MSSAMPCOV?5?5?$AA@ 10007728     profile.obj
 0001:00006734       ??_C@_0M@MENMOBDA@MSSAMPALPHA?$AA@ 10007734     profile.obj
 0001:00006740       ??_C@_0M@EFDDKFGF@MSALPHACOV?5?$AA@ 10007740     profile.obj
 0001:0000674c       ??_C@_0M@GIBGPLMN@ALPHABLEND?5?$AA@ 1000774c     profile.obj
 0001:00006758       ??_C@_0M@ENIDCFGK@SCISSOR?5?5?5?5?$AA@ 10007758     profile.obj
 0001:00006764       ??_C@_0M@IELJFIBP@POLYOFFSET?5?$AA@ 10007764     profile.obj
 0001:00006770       ??_C@_0M@GPLEONOL@CULLFACE?5?5?5?$AA@ 10007770     profile.obj
 0001:0000677c       ??_C@_0M@BBLIDCNP@POINTSIZE?5?5?$AA@ 1000777c     profile.obj
 0001:00006788       ??_C@_0BM@IPPLPAPB@DrawArrays?5?5?5?$CIV?5VBO?$CJ?5?5?5?5?5?5?5?$AA@ 10007788     profile.obj
 0001:000067a4       ??_C@_0BM@BNFPCGMO@DrawArrays?5?5?5?5?5?5?5?5?5?5?5?5?5?5?5?5?5?$AA@ 100077a4     profile.obj
 0001:000067c0       ??_C@_0BM@KNLOAKG@DrawElements?5?$CIV?5and?5I?5VBO?$CJ?5?$AA@ 100077c0     profile.obj
 0001:000067dc       ??_C@_0BM@FAGNEJGA@DrawElements?5?$CII?5VBO?$CJ?5?5?5?5?5?5?5?$AA@ 100077dc     profile.obj
 0001:000067f8       ??_C@_0BM@GAELMBPK@DrawElements?5?$CIV?5VBO?$CJ?5?5?5?5?5?5?5?$AA@ 100077f8     profile.obj
 0001:00006814       ??_C@_0BM@PCOPBHMF@DrawElements?5?5?5?5?5?5?5?5?5?5?5?5?5?5?5?$AA@ 10007814     profile.obj
 0001:00006830       ??_C@_0BG@NAIOCAK@GL_TRIANGLE_FAN?5?5?5?5?5?5?$AA@ 10007830     profile.obj
 0001:00006848       ??_C@_0BG@BEMAIPAL@GL_TRIANGLE_STRIP?5?5?5?5?$AA@ 10007848     profile.obj
 0001:00006860       ??_C@_0BG@FFJCCDJE@GL_TRIANGLES?5?5?5?5?5?5?5?5?5?$AA@ 10007860     profile.obj
 0001:00006878       ??_C@_0BG@MGLFIFGC@GL_LINE_STRIP?5?5?5?5?5?5?5?5?$AA@ 10007878     profile.obj
 0001:00006890       ??_C@_0BG@BEBIIHEF@GL_LINE_LOOP?5?5?5?5?5?5?5?5?5?$AA@ 10007890     profile.obj
 0001:000068a8       ??_C@_0BG@HKKCJOEE@GL_LINES?5?5?5?5?5?5?5?5?5?5?5?5?5?$AA@ 100078a8     profile.obj
 0001:000068c0       ??_C@_0BG@PABDMHNO@GL_POINTS?5?5?5?5?5?5?5?5?5?5?5?5?$AA@ 100078c0     profile.obj
 0001:000068d8       ??_C@_0CJ@GEPMHEDM@glDiscardFramebufferEXT?5?5?5?5?5?5?5?5?5@ 100078d8     profile.obj
 0001:00006904       ??_C@_0CJ@BNGFAAAF@glIsVertexArrayOES?5?5?5?5?5?5?5?5?5?5?5?5?5?5@ 10007904     profile.obj
 0001:00006930       ??_C@_0CJ@GFPMACAE@glGenVertexArraysOES?5?5?5?5?5?5?5?5?5?5?5?5@ 10007930     profile.obj
 0001:0000695c       ??_C@_0CJ@LKILJGJI@glDeleteVertexArraysOES?5?5?5?5?5?5?5?5?5@ 1000795c     profile.obj
 0001:00006988       ??_C@_0CJ@JGFGPKEP@glBindVertexArrayOES?5?5?5?5?5?5?5?5?5?5?5?5@ 10007988     profile.obj
 0001:000069b4       ??_C@_0CJ@PICDNKE@glProgramBinaryOES?5?5?5?5?5?5?5?5?5?5?5?5?5?5@ 100079b4     profile.obj
 0001:000069e0       ??_C@_0CJ@CKJKPDBH@glGetProgramBinaryOES?5?5?5?5?5?5?5?5?5?5?5@ 100079e0     profile.obj
 0001:00006a0c       ??_C@_0CE@BIIKKAMO@glGetSupportedInternalFormatsOES@ 10007a0c     profile.obj
 0001:00006a30       ??_C@_0CJ@ONODBFKP@GLES2_TIMES_glTexUnbindStream?5?5?5@ 10007a30     profile.obj
 0001:00006a5c       ??_C@_0CH@OBNBNMAI@GLES2_TIMES_glGetTexStreamDevice@ 10007a5c     profile.obj
 0001:00006a84       ??_C@_0CA@DCNOPHKL@GLES2_TIMES_glTexBindStream?7?7?7?5?$AA@ 10007a84     profile.obj
 0001:00006aa4       ??_C@_0CG@NNNCMGGO@glGetTexStreamDeviceAttributeiv?7@ 10007aa4     profile.obj
 0001:00006acc       ??_C@_0CJ@DFFLNBAK@glMultiDrawElements?5?5?5?5?5?5?5?5?5?5?5?5?5@ 10007acc     profile.obj
 0001:00006af8       ??_C@_0CJ@HMBBGJPI@glMultiDrawArrays?5?5?5?5?5?5?5?5?5?5?5?5?5?5?5@ 10007af8     profile.obj
 0001:00006b24       ??_C@_0CJ@LOFKGODH@glEGLImageTargetRenderbufferStor@ 10007b24     profile.obj
 0001:00006b50       ??_C@_0CJ@MPKICJCA@glEGLImageTargetTexture2DOES?5?5?5?5@ 10007b50     profile.obj
 0001:00006b7c       ??_C@_0CJ@GDECFGMD@glViewport?5?5?5?5?5?5?5?5?5?5?5?5?5?5?5?5?5?5?5?5?5?5@ 10007b7c     profile.obj
 0001:00006ba8       ??_C@_0CJ@DLEHFICG@glVertexAttribPointer?5?5?5?5?5?5?5?5?5?5?5@ 10007ba8     profile.obj
 0001:00006bd4       ??_C@_0CJ@NGDKCNFF@glVertexAttrib4fv?5?5?5?5?5?5?5?5?5?5?5?5?5?5?5@ 10007bd4     profile.obj
 0001:00006c00       ??_C@_0CJ@EOPGLND@glVertexAttrib3fv?5?5?5?5?5?5?5?5?5?5?5?5?5?5?5@ 10007c00     profile.obj
 0001:00006c2c       ??_C@_0CJ@GKGDHAJC@glVertexAttrib2fv?5?5?5?5?5?5?5?5?5?5?5?5?5?5?5@ 10007c2c     profile.obj
 0001:00006c58       ??_C@_0CJ@NJPHFNFB@glVertexAttrib1fv?5?5?5?5?5?5?5?5?5?5?5?5?5?5?5@ 10007c58     profile.obj
 0001:00006c84       ??_C@_0CJ@FONLPNGE@glVertexAttrib4f?5?5?5?5?5?5?5?5?5?5?5?5?5?5?5?5@ 10007c84     profile.obj
 0001:00006cb0       ??_C@_0CJ@IMAOLLOC@glVertexAttrib3f?5?5?5?5?5?5?5?5?5?5?5?5?5?5?5?5@ 10007cb0     profile.obj
 0001:00006cdc       ??_C@_0CJ@OCICKAKD@glVertexAttrib2f?5?5?5?5?5?5?5?5?5?5?5?5?5?5?5?5@ 10007cdc     profile.obj
 0001:00006d08       ??_C@_0CJ@FBBGINGA@glVertexAttrib1f?5?5?5?5?5?5?5?5?5?5?5?5?5?5?5?5@ 10007d08     profile.obj
 0001:00006d34       ??_C@_0CJ@BHJFIDIB@glValidateProgram?5?5?5?5?5?5?5?5?5?5?5?5?5?5?5@ 10007d34     profile.obj
 0001:00006d60       ??_C@_0CJ@OCHDOGMG@glUseProgram?5?5?5?5?5?5?5?5?5?5?5?5?5?5?5?5?5?5?5?5@ 10007d60     profile.obj
 0001:00006d8c       ??_C@_0CJ@GPJEHGJL@glUnmapBufferOES?5?5?5?5?5?5?5?5?5?5?5?5?5?5?5?5@ 10007d8c     profile.obj
 0001:00006db8       ??_C@_0CJ@MCJGPNJO@glUniformMatrix4fv?5?5?5?5?5?5?5?5?5?5?5?5?5?5@ 10007db8     profile.obj
 0001:00006de4       ??_C@_0CJ@BKFFIGLI@glUniformMatrix3fv?5?5?5?5?5?5?5?5?5?5?5?5?5?5@ 10007de4     profile.obj
 0001:00006e10       ??_C@_0CJ@PNEICACP@glUniformMatrix2fv?5?5?5?5?5?5?5?5?5?5?5?5?5?5@ 10007e10     profile.obj
 0001:00006e3c       ??_C@_0CJ@CFMPABM@glUniform4fv?5?5?5?5?5?5?5?5?5?5?5?5?5?5?5?5?5?5?5?5@ 10007e3c     profile.obj
 0001:00006e68       ??_C@_0CJ@LKMJOCIJ@glUniform3fv?5?5?5?5?5?5?5?5?5?5?5?5?5?5?5?5?5?5?5?5@ 10007e68     profile.obj
 0001:00006e94       ??_C@_0CJ@ELBDOHCD@glUniform2fv?5?5?5?5?5?5?5?5?5?5?5?5?5?5?5?5?5?5?5?5@ 10007e94     profile.obj
 0001:00006ec0       ??_C@_0CJ@ICAMOPJM@glUniform1fv?5?5?5?5?5?5?5?5?5?5?5?5?5?5?5?5?5?5?5?5@ 10007ec0     profile.obj
 0001:00006eec       ??_C@_0CJ@FNNECMKD@glUniform4iv?5?5?5?5?5?5?5?5?5?5?5?5?5?5?5?5?5?5?5?5@ 10007eec     profile.obj
 0001:00006f18       ??_C@_0CJ@OFEBDODG@glUniform3iv?5?5?5?5?5?5?5?5?5?5?5?5?5?5?5?5?5?5?5?5@ 10007f18     profile.obj
 0001:00006f44       ??_C@_0CJ@BEJLDLJM@glUniform2iv?5?5?5?5?5?5?5?5?5?5?5?5?5?5?5?5?5?5?5?5@ 10007f44     profile.obj
 0001:00006f70       ??_C@_0CJ@NNIEDDCD@glUniform1iv?5?5?5?5?5?5?5?5?5?5?5?5?5?5?5?5?5?5?5?5@ 10007f70     profile.obj
 0001:00006f9c       ??_C@_0CJ@ODDDHAGH@glUniform4f?5?5?5?5?5?5?5?5?5?5?5?5?5?5?5?5?5?5?5?5?5@ 10007f9c     profile.obj
 0001:00006fc8       ??_C@_0CJ@FLKGGCPC@glUniform3f?5?5?5?5?5?5?5?5?5?5?5?5?5?5?5?5?5?5?5?5?5@ 10007fc8     profile.obj
 0001:00006ff4       ??_C@_0CJ@KKHMGHFI@glUniform2f?5?5?5?5?5?5?5?5?5?5?5?5?5?5?5?5?5?5?5?5?5@ 10007ff4     profile.obj
 0001:00007020       ??_C@_0CJ@GDGDGPOH@glUniform1f?5?5?5?5?5?5?5?5?5?5?5?5?5?5?5?5?5?5?5?5?5@ 10008020     profile.obj
 0001:0000704c       ??_C@_0CJ@LMLLKMNI@glUniform4i?5?5?5?5?5?5?5?5?5?5?5?5?5?5?5?5?5?5?5?5?5@ 1000804c     profile.obj
 0001:00007078       ??_C@_0CJ@ECOLOEN@glUniform3i?5?5?5?5?5?5?5?5?5?5?5?5?5?5?5?5?5?5?5?5?5@ 10008078     profile.obj
 0001:000070a4       ??_C@_0CJ@PFPELLOH@glUniform2i?5?5?5?5?5?5?5?5?5?5?5?5?5?5?5?5?5?5?5?5?5@ 100080a4     profile.obj
 0001:000070d0       ??_C@_0CJ@DMOLLDFI@glUniform1i?5?5?5?5?5?5?5?5?5?5?5?5?5?5?5?5?5?5?5?5?5@ 100080d0     profile.obj
 0001:000070fc       ??_C@_0CJ@GNEFGICI@glTexSubImage2D?5?5?5?5?5?5?5?5?5?5?5?5?5?5?5?5?5@ 100080fc     profile.obj
 0001:00007128       ??_C@_0CJ@LNHLOBLM@glTexParameterfv?5?5?5?5?5?5?5?5?5?5?5?5?5?5?5?5@ 10008128     profile.obj
 0001:00007154       ??_C@_0CJ@KNCMHBLA@glTexParameteriv?5?5?5?5?5?5?5?5?5?5?5?5?5?5?5?5@ 10008154     profile.obj
 0001:00007180       ??_C@_0CJ@OMCNAAFG@glTexParameterf?5?5?5?5?5?5?5?5?5?5?5?5?5?5?5?5?5@ 10008180     profile.obj
 0001:000071ac       ??_C@_0CJ@PMHKJAFK@glTexParameteri?5?5?5?5?5?5?5?5?5?5?5?5?5?5?5?5?5@ 100081ac     profile.obj
 0001:000071d8       ??_C@_0CJ@MGOEDNCI@glTexImage2D?5?5?5?5?5?5?5?5?5?5?5?5?5?5?5?5?5?5?5?5@ 100081d8     profile.obj
 0001:00007204       ??_C@_0CJ@BCPEDMEN@glStencilOpSeparate?5?5?5?5?5?5?5?5?5?5?5?5?5@ 10008204     profile.obj
 0001:00007230       ??_C@_0CJ@OMEHDNJP@glStencilOp?5?5?5?5?5?5?5?5?5?5?5?5?5?5?5?5?5?5?5?5?5@ 10008230     profile.obj
 0001:0000725c       ??_C@_0CJ@KCBMHOJK@glStencilMaskSeparate?5?5?5?5?5?5?5?5?5?5?5@ 1000825c     profile.obj
 0001:00007288       ??_C@_0CJ@GFPCCKAB@glStencilMask?5?5?5?5?5?5?5?5?5?5?5?5?5?5?5?5?5?5?5@ 10008288     profile.obj
 0001:000072b4       ??_C@_0CJ@HGFDOEKM@glStencilFuncSeparate?5?5?5?5?5?5?5?5?5?5?5@ 100082b4     profile.obj
 0001:000072e0       ??_C@_0CJ@LBLNLADH@glStencilFunc?5?5?5?5?5?5?5?5?5?5?5?5?5?5?5?5?5?5?5@ 100082e0     profile.obj
 0001:0000730c       ??_C@_0CJ@NKFFGOLH@glShaderSource?5?5?5?5?5?5?5?5?5?5?5?5?5?5?5?5?5?5@ 1000830c     profile.obj
 0001:00007338       ??_C@_0CJ@DHOPJIFF@glShaderBinary?5?5?5?5?5?5?5?5?5?5?5?5?5?5?5?5?5?5@ 10008338     profile.obj
 0001:00007364       ??_C@_0CJ@KDFPCALE@glScissor?5?5?5?5?5?5?5?5?5?5?5?5?5?5?5?5?5?5?5?5?5?5?5@ 10008364     profile.obj
 0001:00007390       ??_C@_0CJ@MBKKAFHC@glSampleCoverage?5?5?5?5?5?5?5?5?5?5?5?5?5?5?5?5@ 10008390     profile.obj
 0001:000073bc       ??_C@_0CJ@IIOJCAGN@glRenderbufferStorage?5?5?5?5?5?5?5?5?5?5?5@ 100083bc     profile.obj
 0001:000073e8       ??_C@_0CJ@GMGEBCAM@glReleaseShaderCompiler?5?5?5?5?5?5?5?5?5@ 100083e8     profile.obj
 0001:00007414       ??_C@_0CJ@EDHKKBOF@glReadPixels?5?5?5?5?5?5?5?5?5?5?5?5?5?5?5?5?5?5?5?5@ 10008414     profile.obj
 0001:00007440       ??_C@_0CJ@FEGFPJEB@glPolygonOffset?5?5?5?5?5?5?5?5?5?5?5?5?5?5?5?5?5@ 10008440     profile.obj
 0001:0000746c       ??_C@_0CJ@ECOEKMGI@glPixelStorei?5?5?5?5?5?5?5?5?5?5?5?5?5?5?5?5?5?5?5@ 1000846c     profile.obj
 0001:00007498       ??_C@_0CJ@NICCDOGD@glMapBufferOES?5?5?5?5?5?5?5?5?5?5?5?5?5?5?5?5?5?5@ 10008498     profile.obj
 0001:000074c4       ??_C@_0CJ@LALNKNGO@glLinkProgram?5?5?5?5?5?5?5?5?5?5?5?5?5?5?5?5?5?5?5@ 100084c4     profile.obj
 0001:000074f0       ??_C@_0CJ@BCFIPKGO@glLineWidth?5?5?5?5?5?5?5?5?5?5?5?5?5?5?5?5?5?5?5?5?5@ 100084f0     profile.obj
 0001:0000751c       ??_C@_0CJ@BNDADGN@glIsTexture?5?5?5?5?5?5?5?5?5?5?5?5?5?5?5?5?5?5?5?5?5@ 1000851c     profile.obj
 0001:00007548       ??_C@_0CJ@GEFNMMFO@glIsShader?5?5?5?5?5?5?5?5?5?5?5?5?5?5?5?5?5?5?5?5?5?5@ 10008548     profile.obj
 0001:00007574       ??_C@_0BI@MHEHJLNH@glIsRenderbuffer?7?7?7?7?7?7?5?$AA@ 10008574     profile.obj
 0001:0000758c       ??_C@_0CJ@PFFGAFOJ@glIsProgram?5?5?5?5?5?5?5?5?5?5?5?5?5?5?5?5?5?5?5?5?5@ 1000858c     profile.obj
 0001:000075b8       ??_C@_0BH@MHKJDLFI@glIsFramebuffer?7?7?7?7?7?7?5?$AA@ 100085b8     profile.obj
 0001:000075d0       ??_C@_0CJ@GLDCAJLL@glIsEnabled?5?5?5?5?5?5?5?5?5?5?5?5?5?5?5?5?5?5?5?5?5@ 100085d0     profile.obj
 0001:000075fc       ??_C@_0CJ@PABNBHFL@glIsBuffer?5?5?5?5?5?5?5?5?5?5?5?5?5?5?5?5?5?5?5?5?5?5@ 100085fc     profile.obj
 0001:00007628       ??_C@_0CJ@JGEPJKKJ@glHint?5?5?5?5?5?5?5?5?5?5?5?5?5?5?5?5?5?5?5?5?5?5?5?5?5?5@ 10008628     profile.obj
 0001:00007654       ??_C@_0CJ@FJGNHMID@glGetVertexAttribPointerv?5?5?5?5?5?5?5@ 10008654     profile.obj
 0001:00007680       ??_C@_0CJ@MGMDCGCH@glGetVertexAttribiv?5?5?5?5?5?5?5?5?5?5?5?5?5@ 10008680     profile.obj
 0001:000076ac       ??_C@_0CJ@CFNGCNOO@glGetVertexAttribfv?5?5?5?5?5?5?5?5?5?5?5?5?5@ 100086ac     profile.obj
 0001:000076d8       ??_C@_0CJ@FOEHANLN@glGetUniformLocation?5?5?5?5?5?5?5?5?5?5?5?5@ 100086d8     profile.obj
 0001:00007704       ??_C@_0CJ@IGDOOBPL@glGetUniformiv?5?5?5?5?5?5?5?5?5?5?5?5?5?5?5?5?5?5@ 10008704     profile.obj
 0001:00007730       ??_C@_0CJ@NKIECNOE@glGetUniformfv?5?5?5?5?5?5?5?5?5?5?5?5?5?5?5?5?5?5@ 10008730     profile.obj
 0001:0000775c       ??_C@_0CJ@OBKEGEHA@glGetTexParameterfv?5?5?5?5?5?5?5?5?5?5?5?5?5@ 1000875c     profile.obj
 0001:00007788       ??_C@_0CJ@CLBGPLJ@glGetTexParameteriv?5?5?5?5?5?5?5?5?5?5?5?5?5@ 10008788     profile.obj
 0001:000077b4       ??_C@_0CJ@NKBJDCFA@glGetString?5?5?5?5?5?5?5?5?5?5?5?5?5?5?5?5?5?5?5?5?5@ 100087b4     profile.obj
 0001:000077e0       ??_C@_0CJ@ILJIMBLO@glGetShaderSource?5?5?5?5?5?5?5?5?5?5?5?5?5?5?5@ 100087e0     profile.obj
 0001:0000780c       ??_C@_0CJ@PFKNJMCM@glGetShaderPrecisionFormat?5?5?5?5?5?5@ 1000880c     profile.obj
 0001:00007838       ??_C@_0CJ@PLOILJKG@glGetShaderInfoLog?5?5?5?5?5?5?5?5?5?5?5?5?5?5@ 10008838     profile.obj
 0001:00007864       ??_C@_0CJ@JCBDKOMG@glGetShaderiv?5?5?5?5?5?5?5?5?5?5?5?5?5?5?5?5?5?5?5@ 10008864     profile.obj
 0001:00007890       ??_C@_0CB@BIOIENGG@glGetRenderbufferParameteriv?7?7?7?5@ 10008890     profile.obj
 0001:000078b4       ??_C@_0CJ@LFFKMCJP@glGetProgramInfoLog?5?5?5?5?5?5?5?5?5?5?5?5?5@ 100088b4     profile.obj
 0001:000078e0       ??_C@_0CJ@EIIPFMAM@glGetProgramiv?5?5?5?5?5?5?5?5?5?5?5?5?5?5?5?5?5?5@ 100088e0     profile.obj
 0001:0000790c       ??_C@_0CJ@GJENCJDL@glGetIntegerv?5?5?5?5?5?5?5?5?5?5?5?5?5?5?5?5?5?5?5@ 1000890c     profile.obj
 0001:00007938       ??_C@_0CI@IGOHGOOH@glGetFramebufferAttachmentParame@ 10008938     profile.obj
 0001:00007960       ??_C@_0CJ@DFGNAJEM@glGetFloatv?5?5?5?5?5?5?5?5?5?5?5?5?5?5?5?5?5?5?5?5?5@ 10008960     profile.obj
 0001:0000798c       ??_C@_0CJ@CAAIFNML@glGetError?5?5?5?5?5?5?5?5?5?5?5?5?5?5?5?5?5?5?5?5?5?5@ 1000898c     profile.obj
 0001:000079b8       ??_C@_0CJ@NAMGKJM@glGetBufferPointervOES?5?5?5?5?5?5?5?5?5?5@ 100089b8     profile.obj
 0001:000079e4       ??_C@_0CJ@KLBDENIF@glGetBufferParameteriv?5?5?5?5?5?5?5?5?5?5@ 100089e4     profile.obj
 0001:00007a10       ??_C@_0CJ@OFJEIAHD@glGetBooleanv?5?5?5?5?5?5?5?5?5?5?5?5?5?5?5?5?5?5?5@ 10008a10     profile.obj
 0001:00007a3c       ??_C@_0CJ@JALJIGOP@glGetAttribLocation?5?5?5?5?5?5?5?5?5?5?5?5?5@ 10008a3c     profile.obj
 0001:00007a68       ??_C@_0CJ@IJDGHMKG@glGetAttachedShaders?5?5?5?5?5?5?5?5?5?5?5?5@ 10008a68     profile.obj
 0001:00007a94       ??_C@_0CJ@OKOPHPNA@glGetActiveUniform?5?5?5?5?5?5?5?5?5?5?5?5?5?5@ 10008a94     profile.obj
 0001:00007ac0       ??_C@_0CJ@NAAHACPA@glGetActiveAttrib?5?5?5?5?5?5?5?5?5?5?5?5?5?5?5@ 10008ac0     profile.obj
 0001:00007aec       ??_C@_0CJ@OALADCJH@glGenTextures?5?5?5?5?5?5?5?5?5?5?5?5?5?5?5?5?5?5?5@ 10008aec     profile.obj
 0001:00007b18       ??_C@_0CJ@DKIFHAFK@glGenRenderbuffers?5?5?5?5?5?5?5?5?5?5?5?5?5?5@ 10008b18     profile.obj
 0001:00007b44       ??_C@_0CJ@JIILAFEI@glGenFramebuffers?5?5?5?5?5?5?5?5?5?5?5?5?5?5?5@ 10008b44     profile.obj
 0001:00007b70       ??_C@_0BL@KECJMNDP@glGenerateMipmap?7?7?7?7?7?5?5?5?5?5?$AA@ 10008b70     profile.obj
 0001:00007b8c       ??_C@_0CJ@IDLLHBKL@glGenBuffers?5?5?5?5?5?5?5?5?5?5?5?5?5?5?5?5?5?5?5?5@ 10008b8c     profile.obj
 0001:00007bb8       ??_C@_0CJ@BIAOHBAA@glFrontFace?5?5?5?5?5?5?5?5?5?5?5?5?5?5?5?5?5?5?5?5?5@ 10008bb8     profile.obj
 0001:00007be4       ??_C@_0CJ@GDMEKDGO@glFramebufferTexture3DOES?5?5?5?5?5?5?5@ 10008be4     profile.obj
 0001:00007c10       ??_C@_0CJ@OABCBAEC@glFramebufferTexture2D?5?5?5?5?5?5?5?5?5?5@ 10008c10     profile.obj
 0001:00007c3c       ??_C@_0CJ@GPDLIJAK@glFramebufferRenderbuffer?5?5?5?5?5?5?5@ 10008c3c     profile.obj
 0001:00007c68       ??_C@_0CJ@LDHNKJJO@glFlush?5?5?5?5?5?5?5?5?5?5?5?5?5?5?5?5?5?5?5?5?5?5?5?5?5@ 10008c68     profile.obj
 0001:00007c94       ??_C@_0CJ@IGBICJKH@glFinish?5?5?5?5?5?5?5?5?5?5?5?5?5?5?5?5?5?5?5?5?5?5?5?5@ 10008c94     profile.obj
 0001:00007cc0       ??_C@_0CJ@GOPFJLGC@glEnableVertexAttribArray?5?5?5?5?5?5?5@ 10008cc0     profile.obj
 0001:00007cec       ??_C@_0CJ@HABBNEOL@glEnable?5?5?5?5?5?5?5?5?5?5?5?5?5?5?5?5?5?5?5?5?5?5?5?5@ 10008cec     profile.obj
 0001:00007d18       ??_C@_0CJ@PPPFKO@glDrawElements?5?5?5?5?5?5?5?5?5?5?5?5?5?5?5?5?5?5@ 10008d18     profile.obj
 0001:00007d44       ??_C@_0CJ@LGHLGMLM@glDrawArrays?5?5?5?5?5?5?5?5?5?5?5?5?5?5?5?5?5?5?5?5@ 10008d44     profile.obj
 0001:00007d70       ??_C@_0CJ@PALFBIAE@glDisableVertexAttribArray?5?5?5?5?5?5@ 10008d70     profile.obj
 0001:00007d9c       ??_C@_0CJ@BFAIPJJG@glDisable?5?5?5?5?5?5?5?5?5?5?5?5?5?5?5?5?5?5?5?5?5?5?5@ 10008d9c     profile.obj
 0001:00007dc8       ??_C@_0CJ@DKMMOKNI@glDepthRangef?5?5?5?5?5?5?5?5?5?5?5?5?5?5?5?5?5?5?5@ 10008dc8     profile.obj
 0001:00007df4       ??_C@_0CJ@BPNJBMNG@glDepthMask?5?5?5?5?5?5?5?5?5?5?5?5?5?5?5?5?5?5?5?5?5@ 10008df4     profile.obj
 0001:00007e20       ??_C@_0CJ@IGBPCDLG@glDepthFunc?5?5?5?5?5?5?5?5?5?5?5?5?5?5?5?5?5?5?5?5?5@ 10008e20     profile.obj
 0001:00007e4c       ??_C@_0CJ@NOCAGIDL@glDetachShader?5?5?5?5?5?5?5?5?5?5?5?5?5?5?5?5?5?5@ 10008e4c     profile.obj
 0001:00007e78       ??_C@_0CJ@OOBLDDHB@glDeleteTextures?5?5?5?5?5?5?5?5?5?5?5?5?5?5?5?5@ 10008e78     profile.obj
 0001:00007ea4       ??_C@_0CJ@FNLBHCIA@glDeleteShader?5?5?5?5?5?5?5?5?5?5?5?5?5?5?5?5?5?5@ 10008ea4     profile.obj
 0001:00007ed0       ??_C@_0CJ@NKDFPEKI@glDeleteRenderbuffers?5?5?5?5?5?5?5?5?5?5?5@ 10008ed0     profile.obj
 0001:00007efc       ??_C@_0CJ@NHCDNKJP@glDeleteProgram?5?5?5?5?5?5?5?5?5?5?5?5?5?5?5?5?5@ 10008efc     profile.obj
 0001:00007f28       ??_C@_0CJ@BFHLGNGL@glDeleteFramebuffers?5?5?5?5?5?5?5?5?5?5?5?5@ 10008f28     profile.obj
 0001:00007f54       ??_C@_0CJ@NDKANFFI@glDeleteBuffers?5?5?5?5?5?5?5?5?5?5?5?5?5?5?5?5?5@ 10008f54     profile.obj
 0001:00007f80       ??_C@_0CJ@DEBBBLCN@glCullFace?5?5?5?5?5?5?5?5?5?5?5?5?5?5?5?5?5?5?5?5?5?5@ 10008f80     profile.obj
 0001:00007fac       ??_C@_0CJ@KIJDKKCJ@glCreateShader?5?5?5?5?5?5?5?5?5?5?5?5?5?5?5?5?5?5@ 10008fac     profile.obj
 0001:00007fd8       ??_C@_0CJ@CCABACDG@glCreateProgram?5?5?5?5?5?5?5?5?5?5?5?5?5?5?5?5?5@ 10008fd8     profile.obj
 0001:00008004       ??_C@_0CJ@FJABKENI@glCopyTexSubImage2D?5?5?5?5?5?5?5?5?5?5?5?5?5@ 10009004     profile.obj
 0001:00008030       ??_C@_0CJ@NAGCMKKH@glCopyTexImage2D?5?5?5?5?5?5?5?5?5?5?5?5?5?5?5?5@ 10009030     profile.obj
 0001:0000805c       ??_C@_0CJ@HMCBBPEK@glCompressedTexSubImage2D?5?5?5?5?5?5?5@ 1000905c     profile.obj
 0001:00008088       ??_C@_0CJ@MFJBMCCD@glCompressedTexImage2D?5?5?5?5?5?5?5?5?5?5@ 10009088     profile.obj
 0001:000080b4       ??_C@_0CJ@COPDCEFG@glCompileShader?5?5?5?5?5?5?5?5?5?5?5?5?5?5?5?5?5@ 100090b4     profile.obj
 0001:000080e0       ??_C@_0CJ@LOCMOMLE@glColorMask?5?5?5?5?5?5?5?5?5?5?5?5?5?5?5?5?5?5?5?5?5@ 100090e0     profile.obj
 0001:0000810c       ??_C@_0CJ@MDLKCIJE@glClearStencil?5?5?5?5?5?5?5?5?5?5?5?5?5?5?5?5?5?5@ 1000910c     profile.obj
 0001:00008138       ??_C@_0CJ@KJFHNCHN@glClearDepthf?5?5?5?5?5?5?5?5?5?5?5?5?5?5?5?5?5?5?5@ 10009138     profile.obj
 0001:00008164       ??_C@_0CJ@IFPNHNOB@glClearColor?5?5?5?5?5?5?5?5?5?5?5?5?5?5?5?5?5?5?5?5@ 10009164     profile.obj
 0001:00008190       ??_C@_0CJ@KPLONHMH@glClear?5?5?5?5?5?5?5?5?5?5?5?5?5?5?5?5?5?5?5?5?5?5?5?5?5@ 10009190     profile.obj
 0001:000081bc       ??_C@_0CJ@NAJBHEME@glCheckFramebufferStatus?5?5?5?5?5?5?5?5@ 100091bc     profile.obj
 0001:000081e8       ??_C@_0CJ@LONOGFIG@glBufferSubData?5?5?5?5?5?5?5?5?5?5?5?5?5?5?5?5?5@ 100091e8     profile.obj
 0001:00008214       ??_C@_0CJ@MGGADNLH@glBufferData?5?5?5?5?5?5?5?5?5?5?5?5?5?5?5?5?5?5?5?5@ 10009214     profile.obj
 0001:00008240       ??_C@_0CJ@JADDIJAE@glBlendFuncSeparate?5?5?5?5?5?5?5?5?5?5?5?5?5@ 10009240     profile.obj
 0001:0000826c       ??_C@_0CJ@GOIAIING@glBlendFunc?5?5?5?5?5?5?5?5?5?5?5?5?5?5?5?5?5?5?5?5?5@ 1000926c     profile.obj
 0001:00008298       ??_C@_0CJ@JHKIBKJK@glBlendEquationSeparate?5?5?5?5?5?5?5?5?5@ 10009298     profile.obj
 0001:000082c4       ??_C@_0CJ@GIDEKDHJ@glBlendEquation?5?5?5?5?5?5?5?5?5?5?5?5?5?5?5?5?5@ 100092c4     profile.obj
 0001:000082f0       ??_C@_0CJ@GEEJNKDH@glBlendColor?5?5?5?5?5?5?5?5?5?5?5?5?5?5?5?5?5?5?5?5@ 100092f0     profile.obj
 0001:0000831c       ??_C@_0CJ@JEOEHLCE@glBindTexture?5?5?5?5?5?5?5?5?5?5?5?5?5?5?5?5?5?5?5@ 1000931c     profile.obj
 0001:00008348       ??_C@_0CJ@MHLNFBLJ@glBindRenderbuffer?5?5?5?5?5?5?5?5?5?5?5?5?5?5@ 10009348     profile.obj
 0001:00008374       ??_C@_0CJ@NNENLLHL@glBindFramebuffer?5?5?5?5?5?5?5?5?5?5?5?5?5?5?5@ 10009374     profile.obj
 0001:000083a0       ??_C@_0CJ@LIEENHDA@glBindBuffer?5?5?5?5?5?5?5?5?5?5?5?5?5?5?5?5?5?5?5?5@ 100093a0     profile.obj
 0001:000083cc       ??_C@_0CJ@ODCLGBIP@glBindAttribLocation?5?5?5?5?5?5?5?5?5?5?5?5@ 100093cc     profile.obj
 0001:000083f8       ??_C@_0CJ@EJMGEFPI@glAttachShader?5?5?5?5?5?5?5?5?5?5?5?5?5?5?5?5?5?5@ 100093f8     profile.obj
 0001:00008424       ??_C@_0CJ@PEOPPAPL@glActiveTexture?5?5?5?5?5?5?5?5?5?5?5?5?5?5?5?5?5@ 10009424     profile.obj
 0001:000088a0       ??_C@_0DJ@LDLENPNI@AddToStateMetric?3?5Could?5not?5crea@ 100098a0     profile.obj
 0001:000088e0       ??_C@_0FG@HAJGPFEC@c?3?2data?2jatin?2powervr_build?2ddk1@ 100098e0     profile.obj
 0001:00008938       ??_C@_0BN@KBAJGMBH@?$CFs?5?5?$CF12u?5?5?$CF2?46f?5?5?$CF12u?5?5?$CF2?46f?$AA@ 10009938     profile.obj
 0001:00008958       ??_C@_0FL@HBLJCKPN@Function?5?5?5?5?5?5?5?5?5?5?5?5?5?5?5?5?5?5?5?5?5?5?5?5@ 10009958     profile.obj
 0001:000089b4       ??_C@_0CH@PNNCCMIA@Entry?5point?5profiling?5?$CITimes?5in?5@ 100099b4     profile.obj
 0001:000089dc       ??_C@_0BJ@MKPDMMDM@VBO?5names?5generated?5?$DN?5?$CFu?$AA@ 100099dc     profile.obj
 0001:000089f8       ??_C@_0BJ@KOKAEFLK@?6VBO?5allocation?5HWM?5?$DN?5?$CFu?$AA@ 100099f8     profile.obj
 0001:00008a14       ??_C@_0BI@PAMNMEGE@?$DN?$DN?$DN?$DN?$DN?$DN?$DN?$DN?$DN?$DN?$DN?$DN?$DN?$DN?$DN?$DN?$DN?$DN?$DN?$DN?$DN?$DN?$DN?$AA@ 10009a14     profile.obj
 0001:00008a2c       ??_C@_0BI@KEHCGKK@Profiling?5?$CIper?5context?$CJ?$AA@ 10009a2c     profile.obj
 0001:00008a44       ??_C@_0CC@CBOKOPAN@?$CFs?5?5?5?5?5?5?5?$CF10u?5?$CF10u?5?5?5?5?5?$CF10u?5?5?$CF10@ 10009a44     profile.obj
 0001:00008a68       ??_C@_0DE@NGKMHFAM@?$CFs?5?5?5Vertices?5?5?5?5?5?5Calls?5Vertice@ 10009a68     profile.obj
 0001:00008a9c       ??_C@_0BF@HPFCCMCK@Draw?5calls?5profiling?$AA@ 10009a9c     profile.obj
 0001:00008ab4       ??_C@_0N@FKOPEHJN@Usage?5Count?5?$AA@ 10009ab4     profile.obj
 0001:00008ac4       ??_C@_05FCEONCHK@?5?$CF6u?5?$AA@ 10009ac4     profile.obj
 0001:00008acc       ??_C@_04KIEOPGPD@?5?$CFu?5?$AA@ 10009acc     profile.obj
 0001:00008ad4       ??_C@_0N@OGNGEMDM@State?5?5?5?5?5?5?5?$AA@ 10009ad4     profile.obj
 0001:00008ae4       ??_C@_0CG@HCCHGPIG@State?5combinations?5used?5in?5rende@ 10009ae4     profile.obj
 0001:00008b0c       ??_C@_03NDEAONJP@?5?5?5?$AA@ 10009b0c     profile.obj
 0001:00008b10       ??_C@_03LBOPJCJH@?5x?5?$AA@ 10009b10     profile.obj
 0001:00008b14       ??_C@_03IKGEINEE@?$CFs?5?$AA@ 10009b14     profile.obj
 0001:00008b18       ??_C@_0BK@EJLPOIC@?$CFs?5?$CF13u?5?$CF14u?5?$CF14?42f?5?$CF9?42f?$AA@ 10009b18     profile.obj
 0001:00008b38       ??_C@_0EC@DJPNNLKC@State?5?5?5?5?5?5?5?5?5?5ValidCalls?5Redund@ 10009b38     profile.obj
 0001:00008b7c       ??_C@_0BK@KNIJNIAH@Enable?1Disable?5Call?5Table?$AA@ 10009b7c     profile.obj
 0001:00008d00       ??_C@_0DF@BMIEIOHG@Couldn?8t?5allocate?5USE?5vertex?5cod@ 10009d00     scissor.obj
 0001:00008d38       ??_C@_0FG@PLLAJGJG@c?3?2data?2jatin?2powervr_build?2ddk1@ 10009d38     scissor.obj
 0001:00008d90       ??_C@_09ECGPAEPL@glScissor?$AA@ 10009d90     scissor.obj
 0001:00008f08       ??_C@_0FE@DOFOILPB@c?3?2data?2jatin?2powervr_build?2ddk1@ 10009f08     sgxif.obj
 0001:00008f5c       ??_C@_0DJ@EDMGEGKG@WaitUntilBufObjNotUsed?3?5Timeout?5@ 10009f5c     sgxif.obj
 0001:00008f98       ??_C@_0BD@PJKDIHCC@Start?5Frame?5failed?$AA@ 10009f98     sgxif.obj
 0001:00008fac       ??_C@_0DA@GLLIAGPN@PrepareToDraw?3?5KEGLResizeRenderS@ 10009fac     sgxif.obj
 0001:00008fdc       ??_C@_0CK@FFNDCBIE@PrepareToDraw?3?5Creating?5ZS?5buffe@ 10009fdc     sgxif.obj
 0001:00009008       ??_C@_0CA@CEEBIFBK@PrepareToDraw?3?5Invalid?5drawable?$AA@ 1000a008     sgxif.obj
 0001:00009028       __real@1e3ce508            1000a028     sgxif.obj
 0001:0000902c       ??_C@_0CO@NKBKDPN@SetupZLSRegs?3?5Bad?5external?5Z?5Buf@ 1000a02c     sgxif.obj
 0001:0000905c       ??_C@_0CM@LBMKCODI@WaitForRender?3?5PVRSRVEventObject@ 1000a05c     sgxif.obj
 0001:00009088       ??_C@_0BH@IPGEHDGD@WaitForRender?3?5Timeout?$AA@ 1000a088     sgxif.obj
 0001:000090a0       ??_C@_0CL@ONLGPOAI@DoKickTA?3?5SGXKickTA?$CI?$CJ?5failed?5wit@ 1000a0a0     sgxif.obj
 0001:000090d0       ??_C@_0FA@NOGCIEFE@OutputTerminateState?5failed?0?5eve@ 1000a0d0     sgxif.obj
 0001:00009120       ??_C@_0DA@LBHDJFNF@DoKickTA?3?5Couldn?8t?5allocate?5memo@ 1000a120     sgxif.obj
 0001:00009150       ??_C@_0CK@GFOEDIKO@DoKickTA?3?5Creating?5ZS?5buffer?5for@ 1000a150     sgxif.obj
 0001:0000917c       ??_C@_0CK@GJKLILC@DoKickTA?3?5SetupPixelEventProgram@ 1000a17c     sgxif.obj
 0001:000091a8       ??_C@_0CL@BPHBAIIJ@DoKickTA?3?5KEGLResizeRenderSurfac@ 1000a1a8     sgxif.obj
 0001:000091d4       ??_C@_0L@NDDBPJBC@clipvertex?$AA@ 1000a1d4     shader.obj
 0001:000091e0       ??_C@_03KJMBPJEB@fog?$AA@  1000a1e0     shader.obj
 0001:000091e4       ??_C@_06KHPIOPIP@ptsize?$AA@ 1000a1e4     shader.obj
 0001:000091ec       ??_C@_03HOPDOPOL@tc9?$AA@  1000a1ec     shader.obj
 0001:000091f0       ??_C@_03GHOINOKK@tc8?$AA@  1000a1f0     shader.obj
 0001:000091f4       ??_C@_03OAHAMCGF@tc7?$AA@  1000a1f4     shader.obj
 0001:000091f8       ??_C@_03PJGLPDCE@tc6?$AA@  1000a1f8     shader.obj
 0001:000091fc       ??_C@_03NCEGKAOH@tc5?$AA@  1000a1fc     shader.obj
 0001:00009200       ??_C@_03MLFNJBKG@tc4?$AA@  1000a200     shader.obj
 0001:00009204       ??_C@_03IEBMAHGB@tc3?$AA@  1000a204     shader.obj
 0001:00009208       ??_C@_03JNAHDGCA@tc2?$AA@  1000a208     shader.obj
 0001:0000920c       ??_C@_03LGCKGFOD@tc1?$AA@  1000a20c     shader.obj
 0001:00009210       ??_C@_03KPDBFEKC@tc0?$AA@  1000a210     shader.obj
 0001:00009214       ??_C@_06IPMAANOD@color1?$AA@ 1000a214     shader.obj
 0001:0000921c       ??_C@_06JGNLDMKC@color0?$AA@ 1000a21c     shader.obj
 0001:00009224       ??_C@_08OAGMDKAF@position?$AA@ 1000a224     shader.obj
 0001:00009578       ??_C@_0FF@KNJFKIFD@c?3?2data?2jatin?2powervr_build?2ddk1@ 1000a578     shader.obj
 0001:000095d0       ??_C@_0CK@IIFPINAL@Attach?5Fragment?5Shader?5?$CFu?5to?5Pro@ 1000a5d0     shader.obj
 0001:000095fc       ??_C@_0CI@DLIEADLK@Attach?5Vertex?5Shader?5?$CFu?5to?5Progr@ 1000a5fc     shader.obj
 0001:00009624       ??_C@_0P@LDMLEABL@glAttachShader?$AA@ 1000a624     shader.obj
 0001:00009634       ??_C@_0P@DJFJFCJL@glDetachShader?$AA@ 1000a634     shader.obj
 0001:00009644       ??_C@_03EKEJMIG@gl_?$AA@   1000a644     shader.obj
 0001:00009648       ??_C@_0BF@MHKEFIHM@glBindAttribLocation?$AA@ 1000a648     shader.obj
 0001:00009660       ??_C@_0BA@FLKLHNKP@glCreateProgram?$AA@ 1000a660     shader.obj
 0001:00009670       ??_C@_0BA@NKGCDOPO@glDeleteProgram?$AA@ 1000a670     shader.obj
 0001:00009680       ??_C@_0P@HGHBNC@glCreateShader?$AA@ 1000a680     shader.obj
 0001:00009690       ??_C@_0P@HHCDONAG@glDeleteShader?$AA@ 1000a690     shader.obj
 0001:000096a0       ??_C@_0BC@MBALAOHF@glGetActiveAttrib?$AA@ 1000a6a0     shader.obj
 0001:000096b8       ??_C@_0EC@BMOLLILO@InitializeGLSLCompiler?3?5Failed?5t@ 1000a6b8     shader.obj
 0001:000096fc       ??_C@_0DO@BOHFFHFJ@InitializeGLSLCompiler?3?5The?5comp@ 1000a6fc     shader.obj
 0001:00009740       ??_C@_0EK@GNDKDFDD@LoadCompilerModule?3?5Some?5of?5the?5@ 1000a740     shader.obj
 0001:0000978c       ??_C@_0BK@BLBECGOB@SGXBS_CreateBinaryProgram?$AA@ 1000a78c     shader.obj
 0001:000097a8       ??_C@_0BF@INAJEAID@GLSLShutDownCompiler?$AA@ 1000a7a8     shader.obj
 0001:000097c0       ??_C@_0BD@BNONJEJD@GLSLDisplayMetrics?$AA@ 1000a7c0     shader.obj
 0001:000097d4       ??_C@_0BP@CHEJOEAG@GLSLFreeCompiledUniflexProgram?$AA@ 1000a7d4     shader.obj
 0001:000097f4       ??_C@_0BF@OCCHGDEP@GLSLCompileToUniflex?$AA@ 1000a7f4     shader.obj
 0001:0000980c       ??_C@_0BB@KACAJBFL@GLSLInitCompiler?$AA@ 1000a80c     shader.obj
 0001:00009820       ??_C@_0CN@JAEINPAH@LoadCompilerModule?3?5Couldn?8t?5loa@ 1000a820     shader.obj
 0001:00009850       ??_C@_0N@DJOJPEFE@glslcompiler?$AA@ 1000a850     shader.obj
 0001:00009860       ??_C@_02DKCKIIND@?$CFs?$AA@ 1000a860     shader.obj
 0001:00009864       ??_C@_01EEMJAFIK@?6?$AA@   1000a864     shader.obj
 0001:00009868       ??_C@_0DL@HECDCDOI@UnloadCompilerModule?3?5Unloading?5@ 1000a868     shader.obj
 0001:000098a4       ??_C@_0DE@PKMIDLHC@FreeListOfVertexUSEVariants?3?5Kic@ 1000a8a4     shader.obj
 0001:000098d8       ??_C@_0O@PIOEEBPO@glLinkProgram?$AA@ 1000a8d8     shader.obj
 0001:000098e8       ??_C@_0EJ@ELOJOEFJ@GhostUSEShaderVariant?3?5Out?5of?5me@ 1000a8e8     shader.obj
 0001:00009934       ??_C@_0CJ@PFINGKMJ@?5?5Remap?5Output?5?$CF?92u?5from?5registe@ 1000a934     shader.obj
 0001:00009960       ??_C@_0BH@FCBLJHPB@VGP?5Output?5Remapping?3?6?$AA@ 1000a960     shader.obj
 0001:00009978       ??_C@_02GMHACPFF@?$CFu?$AA@ 1000a978     shader.obj
 0001:0000997c       ??_C@_05EIODHBAN@?$CF?910s?$AA@ 1000a97c     shader.obj
 0001:00009984       ??_C@_0BL@EGNBEPHB@?9?9?9?9?9?9?9?9?9?9?9?9?9?9?9?9?9?9?9?9?9?9?9?9?9?6?$AA@ 1000a984     shader.obj
 0001:000099a0       ??_C@_0BO@HMPPEHBI@Vertex?5Shader?5Output?5Selects?6?$AA@ 1000a9a0     shader.obj
 0001:000099c0       ??_C@_0BM@NCBPHIPJ@?6?9?9?9?9?9?9?9?9?9?9?9?9?9?9?9?9?9?9?9?9?9?9?9?9?9?6?$AA@ 1000a9c0     shader.obj
 0001:000099dc       ??_C@_0CE@MAGGPNFO@Special?5Fragment?5variables?5activ@ 1000a9dc     shader.obj
 0001:00009a00       ??_C@_0BD@MCKIGJME@?$CF?915s?5register?5?$CFu?6?$AA@ 1000aa00     shader.obj
 0001:00009a14       ??_C@_0CC@MMKHMCFD@Special?5Vertex?5variables?5active?3@ 1000aa14     shader.obj
 0001:00009a38       ??_C@_0BF@FFMCHOCP@?$CF?950s?5?$CF?95s?5?$CF?96u?5?$CF?95u?$AA@ 1000aa38     shader.obj
 0001:00009a50       ??_C@_0HG@CIJDIOEH@Name?5?5?5?5?5?5?5?5?5?5?5?5?5?5?5?5?5?5?5?5?5?5?5?5?5?5?5?5@ 1000aa50     shader.obj
 0001:00009ac8       ??_C@_0BC@KFCAEPND@Active?5Varyings?3?6?$AA@ 1000aac8     shader.obj
 0001:00009adc       ??_C@_03OFAPEBGM@?$CFs?6?$AA@ 1000aadc     shader.obj
 0001:00009ae0       ??_C@_0BJ@HGIPNCBE@?5?5?5?5?9?5?5?5?5?5?5?5?5?5?5?5?5?9?5?5?5?5?5?5?$AA@ 1000aae0     shader.obj
 0001:00009afc       ??_C@_09HNLKJONF@0x?$CF04x?5?5?5?$AA@ 1000aafc     shader.obj
 0001:00009b08       ??_C@_0P@EIDJNCLE@?$CF6u?$CI?$CF3u?4?$CF1u?$CJ?5?5?$AA@ 1000ab08     shader.obj
 0001:00009b18       ??_C@_0BK@BFFDDGJC@?$CF?950s?5?$CF?95s?5?$CF?95d?5?$CF?96u?5?$CF?95u?$AA@ 1000ab18     shader.obj
 0001:00009b38       ??_C@_0HM@DCIEEFLL@Name?5?5?5?5?5?5?5?5?5?5?5?5?5?5?5?5?5?5?5?5?5?5?5?5?5?5?5?5@ 1000ab38     shader.obj
 0001:00009bb4       ??_C@_0BC@BLLDGCAP@Active?5Uniforms?3?6?$AA@ 1000abb4     shader.obj
 0001:00009bc8       ??_C@_0L@MCLHEEP@0x?$CF04x?5?5?5?6?$AA@ 1000abc8     shader.obj
 0001:00009bd4       ??_C@_0BP@LCFOEHPO@?$CF?950s?5?$CF?95s?5?$CF?95d?5?$CF6u?$CI?$CF3u?4?$CF1u?$CJ?5?5?$AA@ 1000abd4     shader.obj
 0001:00009bf8       ??_C@_0FI@LHCKDAJA@Name?5?5?5?5?5?5?5?5?5?5?5?5?5?5?5?5?5?5?5?5?5?5?5?5?5?5?5?5@ 1000abf8     shader.obj
 0001:00009c50       ??_C@_0CC@IODDEFBI@?9?9?9?9?9?9?9?9?9?9?9?9?9?9?9?9?9?9?9?9?9?9?9?9?9?9?9?9?9?9?9?9@ 1000ac50     shader.obj
 0001:00009c74       ??_C@_0BE@MEGAPDPH@Active?5Attributes?3?6?$AA@ 1000ac74     shader.obj
 0001:00009c88       ??_C@_0CD@EILCPGNB@?6?9?9?9?9?9?9?9?9?9?9?9?9?9?9?9?9?9?9?9?9?9?9?9?9?9?9?9?9?9?9?9@ 1000ac88     shader.obj
 0001:00009cb0       ??_C@_0FB@PELLCLKL@Varying?5variable?5?$CFs?5is?5used?5in?5f@ 1000acb0     shader.obj
 0001:00009d08       ??_C@_0FH@CHFHBHFF@Active?5size?5for?5varying?5?$CFs?5in?5fr@ 1000ad08     shader.obj
 0001:00009d60       ??_C@_0FG@PMACLKGG@The?5invariance?5for?5varying?5varia@ 1000ad60     shader.obj
 0001:00009db8       ??_C@_0FA@KBACDFOA@The?5type?5for?5varying?5variable?5?$CFs@ 1000adb8     shader.obj
 0001:00009e08       ??_C@_0EO@MCKNGHHI@LinkVertexFragmentPrograms?3?5Cann@ 1000ae08     shader.obj
 0001:00009e58       ??_C@_0EN@FJFFNMOD@LinkVertexFragmentPrograms?3?5Cann@ 1000ae58     shader.obj
 0001:00009ea8       ??_C@_0FA@HMMLOOEI@LinkVertexFragmentPrograms?3?5Cann@ 1000aea8     shader.obj
 0001:00009ef8       ??_C@_0FD@LKIJBBEP@LinkVertexFragmentPrograms?3?5Cann@ 1000aef8     shader.obj
 0001:00009f50       ??_C@_0EJ@KPIDHDBO@LinkVertexFragmentPrograms?3?5Cann@ 1000af50     shader.obj
 0001:00009fa0       ??_C@_0FK@DGEIOGH@LinkVertexFragmentPrograms?3?5Cann@ 1000afa0     shader.obj
 0001:0000a000       ??_C@_0FI@NBMHNBGH@LinkVertexFragmentPrograms?3?5Cann@ 1000b000     shader.obj
 0001:0000a058       ??_C@_0FD@OPILAJHK@The?5active?5size?5of?5?$CFs?5in?5fragmen@ 1000b058     shader.obj
 0001:0000a0ac       ??_C@_0DA@MIAPNJHC@Not?5enough?5contiguous?5indices?5fo@ 1000b0ac     shader.obj
 0001:0000a0dc       ??_C@_0DA@PIGCCPJF@No?5built?9in?5attributes?5in?5GLSL?5E@ 1000b0dc     shader.obj
 0001:0000a10c       ??_C@_0CL@HIPONKBO@In?9built?5attributes?5unsupported?5@ 1000b10c     shader.obj
 0001:0000a138       ??_C@_0BM@PIGMBIMF@Invalid?5precision?5qualifier?$AA@ 1000b138     shader.obj
 0001:0000a154       ??_C@_0BF@KBLEKAHM@Unknown?5sampler?5type?$AA@ 1000b154     shader.obj
 0001:0000a170       ??_C@_0FB@ENAIBAGE@Uniform?5variable?5?$CFs?5type?1precisi@ 1000b170     shader.obj
 0001:0000a1c4       ??_C@_0N@ICBDHBI@glUseProgram?$AA@ 1000b1c4     shader.obj
 0001:0000a1d4       ??_C@_0BC@MAPGDLJK@glValidateProgram?$AA@ 1000b1d4     shader.obj
 0001:0000a1e8       ??_C@_0CM@EJKILMFJ@glCompileShader?3?5Failed?5to?5compi@ 1000b1e8     shader.obj
 0001:0000a214       ??_C@_0BA@DGIEGONF@glCompileShader?$AA@ 1000b214     shader.obj
 0001:0000a228       ??_C@_0EC@NJBHPAJJ@CreateSharedShaderState?3?5UniPatc@ 1000b228     shader.obj
 0001:0000a26c       ??_C@_0DM@FNEBJMEF@CreateSharedShaderState?3?5UniPatc@ 1000b26c     shader.obj
 0001:0000a2a8       ??_C@_0BI@HGKABJPJ@glReleaseShaderCompiler?$AA@ 1000b2a8     shader.obj
 0001:0000a2c0       ??_C@_02PHMGELLB@?6?6?$AA@ 1000b2c0     shader.obj
 0001:0000a2c4       ??_C@_0BE@KKIGJDCB@?$CIFragment?5Shader?$CJ?5?6?$AA@ 1000b2c4     shader.obj
 0001:0000a2d8       ??_C@_0BC@IEEEMONB@?$CIVertex?5Shader?$CJ?5?6?$AA@ 1000b2d8     shader.obj
 0001:0000a2ec       ??_C@_0BC@MOJICDD@SHADER?3?5Name?$CI?$CFu?$CJ?5?$AA@ 1000b2ec     shader.obj
 0001:0000a300       ??_C@_0P@OCAGNNP@?9?9?9?9?9?9?9?9?9?9?9?9?5?6?$AA@ 1000b300     shader.obj
 0001:0000a310       ??_C@_0BC@HLHLNFE@?9?9?9?9?9?9?9?9?9?9?9?9?9?9?9?6?6?$AA@ 1000b310     shader.obj
 0001:0000a324       ??_C@_0BB@JLONCMEP@Shader?5Analysis?6?$AA@ 1000b324     shader.obj
 0001:0000a338       ??_C@_0P@DFHCPFMO@glShaderSource?$AA@ 1000b338     shader.obj
 0001:0000a348       ??_C@_0GH@KJPJFDMD@glShaderBinary?3?5SGXBS_CreateShar@ 1000b348     shader.obj
 0001:0000a3b0       ??_C@_0P@IMINELFB@glShaderBinary?$AA@ 1000b3b0     shader.obj
 0001:0000a3c0       ??_C@_0GG@FENPNCEL@glProgramBinaryOES?3?5SGXBS_Create@ 1000b3c0     shader.obj
 0001:0000a428       ??_C@_0EB@DJMFFHKM@CreateProgramState?3?5Failed?5to?5cr@ 1000b428     shader.obj
 0001:0000a470       ??_C@_0EB@ENEKNCBF@CreateProgramState?3?5Failed?5to?5cr@ 1000b470     shader.obj
 0001:0000a4b4       ??_C@_0DF@CLKNJOFK@CreateProgramState?3?5Failed?5to?5in@ 1000b4b4     shader.obj
 0001:0000a4f0       ??_C@_0EA@MGOGHBEP@UniPatchDebugPrint?3?5Could?5not?5op@ 1000b4f0     shader.obj
 0001:0000a530       ??_C@_0M@KIJENBEB@usp_out?4txt?$AA@ 1000b530     shader.obj
 0001:0000a53c       ??_C@_03CCGKKFHG@a?$CLt?$AA@ 1000b53c     shader.obj
 0001:0000a540       ??_C@_0CE@JGFOKKHM@PDS?5Variant?5not?5found?5in?5hash?5ta@ 1000b540     shader.obj
 0001:0000a838       ??_C@_0FE@MGHEKCCM@c?3?2data?2jatin?2powervr_build?2ddk1@ 1000b838     state.obj
 0001:0000a88c       ??_C@_0N@PKBMFJDK@glBlendColor?$AA@ 1000b88c     state.obj
 0001:0000a89c       ??_C@_0BA@PFHILPAN@glBlendEquation?$AA@ 1000b89c     state.obj
 0001:0000a8ac       ??_C@_0BI@JNHDNJAG@glBlendEquationSeparate?$AA@ 1000b8ac     state.obj
 0001:0000a8c4       ??_C@_0BE@LLLCIIOO@glBlendFuncSeparate?$AA@ 1000b8c4     state.obj
 0001:0000a8d8       ??_C@_0M@PFBKOKOH@glBlendFunc?$AA@ 1000b8d8     state.obj
 0001:0000a8e4       ??_C@_0M@DLGOAHPH@glColorMask?$AA@ 1000b8e4     state.obj
 0001:0000a8f0       ??_C@_0L@BAPBLHME@glCullFace?$AA@ 1000b8f0     state.obj
 0001:0000a8fc       ??_C@_0M@NEJABAEP@glDepthFunc?$AA@ 1000b8fc     state.obj
 0001:0000a908       ??_C@_0M@KABMFLLN@glDepthMask?$AA@ 1000b908     state.obj
 0001:0000a914       ??_C@_0O@JDFJDNND@glDepthRangef?$AA@ 1000b914     state.obj
 0001:0000a924       ??_C@_0BA@HMHFALFF@glDisable?3?50x?$CFX?$AA@ 1000b924     state.obj
 0001:0000a934       ??_C@_0P@BIBPOIBJ@glEnable?3?50x?$CFX?$AA@ 1000b934     state.obj
 0001:0000a944       ??_C@_0M@ILBMDJDA@glFrontFace?$AA@ 1000b944     state.obj
 0001:0000a950       ??_C@_0M@CFLGNFPG@glLineWidth?$AA@ 1000b950     state.obj
 0001:0000a95c       ??_C@_0BA@FFBJGNC@glPolygonOffset?$AA@ 1000b95c     state.obj
 0001:0000a96c       ??_C@_0BB@BJGIPMOA@glSampleCoverage?$AA@ 1000b96c     state.obj
 0001:0000a980       ??_C@_0O@ENNLLOLN@glStencilFunc?$AA@ 1000b980     state.obj
 0001:0000a990       ??_C@_0BG@FCMNCEIA@glStencilFuncSeparate?$AA@ 1000b990     state.obj
 0001:0000a9a8       ??_C@_0O@DJFHPFEP@glStencilMask?$AA@ 1000b9a8     state.obj
 0001:0000a9b8       ??_C@_0BG@MMKPIEJI@glStencilMaskSeparate?$AA@ 1000b9b8     state.obj
 0001:0000a9d0       ??_C@_0M@BILBNGF@glStencilOp?$AA@ 1000b9d0     state.obj
 0001:0000a9dc       ??_C@_0BE@GAPLDNGF@glStencilOpSeparate?$AA@ 1000b9dc     state.obj
 0001:0000a9f0       ??_C@_0L@KBLIPDFH@glViewport?$AA@ 1000b9f0     state.obj
 0001:0000ab64       ??_C@_0BI@DPIEFKAC@Hash?5table?5alloc?5failed?$AA@ 1000bb64     statehash.obj
 0001:0000ab80       ??_C@_0FI@FPLMLFMK@c?3?2data?2jatin?2powervr_build?2ddk1@ 1000bb80     statehash.obj
 0001:0000ad40       ??_C@_0FC@PKGEAPJL@c?3?2data?2jatin?2powervr_build?2ddk1@ 1000bd40     tex.obj
 0001:0000ad94       ??_C@_0BA@KDNJAKA@glTexParameteri?$AA@ 1000bd94     tex.obj
 0001:0000ada4       ??_C@_0BA@INKFIMGP@glTexParameterf?$AA@ 1000bda4     tex.obj
 0001:0000adb4       ??_C@_0BB@KPLJEAAI@glTexParameteriv?$AA@ 1000bdb4     tex.obj
 0001:0000adc8       ??_C@_0BB@KEOFAHDF@glTexParameterfv?$AA@ 1000bdc8     tex.obj
 0001:0000addc       ??_C@_0BA@KOBBIKOF@glActiveTexture?$AA@ 1000bddc     tex.obj
 0001:0000adec       ??_C@_0O@JKKCIBGC@glBindTexture?$AA@ 1000bdec     tex.obj
 0001:0000adfc       ??_C@_0BB@KMPLFJIC@glDeleteTextures?$AA@ 1000bdfc     tex.obj
 0001:0000ae10       ??_C@_0O@LLMANLNK@glGenTextures?$AA@ 1000be10     tex.obj
 0001:0000ae20       ??_C@_0N@JBIKHLCC@glTexImage2D?$AA@ 1000be20     tex.obj
 0001:0000ae30       __real@37800080            1000be30     tex.obj
 0001:0000ae34       __real@2f800005            1000be34     tex.obj
 0001:0000ae38       __real@33800000            1000be38     tex.obj
 0001:0000ae3c       ??_C@_0DH@MGOPOCMO@glTexSubImage2D?3?5Missing?1Unsuppo@ 1000be3c     tex.obj
 0001:0000ae74       ??_C@_0BA@NHKIJEMK@glTexSubImage2D?$AA@ 1000be74     tex.obj
 0001:0000ae84       ??_C@_0DO@MDBILCKA@GLESGetImageSource?3?5CEM?5source?5r@ 1000be84     tex.obj
 0001:0000aec4       ??_C@_0CM@GBMBBACP@UpdateEGLImage?3?5Can?8t?5make?5textu@ 1000bec4     tex.obj
 0001:0000aef0       ??_C@_0BH@GHLPKKFI@glCompressedTexImage2D?$AA@ 1000bef0     tex.obj
 0001:0000af08       ??_C@_0BK@EAFOEJMH@glCompressedTexSubImage2D?$AA@ 1000bf08     tex.obj
 0001:0000af24       ??_C@_0CN@LGEABPPI@glCopyTexImage2D?3?5Failed?5to?5get?5@ 1000bf24     tex.obj
 0001:0000af54       ??_C@_0CE@MPDDJJDA@glCopyTexImage2D?3?5Couldn?8t?5flush@ 1000bf54     tex.obj
 0001:0000af78       ??_C@_0BB@MGAFKJKC@glCopyTexImage2D?$AA@ 1000bf78     tex.obj
 0001:0000af8c       ??_C@_0CH@MGALCOCN@glCopyTexSubImage2D?3?5Couldn?8t?5fl@ 1000bf8c     tex.obj
 0001:0000afb4       ??_C@_0DA@ILHPNPJN@glCopyTexSubImage2D?3?5Failed?5to?5g@ 1000bfb4     tex.obj
 0001:0000afe4       ??_C@_0CE@BFCNHICB@glCopyTexSubImage2D?3?5Can?8t?5flush@ 1000bfe4     tex.obj
 0001:0000b008       ??_C@_0BC@HHODBEKC@Unknown?5HW?5format?$AA@ 1000c008     tex.obj
 0001:0000b01c       ??_C@_0BE@PIJELGDB@glCopyTexSubImage2D?$AA@ 1000c01c     tex.obj
 0001:0000b198       ??_C@_0DJ@IFAEMBNN@PrepareHWTQTextureUpload?3?5HWTQ?5f@ 1000c198     texdata.obj
 0001:0000b1d8       ??_C@_0EC@KFNKKALH@PrepareHWTQTextureUpload?3?5Unsupp@ 1000c1d8     texdata.obj
 0001:0000b220       ??_C@_0EA@BMBEEEFA@PrepareHWTQTextureUpload?3?5unable@ 1000c220     texdata.obj
 0001:0000b260       ??_C@_0DF@PNLGPKLA@PrepareHWTQTextureUpload?3?5unsupp@ 1000c260     texdata.obj
 0001:0000b298       ??_C@_0EA@GJCONGOE@PrepareHWTQTextureUpload?3?5unsupp@ 1000c298     texdata.obj
 0001:0000b2d8       ??_C@_0EA@MNBGMPOL@PrepareHWTQTextureUpload?3?5unsupp@ 1000c2d8     texdata.obj
 0001:0000b318       ??_C@_0DL@DLEAEPFL@PrepareHWTQTextureUpload?3?5unsupp@ 1000c318     texdata.obj
 0001:0000b358       ??_C@_0EN@GONGKKNH@PrepareHWTQTextureUpload?3?5unsupp@ 1000c358     texdata.obj
 0001:0000b3a8       ??_C@_0EB@PJCIFFBI@PrepareHWTQTextureUpload?3?5unsupp@ 1000c3a8     texdata.obj
 0001:0000b3f0       ??_C@_0FG@GDJMJKOC@c?3?2data?2jatin?2powervr_build?2ddk1@ 1000c3f0     texdata.obj
 0001:0000b448       ??_C@_0EL@JCIMBHJL@HWTQTextureUpload?3?5Timeout?5faile@ 1000c448     texdata.obj
 0001:0000b498       ??_C@_0EP@OOCJPILN@HWTQTextureUpload?3?5Failed?5to?5loa@ 1000c498     texdata.obj
 0001:0000b4e8       ??_C@_0DN@PKNJLDCC@PrepareHWTQTextureNormalBlit?3?5HW@ 1000c4e8     texdata.obj
 0001:0000b528       ??_C@_0DM@ECGAAMIO@PrepareHWTQTextureNormalBlit?3?5un@ 1000c528     texdata.obj
 0001:0000b568       ??_C@_0GI@OGIGEFAC@PrepareHWTQTextureNormalBlit?3?5il@ 1000c568     texdata.obj
 0001:0000b5d0       ??_C@_0ED@EDLLDAL@PrepareHWTQTextureNormalBlit?3?5Un@ 1000c5d0     texdata.obj
 0001:0000b618       ??_C@_0EF@PBIMNLNA@PrepareHWTQTextureNormalBlit?3?5Un@ 1000c618     texdata.obj
 0001:0000b660       ??_C@_0DO@GDAFBDAK@PrepareHWTQTextureNormalBlit?3?5Un@ 1000c660     texdata.obj
 0001:0000b6a0       ??_C@_0EP@HOAICCFA@HWTQTextureNormalBlit?3?5Timeout?5f@ 1000c6a0     texdata.obj
 0001:0000b6f0       ??_C@_0FD@JLJGEFNN@HWTQTextureNormalBlit?3?5Failed?5to@ 1000c6f0     texdata.obj
 0001:0000b744       ??_C@_0DD@ONPLJCAC@TranslateLevel?3?5Memory?5calculati@ 1000c744     texdata.obj
 0001:0000b778       ??_C@_0EC@PPLLGKGK@ReadBackTextureData?3?5Timeout?5fai@ 1000c778     texdata.obj
 0001:0000b7bc       ??_C@_0DL@ONLKFCHE@ReadBackMultiChunkData?3?5Memory?5c@ 1000c7bc     texdata.obj
 0001:0000b7f8       ??_C@_0FP@JEKPGFBJ@PrepareHWTQTextureBufferBlit?3?5te@ 1000c7f8     texdata.obj
 0001:0000b858       ??_C@_0EP@NCNNDLNN@HWTQTextureBufferBlit?3?5Timeout?5f@ 1000c858     texdata.obj
 0001:0000b8a8       ??_C@_0FD@LEHNGNFN@HWTQTextureBufferBlit?3?5Failed?5to@ 1000c8a8     texdata.obj
 0001:0000ba64       TexFormatABGR8888          1000ca64     texformat.obj
 0001:0000ba88       TexFormatARGB8888          1000ca88     texformat.obj
 0001:0000baac       TexFormatARGB1555          1000caac     texformat.obj
 0001:0000bad0       TexFormatARGB4444          1000cad0     texformat.obj
 0001:0000baf4       TexFormatXBGR8888          1000caf4     texformat.obj
 0001:0000bb18       TexFormatRGB565            1000cb18     texformat.obj
 0001:0000bb3c       TexFormatAlpha             1000cb3c     texformat.obj
 0001:0000bb60       TexFormatLuminance         1000cb60     texformat.obj
 0001:0000bb84       TexFormatLuminanceAlpha    1000cb84     texformat.obj
 0001:0000bba8       TexFormatPVRTC2RGB         1000cba8     texformat.obj
 0001:0000bbcc       TexFormatPVRTC4RGB         1000cbcc     texformat.obj
 0001:0000bbf0       TexFormatPVRTC2RGBA        1000cbf0     texformat.obj
 0001:0000bc14       TexFormatPVRTC4RGBA        1000cc14     texformat.obj
 0001:0000bc38       TexFormatPVRTCII2RGB       1000cc38     texformat.obj
 0001:0000bc5c       TexFormatPVRTCII4RGB       1000cc5c     texformat.obj
 0001:0000bc80       TexFormatPVRTCII2RGBA      1000cc80     texformat.obj
 0001:0000bca4       TexFormatPVRTCII4RGBA      1000cca4     texformat.obj
 0001:0000bcc8       TexFormatETC1RGB           1000ccc8     texformat.obj
 0001:0000bcec       TexFormatRGBAFloat         1000ccec     texformat.obj
 0001:0000bd10       TexFormatRGBFloat          1000cd10     texformat.obj
 0001:0000bd34       TexFormatFloatAlpha        1000cd34     texformat.obj
 0001:0000bd58       TexFormatFloatLuminance    1000cd58     texformat.obj
 0001:0000bd7c       TexFormatFloatLuminanceAlpha 1000cd7c     texformat.obj
 0001:0000bda0       TexFormatRGBAHalfFloat     1000cda0     texformat.obj
 0001:0000bdc4       TexFormatRGBHalfFloat      1000cdc4     texformat.obj
 0001:0000bde8       TexFormatHalfFloatAlpha    1000cde8     texformat.obj
 0001:0000be0c       TexFormatHalfFloatLuminance 1000ce0c     texformat.obj
 0001:0000be30       TexFormatHalfFloatLuminanceAlpha 1000ce30     texformat.obj
 0001:0000be54       TexFormatUYVY              1000ce54     texformat.obj
 0001:0000be78       TexFormatYUYV              1000ce78     texformat.obj
 0001:0000be9c       TexFormatYUV420            1000ce9c     texformat.obj
 0001:0000bec0       TexFormatFloatDepth        1000cec0     texformat.obj
 0001:0000bee4       TexFormatFloatDepthU8Stencil 1000cee4     texformat.obj
 0001:0000c070       ??_C@_0CN@EDJMOLPG@CreateTextureMemory?3?5Reaping?5act@ 1000d070     texmgmt.obj
 0001:0000c0a0       ??_C@_0FG@CKGKGOHC@c?3?2data?2jatin?2powervr_build?2ddk1@ 1000d0a0     texmgmt.obj
 0001:0000c0f8       ??_C@_0FC@KJCNNCPC@Invalid?5apphint?5for?5overloading?5@ 1000d0f8     texmgmt.obj
 0001:0000c14c       ??_C@_0DC@GJDGIFDA@TextureCreateImageLevel?3?5Unknown@ 1000d14c     texmgmt.obj
 0001:0000c180       ??_C@_0EF@IDHNDOI@FreeTextureMemKRM?3?5Could?5not?5all@ 1000d180     texmgmt.obj
 0001:0000c1c8       ??_C@_0DL@IIJJALHE@TexStreamUnbindBufferDevice?3?5Clo@ 1000d1c8     texmgmt.obj
 0001:0000c204       ??_C@_0DH@FOBABCMK@CreateDummyTexture?3?5Can?8t?5free?5o@ 1000d204     texmgmt.obj
 0001:0000c23c       ??_C@_0DJ@EGPGKHCA@CreateDummyTexture?3?5Can?8t?5create@ 1000d23c     texmgmt.obj
 0001:0000c278       ??_C@_0DJ@GEMCGMGJ@CreateDummyTexture?3?5Can?8t?5create@ 1000d278     texmgmt.obj
 0001:0000c2b4       ??_C@_0CA@CJAGLBPH@Couldn?8t?5create?5default?5texture?$AA@ 1000d2b4     texmgmt.obj
 0001:0000c2d4       ??_C@_0DI@CGBGIKBC@DestroyDummyTexture?3?5Can?8t?5free?5@ 1000d2d4     texmgmt.obj
 0001:0000c30c       ??_C@_0DI@ECCEBFL@DestroyDummyTexture?3?5Can?8t?5free?5@ 1000d30c     texmgmt.obj
 0001:0000c344       ??_C@_0CL@BMOHPCHB@FreeTextureState?3?5BindTexture?5?$CFu@ 1000d344     texmgmt.obj
 0001:0000c370       ??_C@_0DK@CPFGADCM@SetupEGLImageArbitraryStride?3?5Un@ 1000d370     texmgmt.obj
 0001:0000c618       ??_C@_0DK@DKFHEABJ@CopyBuiltinUniformDataFromState?3@ 1000d618     uniform.obj
 0001:0000c658       ??_C@_0FG@NGBJGEPF@c?3?2data?2jatin?2powervr_build?2ddk1@ 1000d658     uniform.obj
 0001:0000c6b0       ??_C@_0CM@MMMNJHHB@GetConstantDataPtr?3?5unrecognised@ 1000d6b0     uniform.obj
 0001:0000c6dc       ??_C@_03OJMJGOMJ@?$FL0?$FN?$AA@ 1000d6dc     uniform.obj
 0001:0000c6e0       ??_C@_0BD@NIMHLLKN@glGetActiveUniform?$AA@ 1000d6e0     uniform.obj
 0001:0000c6f4       ??_C@_0BF@KIOPGICP@glGetUniformLocation?$AA@ 1000d6f4     uniform.obj
 0001:0000c70c       ??_C@_0M@EMBKBDCK@glUniform1i?$AA@ 1000d70c     uniform.obj
 0001:0000c718       ??_C@_0BG@LPJMIJEL@Invalid?5constant?5type?$AA@ 1000d718     uniform.obj
 0001:0000c730       ??_C@_0M@EOFMKNHD@glUniform2i?$AA@ 1000d730     uniform.obj
 0001:0000c73c       ??_C@_0M@EPJOMHEE@glUniform3i?$AA@ 1000d73c     uniform.obj
 0001:0000c748       ??_C@_0M@EKNBNBMB@glUniform4i?$AA@ 1000d748     uniform.obj
 0001:0000c754       ??_C@_0M@MLICAPOF@glUniform1f?$AA@ 1000d754     uniform.obj
 0001:0000c760       ??_C@_0M@MJMELBLM@glUniform2f?$AA@ 1000d760     uniform.obj
 0001:0000c76c       ??_C@_0M@MIAGNLIL@glUniform3f?$AA@ 1000d76c     uniform.obj
 0001:0000c778       ??_C@_0M@MNEJMNAO@glUniform4f?$AA@ 1000d778     uniform.obj
 0001:0000c784       ??_C@_0N@KCJCANLF@glUniform1iv?$AA@ 1000d784     uniform.obj
 0001:0000c794       ??_C@_0N@LACHKCFL@glUniform2iv?$AA@ 1000d794     uniform.obj
 0001:0000c7a4       ??_C@_0N@IJLMFDO@glUniform3iv?$AA@ 1000d7a4     uniform.obj
 0001:0000c7b4       ??_C@_0N@JFEMPNIH@glUniform4iv?$AA@ 1000d7b4     uniform.obj
 0001:0000c7c4       ??_C@_0N@KJMOEKII@glUniform1fv?$AA@ 1000d7c4     uniform.obj
 0001:0000c7d4       ??_C@_0N@LLHLOFGG@glUniform2fv?$AA@ 1000d7d4     uniform.obj
 0001:0000c7e4       ??_C@_0N@DMHICAD@glUniform3fv?$AA@ 1000d7e4     uniform.obj
 0001:0000c7f4       ??_C@_0N@JOBALKLK@glUniform4fv?$AA@ 1000d7f4     uniform.obj
 0001:0000c804       ??_C@_0BD@JIBJELHD@glUniformMatrix2fv?$AA@ 1000d804     uniform.obj
 0001:0000c818       ??_C@_0BD@CAKFCMBG@glUniformMatrix3fv?$AA@ 1000d818     uniform.obj
 0001:0000c82c       ??_C@_0BD@LNHCBEKP@glUniformMatrix4fv?$AA@ 1000d82c     uniform.obj
 0001:0000cc90       ??_C@_0FC@HMOLDBFO@c?3?2data?2jatin?2powervr_build?2ddk1@ 1000dc90     use.obj
 0001:0000cce4       ??_C@_0DF@MEHIKNK@Couldn?8t?5allocate?5USE?5pixel?5even@ 1000dce4     use.obj
 0001:0000cd1c       ??_C@_0CN@EMKNIHCG@Couldn?8t?5allocate?5USE?5pixel?5even@ 1000dd1c     use.obj
 0001:0000cd4c       ??_C@_0CG@OBJPKILK@Couldn?8t?5allocate?5USE?5state?5copy@ 1000dd4c     use.obj
 0001:0000cd74       ??_C@_0DN@DNMHEKDF@SetupUSEVertexShader?3?5Unipatch?5f@ 1000dd74     use.obj
 0001:0000cdb4       ??_C@_0BE@OFBHKPHN@Unknown?5stream?9type?$AA@ 1000ddb4     use.obj
 0001:0000cdc8       ??_C@_0DM@OPDAMEOK@CreateVertexUnpackUSECode?3?5Inval@ 1000ddc8     use.obj
 0001:0000ce04       ??_C@_0DA@FBBBFNIC@SetupUSESecondaryUploadTask?3?5Out@ 1000de04     use.obj
 0001:0000ce34       ??_C@_0DC@DEAIHLAF@SetupUSESecondaryUploadTask?3?5Out@ 1000de34     use.obj
 0001:0000ce68       ??_C@_0DP@GIJMIFAI@SetupUSEFragmentShader?3?5Unipatch@ 1000de68     use.obj
 0001:0000cea8       ??_C@_0FD@CAMHPKOD@SetupIteratorsAndTextureLookups?3@ 1000dea8     use.obj
 0001:0000cf00       ??_C@_0FK@INOJOGCA@SetupIteratorsAndTextureLookups?3@ 1000df00     use.obj
 0001:0000cf5c       ??_C@_0DO@ELGFKBEE@SetupIteratorsAndTextureLookups?3@ 1000df5c     use.obj
 0001:0000cf9c       ??_C@_05PHOBCMDP@?$CF3d?3?5?$AA@ 1000df9c     use.obj
 0001:0000cfa4       ??_C@_0DB@EDCEICEK@?9?9?9?9?9?9?9?9?9?9?9?9?9?9?9?9?9?9?9?9?9?9?9?9?9?9?9?9?9?9?9?9@ 1000dfa4     use.obj
 0001:0000cfd8       ??_C@_0CL@PJNICLLN@Secondary?5Vertex?5Shader?5?$CI?$CFu?$CJ?5Dis@ 1000dfd8     use.obj
 0001:0000d008       ??_C@_0GA@GMDIPLB@Secondary?5Vertex?5Shader?5?$CIN?1A?$CJ?5Di@ 1000e008     use.obj
 0001:0000d068       ??_C@_0N@PCMDPNCC@0x?$CF?48X?$CF?48X?5?5?$AA@ 1000e068     use.obj
 0001:0000d078       ??_C@_07CLLDGDKD@0x?$CF?48X?5?$AA@ 1000e078     use.obj
 0001:0000d080       ??_C@_05JKBBNJMM@?$CF?$CKd?3?5?$AA@ 1000e080     use.obj
 0001:0000d088       ??_C@_0CG@LEODOHEE@?9?9?9?9?9?9?9?9?9?9?5Phase?5?$CFu?5Start?5?9?9?9?9?9?9@ 1000e088     use.obj
 0001:0000d0b0       ??_C@_0CB@FKFNMDE@Vertex?5Shader?5?$CI?$CFu?$CJ?5Disassembly?3?6@ 1000e0b0     use.obj
 0001:0000d0d8       ??_C@_0FG@EFDFNBGO@Vertex?5Shader?5?$CIN?1A?$CJ?5Disassembly?4@ 1000e0d8     use.obj
 0001:0000d130       ??_C@_0BA@MHBEBFEI@Phase?5?$CFd?3?50x?$CFX?6?$AA@ 1000e130     use.obj
 0001:0000d140       ??_C@_0BF@PDFMNONC@Starting?5Addresses?3?6?$AA@ 1000e140     use.obj
 0001:0000d158       ??_C@_0CI@KIJDCMDC@Device?5Virtual?5Address?5for?5code?5@ 1000e158     use.obj
 0001:0000d180       ??_C@_0CI@MDJOCPL@?9?9?9?9?9?9?9?9?9?9?9?9?9?9?9?9?9?9?9?9?9?9?9?9?9?9?9?9?9?9?9?9@ 1000e180     use.obj
 0001:0000d1a8       ??_C@_0CN@NCBCELPJ@Secondary?5Fragment?5Shader?5?$CI?$CFu?$CJ?5D@ 1000e1a8     use.obj
 0001:0000d1d8       ??_C@_0GC@BGIKAPHB@Secondary?5Fragment?5Shader?5?$CIN?1A?$CJ?5@ 1000e1d8     use.obj
 0001:0000d23c       ??_C@_0BF@DFHKLJPP@?$DMunknown?5pass?5type?$DO?6?$AA@ 1000e23c     use.obj
 0001:0000d254       ??_C@_0CF@JNKEEIDM@EURASIA_ISPA_PASSTYPE_DEPTHFEEDB@ 1000e254     use.obj
 0001:0000d27c       ??_C@_0BO@HKNNNDJO@EURASIA_ISPA_PASSTYPE_FASTPT?6?$AA@ 1000e27c     use.obj
 0001:0000d29c       ??_C@_0CA@GPIBLANO@EURASIA_ISPA_PASSTYPE_VIEWPORT?6?$AA@ 1000e29c     use.obj
 0001:0000d2bc       ??_C@_0BP@GBMMJFAC@EURASIA_ISPA_PASSTYPE_TRANSPT?6?$AA@ 1000e2bc     use.obj
 0001:0000d2dc       ??_C@_0BN@CBKFJPNN@EURASIA_ISPA_PASSTYPE_TRANS?6?$AA@ 1000e2dc     use.obj
 0001:0000d2fc       ??_C@_0BO@IPPEKFK@EURASIA_ISPA_PASSTYPE_OPAQUE?6?$AA@ 1000e2fc     use.obj
 0001:0000d31c       ??_C@_0N@HCIKMBBO@Pass?5Type?3?5?5?$AA@ 1000e31c     use.obj
 0001:0000d32c       ??_C@_0BG@NBHKBIAO@?$DMunknown?5color?5mask?$DO?6?$AA@ 1000e32c     use.obj
 0001:0000d344       ??_C@_0BF@BPDDKAAD@GLES2_COLORMASK_ALL?6?$AA@ 1000e344     use.obj
 0001:0000d35c       ??_C@_0BF@ELGIFDGD@GLES2_COLORMASK_RED?6?$AA@ 1000e35c     use.obj
 0001:0000d374       ??_C@_0BH@OJHLNLJD@GLES2_COLORMASK_GREEN?6?$AA@ 1000e374     use.obj
 0001:0000d38c       ??_C@_0BG@LDLKCKNG@GLES2_COLORMASK_BLUE?6?$AA@ 1000e38c     use.obj
 0001:0000d3a4       ??_C@_0BH@OCEBAKFA@GLES2_COLORMASK_ALPHA?6?$AA@ 1000e3a4     use.obj
 0001:0000d3bc       ??_C@_0O@EEGBINIM@Color?5Mask?5?3?5?$AA@ 1000e3bc     use.obj
 0001:0000d3cc       ??_C@_0BI@HKOPCONL@?$DMunknown?5blend?5factor?$DO?6?$AA@ 1000e3cc     use.obj
 0001:0000d3e4       ??_C@_0CF@LCILIGHL@GLES2_BLENDFACTOR_DSTALPHA_SATUR@ 1000e3e4     use.obj
 0001:0000d40c       ??_C@_0CH@DDDBEBME@GLES2_BLENDFACTOR_ONEMINUS_CONST@ 1000e40c     use.obj
 0001:0000d434       ??_C@_0BO@GAOBPBJL@GLES2_BLENDFACTOR_CONSTALPHA?6?$AA@ 1000e434     use.obj
 0001:0000d454       ??_C@_0CH@EJNHNFA@GLES2_BLENDFACTOR_ONEMINUS_CONST@ 1000e454     use.obj
 0001:0000d47c       ??_C@_0BO@FHENMNAP@GLES2_BLENDFACTOR_CONSTCOLOR?6?$AA@ 1000e47c     use.obj
 0001:0000d49c       ??_C@_0CF@DDGGGFON@GLES2_BLENDFACTOR_SRCALPHA_SATUR@ 1000e49c     use.obj
 0001:0000d4c4       ??_C@_0CF@OFOEIEPP@GLES2_BLENDFACTOR_ONEMINUS_DSTCO@ 1000e4c4     use.obj
 0001:0000d4ec       ??_C@_0BM@MAOHKPOC@GLES2_BLENDFACTOR_DSTCOLOR?6?$AA@ 1000e4ec     use.obj
 0001:0000d508       ??_C@_0CF@NCEILIGL@GLES2_BLENDFACTOR_ONEMINUS_DSTAL@ 1000e508     use.obj
 0001:0000d530       ??_C@_0BM@PHELJDHG@GLES2_BLENDFACTOR_DSTALPHA?6?$AA@ 1000e530     use.obj
 0001:0000d54c       ??_C@_0CF@HGDPAOIL@GLES2_BLENDFACTOR_ONEMINUS_SRCAL@ 1000e54c     use.obj
 0001:0000d574       ??_C@_0BM@FDDMCFJG@GLES2_BLENDFACTOR_SRCALPHA?6?$AA@ 1000e574     use.obj
 0001:0000d590       ??_C@_0CF@EBJDDCBP@GLES2_BLENDFACTOR_ONEMINUS_SRCCO@ 1000e590     use.obj
 0001:0000d5b8       ??_C@_0BM@GEJABJAC@GLES2_BLENDFACTOR_SRCCOLOR?6?$AA@ 1000e5b8     use.obj
 0001:0000d5d4       ??_C@_0BH@PJOIGCKH@GLES2_BLENDFACTOR_ONE?6?$AA@ 1000e5d4     use.obj
 0001:0000d5ec       ??_C@_0BI@CNPALEJH@GLES2_BLENDFACTOR_ZERO?6?$AA@ 1000e5ec     use.obj
 0001:0000d604       ??_C@_0BG@PIMBNOGE@?5?5Alpha?5Dst?5Factor?3?5?5?$AA@ 1000e604     use.obj
 0001:0000d61c       ??_C@_0BG@FOKIJFDO@?5?5Alpha?5Src?5Factor?3?5?5?$AA@ 1000e61c     use.obj
 0001:0000d634       ??_C@_0BG@JBCHPEGD@?5?5?5?5RGB?5Dst?5Factor?3?5?5?$AA@ 1000e634     use.obj
 0001:0000d64c       ??_C@_0BG@DHEOLPDJ@?5?5?5?5RGB?5Src?5Factor?3?5?5?$AA@ 1000e64c     use.obj
 0001:0000d664       ??_C@_0BK@HOILAJFA@?$DMunknown?5blend?5function?$DO?6?$AA@ 1000e664     use.obj
 0001:0000d680       ??_C@_0BN@MGDPJGBH@GLES2_BLENDFUNC_REVSUBTRACT?6?$AA@ 1000e680     use.obj
 0001:0000d6a0       ??_C@_0BK@MACFMOHN@GLES2_BLENDFUNC_SUBTRACT?6?$AA@ 1000e6a0     use.obj
 0001:0000d6bc       ??_C@_0BF@JGOAONHP@GLES2_BLENDFUNC_ADD?6?$AA@ 1000e6bc     use.obj
 0001:0000d6d4       ??_C@_0BG@KIDOMNJH@GLES2_BLENDFUNC_NONE?6?$AA@ 1000e6d4     use.obj
 0001:0000d6ec       ??_C@_0BG@BGIGMEGJ@?5?5?5?5Alpha?5Function?3?5?5?$AA@ 1000e6ec     use.obj
 0001:0000d704       ??_C@_0BG@CLJGEJGD@?5?5?5?5?5?5RGB?5Function?3?5?5?$AA@ 1000e704     use.obj
 0001:0000d71c       ??_C@_0BG@EAAHBBPC@Aplha?5Blend?5Enabled?3?6?$AA@ 1000e71c     use.obj
 0001:0000d734       ??_C@_0CH@GPCMCKNF@?9?9?9?9?9?9?9?9?9?9?9?9?9?9?9?9?9?9?9?9?9?9?9?9?9?9?9?9?9?9?9?9@ 1000e734     use.obj
 0001:0000d75c       ??_C@_0CD@BLIKPDDJ@Fragment?5Shader?5?$CI?$CFu?$CJ?5Disassembly@ 1000e75c     use.obj
 0001:0000d780       ??_C@_0FI@JMPJOJKE@Fragment?5Shader?5?$CIN?1A?$CJ?5Disassembl@ 1000e780     use.obj
 0001:0000db60       ??_C@_0FH@KGGNFNGP@c?3?2data?2jatin?2powervr_build?2ddk1@ 1000eb60     validate.obj
 0001:0000dbb8       ??_C@_0FD@LEGNOHA@SetupRenderState?3Discard?5with?5st@ 1000ebb8     validate.obj
 0001:0000dc0c       ??_C@_0CI@KABANEGF@SetupRenderState?3?5Unsupported?5cu@ 1000ec0c     validate.obj
 0001:0000dc34       ??_C@_0BN@JKBCOODJ@EmitState?3?5Couldn?8t?5flush?5HW?$AA@ 1000ec34     validate.obj
 0001:0000dc58       ??_C@_0EG@IEOFOHFA@WritePDSPixelShaderProgram?3?5Fail@ 1000ec58     validate.obj
 0001:0000dca0       ??_C@_0DL@CJHDICNK@WritePDSPixelShaderProgram?3?5Fail@ 1000eca0     validate.obj
 0001:0000dce0       ??_C@_0EF@IPMONPAI@WritePDSPixelShaderProgram?3?5Fail@ 1000ece0     validate.obj
 0001:0000dd28       ??_C@_0ED@EEPGBJJC@WritePDSVertexShaderProgramWithV@ 1000ed28     validate.obj
 0001:0000dd70       ??_C@_0GL@ICMPCEAM@WritePDSVertexShaderProgramWithV@ 1000ed70     validate.obj
 0001:0000dddc       ??_C@_0DG@BLEEGCIE@WritePDSVertexShaderProgramWithV@ 1000eddc     validate.obj
 0001:0000de18       ??_C@_0EB@LAIPLAMM@LoadSecondaryAttributes?3?5Could?5n@ 1000ee18     validate.obj
 0001:0000de5c       ??_C@_0DO@JNDGLJBA@LoadSecondaryAttributes?3?5Could?5n@ 1000ee5c     validate.obj
 0001:0000de9c       ??_C@_0CD@CJABCCLH@Unsupported?5USP?5HW?5Constant?5form@ 1000ee9c     validate.obj
 0001:0000dec0       __real@38000080            1000eec0     validate.obj
 0001:0000dec4       __real@3b808081            1000eec4     validate.obj
 0001:0000dec8       __real@3c008081            1000eec8     validate.obj
 0001:0000decc       __real@3727c5ac            1000eecc     validate.obj
 0001:0000e038       CopyData                   1000f038     vertex.obj
 0001:0000e0a8       MemCopyData                1000f0a8     vertex.obj
 0001:0000e118       ??_C@_0BK@EHBAHNHE@glEnableVertexAttribArray?$AA@ 1000f118     vertex.obj
 0001:0000e138       ??_C@_0FF@EGFKJMGB@c?3?2data?2jatin?2powervr_build?2ddk1@ 1000f138     vertex.obj
 0001:0000e190       ??_C@_0BL@NKHLOFFF@glDisableVertexAttribArray?$AA@ 1000f190     vertex.obj
 0001:0000e1ac       ??_C@_0BB@MKNNJPHA@glVertexAttrib1f?$AA@ 1000f1ac     vertex.obj
 0001:0000e1c0       ??_C@_0BB@MIJLCBCJ@glVertexAttrib2f?$AA@ 1000f1c0     vertex.obj
 0001:0000e1d4       ??_C@_0BB@MJFJELBO@glVertexAttrib3f?$AA@ 1000f1d4     vertex.obj
 0001:0000e1e8       ??_C@_0BB@MMBGFNJL@glVertexAttrib4f?$AA@ 1000f1e8     vertex.obj
 0001:0000e1fc       ??_C@_0BC@CJKKHCND@glVertexAttrib1fv?$AA@ 1000f1fc     vertex.obj
 0001:0000e210       ??_C@_0BC@DLBPNNDN@glVertexAttrib2fv?$AA@ 1000f210     vertex.obj
 0001:0000e224       ??_C@_0BC@IDKDLKFI@glVertexAttrib3fv?$AA@ 1000f224     vertex.obj
 0001:0000e238       ??_C@_0BC@BOHEICOB@glVertexAttrib4fv?$AA@ 1000f238     vertex.obj
 0001:0000e24c       ??_C@_0BG@JPNNNPKG@glVertexAttribPointer?$AA@ 1000f24c     vertex.obj
 0001:0000e3cc       ??_C@_0DE@EOLNCBO@ReleaseImageFromTexture?3?5Invalid@ 1000f3cc     eglimage.obj
 0001:0000e400       ??_C@_0DC@HNGCPKCE@ReleaseImageFromTexture?3?5Unsuppo@ 1000f400     eglimage.obj
 0001:0000e438       ??_C@_0EM@HKHIMFAH@ReleaseImageFromTexture?3?5PVRTCII@ 1000f438     eglimage.obj
 0001:0000e488       ??_C@_0EM@IGIIFEEL@ReleaseImageFromTexture?3?5PVRTCII@ 1000f488     eglimage.obj
 0001:0000e4d8       ??_C@_0FH@COLPCHGD@c?3?2data?2jatin?2powervr_build?2ddk1@ 1000f4d8     eglimage.obj
 0001:0000e530       ??_C@_0DG@BNENAALG@glEGLImageTargetTexture2DOES?3?5Ca@ 1000f530     eglimage.obj
 0001:0000e568       ??_C@_0CL@GHMCDIMA@glEGLImageTargetTexture2DOES?3?5In@ 1000f568     eglimage.obj
 0001:0000e598       ??_C@_0EA@JCPPELOI@glEGLImageTargetRenderbufferStor@ 1000f598     eglimage.obj
 0001:0000e5d8       ??_C@_0DF@EMJMGEPC@glEGLImageTargetRenderbufferStor@ 1000f5d8     eglimage.obj
 0001:0000e610       ??_C@_0CD@DODEAALL@GLESGetImageSource?3?5Invalid?5sour@ 1000f610     eglimage.obj
 0001:0000e634       ??_C@_0DN@NPJOHFLN@GLESGetImageSource?3?5Format?5misma@ 1000f634     eglimage.obj
 0001:0000e674       ??_C@_0DF@IGBHKDBA@GLESGetImageSource?3?5Renderbuffer@ 1000f674     eglimage.obj
 0001:0000e6ac       ??_C@_0DB@HFLNHMLK@GLESGetImageSource?3?5Format?5misma@ 1000f6ac     eglimage.obj
 0001:0000e6e0       ??_C@_0CO@MFIPHHKH@GLESGetImageSource?3?5Unknown?5comp@ 1000f6e0     eglimage.obj
 0001:0000e710       ??_C@_0DA@HKKMBBDC@GLESGetImageSource?3?5Can?8t?5make?5t@ 1000f710     eglimage.obj
 0001:0000e740       ??_C@_0CO@ILIIMHEE@GLESGetImageSource?3?5Mipmap?5level@ 1000f740     eglimage.obj
 0001:0000e770       ??_C@_0CJ@BFKIGCMJ@GLESGetImageSource?3?5Inconsistent@ 1000f770     eglimage.obj
 0001:0000e79c       ??_C@_0DH@PAGJKANO@GLESGetImageSource?3?5Texture?5sour@ 1000f79c     eglimage.obj
 0001:0000e7d4       ??_C@_0CB@MJBNJOCH@GLESGetImageSource?3?5Invalid?5name@ 1000f7d4     eglimage.obj
 0001:0000e960       ??_C@_0EH@GHCBGFFA@glGetTexStreamDeviceAttributeivI@ 1000f960     texstream.obj
 0001:0000e9a8       ??_C@_0FI@DOFGAEFG@c?3?2data?2jatin?2powervr_build?2ddk1@ 1000f9a8     texstream.obj
 0001:0000ea00       ??_C@_0DE@IDHOANIL@Unsupported?5buffer?5class?5buffer?5@ 1000fa00     texstream.obj
 0001:0000ea34       ??_C@_0CP@MINNLHGM@AddBufferDevice?3?5Failed?5to?5alloc@ 1000fa34     texstream.obj
 0001:0000ea64       ??_C@_0DB@EFIADAPC@AddBufferDevice?3?5CreateTextureSt@ 1000fa64     texstream.obj
 0001:0000ea98       ??_C@_0CK@GFHJKOBH@AddBufferDevice?3?5Invalid?5buffer?5@ 1000fa98     texstream.obj
 0001:0000eac4       ??_C@_0CP@JEIDOGNL@AddBufferDevice?3?5CloseBufferClas@ 1000fac4     texstream.obj
 0001:0000eaf4       ??_C@_0DB@EPLGMDNI@AddBufferDevice?3?5BufferClassGetB@ 1000faf4     texstream.obj
 0001:0000eb28       ??_C@_0CO@FIIPPMOK@AddBufferDevice?3?5OpenBufferClass@ 1000fb28     texstream.obj
 0001:0000eb58       ??_C@_0CN@KJPFDNDH@AddBufferDevice?3?5EnumerateDevice@ 1000fb58     texstream.obj
 0001:0000eb88       ??_C@_0CP@JDNCPCBH@AddBufferDevice?3?5Failed?5to?5alloc@ 1000fb88     texstream.obj
 0001:0000ebb8       ??_C@_0CJ@IDOHAJCG@AddBufferDevice?3?5No?5buffer?5class@ 1000fbb8     texstream.obj
 0001:0000ebe4       ??_C@_0DI@LLBDCGML@AddBufferDevice?3?5Failed?5to?5alloc@ 1000fbe4     texstream.obj
 0001:0000ec1c       ??_C@_0CP@BEACIFAC@AddBufferDevice?3?5Failed?5to?5alloc@ 1000fc1c     texstream.obj
 0001:0000ec4c       ??_C@_0CL@IFEKNHKC@AddBufferDevice?3?5device?5?$CFd?5alrea@ 1000fc4c     texstream.obj
 0001:0000ec78       ??_C@_0DF@FCOKMNPG@glTexBindStreamIMG?3?5Bad?5offset?5?$CI@ 1000fc78     texstream.obj
 0001:0000ecb0       ??_C@_0DH@LGANAJPI@glTexBindStreamIMG?3?5Can?8t?5find?5o@ 1000fcb0     texstream.obj
 0001:0000ece8       ??_C@_0EA@ECHHDHFO@glGetTexStreamDeviceNameIMG?3?5Can@ 1000fce8     texstream.obj
 0001:0000ee90       ??_C@_0DG@OBHABACN@CreateTextureStreamState?3?5Unsupp@ 1000fe90     texyuv.obj
 0001:0000eec8       ??_C@_0CN@PCDOAHHO@CreateTextureStreamState?3?5Unsupp@ 1000fec8     texyuv.obj
 0001:0000eef8       ??_C@_0CN@PCEBBFKA@CreateTextureStreamState?3?5Unsupp@ 1000fef8     texyuv.obj
 0001:0000ef28       ??_C@_0FF@PAHNBIMG@c?3?2data?2jatin?2powervr_build?2ddk1@ 1000ff28     texyuv.obj
 0001:0000ef80       ??_C@_0CM@KPAHMDMN@CreateTextureStreamState?3?5Unsupp@ 1000ff80     texyuv.obj
 0001:0000f118       ??_C@_0FL@PPPMOJHA@c?3?2data?2jatin?2powervr_build?2ddk1@ 10010118     vertexarrobj.obj
 0001:0000f174       ??_C@_0BJ@PPNIKIML@ReclaimVAOMemKRM?3?5Called?$AA@ 10010174     vertexarrobj.obj
 0001:0000f190       ??_C@_0BL@DJJGAEJI@DestroyVAOGhostKRM?3?5Called?$AA@ 10010190     vertexarrobj.obj
 0001:0000f1b0       ??_C@_0EF@INEDCPMN@FreeVertexArrayObjectInternalPoi@ 100101b0     vertexarrobj.obj
 0001:0000f1f8       ??_C@_0DF@CPEJAKKP@glBindVertexArrayOES?3?5CreateVert@ 100101f8     vertexarrobj.obj
 0001:0000f378       ??_C@_0EJ@GCGBCHNI@c?3?2data?2jatin?2powervr_build?2ddk1@ 10010378     pds.obj
 0001:0000f3c4       ??_C@_0BP@NFBGHLCM@PDSGeneratePixelEventProgram?$CI?$CJ?$AA@ 100103c4     pds.obj
 0001:0000f3e4       ??_C@_0CC@PGCKEBHB@PDSGeneratePixelShaderSAProgram?$CI@ 100103e4     pds.obj
 0001:0000f408       ??_C@_0CI@MECGHJNF@PDSGenerateStaticPixelShaderSAPr@ 10010408     pds.obj
 0001:0000f430       ??_C@_0CA@BNMMMKJA@PDSGeneratePixelShaderProgram?$CI?$CJ?$AA@ 10010430     pds.obj
 0001:0000f450       ??_C@_0BO@LFANJAEO@PDSGenerateStateCopyProgram?$CI?$CJ?$AA@ 10010450     pds.obj
 0001:0000f470       ??_C@_0CD@DHPMMCBB@PDSGenerateVertexShaderSAProgram@ 10010470     pds.obj
 0001:0000f494       ??_C@_0CH@OKAPIIMC@PDSGenerateStaticVertexShaderPro@ 10010494     pds.obj
 0001:0000f4bc       ??_C@_0CB@DOFLMPOO@PDSGenerateVertexShaderProgram?$CI?$CJ@ 100104bc     pds.obj
 0001:0000f4e0       ??_C@_0CA@DLBJABAO@PDSGenerateConstUploadProgram?$CI?$CJ?$AA@ 100104e0     pds.obj
 0001:0000f500       ??_C@_0CD@JNNANOAP@PDSGenerateTerminateStateProgram@ 10010500     pds.obj
 0001:0000f524       ??_C@_0CA@JFFAOOOI@PDSPatchTerminateStateProgram?$CI?$CJ?$AA@ 10010524     pds.obj
 0001:0000f6b0       asSGXPixelFormat           100106b0     sgxpixfmts.obj
 0001:00015558       ??_C@_0EP@OABGIJPN@c?3?2data?2jatin?2powervr_build?2ddk1@ 10016558     usegen.obj
 0001:000155a8       ??_C@_0CG@DBCFPGAD@UCH_CodeHeapCreate?3?5Out?5of?5host?5@ 100165a8     codeheap.obj
 0001:000155d0       ??_C@_0CG@MDOFKBLI@UCH_CodeHeapCreate?3?5Out?5of?5devic@ 100165d0     codeheap.obj
 0001:000155f8       ??_C@_0FE@IKLMLLPG@c?3?2data?2jatin?2powervr_build?2ddk1@ 100165f8     codeheap.obj
 0001:0001564c       ??_C@_0CE@EHFGMJNP@UCH_CodeHeapCreate?3?5Out?5of?5host?5@ 1001664c     codeheap.obj
 0001:00015670       ??_C@_0EJ@FELHKEMJ@UCH_CodeHeapDestroy?3?5In?5heap?5?$CFp?5@ 10016670     codeheap.obj
 0001:000156c0       ??_C@_0GP@FFBDPAAH@UCH_CodeHeapDestroy?3?5In?5heap?5?$CFp?5@ 100166c0     codeheap.obj
 0001:00015730       ??_C@_0DF@PCCHIHBO@CodeHeapIsSane?3?5Some?5blocks?5in?5t@ 10016730     codeheap.obj
 0001:00015768       ??_C@_0CM@OPEPOHOE@CodeHeapIsSane?3?5The?5free?5list?5is@ 10016768     codeheap.obj
 0001:00015798       ??_C@_0EE@NEBABOKO@CodeHeapInsertBlockInFreeList?3?5F@ 10016798     codeheap.obj
 0001:000157e0       ??_C@_0EE@NJCAMENL@CodeHeapInsertBlockInFreeList?3?5B@ 100167e0     codeheap.obj
 0001:00015828       ??_C@_0EO@NCIFCHOE@CodeHeapInsertBlockInFreeList?3?5R@ 10016828     codeheap.obj
 0001:00015878       ??_C@_0EF@FPCPHONP@UCH_TrackCodeHeapAllocate?3?5The?5r@ 10016878     codeheap.obj
 0001:000158c0       ??_C@_0FC@ECEFHNCF@UCH_TrackCodeHeapAllocate?3?5The?5r@ 100168c0     codeheap.obj
 0001:00015918       ??_C@_0ED@MIDMBJEL@UCH_TrackCodeHeapFree?3?5Maybe?5it?5@ 10016918     codeheap.obj
 0001:00015960       ??_C@_0EJ@EOOMIGBO@UCH_TrackCodeHeapFree?3?5Block?5at?5@ 10016960     codeheap.obj
 0001:000159ac       ??_C@_0BF@NKGAPKNK@USSE?5Fragment?5buffer?$AA@ 100169ac     buffers.obj
 0001:000159c4       ??_C@_0BF@BHJKIFJA@PDS?5Fragment?5shader?5?$AA@ 100169c4     buffers.obj
 0001:000159dc       ??_C@_0BF@NKOGCMOH@PreGen?5Aux?5PDS?5Copy?5?$AA@ 100169dc     buffers.obj
 0001:000159f4       ??_C@_0BF@BEHNBIFA@PreGen?5MTE?5PDS?5Copy?5?$AA@ 100169f4     buffers.obj
 0001:00015a0c       ??_C@_0BF@GMKIJELK@PreGen?5Vtx?5PDS?5Sec?5?5?$AA@ 10016a0c     buffers.obj
 0001:00015a24       ??_C@_0BF@NBDIKPLA@PDS?5Vertex?5shader?5?5?5?$AA@ 10016a24     buffers.obj
 0001:00015a3c       ??_C@_0BF@IDFGBKIM@Dynamic?5Index?5data?5?5?$AA@ 10016a3c     buffers.obj
 0001:00015a54       ??_C@_0BF@GKMGPMBH@Dynamic?5Vertex?5data?5?$AA@ 10016a54     buffers.obj
 0001:00015a6c       ??_C@_0BF@FLGLMJAI@VDM?5Control?5Stream?5?5?$AA@ 10016a6c     buffers.obj
 0001:00015a84       ??_C@_09EAACOHBK@USSE_FRAG?$AA@ 10016a84     buffers.obj
 0001:00015a90       ??_C@_08FBEBHLMN@PDS_FRAG?$AA@ 10016a90     buffers.obj
 0001:00015a9c       ??_C@_0P@OFJAKNHD@PDS_AUX_PREGEN?$AA@ 10016a9c     buffers.obj
 0001:00015aac       ??_C@_0BE@LODODMJH@PDS_MTE_COPY_PREGEN?$AA@ 10016aac     buffers.obj
 0001:00015ac0       ??_C@_0BE@EOHKDACO@PDS_VERT_SEC_PREGEN?$AA@ 10016ac0     buffers.obj
 0001:00015ad4       ??_C@_08IDOANPNC@PDS_VERT?$AA@ 10016ad4     buffers.obj
 0001:00015ae0       ??_C@_0L@LKODOEOD@INDEX_DATA?$AA@ 10016ae0     buffers.obj
 0001:00015aec       ??_C@_0M@OCLPNNFM@VERTEX_DATA?$AA@ 10016aec     buffers.obj
 0001:00015af8       ??_C@_08FKFPBJK@VDM_CTRL?$AA@ 10016af8     buffers.obj
 0001:00015b28       pszBufferNames             10016b28     buffers.obj
 0001:00015b50       ??_C@_0EI@OCAJGJGC@CBUF_GetBufferSpace?3?5Space?5requi@ 10016b50     buffers.obj
 0001:00015b98       ??_C@_0DC@FAHGPGHK@CBUF_GetBufferSpace?3?5PVRSRVEvent@ 10016b98     buffers.obj
 0001:00015bd0       ??_C@_0FD@OFAHCHIC@CBUF_GetBufferSpace?3?5Run?5out?5of?5@ 10016bd0     buffers.obj
 0001:00015c28       ??_C@_0FD@BPJDGBGC@c?3?2data?2jatin?2powervr_build?2ddk1@ 10016c28     buffers.obj
 0001:00015c7c       ??_C@_0DA@CPLPAHP@CBUF_GetBufferSpace?3?5Buffer?5is?5a@ 10016c7c     buffers.obj
 0001:00015cac       ??_C@_0CF@HPEOJHMK@CheckPDSBufferSpace?3?5?$CFs?5buffer?5w@ 10016cac     buffers.obj
 0001:00015cd4       ??_C@_0CE@MBNIKMPE@CheckVIBufferSpace?3?5?$CFs?5buffer?5wr@ 10016cd4     buffers.obj
 0001:00015cf8       ??_C@_0EC@NEDBIKBE@CheckTACtrlBufferSpace?3?5TA?5ctrl?5@ 10016cf8     buffers.obj
 0001:00015d3c       ??_C@_0CH@FKKEHHDE@CBUF_UpdateBufferPos?3?5?$CFs?5buffer?5@ 10016d3c     buffers.obj
 0001:00015d68       ??_C@_0EG@GGPKLNEO@CBUF_UpdateBufferPos?3?5Free?5space@ 10016d68     buffers.obj
 0001:00015db0       ??_C@_0FB@CFFCNFKF@CBUF_UpdateBufferPos?3?5Number?5of?5@ 10016db0     buffers.obj
 0001:00015e08       ??_C@_0EJ@OMIAMBLO@CBUF_UpdateBufferPos?3?5More?5dword@ 10016e08     buffers.obj
 0001:00015e54       ??_C@_0DO@KEMAGFPL@CBUF_UpdateBufferPos?3?5Buffer?5is?5@ 10016e54     buffers.obj
 0001:00015e94       ??_C@_0CI@MONMBOMA@Kicking?5render?5due?5to?5frag?5buffe@ 10016e94     buffers.obj
 0001:00015ec0       ??_C@_0FI@MMMJIKOK@CBUF_UpdateTACtrlKickBase?3?5Shoul@ 10016ec0     buffers.obj
 0001:00015f18       ??_C@_0EF@MOHOIDDC@CBUF_CreateBuffer?3?5Failed?5to?5all@ 10016f18     buffers.obj
 0001:00015f60       ??_C@_0EA@PCFNHLGI@CBUF_CreateBuffer?3?5DeviceMem?5all@ 10016f60     buffers.obj
 0001:00015fa0       ??_C@_0CK@PLJCNDJM@CBUF_CreateBuffer?3?5Invalid?5buffe@ 10016fa0     buffers.obj
 0001:00015fd0       ??_C@_0FB@BCGMFJP@CBUF_CreateBuffer?3?5Requested?5buf@ 10016fd0     buffers.obj
 0001:00016028       ??_C@_0FB@DKGMPPAG@CBUF_CreateBuffer?3?5Requested?5buf@ 10017028     buffers.obj
 0001:0001607c       ??_C@_0CO@IKKALMBO@CBUF_CreateBuffer?3?5psBuffer?5allo@ 1001707c     buffers.obj
 0001:000170c0       ??_C@_0DD@EKCNNEMG@KRM_Initialize?3?5Could?5not?5alloca@ 100180c0     kickresource.obj
 0001:000170f4       ??_C@_0CH@FDBLCGKA@KRM_Initialize?3?5Invalid?5type?5par@ 100180f4     kickresource.obj
 0001:0001711c       ??_C@_0CL@MDCOPNBM@KRM_Initialize?3?5Invalid?5callback@ 1001811c     kickresource.obj
 0001:00017148       ??_C@_0CI@MGOKDFFN@KRM_Initialize?3?5Invalid?5mutex?5pa@ 10018148     kickresource.obj
 0001:00017170       ??_C@_0FI@KANHGBBJ@c?3?2data?2jatin?2powervr_build?2ddk1@ 10018170     kickresource.obj
 0001:000171c8       ??_C@_0CM@EACCCOOM@FRM_Attach?3?5Unable?5to?5get?5a?5new?5@ 100181c8     kickresource.obj
 0001:000171f4       ??_C@_0CN@CLBGJENG@AllocAttachment?3?5Out?5of?5memory?4?5@ 100181f4     kickresource.obj
 0001:00017224       ??_C@_0CH@FPADECMJ@IsResourceInUse?3?5Invalid?5manager@ 10018224     kickresource.obj
 0001:0001724c       ??_C@_0CF@PCKLEEID@IsKickFinished?3?5Invalid?5manager?5@ 1001824c     kickresource.obj
 0001:00017274       ??_C@_0DL@KGFPCHNO@WaitUntilResourceIsNotNeeded?3?5PV@ 10018274     kickresource.obj
 0001:000172b0       ??_C@_0EI@JEKCJKLK@KRM_Destroy?3?5Destroying?5a?5ghost?5@ 100182b0     kickresource.obj
 0001:000172f8       ??_C@_0DJ@EDCHFHMJ@KRM_FlushUnKickedResource?3?5Inval@ 100182f8     kickresource.obj
 0001:00017338       ??_C@_0FA@LNCIBOFF@c?3?2data?2jatin?2powervr_build?2ddk1@ 10018338     dmscalc.obj
 0001:00017388       ??_C@_0DA@NGNCMLGL@PVRUniPatchCreateContext?3?5Contex@ 10018388     usp:usp.obj
 0001:000173b8       ??_C@_0DE@EAMIDACK@PVRUniPatchCreateShader?3?5Error?5c@ 100183b8     usp:usp.obj
 0001:000173ec       ??_C@_0DF@CFKFPGAH@PVRUniPatchCreatePCShader?3?5Error@ 100183ec     usp:usp.obj
 0001:00017428       ??_C@_0ED@NCEJDOPF@The?5texture?5format?5of?5the?5textur@ 10018428     usp:usp.obj
 0001:00017470       ??_C@_0EC@BAJDLOCO@PVRUniPatchSetTextureFormat?3?5Inv@ 10018470     usp:usp.obj
 0001:000174b8       ??_C@_0EE@JFJONLH@PVRUniPatchFinaliseShader?3?5Error@ 100184b8     usp:usp.obj
 0001:000174fc       ??_C@_0DH@NFFFKFHN@PVRUniPatchFinaliseShader?3?5Faile@ 100184fc     usp:usp.obj
 0001:00017538       ??_C@_0EA@EPDDBIMF@PVRUniPatchFinaliseShader?3?5Error@ 10018538     usp:usp.obj
 0001:00017578       ??_C@_0EB@HINMIEMA@PVRUniPatchFinaliseShader?3?5Error@ 10018578     usp:usp.obj
 0001:000175bc       ??_C@_0DK@NPPCGFAD@PVRUniPatchFinaliseShader?3?5Error@ 100185bc     usp:usp.obj
 0001:000175f8       ??_C@_0DF@MGKIFPGB@PVRUniPatchFinaliseShader?3?5Error@ 100185f8     usp:usp.obj
 0001:00017630       ??_C@_0DM@PFCNKDMN@PVRUniPatchFinaliseShader?3?5Error@ 10018630     usp:usp.obj
 0001:0001766c       ??_C@_0DN@EBCKIENP@PVRUniPatchFinaliseShader?3?5Error@ 1001866c     usp:usp.obj
 0001:000176ac       ??_C@_0DO@IFDDHGJG@PVRUniPatchFinaliseShader?3?5Error@ 100186ac     usp:usp.obj
 0001:000176f0       ??_C@_0EC@LABNNDNC@PVRUniPatchFinaliseShader?3?5Error@ 100186f0     usp:usp.obj
 0001:00017738       ??_C@_0FA@KPMKMDPD@PVRUniPatchFinaliseShader?3?5Error@ 10018738     usp:usp.obj
 0001:000177f0       ??_C@_0DL@NADEJMOE@PCShaderCreate?3?5Failed?5incorrect@ 100187f0     usp:uspshader.obj
 0001:00017830       ??_C@_0EE@CPNACADB@PCShaderCreate?3?5Failed?5size?5mism@ 10018830     usp:uspshader.obj
 0001:00017874       ??_C@_0CM@KDOAGNGD@PCShaderCreate?3?5Failed?5to?5write?5@ 10018874     usp:uspshader.obj
 0001:000178a0       ??_C@_0DE@KHKFEGJC@PCShaderCreate?3?5Failed?5to?5write?5@ 100188a0     usp:uspshader.obj
 0001:000178d4       ??_C@_0DD@DDAOBEDF@PCShaderCreate?3?5Failed?5to?5alloca@ 100188d4     usp:uspshader.obj
 0001:00017908       ??_C@_0CL@GJDBPKPN@PCShaderCreate?3?5Failed?5to?5calcul@ 10018908     usp:uspshader.obj
 0001:00017934       ??_C@_0CN@KEFKPMIH@WritePCBlockHdr?3?5Unrecognised?5PC@ 10018934     usp:uspshader.obj
 0001:00017964       ??_C@_0DN@KGAAGJGE@WritePCProgDescBlock?3?5Invalid?5ch@ 10018964     usp:uspshader.obj
 0001:000179a4       ??_C@_0DP@KAPBCNIN@WritePCProgDescBlock?3?5Invalid?5te@ 100189a4     usp:uspshader.obj
 0001:000179e4       ??_C@_0DF@LCPIOFCA@WritePCProgDescBlock?3?5Invalid?5fo@ 100189e4     usp:uspshader.obj
 0001:00017a1c       ??_C@_0DM@GLPNJBEJ@WritePCProgDescBlock?3?5Invalid?5de@ 10018a1c     usp:uspshader.obj
 0001:00017a58       ??_C@_0DN@MGCGNEBE@WritePCProgDescBlock?3?5Invalid?5de@ 10018a58     usp:uspshader.obj
 0001:00017a98       ??_C@_0DN@EELNECLE@WritePCProgDescBlock?3?5Invalid?5de@ 10018a98     usp:uspshader.obj
 0001:00017ad8       ??_C@_0EE@MFILGOE@WritePCProgDescBlock?3?5Invalid?5de@ 10018ad8     usp:uspshader.obj
 0001:00017b1c       ??_C@_0CL@EDGFDFKP@WritePCProgDescBlock?3?5Unknown?5US@ 10018b1c     usp:uspshader.obj
 0001:00017b48       ??_C@_0CM@KLFCLKFO@WritePCProgDescBlock?3?5Unknown?5US@ 10018b48     usp:uspshader.obj
 0001:00017b74       ??_C@_0DA@DJOOOAFK@WriteUSPBlocks?3?5Error?5writing?5US@ 10018b74     usp:uspshader.obj
 0001:00017ba4       ??_C@_0DA@DCFAOJMC@WriteUSPBlocks?3?5Error?5writing?5US@ 10018ba4     usp:uspshader.obj
 0001:00017bd4       ??_C@_0DH@JCMDIEKB@WriteUSPBlocks?3?5Error?5writing?5US@ 10018bd4     usp:uspshader.obj
 0001:00017c10       ??_C@_0EL@FDEDEIEE@WriteUSPSampleBlock?3?5Invalid?5dir@ 10018c10     usp:uspshader.obj
 0001:00017c5c       ??_C@_0DD@OGGBOENG@WriteUSPSampleBlock?3?5Invalid?5non@ 10018c5c     usp:uspshader.obj
 0001:00017c90       ??_C@_0CP@NDHKJFNM@WriteUSPSampleBlock?3?5Invalid?5non@ 10018c90     usp:uspshader.obj
 0001:00017cc0       ??_C@_0CM@NAHBBBDE@WriteUSPSampleBlock?3?5Invalid?5tem@ 10018cc0     usp:uspshader.obj
 0001:00017cec       ??_C@_0DD@ILJLMLMF@WriteUSPSampleBlock?3?5Invalid?5dir@ 10018cec     usp:uspshader.obj
 0001:00017d20       ??_C@_0CM@NJPEBPGO@WriteUSPSampleBlock?3?5Invalid?5des@ 10018d20     usp:uspshader.obj
 0001:00017d4c       ??_C@_0DC@GMMHGGP@WriteUSPSampleUnpackBlock?3?5Inval@ 10018d4c     usp:uspshader.obj
 0001:00017d80       ??_C@_0DI@GBBKKPOM@WriteUSPSampleUnpackBlock?3?5Inval@ 10018d80     usp:uspshader.obj
 0001:00017db8       ??_C@_0DA@DIDIJPEH@WriteUSPSampleUnpackBlock?3?5Inval@ 10018db8     usp:uspshader.obj
 0001:00017de8       ??_C@_0DC@PEJHIDF@WriteUSPSampleUnpackBlock?3?5Inval@ 10018de8     usp:uspshader.obj
 0001:00017e1c       ??_C@_0DD@FNJMONIK@WriteUSPHWCodeBlock?3?5Invalid?5USP@ 10018e1c     usp:uspshader.obj
 0001:00017e50       ??_C@_0EF@HOHGIPP@USPShaderCreate?3?5Failed?5to?5alloc@ 10018e50     usp:uspshader.obj
 0001:00017e98       ??_C@_0DC@GHBNEJLB@USPShaderCreate?3?5Failed?5to?5creat@ 10018e98     usp:uspshader.obj
 0001:00017ecc       ??_C@_0DF@COFLBLF@USPShaderCreate?3?5Failed?5to?5creat@ 10018ecc     usp:uspshader.obj
 0001:00017f04       ??_C@_0CI@HEBDBJOC@USPShaderCreate?3?5Unexpected?5shad@ 10018f04     usp:uspshader.obj
 0001:00017f2c       ??_C@_0DB@JFNOPGNN@USPShaderCreate?3?5Error?5reading?5n@ 10018f2c     usp:uspshader.obj
 0001:00017f60       ??_C@_0DJ@CLCHJPK@USPShaderCreate?3?5Unrecognised?5PC@ 10018f60     usp:uspshader.obj
 0001:00017f9c       ??_C@_0DB@ELEHHELK@USPShaderCreate?3?5Failed?5to?5read?5@ 10018f9c     usp:uspshader.obj
 0001:00017fd0       ??_C@_0DA@JFBNNOCB@USPShaderCreate?3?5Failed?5to?5read?5@ 10018fd0     usp:uspshader.obj
 0001:00018000       ??_C@_0DB@EAPJHNCC@USPShaderCreate?3?5Failed?5to?5read?5@ 10019000     usp:uspshader.obj
 0001:00018034       ??_C@_0CP@NCOCGJFA@USPShaderCreate?3?5Failed?5to?5read?5@ 10019034     usp:uspshader.obj
 0001:00018064       ??_C@_0DE@NNBFJGNK@USPShaderCreate?3?5Failed?5to?5read?5@ 10019064     usp:uspshader.obj
 0001:00018098       ??_C@_0EB@LICINGCB@USPShaderCreate?3?5Multiple?5PC?5pro@ 10019098     usp:uspshader.obj
 0001:000180dc       ??_C@_0DE@ENMFGHPA@USPShaderCreate?3?5Failed?5to?5alloc@ 100190dc     usp:uspshader.obj
 0001:00018110       ??_C@_0DC@HCFPBFEA@USPShaderCreate?3?5First?5PC?5block?5@ 10019110     usp:uspshader.obj
 0001:00018144       ??_C@_0DC@FBLHMHPC@USPShaderCreate?3?5Error?5reading?5f@ 10019144     usp:uspshader.obj
 0001:00018178       ??_C@_0DP@LKGADDAF@USPShaderCreate?3?5Unsupported?5bin@ 10019178     usp:uspshader.obj
 0001:000181b8       ??_C@_0DI@GIKHNNMG@USPShaderCreate?3?5Invalid?5binary?5@ 100191b8     usp:uspshader.obj
 0001:000181f0       ??_C@_0CP@KFFAFGHE@ReadPCBlockHdr?3?5Unrecognised?5PC?5@ 100191f0     usp:uspshader.obj
 0001:00018220       ??_C@_0CM@GEJIMPLP@ReadPCHWCodeBlock?3?5Invalid?5MOE?5i@ 10019220     usp:uspshader.obj
 0001:00018250       ??_C@_0EB@DMLBIDNH@ReadPCHWCodeBlock?3?5Failed?5to?5cre@ 10019250     usp:uspshader.obj
 0001:00018294       ??_C@_0CI@FCGFMBOL@ReadPCHWCodeBlock?3?5Invalid?5instr@ 10019294     usp:uspshader.obj
 0001:000182bc       ??_C@_0DA@BDMPOEOI@ReadPCHWCodeBlock?3?5Error?5decodin@ 100192bc     usp:uspshader.obj
 0001:000182ec       ??_C@_0DH@PJDNOAMB@ReadPCHWCodeBlock?3?5Failed?5to?5all@ 100192ec     usp:uspshader.obj
 0001:00018324       ??_C@_0DM@IIGHANGB@ReadPCHWCodeBlock?3?5Failed?5to?5all@ 10019324     usp:uspshader.obj
 0001:00018360       ??_C@_0DI@LLLOCDEB@USPShaderAddPCInstBlock?3?5Error?5a@ 10019360     usp:uspshader.obj
 0001:00018398       ??_C@_0DK@FHIDCDCD@USPShaderAddPCInstBlock?3?5Failed?5@ 10019398     usp:uspshader.obj
 0001:000183d4       ??_C@_0DM@KNMOAAPE@ReadPCProgDescBlock?3?5Invalid?5chu@ 100193d4     usp:uspshader.obj
 0001:00018410       ??_C@_0DO@OFNOHFKF@ReadPCProgDescBlock?3?5Invalid?5tex@ 10019410     usp:uspshader.obj
 0001:00018450       ??_C@_0DE@FNFKPOBO@ReadPCProgDescBlock?3?5Invalid?5for@ 10019450     usp:uspshader.obj
 0001:00018484       ??_C@_0DL@HOELCAIG@ReadPCProgDescBlock?3?5Invalid?5des@ 10019484     usp:uspshader.obj
 0001:000184c0       ??_C@_0DM@MNOILNIE@ReadPCProgDescBlock?3?5Invalid?5des@ 100194c0     usp:uspshader.obj
 0001:000184fc       ??_C@_0DM@EPHDCLCE@ReadPCProgDescBlock?3?5Invalid?5des@ 100194fc     usp:uspshader.obj
 0001:00018538       ??_C@_0ED@ENEPEPPB@ReadPCProgDescBlock?3?5Invalid?5des@ 10019538     usp:uspshader.obj
 0001:0001857c       ??_C@_0CM@CHCBKIG@ReadPCProgDescBlock?3?5Unknown?5PS?5@ 1001957c     usp:uspshader.obj
 0001:000185a8       ??_C@_0CN@OJKBDFBN@ReadPCProgDescBlock?3?5Unknown?5PS?5@ 100195a8     usp:uspshader.obj
 0001:000185d8       ??_C@_0CM@NKPHIIHE@ReadPCProgDescBlock?3?5Unknown?5tar@ 100195d8     usp:uspshader.obj
 0001:00018604       ??_C@_0DF@MNLDEPBJ@ReadPCProgDescBlock?3?5Failed?5to?5c@ 10019604     usp:uspshader.obj
 0001:0001863c       ??_C@_0DL@IFGIJOKJ@USPProgDescCreate?3?5Failed?5to?5all@ 1001963c     usp:uspshader.obj
 0001:00018678       ??_C@_0EJ@KMJFNGID@USPProgDescCreate?3?5Failed?5to?5all@ 10019678     usp:uspshader.obj
 0001:000186c4       ??_C@_0DI@DMBPACLF@USPProgDescCreate?3?5Failed?5to?5all@ 100196c4     usp:uspshader.obj
 0001:000186fc       ??_C@_0DM@BENKDNBG@USPProgDescCreate?3?5Failed?5to?5all@ 100196fc     usp:uspshader.obj
 0001:00018738       ??_C@_0DI@PFKCAJGP@USPProgDescCreate?3?5Failed?5to?5all@ 10019738     usp:uspshader.obj
 0001:00018770       ??_C@_0DI@IPEGIPNJ@USPProgDescCreate?3?5Failed?5to?5all@ 10019770     usp:uspshader.obj
 0001:000187a8       ??_C@_0EH@GCACJNOE@USPProgDescCreate?3?5Failed?5to?5all@ 100197a8     usp:uspshader.obj
 0001:000187f0       ??_C@_0CN@ODPNDLPN@USPProgDescCreate?3?5Failed?5to?5all@ 100197f0     usp:uspshader.obj
 0001:00018820       ??_C@_0DM@HMKCDKBP@ReadPCSampleBlock?3?5Error?5getting@ 10019820     usp:uspshader.obj
 0001:0001885c       ??_C@_0CK@PDHNAPHA@ReadPCSampleBlock?3?5Invalid?5base?5@ 1001985c     usp:uspshader.obj
 0001:00018888       ??_C@_0DL@IKOLKCI@ReadPCSampleBlock?3?5Error?5decodin@ 10019888     usp:uspshader.obj
 0001:000188c8       ??_C@_0EJ@CECDLNGF@ReadPCSampleBlock?3?5Invalid?5direc@ 100198c8     usp:uspshader.obj
 0001:00018914       ??_C@_0DB@PCNHPEBF@ReadPCSampleBlock?3?5Invalid?5non?9D@ 10019914     usp:uspshader.obj
 0001:00018948       ??_C@_0CN@MNGAFBFK@ReadPCSampleBlock?3?5Invalid?5non?9D@ 10019948     usp:uspshader.obj
 0001:00018978       ??_C@_0EC@MFOLFNME@ReadPCSampleBlock?3?5Invalid?5temp?5@ 10019978     usp:uspshader.obj
 0001:000189bc       ??_C@_0DB@JPCNNLAG@ReadPCSampleBlock?3?5Invalid?5direc@ 100199bc     usp:uspshader.obj
 0001:000189f0       ??_C@_0CL@NOMCJECN@ReadPCSampleBlock?3?5Invalid?5dest?4@ 100199f0     usp:uspshader.obj
 0001:00018a1c       ??_C@_0CL@JABGFGFF@ReadPCSampleBlock?3?5Invalid?5sampl@ 10019a1c     usp:uspshader.obj
 0001:00018a48       ??_C@_0DM@BJOMMDJM@ReadPCSampleBlock?3?5Invalid?5textu@ 10019a48     usp:uspshader.obj
 0001:00018a84       ??_C@_0DI@OEFEHNIC@ReadPCSampleBlock?3?5Invalid?5sampl@ 10019a84     usp:uspshader.obj
 0001:00018abc       ??_C@_0DF@FMPNHMCE@ReadPCSampleBlock?3?5Failed?5to?5cre@ 10019abc     usp:uspshader.obj
 0001:00018af4       ??_C@_0DA@HBNPMECI@ReadPCSampleBlock?3?5Error?5decodin@ 10019af4     usp:uspshader.obj
 0001:00018b24       ??_C@_0DA@LBIAPKHD@ReadPCSampleUnpackBlock?3?5Invalid@ 10019b24     usp:uspshader.obj
 0001:00018b58       ??_C@_0EH@LGIPBDLI@ReadPCSampleUnpackBlock?3?5Invalid@ 10019b58     usp:uspshader.obj
 0001:00018ba0       ??_C@_0DG@HAMLDPIP@ReadPCSampleUnpackBlock?3?5Invalid@ 10019ba0     usp:uspshader.obj
 0001:00018bd8       ??_C@_0CO@DMPNKDJG@ReadPCSampleUnpackBlock?3?5Invalid@ 10019bd8     usp:uspshader.obj
 0001:00018c08       ??_C@_0DK@HMIHAPNB@ReadPCSampleUnpackBlock?3?5Invalid@ 10019c08     usp:uspshader.obj
 0001:00018c44       ??_C@_0DL@FBEHGAAP@ReadPCSampleUnpackBlock?3?5Invalid@ 10019c44     usp:uspshader.obj
 0001:00018c80       ??_C@_0DL@CMPDACBG@ReadPCSampleUnpackBlock?3?5Invalid@ 10019c80     usp:uspshader.obj
 0001:00018cbc       ??_C@_0DF@KILFAINJ@ReadPCSampleBlock?3?5Invalid?5F32?5d@ 10019cbc     usp:uspshader.obj
 0001:00018cf4       ??_C@_0DA@LIAFPECJ@ReadPCSampleUnpackBlock?3?5Invalid@ 10019cf4     usp:uspshader.obj
 0001:00018d24       ??_C@_0DK@JLPEDKKM@ReadPCSampleUnpackBlock?3?5Invalid@ 10019d24     usp:uspshader.obj
 0001:00018d60       ??_C@_0DO@GCOMJABB@ReadPCSampleUnpackBlock?3?5Invalid@ 10019d60     usp:uspshader.obj
 0001:00018da0       ??_C@_0DO@HJNNDBCL@ReadPCSampleUnpackBlock?3?5Invalid@ 10019da0     usp:uspshader.obj
 0001:00018de0       ??_C@_0EC@CCMBFGNG@ReadPCSampleUnpackBlock?3?5Failed?5@ 10019de0     usp:uspshader.obj
 0001:00018e24       ??_C@_0DG@PMAFFEPL@ReadPCSampleUnpackBlock?3?5Error?5d@ 10019e24     usp:uspshader.obj
 0001:00018e5c       ??_C@_0DC@NHAJELFA@ReadPCBranchBlock?3?5Error?5adding?5@ 10019e5c     usp:uspshader.obj
 0001:00018e90       ??_C@_0DF@PCBMKNDI@ReadPCBranchBlock?3?5Failed?5to?5cre@ 10019e90     usp:uspshader.obj
 0001:00018ec8       ??_C@_0DC@JNOCLLMF@USPBranchCreate?3?5Failed?5to?5alloc@ 10019ec8     usp:uspshader.obj
 0001:00018efc       ??_C@_0CI@FLMIFPEE@USPBranchCreate?3?5Failed?5to?5alloc@ 10019efc     usp:uspshader.obj
 0001:00018f24       ??_C@_0DK@NAKNADAH@ReadPCLabelBlock?3?5Multiple?5label@ 10019f24     usp:uspshader.obj
 0001:00018f60       ??_C@_0DD@IEOAGCAA@ReadPCLabelBlock?3?5Failed?5to?5crea@ 10019f60     usp:uspshader.obj
 0001:00018f94       ??_C@_0DA@DMIFBLJ@USPLabelCreate?3?5Failed?5to?5alloc?5@ 10019f94     usp:uspshader.obj
 0001:00018fc8       ??_C@_0ED@CMHHGLNP@USPShaderAddLabel?3?5Failed?5to?5cre@ 10019fc8     usp:uspshader.obj
 0001:0001900c       ??_C@_0DK@NDNNBGCP@SetupInputData?3?5Error?5adding?5ite@ 1001a00c     usp:uspshader.obj
 0001:00019048       ??_C@_0DL@MPHCIKMA@SetupInputData?3?5Failed?5to?5create@ 1001a048     usp:uspshader.obj
 0001:00019084       ??_C@_0DJ@OKPCBAKN@SetupInputData?3?5Failed?5to?5create@ 1001a084     usp:uspshader.obj
 0001:000190c0       ??_C@_0DF@BKDOKHFO@SetupInputData?3?5Failed?5to?5create@ 1001a0c0     usp:uspshader.obj
 0001:000190f8       ??_C@_0CN@GFNEFIDO@SetupInputData?3?5Failed?5to?5create@ 1001a0f8     usp:uspshader.obj
 0001:000191d0       ??_C@_0FO@HNBKMGHC@HandleUSPSampleTextureFormat?3?5Er@ 1001a1d0     usp:finalise.obj
 0001:00019230       ??_C@_0GE@BIJFBPAJ@HandleUSPSampleTextureFormat?3?5Er@ 1001a230     usp:finalise.obj
 0001:00019298       ??_C@_0GB@BCOMAFLB@HandleUSPSampleTextureFormat?3?5Er@ 1001a298     usp:finalise.obj
 0001:00019300       ??_C@_0GA@MJNJKHNB@HandleUSPSampleTextureFormat?3?5Er@ 1001a300     usp:finalise.obj
 0001:00019360       ??_C@_0EH@HHMMBCOI@HandleUSPSampleTextureFormat?3?5Er@ 1001a360     usp:finalise.obj
 0001:000193a8       ??_C@_0FG@LDLPFBAE@HandleUSPSampleTextureFormat?3?5Er@ 1001a3a8     usp:finalise.obj
 0001:00019400       ??_C@_0EF@FFPMCGCA@HandleUSPSampleTextureFormat?3?5Er@ 1001a400     usp:finalise.obj
 0001:00019448       ??_C@_0EH@PIGKOMDE@HandleUSPSampleTextureFormat?3?5Er@ 1001a448     usp:finalise.obj
 0001:00019490       ??_C@_0FF@PCOACLEA@HandleUSPSampleTextureFormat?3?5Er@ 1001a490     usp:finalise.obj
 0001:000194e8       ??_C@_0DN@BNMKJEPD@FindSmpUnpack?3?5Error?5finding?5sam@ 1001a4e8     usp:finalise.obj
 0001:00019528       ??_C@_0CM@CIJANBPG@ResetShader?3?5Error?5resetting?5sam@ 1001a528     usp:finalise.obj
 0001:00019554       ??_C@_0CP@KPGABPAG@ResetShader?3?5Error?5resetting?5dep@ 1001a554     usp:finalise.obj
 0001:00019584       ??_C@_0DD@EFOPOIJG@ResetShader?3?5Error?5resetting?5non@ 1001a584     usp:finalise.obj
 0001:000195b8       ??_C@_0CJ@KJBFOPBI@ResetShader?3?5Error?5resetting?5inp@ 1001a5b8     usp:finalise.obj
 0001:000195e4       ??_C@_0DH@JPNJCDOE@FinaliseResultLocations?3?5Unsuppo@ 1001a5e4     usp:finalise.obj
 0001:00019620       ??_C@_0EJ@LDLLDPJE@FinaliseSampleAndResultLocations@ 1001a620     usp:finalise.obj
 0001:0001966c       ??_C@_0DM@HMJCGICD@FinaliseRegCounts?3?5Unsupposrted?5@ 1001a66c     usp:finalise.obj
 0001:000196a8       ??_C@_0EG@NADNNIOA@FinaliseRegCounts?3?5Unsupposrted?5@ 1001a6a8     usp:finalise.obj
 0001:000196f0       ??_C@_0EA@HMGMDKPE@FinaliseRegCounts?3?5Unsupposrted?5@ 1001a6f0     usp:finalise.obj
 0001:00019730       ??_C@_0DG@MBABCLAE@FinaliseRegCounts?3?5Unsupposrted?5@ 1001a730     usp:finalise.obj
 0001:00019768       ??_C@_0DK@NNFGMMNN@FinaliseSamples?3?5Error?5generatin@ 1001a768     usp:finalise.obj
 0001:000197a4       ??_C@_0DN@BGBDLNGL@FinaliseSamples?3?5Error?5generatin@ 1001a7a4     usp:finalise.obj
 0001:000197e8       ??_C@_0EB@OAPAGPFL@FinaliseSamples?3?5Error?5generatin@ 1001a7e8     usp:finalise.obj
 0001:0001982c       ??_C@_0DJ@ENJDHNII@FinaliseResults?3?5Error?5changing?5@ 1001a82c     usp:finalise.obj
 0001:00019868       ??_C@_0DH@HBHFHEKO@FinaliseResults?3?5Error?5adding?5fi@ 1001a868     usp:finalise.obj
 0001:000198a0       ??_C@_0CL@HJJEBAD@FinaliseResults?3?5Error?5encoding?5@ 1001a8a0     usp:finalise.obj
 0001:000198cc       ??_C@_0DD@EAABJKLD@FinaliseResults?3?5Error?5adding?5SM@ 1001a8cc     usp:finalise.obj
 0001:00019900       ??_C@_0DK@HKJEOJHB@FinaliseResults?3?5Error?5encoding?5@ 1001a900     usp:finalise.obj
 0001:0001993c       ??_C@_0CO@IJGDHBAG@FinaliseResults?3?5Error?5addding?5i@ 1001a93c     usp:finalise.obj
 0001:0001996c       ??_C@_0CL@DMICMAMO@FinaliseResults?3?5Error?5encoding?5@ 1001a96c     usp:finalise.obj
 0001:00019998       ??_C@_0DC@KNNMKOEI@FinaliseShaderPreamble?3?5Error?5ad@ 1001a998     usp:finalise.obj
 0001:000199cc       ??_C@_0DK@DHDLOECB@FinaliseInstructions?3?5Failed?5to?5@ 1001a9cc     usp:finalise.obj
 0001:00019a08       ??_C@_0DN@EFNELGKE@FinaliseBranchDestinations?3?5Erro@ 1001aa08     usp:finalise.obj
 0001:00019a48       ??_C@_0DF@JBBAPGHI@CreateHWShader?3?5Unable?5to?5set?5te@ 1001aa48     usp:finalise.obj
 0001:00019a80       ??_C@_0CM@NCIGEIEA@CreateHWShader?3?5Error?5decoding?5i@ 1001aa80     usp:finalise.obj
 0001:00019aac       ??_C@_0CP@IEJIPNDO@CreateHWShader?3?5Failed?5to?5alloc?5@ 1001aaac     usp:finalise.obj
 0001:00019adc       ??_C@_0DE@FJLFHNLA@CreateHWShader?3?5Main?5program?5sta@ 1001aadc     usp:finalise.obj
 0001:00019b10       ??_C@_0DK@NAOCKOOH@USPInstBlockInsertHWInst?3?5Error?5@ 1001ab10     usp:usp_instblock.obj
 0001:00019b4c       ??_C@_0DN@OEPNBHLG@USPInstBlockInsertHWInst?3?5Error?5@ 1001ab4c     usp:usp_instblock.obj
 0001:00019b8c       ??_C@_0DJ@KIHNIOKA@USPInstBlockInsertHWInst?3?5Error?5@ 1001ab8c     usp:usp_instblock.obj
 0001:00019bc8       ??_C@_0DN@DEBMELMF@USPInstBlockInsertHWInst?3?5Failed@ 1001abc8     usp:usp_instblock.obj
 0001:00019c08       ??_C@_0DN@MDBBEGNN@USPInstBlockInsertHWInst?3?5Error?5@ 1001ac08     usp:usp_instblock.obj
 0001:00019c48       ??_C@_0DM@MMJECGBE@USPInstBlockInsertHWInst?3?5Failed@ 1001ac48     usp:usp_instblock.obj
 0001:00019c84       ??_C@_0CJ@KNPMFADM@USPInstBlockInsertHWInst?3?5Block?5@ 1001ac84     usp:usp_instblock.obj
 0001:00019cb0       ??_C@_0DH@CJJGJADB@USPInstBlockAddPCInst?3?5Error?5upd@ 1001acb0     usp:usp_instblock.obj
 0001:00019ce8       ??_C@_0DK@HLFEPAJF@USPInstBlockAddPCInst?3?5Error?5add@ 1001ace8     usp:usp_instblock.obj
 0001:00019d24       ??_C@_0DG@GFJMDHDM@USPInstBlockAddPCInst?3?5Error?5set@ 1001ad24     usp:usp_instblock.obj
 0001:00019d5c       ??_C@_0DE@GMELPFD@USPInstBlockAddPCInst?3?5Failed?5to@ 1001ad5c     usp:usp_instblock.obj
 0001:00019d90       ??_C@_0DJ@NKJHKAFC@USPInstBlockAddPCInst?3?5Failed?5to@ 1001ad90     usp:usp_instblock.obj
 0001:00019dcc       ??_C@_0DK@FMLIKBPO@USPInstBlockAddPCInst?3?5Error?5set@ 1001adcc     usp:usp_instblock.obj
 0001:00019e08       ??_C@_0DG@JEKOFEEJ@USPInstBlockAddPCInst?3?5Error?5dec@ 1001ae08     usp:usp_instblock.obj
 0001:00019e40       ??_C@_0CG@LAHPFMIP@USPInstBlockAddPCInst?3?5Block?5is?5@ 1001ae40     usp:usp_instblock.obj
 0001:00019e68       ??_C@_0ED@PJJGKGFP@USPInstBlockFinaliseInsts?3?5Faile@ 1001ae68     usp:usp_instblock.obj
 0001:00019eb0       ??_C@_0EF@HBPPMKPO@USPInstBlockFinaliseInsts?3?5Faile@ 1001aeb0     usp:usp_instblock.obj
 0001:00019ef8       ??_C@_0EA@EDEPDJOJ@USPInstBlockFinaliseInsts?3?5Faile@ 1001aef8     usp:usp_instblock.obj
 0001:00019f38       ??_C@_0DN@NLGMHCGM@USPInstBlockSetupNoSchedFlag?3?5Fa@ 1001af38     usp:usp_instblock.obj
 0001:00019f78       ??_C@_0DK@OAOGEHNP@USPInstBlockSetupNoSchedFlag?3?5Fa@ 1001af78     usp:usp_instblock.obj
 0001:00019fb8       ??_C@_0EB@POFMLLDD@USPInstBlockSetupSyncStartFlag?3?5@ 1001afb8     usp:usp_instblock.obj
 0001:0001a000       ??_C@_0EE@CGJFNFNE@USPInstBlockSetupSyncStartFlag?3?5@ 1001b000     usp:usp_instblock.obj
 0001:0001a044       ??_C@_0DE@PPKLOJNN@USPInstBlockCreate?3?5Failed?5to?5al@ 1001b044     usp:usp_instblock.obj
 0001:0001a078       ??_C@_0DM@MGAONANB@USPInstBlockCreate?3?5Failed?5to?5al@ 1001b078     usp:usp_instblock.obj
 0001:0001a0b4       ??_C@_0DK@OJFJMHJJ@USPInstBlockCreate?3?5Failed?5to?5al@ 1001b0b4     usp:usp_instblock.obj
 0001:0001a0f0       ??_C@_0DM@NFGEOAPM@USPInstBlockCreate?3?5Failed?5to?5al@ 1001b0f0     usp:usp_instblock.obj
 0001:0001a12c       ??_C@_0DG@CFCIGHPN@USPInstBlockCreate?3?5Failed?5to?5al@ 1001b12c     usp:usp_instblock.obj
 0001:0001a164       ??_C@_0DJ@MCAKMCKD@USPResultRefCreate?3?5Failed?5to?5al@ 1001b164     usp:usp_resultref.obj
 0001:0001a1a0       ??_C@_0DG@KKDINEDG@USPResultRefSetInst?3?5Error?5decod@ 1001b1a0     usp:usp_resultref.obj
 0001:0001a1d8       ??_C@_0DG@DDNKLCDH@USPResultRefSetInst?3?5Error?5decod@ 1001b1d8     usp:usp_resultref.obj
 0001:0001a210       ??_C@_0DG@PCFEGNPH@USPResultRefSetInst?3?5Error?5decod@ 1001b210     usp:usp_resultref.obj
 0001:0001a248       ??_C@_0DG@FCNGNMEI@USPResultRefSetInst?3?5Error?5decod@ 1001b248     usp:usp_resultref.obj
 0001:0001a280       ??_C@_0EI@LMMBOCFP@USPResultRefChangeRegLocation?3?5E@ 1001b280     usp:usp_resultref.obj
 0001:0001a2c8       ??_C@_0EA@INAHGMNC@USPResultRefChangeRegLocation?3?5E@ 1001b2c8     usp:usp_resultref.obj
 0001:0001a308       ??_C@_0DL@MJFONPHE@USPResultRefChangeRegLocation?3?5E@ 1001b308     usp:usp_resultref.obj
 0001:0001a348       ??_C@_0ED@BJPAEFIA@USPResultRefChangeRegLocation?3?5E@ 1001b348     usp:usp_resultref.obj
 0001:0001a390       ??_C@_0EA@LMBLLPKJ@USPResultRefChangeRegLocation?3?5E@ 1001b390     usp:usp_resultref.obj
 0001:0001a3d0       ??_C@_0EA@CFPJNJKI@USPResultRefChangeRegLocation?3?5E@ 1001b3d0     usp:usp_resultref.obj
 0001:0001a410       ??_C@_0EA@OEHHAGGI@USPResultRefChangeRegLocation?3?5E@ 1001b410     usp:usp_resultref.obj
 0001:0001a450       ??_C@_0EA@EEPFLHNH@USPResultRefChangeRegLocation?3?5E@ 1001b450     usp:usp_resultref.obj
 0001:0001a798       ??_C@_0DC@JNLDFMHB@USPSampleDataAdd?3?5Error?5calculat@ 1001b798     usp:usp_sample.obj
 0001:0001a7d0       ??_C@_0EA@LIPBHHNO@GetTexChanLocations?3?5Sampled?5dat@ 1001b7d0     usp:usp_sample.obj
 0001:0001a810       ??_C@_0DN@OFHAJEMH@GetTexChanLocations?3?5Channel?5dat@ 1001b810     usp:usp_sample.obj
 0001:0001a850       ??_C@_0FG@PEGOBOAH@GetTexChanInfo?3?5Attempt?5to?5sampl@ 1001b850     usp:usp_sample.obj
 0001:0001a8a8       ??_C@_0DB@NECHENJH@GetTexChanInfo?3?5Invalid?5texture?5@ 1001b8a8     usp:usp_sample.obj
 0001:0001a8dc       ??_C@_0DC@DEGCGDKG@SetupChanSrcRegs?3?5Invalid?5textur@ 1001b8dc     usp:usp_sample.obj
 0001:0001a910       ??_C@_0DP@CEGFDBGG@GetTexChanInfo?3?5Attempt?5to?5use?5A@ 1001b910     usp:usp_sample.obj
 0001:0001a950       ??_C@_0FC@EKPHLHIF@GetTexChanInfo?3?5Invalid?5YUV?5text@ 1001b950     usp:usp_sample.obj
 0001:0001a9a8       ??_C@_0EL@OOHLMAOM@GetTexChanInfo?3?5Unsupported?5UYV?5@ 1001b9a8     usp:usp_sample.obj
 0001:0001a9f4       ??_C@_0DC@DNJDNDGB@USPSampleGenerateCode?3?5Error?5res@ 1001b9f4     usp:usp_sample.obj
 0001:0001aa28       ??_C@_0DH@IPFDKNHN@USPSampleGenerateCode?3?5Error?5add@ 1001ba28     usp:usp_sample.obj
 0001:0001aa60       ??_C@_0DF@NMJAFEEG@USPSampleGenerateCode?3?5Error?5unp@ 1001ba60     usp:usp_sample.obj
 0001:0001aa98       ??_C@_0DI@BHKMLLJJ@USPSampleGenerateCode?3?5Error?5cal@ 1001ba98     usp:usp_sample.obj
 0001:0001aad0       ??_C@_0ED@GFEDNPNO@USPSampleGenerateCode?3?5Error?5col@ 1001bad0     usp:usp_sample.obj
 0001:0001ab14       ??_C@_0DP@EONMGGHC@USPSampleGenerateCode?3?5Error?5fin@ 1001bb14     usp:usp_sample.obj
 0001:0001ab54       ??_C@_0DE@EFCGBNDA@USPSampleGenerateCode?3?5Error?5sam@ 1001bb54     usp:usp_sample.obj
 0001:0001ab88       ??_C@_0DC@NCINNBL@USPSampleGenerateCode?3?5Error?5res@ 1001bb88     usp:usp_sample.obj
 0001:0001abbc       ??_C@_0DJ@IKFFLEJL@SampleTextureData?3?5Failed?5to?5res@ 1001bbbc     usp:usp_sample.obj
 0001:0001abf8       ??_C@_0CM@NGNKEAKE@SampleTextureData?3?5Error?5encodin@ 1001bbf8     usp:usp_sample.obj
 0001:0001ac24       ??_C@_0DF@PCPEGNNG@SampleTextureData?3?5Error?5encodin@ 1001bc24     usp:usp_sample.obj
 0001:0001ac60       ??_C@_0EB@INFMPBIC@SampleTextureData?3?5Error?5encodin@ 1001bc60     usp:usp_sample.obj
 0001:0001aca8       ??_C@_0EH@IMIHFKCD@SampleTextureData?3?5Error?5encodin@ 1001bca8     usp:usp_sample.obj
 0001:0001acf0       ??_C@_0HA@MHFFMLAH@SampleTextureData?3?5Error?5searchi@ 1001bcf0     usp:usp_sample.obj
 0001:0001ad60       ??_C@_0EG@OELDHNCG@SampleTextureData?3?5Error?5encodin@ 1001bd60     usp:usp_sample.obj
 0001:0001ada8       ??_C@_0CM@CLGBDMOI@SampleTextureData?3?5Error?5encodin@ 1001bda8     usp:usp_sample.obj
 0001:0001add4       ??_C@_0DH@IFMMGLFD@SampleTextureData?3?5Error?5encodin@ 1001bdd4     usp:usp_sample.obj
 0001:0001ae0c       ??_C@_0CL@HPLHHMNM@SampleTextureData?3?5Error?5encodin@ 1001be0c     usp:usp_sample.obj
 0001:0001ae38       ??_C@_0EJ@KGPANANL@SampleTextureData?3?5Texture?9state@ 1001be38     usp:usp_sample.obj
 0001:0001ae84       ??_C@_0DF@CEFJKHAL@SampleTextureData?3?5Failed?5to?5sav@ 1001be84     usp:usp_sample.obj
 0001:0001aebc       ??_C@_0CP@MAAOKCNL@SampleTextureData?3?5Error?5encodin@ 1001bebc     usp:usp_sample.obj
 0001:0001aeec       ??_C@_0DB@IBNNNLPN@SampleTextureData?3?5Error?5encodin@ 1001beec     usp:usp_sample.obj
 0001:0001af20       ??_C@_0CO@HJKIMGMM@SampleTextureData?3?5Error?5encodin@ 1001bf20     usp:usp_sample.obj
 0001:0001af50       ??_C@_0CN@HONMJNIB@SaveInternalRegs?3?5Error?5encoding@ 1001bf50     usp:usp_sample.obj
 0001:0001af80       ??_C@_0DP@IGHDJLDA@ColourSpaceConvertTextureData?3?5E@ 1001bf80     usp:usp_sample.obj
 0001:0001afc0       ??_C@_0DM@PLJLGCO@ColourSpaceConvertTextureData?3?5U@ 1001bfc0     usp:usp_sample.obj
 0001:0001b000       ??_C@_0EM@CJDGHBJJ@ColourSpaceConvertTextureData?3?5A@ 1001c000     usp:usp_sample.obj
 0001:0001b04c       ??_C@_0DE@NOOMEDLL@ColourSpaceConvertTextureData?3?5E@ 1001c04c     usp:usp_sample.obj
 0001:0001b080       ??_C@_0DP@GNECCIFN@ColourSpaceConvertTextureData?3?5I@ 1001c080     usp:usp_sample.obj
 0001:0001b0c0       ??_C@_0EA@MOBJPHLK@ColourSpaceConvertTextureData?3?5U@ 1001c0c0     usp:usp_sample.obj
 0001:0001b100       ??_C@_0DE@HAIJCELE@FindPreSampledTextureData?3?5Error@ 1001c100     usp:usp_sample.obj
 0001:0001b134       ??_C@_0DJ@HAKHDDPE@FindPreSampledTextureData?3?5PreSa@ 1001c134     usp:usp_sample.obj
 0001:0001b170       ??_C@_0CL@BIKKGAAI@SetupChanSrcRegs?3?5Invalid?5consta@ 1001c170     usp:usp_sample.obj
 0001:0001b19c       ??_C@_0DD@JBDBNAOM@SetupChanSrcRegs?3?5Invalid?5textur@ 1001c19c     usp:usp_sample.obj
 0001:0001b1d0       ??_C@_0CN@HLOBPBNE@UnpackTextureData?3?5Unrecognised?5@ 1001c1d0     usp:usp_sample.obj
 0001:0001b200       ??_C@_0DL@FLBDPCAA@UnpackTextureData?3?5Error?5unpacki@ 1001c200     usp:usp_sample.obj
 0001:0001b23c       ??_C@_0DI@JMEONLDL@UnpackTextureData?3?5Error?5unpacki@ 1001c23c     usp:usp_sample.obj
 0001:0001b274       ??_C@_0DI@DBEOLLGM@UnpackTextureData?3?5Error?5unpacki@ 1001c274     usp:usp_sample.obj
 0001:0001b2ac       ??_C@_0DA@LFFMONMB@UnpackTextureDataToF32?3?5Invalid?5@ 1001c2ac     usp:usp_sample.obj
 0001:0001b2dc       ??_C@_0DB@IKAMHEJA@UnpackTextureDataToF32?3?5Error?5en@ 1001c2dc     usp:usp_sample.obj
 0001:0001b310       ??_C@_0DG@DJJOKKJE@UnpackTextureDataToF32?3?5Error?5en@ 1001c310     usp:usp_sample.obj
 0001:0001b348       ??_C@_0FK@DMACGKKG@UnpackTextureDataToF32?3?5Error?5te@ 1001c348     usp:usp_sample.obj
 0001:0001b3a4       ??_C@_0DG@DLDLAAOH@UnpackTextureDataToF32?3?5Unhandle@ 1001c3a4     usp:usp_sample.obj
 0001:0001b3dc       ??_C@_0DL@CPIHHLA@UnpackTextureDataToF32?3?5U24?5sour@ 1001c3dc     usp:usp_sample.obj
 0001:0001b418       ??_C@_0EC@OEPEMEPC@UnpackTextureDataToF32?3?5Error?5up@ 1001c418     usp:usp_sample.obj
 0001:0001b460       ??_C@_0EK@OPCNFLPI@UnpackTextureDataToF32?3?5Error?5ch@ 1001c460     usp:usp_sample.obj
 0001:0001b4ac       ??_C@_0DF@POHNDLJL@SampleInstReadsReg?3?5Unexpected?5s@ 1001c4ac     usp:usp_sample.obj
 0001:0001b4e4       ??_C@_0DJ@KKCIOEFH@SampleInstReadsReg?3?5Error?5decodi@ 1001c4e4     usp:usp_sample.obj
 0001:0001b520       ??_C@_0DC@OCFDKCPD@SampleInstReadsReg?3?5Unexpected?5c@ 1001c520     usp:usp_sample.obj
 0001:0001b554       ??_C@_0DJ@KJKMDADJ@SampleInstReadsReg?3?5Error?5decodi@ 1001c554     usp:usp_sample.obj
 0001:0001b590       ??_C@_0DK@LJCHKHJN@UnpackFromTemp?3?5Error?5updating?5s@ 1001c590     usp:usp_sample.obj
 0001:0001b5cc       ??_C@_0CM@HOFGLDDL@UnpackFromTemp?3?5Error?5encoding?5M@ 1001c5cc     usp:usp_sample.obj
 0001:0001b5f8       ??_C@_0CO@LFBDLGLL@UnpackFromTemp?3?5Error?5encoding?5P@ 1001c5f8     usp:usp_sample.obj
 0001:0001b628       ??_C@_0CO@LHLGBMMI@UnpackFromTemp?3?5Unhandled?5source@ 1001c628     usp:usp_sample.obj
 0001:0001b658       ??_C@_0DI@COOPBIND@UnpackTextureDataToU8C10?3?5Error?5@ 1001c658     usp:usp_sample.obj
 0001:0001b690       ??_C@_0DI@PHMPLGNN@UnpackTextureDataToU8C10?3?5Error?5@ 1001c690     usp:usp_sample.obj
 0001:0001b6c8       ??_C@_0DF@JPBGOJKM@UnpackTextureDataToU8C10?3?5Error?5@ 1001c6c8     usp:usp_sample.obj
 0001:0001b700       ??_C@_0DF@NKGDFFFC@UnpackTextureDataToU8C10?3?5Error?5@ 1001c700     usp:usp_sample.obj
 0001:0001b738       ??_C@_0DD@JLBOAEFA@UnpackTextureDataToU8C10?3?5Error?5@ 1001c738     usp:usp_sample.obj
 0001:0001b76c       ??_C@_0DL@MJBAJBHB@UnpackTextureDataToU8C10?3?5Error?5@ 1001c76c     usp:usp_sample.obj
 0001:0001b7a8       ??_C@_0DE@LHEFCJKJ@UnpackTextureDataToU8C10?3?5Error?5@ 1001c7a8     usp:usp_sample.obj
 0001:0001b7e0       ??_C@_0FM@DBFPBHG@UnpackTextureDataToU8C10?3?5Error?5@ 1001c7e0     usp:usp_sample.obj
 0001:0001b83c       ??_C@_0DI@PFGKBMKO@UnpackTextureDataToU8C10?3?5Unhand@ 1001c83c     usp:usp_sample.obj
 0001:0001b874       ??_C@_0DN@HFNDBLOI@UnpackTextureDataToU8C10?3?5U24?5so@ 1001c874     usp:usp_sample.obj
 0001:0001b8b8       ??_C@_0EE@MLABCKDD@UnpackTextureDataToU8C10?3?5Error?5@ 1001c8b8     usp:usp_sample.obj
 0001:0001b8fc       ??_C@_0DM@NDFLDOEB@UnpackTextureDataToU8C10?3?5Error?5@ 1001c8fc     usp:usp_sample.obj
 0001:0001b938       ??_C@_0EM@MHAPBGE@UnpackTextureDataToU8C10?3?5Error?5@ 1001c938     usp:usp_sample.obj
 0001:0001b988       ??_C@_0EB@ENEKDBHH@RemapInteger16Channel?3?5Error?5upd@ 1001c988     usp:usp_sample.obj
 0001:0001b9cc       ??_C@_0DF@MFPKBJEF@RemapInteger16Channel?3?5Error?5enc@ 1001c9cc     usp:usp_sample.obj
 0001:0001ba04       ??_C@_0DA@NHHGHMLO@UnpackTextureDataToF16?3?5Invalid?5@ 1001ca04     usp:usp_sample.obj
 0001:0001ba34       ??_C@_0DG@KLFAELDE@UnpackTextureDataToF16?3?5Error?5en@ 1001ca34     usp:usp_sample.obj
 0001:0001ba70       ??_C@_0FK@GMDJOHAC@UnpackTextureDataToF16?3?5Error?5te@ 1001ca70     usp:usp_sample.obj
 0001:0001bacc       ??_C@_0DG@KJPFOBEH@UnpackTextureDataToF16?3?5Unhandle@ 1001cacc     usp:usp_sample.obj
 0001:0001bb04       ??_C@_0DL@MEFKJNKJ@UnpackTextureDataToF16?3?5U24?5sour@ 1001cb04     usp:usp_sample.obj
 0001:0001bb40       ??_C@_0EC@PIKMFICH@UnpackTextureDataToF16?3?5Error?5up@ 1001cb40     usp:usp_sample.obj
 0001:0001bb84       ??_C@_0DK@FBDEFLHK@UnpackTextureDataToF16?3?5Error?5en@ 1001cb84     usp:usp_sample.obj
 0001:0001bbc0       ??_C@_0EK@MMHFMPNB@UnpackTextureDataToF16?3?5Error?5ch@ 1001cbc0     usp:usp_sample.obj
 0001:0001bc0c       ??_C@_0CO@JDOLPJJJ@AddSampleCode?3?5Error?5adding?5HW?9i@ 1001cc0c     usp:usp_sample.obj
 0001:0001bc3c       ??_C@_0DN@NPAOADEN@ResetMOEStateBeforeSample?3?5Error@ 1001cc3c     usp:usp_sample.obj
 0001:0001bc80       ??_C@_0EE@BDMPIJFN@ResetMOEStateBeforeSample?3?5Error@ 1001cc80     usp:usp_sample.obj
 0001:0001bcc4       ??_C@_0DI@KJPBMAGD@ResetMOEStateBeforeSample?3?5Error@ 1001ccc4     usp:usp_sample.obj
 0001:0001bcfc       ??_C@_0DF@KAEJPJPL@ResetMOEStateBeforeSample?3?5Error@ 1001ccfc     usp:usp_sample.obj
 0001:0001bd34       ??_C@_0DO@DGCAPEEJ@RestoreMOEStateAfterSample?3?5Erro@ 1001cd34     usp:usp_sample.obj
 0001:0001bd78       ??_C@_0EH@GMFNOCJG@RestoreMOEStateAfterSample?3?5Erro@ 1001cd78     usp:usp_sample.obj
 0001:0001bdc0       ??_C@_0DO@EJGNOGNC@RestoreMOEStateAfterSample?3?5Erro@ 1001cdc0     usp:usp_sample.obj
 0001:0001be00       ??_C@_0EH@FMLDEPPC@RestoreMOEStateAfterSample?3?5Erro@ 1001ce00     usp:usp_sample.obj
 0001:0001be48       ??_C@_0DN@GDKIAEPM@RestoreMOEStateAfterSample?3?5Erro@ 1001ce48     usp:usp_sample.obj
 0001:0001be88       ??_C@_0EL@GFBFIFEG@RestoreMOEStateAfterSample?3?5Erro@ 1001ce88     usp:usp_sample.obj
 0001:0001bed4       ??_C@_0DI@OCOHDPDO@USPSampleUnpackGenerateCode?3?5Err@ 1001ced4     usp:usp_sample.obj
 0001:0001bf10       ??_C@_0FG@HDIMGPEI@USPSampleUnpackGenerateCode?3?5Err@ 1001cf10     usp:usp_sample.obj
 0001:0001bf68       ??_C@_0DI@NCFMDBEE@USPSampleUnpackGenerateCode?3?5Err@ 1001cf68     usp:usp_sample.obj
 0001:0001bfa0       ??_C@_0DE@MEAGINDP@AddSampleUnpackCode?3?5Error?7addin@ 1001cfa0     usp:usp_sample.obj
 0001:0001bfd8       ??_C@_0ED@IMECGPNG@ResetMOEStateBeforeSampleUnpack?3@ 1001cfd8     usp:usp_sample.obj
 0001:0001c020       ??_C@_0EK@MFINHBLO@ResetMOEStateBeforeSampleUnpack?3@ 1001d020     usp:usp_sample.obj
 0001:0001c06c       ??_C@_0DO@LKAKDIGG@ResetMOEStateBeforeSampleUnpack?3@ 1001d06c     usp:usp_sample.obj
 0001:0001c0ac       ??_C@_0DL@JHNCNKEC@ResetMOEStateBeforeSampleUnpack?3@ 1001d0ac     usp:usp_sample.obj
 0001:0001c0e8       ??_C@_0EE@CKNKLJLF@RestoreMOEStateAfterSampleUnpack@ 1001d0e8     usp:usp_sample.obj
 0001:0001c130       ??_C@_0EN@BKBNKCFD@RestoreMOEStateAfterSampleUnpack@ 1001d130     usp:usp_sample.obj
 0001:0001c180       ??_C@_0EE@FFJHKLCO@RestoreMOEStateAfterSampleUnpack@ 1001d180     usp:usp_sample.obj
 0001:0001c1c8       ??_C@_0EN@CKPDAPDH@RestoreMOEStateAfterSampleUnpack@ 1001d1c8     usp:usp_sample.obj
 0001:0001c218       ??_C@_0ED@PFIEJKKN@RestoreMOEStateAfterSampleUnpack@ 1001d218     usp:usp_sample.obj
 0001:0001c260       ??_C@_0FB@BNADINLO@RestoreMOEStateAfterSampleUnpack@ 1001d260     usp:usp_sample.obj
 0001:0001c2b4       ??_C@_0DC@PNEDFMMI@USPSampleCreate?3?5Failed?5to?5alloc@ 1001d2b4     usp:usp_sample.obj
 0001:0001c2e8       ??_C@_0CI@PANONHNB@USPSampleCreate?3?5Failed?5to?5alloc@ 1001d2e8     usp:usp_sample.obj
 0001:0001c310       ??_C@_0DP@FACPBECB@USPSampleUnpackCreate?3?5Failed?5to@ 1001d310     usp:usp_sample.obj
 0001:0001c350       ??_C@_0CO@BLCJHIKE@USPSampleUnpackCreate?3?5Failed?5to@ 1001d350     usp:usp_sample.obj
 0001:0001c380       ??_C@_0EB@EEBFEKJD@DecideChunksSampling?3?5Not?5enough@ 1001d380     usp:usp_sample.obj
 0001:0001c3c8       ??_C@_0FF@HDKEGLAC@DecideChunksSampling?3?5Failed?5to?5@ 1001d3c8     usp:usp_sample.obj
 0001:0001c420       ??_C@_0EJ@NNKEKPHO@DecideChunksSampling?3?5Not?5enough@ 1001d420     usp:usp_sample.obj
 0001:0001c470       ??_C@_0FF@KJPILDPB@GroupTexChunksSamplesByTexCoords@ 1001d470     usp:usp_sample.obj
 0001:0001c4c8       ??_C@_0GF@JKMFGKM@GroupTexChunksSamplesByTexCoords@ 1001d4c8     usp:usp_sample.obj
 0001:0001c530       ??_C@_0FP@OOCNLHKC@GroupTexChunksSamplesByTexCoords@ 1001d530     usp:usp_sample.obj
 0001:0001c590       ??_C@_0HH@CIPINMON@FetchAllTexChunkSmpsByItdCoordsO@ 1001d590     usp:usp_sample.obj
 0001:0001c608       ??_C@_0FC@FDEFJGCA@DoSelectionsForMinimumPAUsage?3?5N@ 1001d608     usp:usp_sample.obj
 0001:0001c660       ??_C@_0FK@KNHMHLDN@GetMaxPARegsAvailableForCommands@ 1001d660     usp:usp_sample.obj
 0001:0001c6c0       ??_C@_0EN@KLOCKIGL@USPInputDataAddTexStateData?3?5Max@ 1001d6c0     usp:usp_inputdata.obj
 0001:0001c710       ??_C@_0FA@JOBANPNJ@USPInputDataAddPreSampledData?3?5M@ 1001d710     usp:usp_inputdata.obj
 0001:0001c760       ??_C@_0DJ@COFGLCMP@USPAddIteratedData?3?5Maximum?5numb@ 1001d760     usp:usp_inputdata.obj
 0001:0001c7a0       ??_C@_0EL@NCKDPGI@USPInputDataAddPCInputData?3?5No?5f@ 1001d7a0     usp:usp_inputdata.obj
 0001:0001c7f0       ??_C@_0EI@ECOHPICM@USPInputDataAddPCInputData?3?5Maxi@ 1001d7f0     usp:usp_inputdata.obj
 0001:0001c838       ??_C@_0EB@MKDDBNPD@USPInputDataAddPCInputData?3?5Unex@ 1001d838     usp:usp_inputdata.obj
 0001:0001c880       ??_C@_0EF@FAPIMPIL@USPInputDataAddPCInputData?3?5Maxi@ 1001d880     usp:usp_inputdata.obj
 0001:0001c8c8       ??_C@_0DJ@OCFEAMCE@USPInputDataAddPCInputData?3?5inva@ 1001d8c8     usp:usp_inputdata.obj
 0001:0001c904       ??_C@_0DH@ILAPGJMI@USPInputDataAddPCInputData?3?5Inva@ 1001d904     usp:usp_inputdata.obj
 0001:0001c93c       ??_C@_0DH@DLFBEKHK@USPInputDataCreate?3?5Failed?5to?5al@ 1001d93c     usp:usp_inputdata.obj
 0001:0001c978       ??_C@_0EL@LPMIFFNK@USPInputDataCreateIteratedDataLi@ 1001d978     usp:usp_inputdata.obj
 0001:0001c9c8       ??_C@_0EP@BCFEGDGI@USPInputDataCreatePreSampledData@ 1001d9c8     usp:usp_inputdata.obj
 0001:0001ca18       ??_C@_0DL@FLMPIKGF@USPInputDataCreate?3?5Failed?5to?5al@ 1001da18     usp:usp_inputdata.obj
 0001:0001caf0       ??_C@_0BH@PJGECPOH@invalid_ldst_atomic_op?$AA@ 1001daf0     useasm:usedisasm.obj
 0001:0001cb08       ??_C@_0BB@DAGDOGGI@invalid_cnd_pcnd?$AA@ 1001db08     useasm:usedisasm.obj
 0001:0001cb1c       ??_C@_0BA@JMNCGMBG@invalid_cnd_op2?$AA@ 1001db1c     useasm:usedisasm.obj
 0001:0001cb2c       ??_C@_0BE@CGLJNCMB@invalid_emit_target?$AA@ 1001db2c     useasm:usedisasm.obj
 0001:0001cb40       ??_C@_0BG@GIKOAOGJ@invalid_special_opcat?$AA@ 1001db40     useasm:usedisasm.obj
 0001:0001cb58       ??_C@_0BE@BPPACHDP@invalid_vistest_op2?$AA@ 1001db58     useasm:usedisasm.obj
 0001:0001cb6c       ??_C@_0BH@OELEFGLH@invalid_monitor_number?$AA@ 1001db6c     useasm:usedisasm.obj
 0001:0001cb84       ??_C@_0BJ@JJBNJIEK@invalid_emit_mte_control?$AA@ 1001db84     useasm:usedisasm.obj
 0001:0001cba0       ??_C@_0BF@GPBHEDJB@invalid_mutex_number?$AA@ 1001dba0     useasm:usedisasm.obj
 0001:0001cbb8       ??_C@_0BD@CJGAFCKK@invalid_ima32_step?$AA@ 1001dbb8     useasm:usedisasm.obj
 0001:0001cbcc       ??_C@_0P@JECKMKJP@invalid_opcode?$AA@ 1001dbcc     useasm:usedisasm.obj
 0001:0001cbdc       ??_C@_0BM@MCJBHKN@invalid_bilin_source_format?$AA@ 1001dbdc     useasm:usedisasm.obj
 0001:0001cbf8       ??_C@_0BM@FMOACAAM@invalid_adiffirvbilin_opsel?$AA@ 1001dbf8     useasm:usedisasm.obj
 0001:0001cc14       ??_C@_0BK@JCPFHADM@invalid_ssum16_round_mode?$AA@ 1001dc14     useasm:usedisasm.obj
 0001:0001cc30       ??_C@_0BC@JJIEKHHB@invalid_firv_flag?$AA@ 1001dc30     useasm:usedisasm.obj
 0001:0001cc44       ??_C@_0BH@FAFFCFPJ@invalid_imae_src2_type?$AA@ 1001dc44     useasm:usedisasm.obj
 0001:0001cc5c       ??_C@_0BD@IHAGDLFB@invalid_sopwm_sel2?$AA@ 1001dc5c     useasm:usedisasm.obj
 0001:0001cc70       ??_C@_0BD@KMCLGIJC@invalid_sopwm_sel1?$AA@ 1001dc70     useasm:usedisasm.obj
 0001:0001cc84       ??_C@_0BD@KKDPIEHF@invalid_sop2_csel2?$AA@ 1001dc84     useasm:usedisasm.obj
 0001:0001cc98       ??_C@_0BD@IBBCNHLG@invalid_sop2_csel1?$AA@ 1001dc98     useasm:usedisasm.obj
 0001:0001ccac       ??_C@_0BH@POFKDGCO@invalid_test_mask_type?$AA@ 1001dcac     useasm:usedisasm.obj
 0001:0001ccc4       ??_C@_0BH@BFHBKMFA@invalid_test_zero_test?$AA@ 1001dcc4     useasm:usedisasm.obj
 0001:0001ccdc       ??_C@_0BH@JNHMEAHF@invalid_test_sign_test?$AA@ 1001dcdc     useasm:usedisasm.obj
 0001:0001ccf4       ??_C@_0BD@HNDBJDIJ@invalid_test_aluop?$AA@ 1001dcf4     useasm:usedisasm.obj
 0001:0001cd08       ??_C@_0BE@FEJKBCHB@invalid_bitwise_op2?$AA@ 1001dd08     useasm:usedisasm.obj
 0001:0001cd1c       ??_C@_0BP@LNPMNIB@invalid_pck_format_combination?$AA@ 1001dd1c     useasm:usedisasm.obj
 0001:0001cd3c       ??_C@_0BL@LBFPCHKP@invalid_firh_source_format?$AA@ 1001dd3c     useasm:usedisasm.obj
 0001:0001cd58       ??_C@_0BO@EBBGNAOO@invalid_smp_format_conversion?$AA@ 1001dd58     useasm:usedisasm.obj
 0001:0001cd78       ??_C@_0BG@PNBAIBK@invalid_smp_data_type?$AA@ 1001dd78     useasm:usedisasm.obj
 0001:0001cd90       ??_C@_0BF@OOKDKJOL@invalid_smp_pcf_mode?$AA@ 1001dd90     useasm:usedisasm.obj
 0001:0001cda8       ??_C@_0BF@PAKALFLC@invalid_smp_srd_mode?$AA@ 1001dda8     useasm:usedisasm.obj
 0001:0001cdc0       ??_C@_0BF@GEGHBMOI@invalid_smp_lod_mode?$AA@ 1001ddc0     useasm:usedisasm.obj
 0001:0001cdd8       ??_C@_0CA@PDMHDIFN@invalid_vpck_format_combination?$AA@ 1001ddd8     useasm:usedisasm.obj
 0001:0001cdf8       ??_C@_0BJ@CPIPOIJE@invalid_vecmov_data_type?$AA@ 1001ddf8     useasm:usedisasm.obj
 0001:0001ce14       ??_C@_0BE@KKCNNLGF@invalid_vecmov_type?$AA@ 1001de14     useasm:usedisasm.obj
 0001:0001ce28       ??_C@_0CE@DECDDPKC@invalid_veccomplex_source_data_t@ 1001de28     useasm:usedisasm.obj
 0001:0001ce4c       ??_C@_0CC@LAAAAACA@invalid_veccomplex_dest_data_typ@ 1001de4c     useasm:usedisasm.obj
 0001:0001ce70       ??_C@_0BE@BDPIIKAC@invalid_dvec_srccfg?$AA@ 1001de70     useasm:usedisasm.obj
 0001:0001ce84       ??_C@_0BB@NNINBOJI@invalid_dvec_op2?$AA@ 1001de84     useasm:usedisasm.obj
 0001:0001ce98       ??_C@_0BB@PGKAENFL@invalid_dvec_op1?$AA@ 1001de98     useasm:usedisasm.obj
 0001:0001ceac       ??_C@_0BH@CJHCKOGI@invalid_movc_data_type?$AA@ 1001deac     useasm:usedisasm.obj
 0001:0001cec4       ??_C@_0BC@JPBDIEDO@invalid_float_op2?$AA@ 1001dec4     useasm:usedisasm.obj
 0001:0001ced8       ??_C@_0BK@KDHFJNJG@invalid_complex_data_type?$AA@ 1001ded8     useasm:usedisasm.obj
 0001:0001cef4       ??_C@_0BE@GLPGOFGD@invalid_complex_op2?$AA@ 1001def4     useasm:usedisasm.obj
 0001:0001cf08       ??_C@_0BG@OCNEJEHH@invalid_fdual_mov_src?$AA@ 1001df08     useasm:usedisasm.obj
 0001:0001cf20       ??_C@_0BA@OEHDKGDF@invalid_moe_op2?$AA@ 1001df20     useasm:usedisasm.obj
 0001:0001cf30       ??_C@_0BF@INBCDHAC@invalid_fnrm_swizzle?$AA@ 1001df30     useasm:usedisasm.obj
 0001:0001cf48       ??_C@_0BC@FMMNIBIK@invalid_other_op2?$AA@ 1001df48     useasm:usedisasm.obj
 0001:0001cf5c       ??_C@_0BB@EEHLMEAB@invalid_cfi_mode?$AA@ 1001df5c     useasm:usedisasm.obj
 0001:0001cf70       ??_C@_0BM@OJKDNCDE@invalid_phas_wait_condition?$AA@ 1001df70     useasm:usedisasm.obj
 0001:0001cf8c       ??_C@_0BC@ELJCLBHE@invalid_phas_rate?$AA@ 1001df8c     useasm:usedisasm.obj
 0001:0001cfa0       ??_C@_0BJ@HMCPEBBA@invalid_flow_control_op2?$AA@ 1001dfa0     useasm:usedisasm.obj
 0001:0001cfbc       ??_C@_0BH@FFLAPHFE@invalid_ldst_data_size?$AA@ 1001dfbc     useasm:usedisasm.obj
 0001:0001cfd4       ??_C@_0BL@HLHLOHP@invalid_dsxscr_source_bank?$AA@ 1001dfd4     useasm:usedisasm.obj
 0001:0001cff0       ??_C@_0CA@EIDCALG@invalid_idxscw_destination_bank?$AA@ 1001dff0     useasm:usedisasm.obj
 0001:0001d010       ??_C@_0BE@NBDEMIMG@invalid_instruction?$AA@ 1001e010     useasm:usedisasm.obj
 0001:0001d024       ??_C@_08BFJOEIBG@no_error?$AA@ 1001e024     useasm:usedisasm.obj
 0001:0001d030       ??_C@_0N@KFMGENLN@reserved?$CI?$DN3?$CJ?$AA@ 1001e030     useasm:usedisasm.obj
 0001:0001d040       ??_C@_0N@KEAECHIK@reserved?$CI?$DN2?$CJ?$AA@ 1001e040     useasm:usedisasm.obj
 0001:0001d050       ??_C@_07LMCJAHLG@pixelbe?$AA@ 1001e050     useasm:usedisasm.obj
 0001:0001d058       ??_C@_03DLDFCDOF@bif?$AA@  1001e058     useasm:usedisasm.obj
 0001:0001d05c       ??_C@_0BH@CNCKKCDD@m0?$DNsrc1?$CKi0?0?5m1?$DNsrc0?$CKi1?$AA@ 1001e05c     useasm:usedisasm.obj
 0001:0001d074       ??_C@_0BL@PFJDCKPE@m0?$DNsrc1?$CKsrc2?0?5m1?$DNsrc0?$CKsrc0?$AA@ 1001e074     useasm:usedisasm.obj
 0001:0001d090       ??_C@_0BL@EDIBBNJI@m0?$DNsrc0?$CKsrc1?0?5m1?$DNsrc0?$CKsrc0?$AA@ 1001e090     useasm:usedisasm.obj
 0001:0001d0ac       ??_C@_0BL@HBLHHPBK@m0?$DNsrc0?$CKsrc1?0?5m1?$DNsrc0?$CKsrc2?$AA@ 1001e0ac     useasm:usedisasm.obj
 0001:0001d0c8       ??_C@_0BM@HMACCADH@a0?$DNsrc0?$CLsrc1?5a1?$DN?$CFssrc2?$CLsrc0?$AA@ 1001e0c8     useasm:usedisasm.obj
 0001:0001d0e4       ??_C@_0BF@BCMKBPDO@a0?$DNi0?$CLm0?0?5a1?$DN?$CFsi1?$CLm1?$AA@ 1001e0e4     useasm:usedisasm.obj
 0001:0001d0fc       ??_C@_0BH@PGLILABC@a0?$DNm0?$CLsrc2?0?5a1?$DN?$CFsi1?$CLi0?$AA@ 1001e0fc     useasm:usedisasm.obj
 0001:0001d114       ??_C@_0BF@JKHPLAND@a0?$DNm0?$CLm1?0?5a1?$DN?$CFsi1?$CLi0?$AA@ 1001e114     useasm:usedisasm.obj
 0001:0001d12c       ??_C@_02IGOMHJCM@m1?$AA@   1001e12c     useasm:usedisasm.obj
 0001:0001d130       ??_C@_02JPPHEIGN@m0?$AA@   1001e130     useasm:usedisasm.obj
 0001:0001d134       ??_C@_02IPPGIAEI@a1?$AA@   1001e134     useasm:usedisasm.obj
 0001:0001d138       ??_C@_02JGONLBAJ@a0?$AA@   1001e138     useasm:usedisasm.obj
 0001:0001d13c       ??_C@_02IBOFNBPA@i1?$AA@   1001e13c     useasm:usedisasm.obj
 0001:0001d140       ??_C@_02JIPOOALB@i0?$AA@   1001e140     useasm:usedisasm.obj
 0001:0001d144       ??_C@_08OKBPIGAD@?4anyinst?$AA@ 1001e144     useasm:usedisasm.obj
 0001:0001d150       ??_C@_08COJLAEAC@?4allinst?$AA@ 1001e150     useasm:usedisasm.obj
 0001:0001d15c       ??_C@_06MNHFEKKE@?4freep?$AA@ 1001e15c     useasm:usedisasm.obj
 0001:0001d164       ??_C@_05NEBLOLLO@?4smsk?$AA@ 1001e164     useasm:usedisasm.obj
 0001:0001d16c       ??_C@_03CFJBHKJG@?4s2?$AA@ 1001e16c     useasm:usedisasm.obj
 0001:0001d170       ??_C@_03OLMCJFF@?4s1?$AA@  1001e170     useasm:usedisasm.obj
 0001:0001d174       ??_C@_05DJGBKOLD@?4minp?$AA@ 1001e174     useasm:usedisasm.obj
 0001:0001d17c       ??_C@_05HBKJDPJL@?4irsd?$AA@ 1001e17c     useasm:usedisasm.obj
 0001:0001d184       ??_C@_06DCAOIPGF@?4pwait?$AA@ 1001e184     useasm:usedisasm.obj
 0001:0001d18c       ??_C@_07JDGEGBOP@?4noread?$AA@ 1001e18c     useasm:usedisasm.obj
 0001:0001d194       ??_C@_0M@LHJKLKEK@?4dm_nomatch?$AA@ 1001e194     useasm:usedisasm.obj
 0001:0001d1a0       ??_C@_07ENBGLHBA@?4global?$AA@ 1001e1a0     useasm:usedisasm.obj
 0001:0001d1a8       ??_C@_07LKHJLIEP@?4gpiext?$AA@ 1001e1a8     useasm:usedisasm.obj
 0001:0001d1b0       ??_C@_09ODMDCLDM@?4bypassl1?$AA@ 1001e1b0     useasm:usedisasm.obj
 0001:0001d1bc       ??_C@_04HHNGNHCD@?4cut?$AA@ 1001e1bc     useasm:usedisasm.obj
 0001:0001d1c4       ??_C@_0L@FBCHPHLP@?4threepart?$AA@ 1001e1c4     useasm:usedisasm.obj
 0001:0001d1d0       ??_C@_08MNNMAOEF@?4twopart?$AA@ 1001e1d0     useasm:usedisasm.obj
 0001:0001d1dc       ??_C@_08PBCFMEMC@?4trigger?$AA@ 1001e1dc     useasm:usedisasm.obj
 0001:0001d1e8       ??_C@_08OBGEIPLF@?4syncent?$AA@ 1001e1e8     useasm:usedisasm.obj
 0001:0001d1f4       ??_C@_05PKCJDCIH@?4sinf?$AA@ 1001e1f4     useasm:usedisasm.obj
 0001:0001d1fc       ??_C@_04NBDMIJDK@?4rsd?$AA@ 1001e1fc     useasm:usedisasm.obj
 0001:0001d204       ??_C@_07LAKDMJMN@?4pcff16?$AA@ 1001e204     useasm:usedisasm.obj
 0001:0001d20c       ??_C@_04FFCFIAED@?4pcf?$AA@ 1001e20c     useasm:usedisasm.obj
 0001:0001d214       ??_C@_08NIIGNJMG@?4moepoff?$AA@ 1001e214     useasm:usedisasm.obj
 0001:0001d220       ??_C@_04MKEGNPDB@?4tog?$AA@ 1001e220     useasm:usedisasm.obj
 0001:0001d228       ??_C@_05JLDHJKOF@?4fsel?$AA@ 1001e228     useasm:usedisasm.obj
 0001:0001d230       ??_C@_04PLONJIFK@?4i10?$AA@ 1001e230     useasm:usedisasm.obj
 0001:0001d238       ??_C@_06BPEIIGLB@?4tpres?$AA@ 1001e238     useasm:usedisasm.obj
 0001:0001d240       ??_C@_04FDPPLPOO@?4flt?$AA@ 1001e240     useasm:usedisasm.obj
 0001:0001d248       ??_C@_04MKFPCOLG@?4i32?$AA@ 1001e248     useasm:usedisasm.obj
 0001:0001d250       ??_C@_04KNLHDPNM@?4i16?$AA@ 1001e250     useasm:usedisasm.obj
 0001:0001d258       ??_C@_06HEOICNHC@?4scale?$AA@ 1001e258     useasm:usedisasm.obj
 0001:0001d260       ??_C@_06OMHCMHDL@?4taske?$AA@ 1001e260     useasm:usedisasm.obj
 0001:0001d268       ??_C@_06PAOKHCOM@?4tasks?$AA@ 1001e268     useasm:usedisasm.obj
 0001:0001d270       ??_C@_07MIPOHIFC@?4fcfill?$AA@ 1001e270     useasm:usedisasm.obj
 0001:0001d278       ??_C@_08HAIMLLBD@?4bpcache?$AA@ 1001e278     useasm:usedisasm.obj
 0001:0001d284       ??_C@_09JGJGAANA@?4onceonly?$AA@ 1001e284     useasm:usedisasm.obj
 0001:0001d290       ??_C@_08DKPKOFDG@?4renable?$AA@ 1001e290     useasm:usedisasm.obj
 0001:0001d29c       ??_C@_04DGJFHMGN@?4mon?$AA@ 1001e29c     useasm:usedisasm.obj
 0001:0001d2a4       ??_C@_05EBBNHNOF@?4mask?$AA@ 1001e2a4     useasm:usedisasm.obj
 0001:0001d2ac       ??_C@_08FOJPLDFB@?4partial?$AA@ 1001e2ac     useasm:usedisasm.obj
 0001:0001d2b8       ??_C@_09JBKDPGKE@?4savelink?$AA@ 1001e2b8     useasm:usedisasm.obj
 0001:0001d2c4       ??_C@_06NIHPFDK@?4synce?$AA@ 1001e2c4     useasm:usedisasm.obj
 0001:0001d2cc       ??_C@_04IAMNGDP@?4end?$AA@ 1001e2cc     useasm:usedisasm.obj
 0001:0001d2d4       ??_C@_08JGBDGJD@?4nosched?$AA@ 1001e2d4     useasm:usedisasm.obj
 0001:0001d2e0       ??_C@_06BBBPEAON@?4syncs?$AA@ 1001e2e0     useasm:usedisasm.obj
 0001:0001d2e8       ??_C@_08FDIAACIC@?4skipinv?$AA@ 1001e2e8     useasm:usedisasm.obj
 0001:0001d2f4       ??_C@_04BOLMKGOG@?4num?$AA@ 1001e2f4     useasm:usedisasm.obj
 0001:0001d2fc       ??_C@_04FONONCDM@?4msk?$AA@ 1001e2fc     useasm:usedisasm.obj
 0001:0001d304       ??_C@_05GNLKACM@?4dmsk?$AA@ 1001e304     useasm:usedisasm.obj
 0001:0001d30c       ??_C@_05CBJLENHO@?4wmsk?$AA@ 1001e30c     useasm:usedisasm.obj
 0001:0001d314       ??_C@_05IJJLFFIM@?4bmsk?$AA@ 1001e314     useasm:usedisasm.obj
 0001:0001d31c       ??_C@_09IJFAHCNM@?4cperchan?$AA@ 1001e31c     useasm:usedisasm.obj
 0001:0001d328       ??_C@_05GANEADHA@?4or02?$AA@ 1001e328     useasm:usedisasm.obj
 0001:0001d330       ??_C@_06GFOEKGCG@?4and02?$AA@ 1001e330     useasm:usedisasm.obj
 0001:0001d338       ??_C@_06IMLOOKOJ@?4orall?$AA@ 1001e338     useasm:usedisasm.obj
 0001:0001d340       ??_C@_07OLDCOIN@?4andall?$AA@ 1001e340     useasm:usedisasm.obj
 0001:0001d348       ??_C@_06OPILDAEE@?4chan3?$AA@ 1001e348     useasm:usedisasm.obj
 0001:0001d350       ??_C@_06PGJAABAF@?4chan2?$AA@ 1001e350     useasm:usedisasm.obj
 0001:0001d358       ??_C@_06NNLNFCMG@?4chan1?$AA@ 1001e358     useasm:usedisasm.obj
 0001:0001d360       ??_C@_06MEKGGDIH@?4chan0?$AA@ 1001e360     useasm:usedisasm.obj
 0001:0001d368       ??_C@_0BC@DKNMAMKK@reserved_signtest?$AA@ 1001e368     useasm:usedisasm.obj
 0001:0001d37c       ??_C@_01EFFIKLCJ@n?$AA@    1001e37c     useasm:usedisasm.obj
 0001:0001d380       ??_C@_0BC@DPGKMPHC@reserved_zerotest?$AA@ 1001e380     useasm:usedisasm.obj
 0001:0001d394       ??_C@_02JHCHFBLL@nz?$AA@   1001e394     useasm:usedisasm.obj
 0001:0001d398       ??_C@_01PFHFFBPC@t?$AA@    1001e398     useasm:usedisasm.obj
 0001:0001d39c       ??_C@_04BMCILLJG@?$CBp2?5?$AA@ 1001e39c     useasm:usedisasm.obj
 0001:0001d3a4       ??_C@_03MCHLONMJ@Pn?5?$AA@ 1001e3a4     useasm:usedisasm.obj
 0001:0001d3a8       ??_C@_03GCNPPBE@p3?5?$AA@  1001e3a8     useasm:usedisasm.obj
 0001:0001d3ac       ??_C@_03HOPJFCD@p2?5?$AA@  1001e3ac     useasm:usedisasm.obj
 0001:0001d3b0       ??_C@_04BOGOAFMP@?$CBp1?5?$AA@ 1001e3b0     useasm:usedisasm.obj
 0001:0001d3b8       ??_C@_04BPKMGPPI@?$CBp0?5?$AA@ 1001e3b8     useasm:usedisasm.obj
 0001:0001d3c0       ??_C@_03FKJCLHK@p1?5?$AA@  1001e3c0     useasm:usedisasm.obj
 0001:0001d3c4       ??_C@_03EGLEBEN@p0?5?$AA@  1001e3c4     useasm:usedisasm.obj
 0001:0001d3c8       ??_C@_08FINKBBAF@reserved?$AA@ 1001e3c8     useasm:usedisasm.obj
 0001:0001d3d4       ??_C@_03BGPJFEKF@mdc?$AA@  1001e3d4     useasm:usedisasm.obj
 0001:0001d3d8       ??_C@_03PJAOBFA@msc?$AA@   1001e3d8     useasm:usedisasm.obj
 0001:0001d3dc       ??_C@_03HOKODIMJ@rep?$AA@  1001e3dc     useasm:usedisasm.obj
 0001:0001d3e0       ??_C@_04GPFABKGK@umax?$AA@ 1001e3e0     useasm:usedisasm.obj
 0001:0001d3e8       ??_C@_04HNNLPOAF@umin?$AA@ 1001e3e8     useasm:usedisasm.obj
 0001:0001d3f0       ??_C@_04MKEAGAOJ@imax?$AA@ 1001e3f0     useasm:usedisasm.obj
 0001:0001d3f8       ??_C@_04NIMLIEIG@imin?$AA@ 1001e3f8     useasm:usedisasm.obj
 0001:0001d400       ??_C@_05LAPONLG@false?$AA@ 1001e400     useasm:usedisasm.obj
 0001:0001d408       ??_C@_04LOAJBDKD@true?$AA@ 1001e408     useasm:usedisasm.obj
 0001:0001d410       ??_C@_04LFJEJMPJ@xchg?$AA@ 1001e410     useasm:usedisasm.obj
 0001:0001d418       ??_C@_06ELLEMGOJ@revsub?$AA@ 1001e418     useasm:usedisasm.obj
 0001:0001d420       ??_C@_03BOPJPIAM@and?$AA@  1001e420     useasm:usedisasm.obj
 0001:0001d424       ??_C@_03COLCDPPJ@xor?$AA@  1001e424     useasm:usedisasm.obj
 0001:0001d428       ??_C@_02FODMLBIE@or?$AA@   1001e428     useasm:usedisasm.obj
 0001:0001d42c       ??_C@_03GMEDJGOO@f16?$AA@  1001e42c     useasm:usedisasm.obj
 0001:0001d430       ??_C@_03LKLIHIE@f32?$AA@   1001e430     useasm:usedisasm.obj
 0001:0001d434       ??_C@_07ENLCFGOJ@incs1s2?$AA@ 1001e434     useasm:usedisasm.obj
 0001:0001d43c       ??_C@_05NFJABDHH@incs2?$AA@ 1001e43c     useasm:usedisasm.obj
 0001:0001d444       ??_C@_05POLNEALE@incs1?$AA@ 1001e444     useasm:usedisasm.obj
 0001:0001d44c       ??_C@_06JLMOMMIJ@incall?$AA@ 1001e44c     useasm:usedisasm.obj
 0001:0001d454       ??_C@_03EMPGBMMC@moe?$AA@  1001e454     useasm:usedisasm.obj
 0001:0001d458       ??_C@_07HOPLDDBB@incboth?$AA@ 1001e458     useasm:usedisasm.obj
 0001:0001d460       ??_C@_06NGOODNAE@incgpi?$AA@ 1001e460     useasm:usedisasm.obj
 0001:0001d468       ??_C@_06JOJFOGJC@incuss?$AA@ 1001e468     useasm:usedisasm.obj
 0001:0001d470       ??_C@_06OLLAOOHN@srcabs?$AA@ 1001e470     useasm:usedisasm.obj
 0001:0001d478       ??_C@_06JIDCDPPL@srcneg?$AA@ 1001e478     useasm:usedisasm.obj
 0001:0001d480       ??_C@_0M@CGHNODPK@perinstance?$AA@ 1001e480     useasm:usedisasm.obj
 0001:0001d48c       ??_C@_08OHCNGKML@parallel?$AA@ 1001e48c     useasm:usedisasm.obj
 0001:0001d498       ??_C@_03JBJLGPFL@end?$AA@  1001e498     useasm:usedisasm.obj
 0001:0001d49c       ??_C@_05JJLAPLFM@vcull?$AA@ 1001e49c     useasm:usedisasm.obj
 0001:0001d4a4       ??_C@_02BPBMPCEP@pt?$AA@   1001e4a4     useasm:usedisasm.obj
 0001:0001d4a8       ??_C@_09MFNPLDDN@selective?$AA@ 1001e4a8     useasm:usedisasm.obj
 0001:0001d4b4       ??_C@_06CPGBIIAO@sample?$AA@ 1001e4b4     useasm:usedisasm.obj
 0001:0001d4bc       ??_C@_05PIOCODLC@pixel?$AA@ 1001e4bc     useasm:usedisasm.obj
 0001:0001d4c4       ??_C@_02HNLLPFKA@up?$AA@   1001e4c4     useasm:usedisasm.obj
 0001:0001d4c8       ??_C@_07NHJEPDMH@nearest?$AA@ 1001e4c8     useasm:usedisasm.obj
 0001:0001d4d0       ??_C@_04JMOKAGMG@down?$AA@ 1001e4d0     useasm:usedisasm.obj
 0001:0001d4d8       ??_C@_04EFPBHHB@idst?$AA@  1001e4d8     useasm:usedisasm.obj
 0001:0001d4e0       ??_C@_06PMHGOHGB@optdwd?$AA@ 1001e4e0     useasm:usedisasm.obj
 0001:0001d4e8       ??_C@_03BONDBOGE@nfb?$AA@  1001e4e8     useasm:usedisasm.obj
 0001:0001d4ec       ??_C@_02BLCPJIFK@fb?$AA@   1001e4ec     useasm:usedisasm.obj
 0001:0001d4f0       ??_C@_08INIPHAGC@twosided?$AA@ 1001e4f0     useasm:usedisasm.obj
 0001:0001d4fc       ??_C@_03FMFFAAHN@rnd?$AA@  1001e4fc     useasm:usedisasm.obj
 0001:0001d500       ??_C@_05FEPDOKAK@dst23?$AA@ 1001e500     useasm:usedisasm.obj
 0001:0001d508       ??_C@_05GFEBFMOG@dst01?$AA@ 1001e508     useasm:usedisasm.obj
 0001:0001d510       ??_C@_05LKIOJOLP@src23?$AA@ 1001e510     useasm:usedisasm.obj
 0001:0001d518       ??_C@_05ILDMCIFD@src01?$AA@ 1001e518     useasm:usedisasm.obj
 0001:0001d520       ??_C@_06NKHKFLCF@planar?$AA@ 1001e520     useasm:usedisasm.obj
 0001:0001d528       ??_C@_0M@IFPEBLHO@interleaved?$AA@ 1001e528     useasm:usedisasm.obj
 0001:0001d534       ??_C@_03KMCJGLPB@coe?$AA@  1001e534     useasm:usedisasm.obj
 0001:0001d538       ??_C@_03KIKEBHED@cie?$AA@  1001e538     useasm:usedisasm.obj
 0001:0001d53c       ??_C@_03EJAHHPPF@u32?$AA@  1001e53c     useasm:usedisasm.obj
 0001:0001d540       ??_C@_03COOPGOJP@u16?$AA@  1001e540     useasm:usedisasm.obj
 0001:0001d544       ??_C@_03HGIMHOMJ@z16?$AA@  1001e544     useasm:usedisasm.obj
 0001:0001d548       ??_C@_0O@OMNHFPNA@reserved?$CI?$DN38?$CJ?$AA@ 1001e548     useasm:usedisasm.obj
 0001:0001d558       ??_C@_0O@OHILBION@reserved?$CI?$DN37?$CJ?$AA@ 1001e558     useasm:usedisasm.obj
 0001:0001d568       ??_C@_0O@OGEJHCNK@reserved?$CI?$DN36?$CJ?$AA@ 1001e568     useasm:usedisasm.obj
 0001:0001d578       ??_C@_0O@OEAPMMID@reserved?$CI?$DN35?$CJ?$AA@ 1001e578     useasm:usedisasm.obj
 0001:0001d588       ??_C@_0O@OFMNKGLE@reserved?$CI?$DN34?$CJ?$AA@ 1001e588     useasm:usedisasm.obj
 0001:0001d598       ??_C@_0O@OAICLADB@reserved?$CI?$DN33?$CJ?$AA@ 1001e598     useasm:usedisasm.obj
 0001:0001d5a8       ??_C@_02FEKKBGAL@o8?$AA@   1001e5a8     useasm:usedisasm.obj
 0001:0001d5ac       ??_C@_02EBJGEMBP@s8?$AA@   1001e5ac     useasm:usedisasm.obj
 0001:0001d5b0       ??_C@_02EFBLDAKN@u8?$AA@   1001e5b0     useasm:usedisasm.obj
 0001:0001d5b4       ??_C@_05MHMEBBGO@scale?$AA@ 1001e5b4     useasm:usedisasm.obj
 0001:0001d5bc       ??_C@_04GACKEAOH@iadd?$AA@ 1001e5bc     useasm:usedisasm.obj
 0001:0001d5c4       ??_C@_07POLIDKMG@?$CLsrc2?42?$AA@ 1001e5c4     useasm:usedisasm.obj
 0001:0001d5cc       ??_C@_04OLDKMDKP@comp?$AA@ 1001e5cc     useasm:usedisasm.obj
 0001:0001d5d4       ??_C@_05DDPJEGPJ@zeros?$AA@ 1001e5d4     useasm:usedisasm.obj
 0001:0001d5dc       ??_C@_07OAHENKM@s2scale?$AA@ 1001e5dc     useasm:usedisasm.obj
 0001:0001d5e4       ??_C@_03LJAEFNNE@max?$AA@  1001e5e4     useasm:usedisasm.obj
 0001:0001d5e8       ??_C@_03KLIPLJLL@min?$AA@  1001e5e8     useasm:usedisasm.obj
 0001:0001d5ec       ??_C@_04CGFJFPFD@none?$AA@ 1001e5ec     useasm:usedisasm.obj
 0001:0001d5f4       ??_C@_03GBOCFEHI@neg?$AA@  1001e5f4     useasm:usedisasm.obj
 0001:0001d5f8       ??_C@_03KCMAIMAP@sub?$AA@  1001e5f8     useasm:usedisasm.obj
 0001:0001d5fc       ??_C@_03BDGOHNNK@add?$AA@  1001e5fc     useasm:usedisasm.obj
 0001:0001d600       ??_C@_03LAGOJKKI@Ax8?$AA@  1001e600     useasm:usedisasm.obj
 0001:0001d604       ??_C@_03BMNLNFKE@Ax4?$AA@  1001e604     useasm:usedisasm.obj
 0001:0001d608       ??_C@_03EKIBHCCC@Ax2?$AA@  1001e608     useasm:usedisasm.obj
 0001:0001d60c       ??_C@_03GBKMCBOB@Ax1?$AA@  1001e60c     useasm:usedisasm.obj
 0001:0001d610       ??_C@_03BKGHFCCD@Cx8?$AA@  1001e610     useasm:usedisasm.obj
 0001:0001d614       ??_C@_03LGNCBNCP@Cx4?$AA@  1001e614     useasm:usedisasm.obj
 0001:0001d618       ??_C@_03OAIILKKJ@Cx2?$AA@  1001e618     useasm:usedisasm.obj
 0001:0001d61c       ??_C@_03MLKFOJGK@Cx1?$AA@  1001e61c     useasm:usedisasm.obj
 0001:0001d620       ??_C@_03PMDIEEIJ@s2a?$AA@  1001e620     useasm:usedisasm.obj
 0001:0001d624       ??_C@_03POHOPKNA@s1a?$AA@  1001e624     useasm:usedisasm.obj
 0001:0001d628       ??_C@_03PPLMJAOH@s0a?$AA@  1001e628     useasm:usedisasm.obj
 0001:0001d62c       ??_C@_02LLHJKEJF@s2?$AA@   1001e62c     useasm:usedisasm.obj
 0001:0001d630       ??_C@_02JAFEPHFG@s1?$AA@   1001e630     useasm:usedisasm.obj
 0001:0001d634       ??_C@_02IJEPMGBH@s0?$AA@   1001e634     useasm:usedisasm.obj
 0001:0001d638       ??_C@_05NHEJLOPM@rasat?$AA@ 1001e638     useasm:usedisasm.obj
 0001:0001d640       ??_C@_04OGEDEEII@asat?$AA@ 1001e640     useasm:usedisasm.obj
 0001:0001d648       ??_C@_03OHDNLOHO@one?$AA@  1001e648     useasm:usedisasm.obj
 0001:0001d64c       ??_C@_04DDFHDMOL@zero?$AA@ 1001e64c     useasm:usedisasm.obj
 0001:0001d654       ??_C@_04NFGBKFKG@?4moe?$AA@ 1001e654     useasm:usedisasm.obj
 0001:0001d65c       ??_C@_04JEFAHIDO@?4c10?$AA@ 1001e65c     useasm:usedisasm.obj
 0001:0001d664       ??_C@_03NLPDOOKO@?4u8?$AA@ 1001e664     useasm:usedisasm.obj
 0001:0001d668       ??_C@_06DHJGDNFC@?4flt16?$AA@ 1001e668     useasm:usedisasm.obj
 0001:0001d670       ??_C@_06FAHOCMDI@?4flt32?$AA@ 1001e670     useasm:usedisasm.obj
 0001:0001d678       ??_C@_05KBHMPBFH@?4comp?$AA@ 1001e678     useasm:usedisasm.obj
 0001:0001d680       ??_C@_06DDGGEEBB@?4alpha?$AA@ 1001e680     useasm:usedisasm.obj
 0001:0001d688       ??_C@_05HMELICBF@?4high?$AA@ 1001e688     useasm:usedisasm.obj
 0001:0001d690       ??_C@_04BFCJLCBA@?4low?$AA@ 1001e690     useasm:usedisasm.obj
 0001:0001d698       ??_C@_04ILPHDMJK@?4abs?$AA@ 1001e698     useasm:usedisasm.obj
 0001:0001d6a0       ??_C@_04PIHFONBM@?4neg?$AA@ 1001e6a0     useasm:usedisasm.obj
 0001:0001d6a8       ??_C@_01BDACAMKP@h?$AA@    1001e6a8     useasm:usedisasm.obj
 0001:0001d6ac       ??_C@_01FDFGLJHB@2?$AA@    1001e6ac     useasm:usedisasm.obj
 0001:0001d6b0       ??_C@_01HIHLOKLC@1?$AA@    1001e6b0     useasm:usedisasm.obj
 0001:0001d6b4       ??_C@_01GBGANLPD@0?$AA@    1001e6b4     useasm:usedisasm.obj
 0001:0001d6b8       ??_C@_01NOFIACDB@w?$AA@    1001e6b8     useasm:usedisasm.obj
 0001:0001d6bc       ??_C@_01GLPGHMHM@z?$AA@    1001e6bc     useasm:usedisasm.obj
 0001:0001d6c0       ??_C@_01EANLCPLP@y?$AA@    1001e6c0     useasm:usedisasm.obj
 0001:0001d6c4       ??_C@_01FJMABOPO@x?$AA@    1001e6c4     useasm:usedisasm.obj
 0001:0001d6c8       ??_C@_09DPMBDOD@?$DMinvalid?$DO?$AA@ 1001e6c8     useasm:usedisasm.obj
 0001:0001d6d4       ??_C@_03GCDGINBO@ref?$AA@  1001e6d4     useasm:usedisasm.obj
 0001:0001d6d8       ??_C@_0P@OHFOHFGJ@floatimmediate?$AA@ 1001e6d8     useasm:usedisasm.obj
 0001:0001d6e8       ??_C@_0L@CJMBHGAK@temp_named?$AA@ 1001e6e8     useasm:usedisasm.obj
 0001:0001d6f4       ??_C@_0BC@PGKPHNHG@label_with_offset?$AA@ 1001e6f4     useasm:usedisasm.obj
 0001:0001d708       ??_C@_03IOHFNHHA@fcs?$AA@  1001e708     useasm:usedisasm.obj
 0001:0001d70c       ??_C@_09DGBKDEJM@intsrcsel?$AA@ 1001e70c     useasm:usedisasm.obj
 0001:0001d718       ??_C@_07FAJBBDOC@swizzle?$AA@ 1001e718     useasm:usedisasm.obj
 0001:0001d720       ??_C@_0M@EMAHAAKF@addressmode?$AA@ 1001e720     useasm:usedisasm.obj
 0001:0001d72c       ??_C@_02GFBACKGC@cp?$AA@   1001e72c     useasm:usedisasm.obj
 0001:0001d730       ??_C@_01JBBJJEPG@p?$AA@    1001e730     useasm:usedisasm.obj
 0001:0001d734       ??_C@_05IDCCNNGI@label?$AA@ 1001e734     useasm:usedisasm.obj
 0001:0001d73c       ??_C@_03HDFKMEON@drc?$AA@  1001e73c     useasm:usedisasm.obj
 0001:0001d740       ??_C@_06NODHPLNN@pclink?$AA@ 1001e740     useasm:usedisasm.obj
 0001:0001d748       ??_C@_01IPJKGB@?$CD?$AA@   1001e748     useasm:usedisasm.obj
 0001:0001d74c       ??_C@_01KBJDNOO@i?$AA@     1001e74c     useasm:usedisasm.obj
 0001:0001d750       ??_C@_01PAPGNFGE@c?$AA@    1001e750     useasm:usedisasm.obj
 0001:0001d754       ??_C@_01JEJKBAGA@g?$AA@    1001e754     useasm:usedisasm.obj
 0001:0001d758       ??_C@_05FKHKFDID@index?$AA@ 1001e758     useasm:usedisasm.obj
 0001:0001d760       ??_C@_02CKOPKKAC@sa?$AA@   1001e760     useasm:usedisasm.obj
 0001:0001d764       ??_C@_02CIKJBEFL@pa?$AA@   1001e764     useasm:usedisasm.obj
 0001:0001d768       ??_C@_01FMEDJKGI@o?$AA@    1001e768     useasm:usedisasm.obj
 0001:0001d76c       ??_C@_01KDCPPGHE@r?$AA@    1001e76c     useasm:usedisasm.obj
 0001:0001e388       ??_C@_1BFA@DHMMPHNA@?$AA?$AN?$AA?6?$AA?$CK?$AA?$CK?$AA?$CK?$AA?5?$AAA?$AAS?$AAS?$AAE?$AAR?$AAT?$AAI?$AAO?$AAN?$AA?5?$AAF?$AAA?$AAI?$AAL?$AAE?$AAD?$AA?5?$AAi?$AAn?$AA?5?$AAc?$AA?3?$AA?2?$AAd?$AAa?$AAt@ 1001f388     useasm:usedisasm.obj
 0001:0001e4d8       ??_C@_1BGO@EFNLIPJO@?$AA?$AN?$AA?6?$AA?$CK?$AA?$CK?$AA?$CK?$AA?5?$AAA?$AAS?$AAS?$AAE?$AAR?$AAT?$AAI?$AAO?$AAN?$AA?5?$AAF?$AAA?$AAI?$AAL?$AAE?$AAD?$AA?5?$AAi?$AAn?$AA?5?$AAc?$AA?3?$AA?2?$AAd?$AAa?$AAt@ 1001f4d8     useasm:usedisasm.obj
 0001:0001e648       ??_C@_01MIFGBAGJ@?$CL?$AA@ 1001f648     useasm:usedisasm.obj
 0001:0001e64c       ??_C@_0O@PLCPAMI@unknown_error?$AA@ 1001f64c     useasm:usedisasm.obj
 0001:0001e65c       ??_C@_02KEGNLNML@?0?5?$AA@ 1001f65c     useasm:usedisasm.obj
 0001:0001e660       ??_C@_03KBEBNCEG@?4?$CFd?$AA@ 1001f660     useasm:usedisasm.obj
 0001:0001e664       ??_C@_0BC@PJEPNGEP@?4bytemask?$CFs?$CFs?$CFs?$CFs?$AA@ 1001f664     useasm:usedisasm.obj
 0001:0001e678       ??_C@_02DPKJAMEF@?$CFd?$AA@ 1001f678     useasm:usedisasm.obj
 0001:0001e67c       ??_C@_0BD@JNPMBKBM@reservedregtype?$CFd_?$AA@ 1001f67c     useasm:usedisasm.obj
 0001:0001e690       ??_C@_1BIC@GONFBGDB@?$AA?$AN?$AA?6?$AA?$CK?$AA?$CK?$AA?$CK?$AA?5?$AAA?$AAS?$AAS?$AAE?$AAR?$AAT?$AAI?$AAO?$AAN?$AA?5?$AAF?$AAA?$AAI?$AAL?$AAE?$AAD?$AA?5?$AAi?$AAn?$AA?5?$AAc?$AA?3?$AA?2?$AAd?$AAa?$AAt@ 1001f690     useasm:usedisasm.obj
 0001:0001e818       ??_C@_1BFA@CLBDBLKH@?$AA?$AN?$AA?6?$AA?$CK?$AA?$CK?$AA?$CK?$AA?5?$AAA?$AAS?$AAS?$AAE?$AAR?$AAT?$AAI?$AAO?$AAN?$AA?5?$AAF?$AAA?$AAI?$AAL?$AAE?$AAD?$AA?5?$AAi?$AAn?$AA?5?$AAc?$AA?3?$AA?2?$AAd?$AAa?$AAt@ 1001f818     useasm:usedisasm.obj
 0001:0001e968       ??_C@_08EDHFNKOD@?9?$CD0x?$CF?48X?$AA@ 1001f968     useasm:usedisasm.obj
 0001:0001e974       ??_C@_0O@BNDIKCLF@incrementmode?$AA@ 1001f974     useasm:usedisasm.obj
 0001:0001e984       ??_C@_0M@DEJENGIC@swizzlemode?$AA@ 1001f984     useasm:usedisasm.obj
 0001:0001e990       ??_C@_07LDOAHENA@?$CD0x?$CF?48X?$AA@ 1001f990     useasm:usedisasm.obj
 0001:0001e998       ??_C@_0BN@KOGDMPKG@addressmode_undefinedvalue?$CFd?$AA@ 1001f998     useasm:usedisasm.obj
 0001:0001e9b8       ??_C@_05HADFAIAH@clamp?$AA@ 1001f9b8     useasm:usedisasm.obj
 0001:0001e9c0       ??_C@_06LGDBIFHB@repeat?$AA@ 1001f9c0     useasm:usedisasm.obj
 0001:0001e9c8       ??_C@_06LLKPBPOH@mirror?$AA@ 1001f9c8     useasm:usedisasm.obj
 0001:0001e9d0       ??_C@_0BB@DNAJPIJJ@reservedsrcsel?$CFd?$AA@ 1001f9d0     useasm:usedisasm.obj
 0001:0001e9e4       ??_C@_06LCEEMMJ@i?4?$CFs?$CFs?$AA@ 1001f9e4     useasm:usedisasm.obj
 0001:0001e9ec       ??_C@_0O@ELBKBMH@?$CFs?$FLi?$CFs?5?$CL?5?$CD?$CFd?$FN?$AA@ 1001f9ec     useasm:usedisasm.obj
 0001:0001e9fc       ??_C@_01HHGOMJKL@l?$AA@    1001f9fc     useasm:usedisasm.obj
 0001:0001ea00       ??_C@_01DCLJPIOD@?$CB?$AA@ 1001fa00     useasm:usedisasm.obj
 0001:0001ea04       ??_C@_01PJKLJHI@?$HO?$AA@  1001fa04     useasm:usedisasm.obj
 0001:0001ea08       ??_C@_01PKGAHCOL@?$CJ?$AA@ 1001fa08     useasm:usedisasm.obj
 0001:0001ea0c       ??_C@_01LFCBOECM@?4?$AA@   1001fa0c     useasm:usedisasm.obj
 0001:0001ea10       ??_C@_08BDAJLMON@swizzle?$CI?$AA@ 1001fa10     useasm:usedisasm.obj
 0001:0001ea1c       ??_C@_07NLPEPIDE@?4swzf32?$AA@ 1001fa1c     useasm:usedisasm.obj
 0001:0001ea24       ??_C@_06NEDHBKDP@?4swzhh?$AA@ 1001fa24     useasm:usedisasm.obj
 0001:0001ea2c       ??_C@_06LHFCHHOH@?4swzll?$AA@ 1001fa2c     useasm:usedisasm.obj
 0001:0001ea34       ??_C@_03MOMPLELK@?4i8?$AA@ 1001fa34     useasm:usedisasm.obj
 0001:0001ea38       ??_C@_0M@IMKAOOHG@?4incs?$CFs?$CFs?$CFs?$AA@ 1001fa38     useasm:usedisasm.obj
 0001:0001ea44       ??_C@_05LGBEKMGP@?4rs?$CFd?$AA@ 1001fa44     useasm:usedisasm.obj
 0001:0001ea4c       ??_C@_04DMOAILBA@?4sat?$AA@ 1001fa4c     useasm:usedisasm.obj
 0001:0001ea54       ??_C@_03KFHHDCHE@sat?$AA@  1001fa54     useasm:usedisasm.obj
 0001:0001ea58       ??_C@_02DGHPGHDC@?4s?$AA@  1001fa58     useasm:usedisasm.obj
 0001:0001ea5c       ??_C@_02GACFMALE@?4u?$AA@  1001fa5c     useasm:usedisasm.obj
 0001:0001ea60       ??_C@_09MAPGOMDK@?4repeat?$CFd?$AA@ 1001fa60     useasm:usedisasm.obj
 0001:0001ea6c       ??_C@_08BDGLMPBA@?4fetch?$CFd?$AA@ 1001fa6c     useasm:usedisasm.obj
 0001:0001ea78       ??_C@_0N@IFFBPGB@?4rangeenable?$AA@ 1001fa78     useasm:usedisasm.obj
 0001:0001ea88       ??_C@_0BG@KPEJMKJB@?4reservedmasktype?$CI?$CFd?$CJ?$AA@ 1001fa88     useasm:usedisasm.obj
 0001:0001eaa0       ??_C@_0BF@ECPKBDBN@?4reservedchansel?$CI?$CFd?$CJ?$AA@ 1001faa0     useasm:usedisasm.obj
 0001:0001eab8       ??_C@_0M@LHCHNHCF@?4test?$CFs?$CFs?$CFs?$AA@ 1001fab8     useasm:usedisasm.obj
 0001:0001eac4       ??_C@_01MCMALHOG@a?$AA@    1001fac4     useasm:usedisasm.obj
 0001:0001eac8       ??_C@_05JMMNNMMB@?4tp?$HMz?$AA@ 1001fac8     useasm:usedisasm.obj
 0001:0001ead0       ??_C@_04DEOINJBK@?4tnz?$AA@ 1001fad0     useasm:usedisasm.obj
 0001:0001ead8       ??_C@_03BIHOKJBO@?4tz?$AA@ 1001fad8     useasm:usedisasm.obj
 0001:0001eadc       ??_C@_05CMALPMGN@?4tn?$HMz?$AA@ 1001fadc     useasm:usedisasm.obj
 0001:0001eae4       ??_C@_03DGNAHOEL@?4tn?$AA@ 1001fae4     useasm:usedisasm.obj
 0001:0001eae8       ??_C@_02HAOIJKIC@?$CFc?$AA@ 1001fae8     useasm:usedisasm.obj
 0001:0001eaec       ??_C@_03EDAPGMLK@?$FN?0?5?$AA@ 1001faec     useasm:usedisasm.obj
 0001:0001eaf0       ??_C@_01JOAMLHOP@?9?$AA@   1001faf0     useasm:usedisasm.obj
 0001:0001eaf4       ??_C@_02ECNGHCIF@?$CL?$CL?$AA@ 1001faf4     useasm:usedisasm.obj
 0001:0001eaf8       ??_C@_02BAABKJLB@?9?9?$AA@ 1001faf8     useasm:usedisasm.obj
 0001:0001eafc       ??_C@_01IHBHIGKO@?0?$AA@   1001fafc     useasm:usedisasm.obj
 0001:0001eb00       ??_C@_01OHGJGJJP@?$FL?$AA@ 1001fb00     useasm:usedisasm.obj
 0001:0001eb04       ??_C@_01KMDKNFGN@?1?$AA@   1001fb04     useasm:usedisasm.obj
 0001:0001eb08       ??_C@_04KHEKMLOH@?0?5?$CFs?$AA@ 1001fb08     useasm:usedisasm.obj
 0001:0001eb10       ??_C@_0BH@FDMNPMPO@?$CFsi0?5?$DN?5?$CFs?0?5?$CFsi1?5?$DN?5?$CFs?0?5?$AA@ 1001fb10     useasm:usedisasm.obj
 0001:0001eb28       ??_C@_06HIPDNFAF@?$DN?5?$CFs?0?5?$AA@ 1001fb28     useasm:usedisasm.obj
 0001:0001eb30       ??_C@_1BEK@MADKMBPM@?$AA?$AN?$AA?6?$AA?$CK?$AA?$CK?$AA?$CK?$AA?5?$AAA?$AAS?$AAS?$AAE?$AAR?$AAT?$AAI?$AAO?$AAN?$AA?5?$AAF?$AAA?$AAI?$AAL?$AAE?$AAD?$AA?5?$AAi?$AAn?$AA?5?$AAc?$AA?3?$AA?2?$AAd?$AAa?$AAt@ 1001fb30     useasm:usedisasm.obj
 0001:0001ec7c       ??_C@_0P@FKJPKKH@?$CD?$CFd?5?1?$CK?5incp?5?$CK?1?$AA@ 1001fc7c     useasm:usedisasm.obj
 0001:0001ec90       ??_C@_1BFO@EPKIBGMO@?$AA?$AN?$AA?6?$AA?$CK?$AA?$CK?$AA?$CK?$AA?5?$AAA?$AAS?$AAS?$AAE?$AAR?$AAT?$AAI?$AAO?$AAN?$AA?5?$AAF?$AAA?$AAI?$AAL?$AAE?$AAD?$AA?5?$AAi?$AAn?$AA?5?$AAc?$AA?3?$AA?2?$AAd?$AAa?$AAt@ 1001fc90     useasm:usedisasm.obj
 0001:0001edf0       ??_C@_1BHM@DGBFECBC@?$AA?$AN?$AA?6?$AA?$CK?$AA?$CK?$AA?$CK?$AA?5?$AAA?$AAS?$AAS?$AAE?$AAR?$AAT?$AAI?$AAO?$AAN?$AA?5?$AAF?$AAA?$AAI?$AAL?$AAE?$AAD?$AA?5?$AAi?$AAn?$AA?5?$AAc?$AA?3?$AA?2?$AAd?$AAa?$AAt@ 1001fdf0     useasm:usedisasm.obj
 0001:0001ef70       ??_C@_1BFO@HGOCJNKJ@?$AA?$AN?$AA?6?$AA?$CK?$AA?$CK?$AA?$CK?$AA?5?$AAA?$AAS?$AAS?$AAE?$AAR?$AAT?$AAI?$AAO?$AAN?$AA?5?$AAF?$AAA?$AAI?$AAL?$AAE?$AAD?$AA?5?$AAi?$AAn?$AA?5?$AAc?$AA?3?$AA?2?$AAd?$AAa?$AAt@ 1001ff70     useasm:usedisasm.obj
 0001:0001f0d0       ??_C@_0BB@FHLDAONP@?$CF?$CKd?3?50x?$CF?48X?$CF?48X?7?$AA@ 100200d0     useasm:usedisasm.obj
 0001:0001f0e4       ??_C@_06FEAOAINM@SGX530?$AA@ 100200e4     useasm:utils.obj
 0001:0001f190       ??_C@_09CCMBOHAD@unpcks8u8?$AA@ 10020190     useasm:usetab.obj
 0001:0001f19c       ??_C@_09KJAMGOBB@unpcku8s8?$AA@ 1002019c     useasm:usetab.obj
 0001:0001f1a8       ??_C@_08JOEIIECE@statomic?$AA@ 100201a8     useasm:usetab.obj
 0001:0001f1b4       ??_C@_08JBIKDIKP@ldatomic?$AA@ 100201b4     useasm:usetab.obj
 0001:0001f1c0       ??_C@_06MJKBIGOG@cndend?$AA@ 100201c0     useasm:usetab.obj
 0001:0001f1c8       ??_C@_05FIIFAEGG@cndlt?$AA@ 100201c8     useasm:usetab.obj
 0001:0001f1d0       ??_C@_05NEPPEJDD@cndsm?$AA@ 100201d0     useasm:usetab.obj
 0001:0001f1d8       ??_C@_05CPKAEPDK@cndef?$AA@ 100201d8     useasm:usetab.obj
 0001:0001f1e0       ??_C@_05EPPPOACL@cndst?$AA@ 100201e0     useasm:usetab.obj
 0001:0001f1e8       ??_C@_07KHFILGPJ@isubu32?$AA@ 100201e8     useasm:usetab.obj
 0001:0001f1f0       ??_C@_06JKELAJFH@isub32?$AA@ 100201f0     useasm:usetab.obj
 0001:0001f1f8       ??_C@_05NCHGGDHJ@sprvv?$AA@ 100201f8     useasm:usetab.obj
 0001:0001f200       ??_C@_06HFBPFKMP@idxscw?$AA@ 10020200     useasm:usetab.obj
 0001:0001f208       ??_C@_06IGIKOIK@idxscr?$AA@ 10020208     useasm:usetab.obj
 0001:0001f210       ??_C@_0L@JLOMIJPI@vpckc10c10?$AA@ 10020210     useasm:usetab.obj
 0001:0001f21c       ??_C@_0L@JNIAMPCG@vpckc10f32?$AA@ 1002021c     useasm:usetab.obj
 0001:0001f228       ??_C@_0L@PKGINOEM@vpckc10f16?$AA@ 10020228     useasm:usetab.obj
 0001:0001f234       ??_C@_0L@PONMFEDE@vpckf32c10?$AA@ 10020234     useasm:usetab.obj
 0001:0001f240       ??_C@_0L@PILABCOK@vpckf32f32?$AA@ 10020240     useasm:usetab.obj
 0001:0001f24c       ??_C@_0L@JPFIADIA@vpckf32f16?$AA@ 1002024c     useasm:usetab.obj
 0001:0001f258       ??_C@_0L@PIJPKECN@vpckf32s16?$AA@ 10020258     useasm:usetab.obj
 0001:0001f264       ??_C@_0L@NNPEPLPB@vpckf32u16?$AA@ 10020264     useasm:usetab.obj
 0001:0001f270       ??_C@_09PGEODABJ@vpckf32o8?$AA@ 10020270     useasm:usetab.obj
 0001:0001f27c       ??_C@_09ODHCGKAN@vpckf32s8?$AA@ 1002027c     useasm:usetab.obj
 0001:0001f288       ??_C@_09OHPPBGLP@vpckf32u8?$AA@ 10020288     useasm:usetab.obj
 0001:0001f294       ??_C@_0L@EGJEFDPP@vpckf16c10?$AA@ 10020294     useasm:usetab.obj
 0001:0001f2a0       ??_C@_0L@EAPIBFCB@vpckf16f32?$AA@ 100202a0     useasm:usetab.obj
 0001:0001f2ac       ??_C@_0L@CHBAAEEL@vpckf16f16?$AA@ 100202ac     useasm:usetab.obj
 0001:0001f2b8       ??_C@_0L@EANHKDOG@vpckf16s16?$AA@ 100202b8     useasm:usetab.obj
 0001:0001f2c4       ??_C@_0L@GFLMPMDK@vpckf16u16?$AA@ 100202c4     useasm:usetab.obj
 0001:0001f2d0       ??_C@_09DOMPECO@vpckf16o8?$AA@ 100202d0     useasm:usetab.obj
 0001:0001f2dc       ??_C@_09BGNAKODK@vpckf16s8?$AA@ 100202dc     useasm:usetab.obj
 0001:0001f2e8       ??_C@_09BCFNNCII@vpckf16u8?$AA@ 100202e8     useasm:usetab.obj
 0001:0001f2f4       ??_C@_0L@HFBOKGEI@vpcks16f32?$AA@ 100202f4     useasm:usetab.obj
 0001:0001f300       ??_C@_0L@BCPGLHCC@vpcks16f16?$AA@ 10020300     useasm:usetab.obj
 0001:0001f30c       ??_C@_0L@HFDBBAIP@vpcks16s16?$AA@ 1002030c     useasm:usetab.obj
 0001:0001f318       ??_C@_0L@FAFKEPFD@vpcks16u16?$AA@ 10020318     useasm:usetab.obj
 0001:0001f324       ??_C@_09FAPHGHAG@vpcks16o8?$AA@ 10020324     useasm:usetab.obj
 0001:0001f330       ??_C@_09EFMLDNBC@vpcks16s8?$AA@ 10020330     useasm:usetab.obj
 0001:0001f33c       ??_C@_09EBEGEBKA@vpcks16u8?$AA@ 1002033c     useasm:usetab.obj
 0001:0001f348       ??_C@_0L@BGMOJDHC@vpcku16f32?$AA@ 10020348     useasm:usetab.obj
 0001:0001f354       ??_C@_0L@HBCGICBI@vpcku16f16?$AA@ 10020354     useasm:usetab.obj
 0001:0001f360       ??_C@_0L@BGOBCFLF@vpcku16s16?$AA@ 10020360     useasm:usetab.obj
 0001:0001f36c       ??_C@_0L@DDIKHKGJ@vpcku16u16?$AA@ 1002036c     useasm:usetab.obj
 0001:0001f378       ??_C@_09IGKOIEBL@vpcku16o8?$AA@ 10020378     useasm:usetab.obj
 0001:0001f384       ??_C@_09JDJCNOAP@vpcku16s8?$AA@ 10020384     useasm:usetab.obj
 0001:0001f390       ??_C@_09JHBPKCLN@vpcku16u8?$AA@ 10020390     useasm:usetab.obj
 0001:0001f39c       ??_C@_09HNLHPHGL@vpcko8f32?$AA@ 1002039c     useasm:usetab.obj
 0001:0001f3a8       ??_C@_09BKFPOGAB@vpcko8f16?$AA@ 100203a8     useasm:usetab.obj
 0001:0001f3b4       ??_C@_09HNJIEBKM@vpcko8s16?$AA@ 100203b4     useasm:usetab.obj
 0001:0001f3c0       ??_C@_09FIPDBOHA@vpcko8u16?$AA@ 100203c0     useasm:usetab.obj
 0001:0001f3cc       ??_C@_08JEJLGJEL@vpcko8o8?$AA@ 100203cc     useasm:usetab.obj
 0001:0001f3d8       ??_C@_08IBKHDDFP@vpcko8s8?$AA@ 100203d8     useasm:usetab.obj
 0001:0001f3e4       ??_C@_08IFCKEPON@vpcko8u8?$AA@ 100203e4     useasm:usetab.obj
 0001:0001f3f0       ??_C@_09JKDDFIL@vpcks8f32?$AA@ 100203f0     useasm:usetab.obj
 0001:0001f3fc       ??_C@_09GOELCEOB@vpcks8f16?$AA@ 100203fc     useasm:usetab.obj
 0001:0001f408       ??_C@_09JIMIDEM@vpcks8s16?$AA@ 10020408     useasm:usetab.obj
 0001:0001f414       ??_C@_09CMOHNMJA@vpcks8u16?$AA@ 10020414     useasm:usetab.obj
 0001:0001f420       ??_C@_08DBILBDMI@vpcks8o8?$AA@ 10020420     useasm:usetab.obj
 0001:0001f42c       ??_C@_08CELHEJNM@vpcks8s8?$AA@ 1002042c     useasm:usetab.obj
 0001:0001f438       ??_C@_08CADKDFGO@vpcks8u8?$AA@ 10020438     useasm:usetab.obj
 0001:0001f444       ??_C@_09NPPKNGJG@vpcku8f32?$AA@ 10020444     useasm:usetab.obj
 0001:0001f450       ??_C@_09LIBCMHPM@vpcku8f16?$AA@ 10020450     useasm:usetab.obj
 0001:0001f45c       ??_C@_09NPNFGAFB@vpcku8s16?$AA@ 1002045c     useasm:usetab.obj
 0001:0001f468       ??_C@_09PKLODPIN@vpcku8u16?$AA@ 10020468     useasm:usetab.obj
 0001:0001f474       ??_C@_08LOMLOGGI@vpcku8o8?$AA@ 10020474     useasm:usetab.obj
 0001:0001f480       ??_C@_08KLPHLMHM@vpcku8s8?$AA@ 10020480     useasm:usetab.obj
 0001:0001f48c       ??_C@_08KPHKMAMO@vpcku8u8?$AA@ 1002048c     useasm:usetab.obj
 0001:0001f498       ??_C@_04DGGKFKKC@vexp?$AA@ 10020498     useasm:usetab.obj
 0001:0001f4a0       ??_C@_04FHIICEEL@vlog?$AA@ 100204a0     useasm:usetab.obj
 0001:0001f4a8       ??_C@_04OOOKOLCE@vrsq?$AA@ 100204a8     useasm:usetab.obj
 0001:0001f4b0       ??_C@_04OLNHHJBF@vrcp?$AA@ 100204b0     useasm:usetab.obj
 0001:0001f4b8       ??_C@_07IFLIPEJM@vf16sub?$AA@ 100204b8     useasm:usetab.obj
 0001:0001f4c0       ??_C@_06BKGGAFJG@vf16dp?$AA@ 100204c0     useasm:usetab.obj
 0001:0001f4c8       ??_C@_07JOHMCFEH@vf16max?$AA@ 100204c8     useasm:usetab.obj
 0001:0001f4d0       ??_C@_07IMPHMBCI@vf16min?$AA@ 100204d0     useasm:usetab.obj
 0001:0001f4d8       ??_C@_07OFMNCMJC@vf16dsy?$AA@ 100204d8     useasm:usetab.obj
 0001:0001f4e0       ??_C@_07PMNGBNND@vf16dsx?$AA@ 100204e0     useasm:usetab.obj
 0001:0001f4e8       ??_C@_07POCLHEPF@vf16frc?$AA@ 100204e8     useasm:usetab.obj
 0001:0001f4f0       ??_C@_07DEBGAFEJ@vf16add?$AA@ 100204f0     useasm:usetab.obj
 0001:0001f4f8       ??_C@_07KLPNPJLO@vf16mul?$AA@ 100204f8     useasm:usetab.obj
 0001:0001f500       ??_C@_07HIALHIBK@vf16mad?$AA@ 10020500     useasm:usetab.obj
 0001:0001f508       ??_C@_04DDDELBGB@vsub?$AA@ 10020508     useasm:usetab.obj
 0001:0001f510       ??_C@_03PAAOMFKJ@vdp?$AA@  10020510     useasm:usetab.obj
 0001:0001f514       ??_C@_04FDEBGJGP@vdsy?$AA@ 10020514     useasm:usetab.obj
 0001:0001f51c       ??_C@_04EKFKFICO@vdsx?$AA@ 1002051c     useasm:usetab.obj
 0001:0001f524       ??_C@_04CIPAGALK@vmax?$AA@ 10020524     useasm:usetab.obj
 0001:0001f52c       ??_C@_04DKHLIENF@vmin?$AA@ 1002052c     useasm:usetab.obj
 0001:0001f534       ??_C@_04EIKHDBAI@vfrc?$AA@ 10020534     useasm:usetab.obj
 0001:0001f53c       ??_C@_04ICJKEALE@vadd?$AA@ 1002053c     useasm:usetab.obj
 0001:0001f544       ??_C@_04BNHBLMED@vmul?$AA@ 10020544     useasm:usetab.obj
 0001:0001f54c       ??_C@_04MOIHDNOH@vmad?$AA@ 1002054c     useasm:usetab.obj
 0001:0001f554       ??_C@_07PJIFHDOJ@vmovcu8?$AA@ 10020554     useasm:usetab.obj
 0001:0001f55c       ??_C@_05IPANMIKP@vmovc?$AA@ 1002055c     useasm:usetab.obj
 0001:0001f564       ??_C@_04LMONGADO@vmov?$AA@ 10020564     useasm:usetab.obj
 0001:0001f56c       ??_C@_05HKPHADDM@vmov4?$AA@ 1002056c     useasm:usetab.obj
 0001:0001f574       ??_C@_05DFLGJFPL@vmov3?$AA@ 10020574     useasm:usetab.obj
 0001:0001f57c       ??_C@_05LKKHNEHN@vssq4?$AA@ 1002057c     useasm:usetab.obj
 0001:0001f584       ??_C@_05PFOGECLK@vssq3?$AA@ 10020584     useasm:usetab.obj
 0001:0001f58c       ??_C@_05IBKMJGII@vsub4?$AA@ 1002058c     useasm:usetab.obj
 0001:0001f594       ??_C@_05MOONAAEP@vsub3?$AA@ 10020594     useasm:usetab.obj
 0001:0001f59c       ??_C@_05HHKEBOCC@vadd4?$AA@ 1002059c     useasm:usetab.obj
 0001:0001f5a4       ??_C@_05DIOFIIOF@vadd3?$AA@ 100205a4     useasm:usetab.obj
 0001:0001f5ac       ??_C@_05FEOCJCGB@vmul4?$AA@ 100205ac     useasm:usetab.obj
 0001:0001f5b4       ??_C@_05BLKDAEKG@vmul3?$AA@ 100205b4     useasm:usetab.obj
 0001:0001f5bc       ??_C@_05IFIKADBB@vmad4?$AA@ 100205bc     useasm:usetab.obj
 0001:0001f5c4       ??_C@_05MKMLJFNG@vmad3?$AA@ 100205c4     useasm:usetab.obj
 0001:0001f5cc       ??_C@_04BENAOGHO@vdp4?$AA@ 100205cc     useasm:usetab.obj
 0001:0001f5d4       ??_C@_04FLJBHALJ@vdp3?$AA@ 100205d4     useasm:usetab.obj
 0001:0001f5dc       ??_C@_09NODGMHNE@emitvcbst?$AA@ 100205dc     useasm:usetab.obj
 0001:0001f5e8       ??_C@_0L@FBFICDMG@emitvcbvtx?$AA@ 100205e8     useasm:usetab.obj
 0001:0001f5f4       ??_C@_09PIDAEGKH@emitmtest?$AA@ 100205f4     useasm:usetab.obj
 0001:0001f600       ??_C@_0L@JIHCAFMB@emitmtevtx?$AA@ 10020600     useasm:usetab.obj
 0001:0001f60c       ??_C@_03PENBPHC@cfi?$AA@   1002060c     useasm:usetab.obj
 0001:0001f610       ??_C@_02POBAIDHK@ci?$AA@   10020610     useasm:usetab.obj
 0001:0001f614       ??_C@_02HJIIJPLF@cf?$AA@   10020614     useasm:usetab.obj
 0001:0001f618       ??_C@_05PACJMPIO@moest?$AA@ 10020618     useasm:usetab.obj
 0001:0001f620       ??_C@_06FOOALFNH@fnrm16?$AA@ 10020620     useasm:usetab.obj
 0001:0001f628       ??_C@_06DJAIKELN@fnrm32?$AA@ 10020628     useasm:usetab.obj
 0001:0001f630       ??_C@_06KNGBBCNH@sablnd?$AA@ 10020630     useasm:usetab.obj
 0001:0001f638       ??_C@_06DPIIDNJL@fpsub8?$AA@ 10020638     useasm:usetab.obj
 0001:0001f640       ??_C@_06MJIALFDB@fpadd8?$AA@ 10020640     useasm:usetab.obj
 0001:0001f648       ??_C@_06OKMGDJHC@fpmul8?$AA@ 10020648     useasm:usetab.obj
 0001:0001f650       ??_C@_06BELDBAKP@isubu8?$AA@ 10020650     useasm:usetab.obj
 0001:0001f658       ??_C@_06CCEGFCNB@iaddu8?$AA@ 10020658     useasm:usetab.obj
 0001:0001f660       ??_C@_04HIHJCIAG@fpma?$AA@ 10020660     useasm:usetab.obj
 0001:0001f668       ??_C@_06BODAOOPP@movmsk?$AA@ 10020668     useasm:usetab.obj
 0001:0001f670       ??_C@_04CFJGHAMN@movc?$AA@ 10020670     useasm:usetab.obj
 0001:0001f678       ??_C@_07BANDBPIA@iaddu32?$AA@ 10020678     useasm:usetab.obj
 0001:0001f680       ??_C@_06DBFEDEDN@imov16?$AA@ 10020680     useasm:usetab.obj
 0001:0001f688       ??_C@_06MNLAAEHH@imulu8?$AA@ 10020688     useasm:usetab.obj
 0001:0001f690       ??_C@_05KNHGNCD@imul8?$AA@ 10020690     useasm:usetab.obj
 0001:0001f698       ??_C@_05NPJJGJMK@isub8?$AA@ 10020698     useasm:usetab.obj
 0001:0001f6a0       ??_C@_05CJJBOBGA@iadd8?$AA@ 100206a0     useasm:usetab.obj
 0001:0001f6a8       ??_C@_06KMLOELCJ@iadd32?$AA@ 100206a8     useasm:usetab.obj
 0001:0001f6b0       ??_C@_07EIGBPOGB@imulu16?$AA@ 100206b0     useasm:usetab.obj
 0001:0001f6b8       ??_C@_07MALAKHJD@isubu16?$AA@ 100206b8     useasm:usetab.obj
 0001:0001f6c0       ??_C@_07HHDLAOOK@iaddu16?$AA@ 100206c0     useasm:usetab.obj
 0001:0001f6c8       ??_C@_06CEKAAMOF@imul16?$AA@ 100206c8     useasm:usetab.obj
 0001:0001f6d0       ??_C@_06PNKDBIDN@isub16?$AA@ 100206d0     useasm:usetab.obj
 0001:0001f6d8       ??_C@_06MLFGFKED@iadd16?$AA@ 100206d8     useasm:usetab.obj
 0001:0001f6e0       ??_C@_05OJCDMDMI@asop2?$AA@ 100206e0     useasm:usetab.obj
 0001:0001f6e8       ??_C@_04BNKIMGJI@lrp2?$AA@ 100206e8     useasm:usetab.obj
 0001:0001f6f0       ??_C@_04DGIFJFFL@lrp1?$AA@ 100206f0     useasm:usetab.obj
 0001:0001f6f8       ??_C@_04JEDFNLGM@alrp?$AA@ 100206f8     useasm:usetab.obj
 0001:0001f700       ??_C@_05BLLJMLJF@arsop?$AA@ 10020700     useasm:usetab.obj
 0001:0001f708       ??_C@_04IILBKMIG@asop?$AA@ 10020708     useasm:usetab.obj
 0001:0001f710       ??_C@_04OBPEPKPD@asub?$AA@ 10020710     useasm:usetab.obj
 0001:0001f718       ??_C@_04FAFKALCG@aadd?$AA@ 10020718     useasm:usetab.obj
 0001:0001f720       ??_C@_07NOKJPFJG@aintrp2?$AA@ 10020720     useasm:usetab.obj
 0001:0001f728       ??_C@_07PFIEKGFF@aintrp1?$AA@ 10020728     useasm:usetab.obj
 0001:0001f730       ??_C@_04HDJKLMOD@phas?$AA@ 10020730     useasm:usetab.obj
 0001:0001f738       ??_C@_04IPMEAKK@setm?$AA@  10020738     useasm:usetab.obj
 0001:0001f740       ??_C@_03EEOHENCN@wop?$AA@  10020740     useasm:usetab.obj
 0001:0001f744       ??_C@_06CNLPFHCD@depthf?$AA@ 10020744     useasm:usetab.obj
 0001:0001f74c       ??_C@_05LMCKLHKJ@atst8?$AA@ 1002074c     useasm:usetab.obj
 0001:0001f754       ??_C@_05FFPFIJHE@ptoff?$AA@ 10020754     useasm:usetab.obj
 0001:0001f75c       ??_C@_06GIPMBBEA@pcoeff?$AA@ 1002075c     useasm:usetab.obj
 0001:0001f764       ??_C@_03OJMAPEGJ@str?$AA@  10020764     useasm:usetab.obj
 0001:0001f768       ??_C@_03PNJMBANA@ldr?$AA@  10020768     useasm:usetab.obj
 0001:0001f76c       ??_C@_07KLENHKKM@fsubflr?$AA@ 1002076c     useasm:usetab.obj
 0001:0001f774       ??_C@_07EOGFDLKI@release?$AA@ 10020774     useasm:usetab.obj
 0001:0001f77c       ??_C@_04MKMCLCOO@lock?$AA@ 1002077c     useasm:usetab.obj
 0001:0001f784       ??_C@_06OPKGODIN@fddpc4?$AA@ 10020784     useasm:usetab.obj
 0001:0001f78c       ??_C@_06KAOHHFEK@fddpc3?$AA@ 1002078c     useasm:usetab.obj
 0001:0001f794       ??_C@_05FCEHFDPG@fddpc?$AA@ 10020794     useasm:usetab.obj
 0001:0001f79c       ??_C@_05KHLNJIGF@fddp4?$AA@ 1002079c     useasm:usetab.obj
 0001:0001f7a4       ??_C@_05OIPMAOKC@fddp3?$AA@ 100207a4     useasm:usetab.obj
 0001:0001f7ac       ??_C@_04PLAKPAFB@fddp?$AA@ 100207ac     useasm:usetab.obj
 0001:0001f7b4       ??_C@_05GGKGEFIE@fdpc4?$AA@ 100207b4     useasm:usetab.obj
 0001:0001f7bc       ??_C@_05CJOHNDED@fdpc3?$AA@ 100207bc     useasm:usetab.obj
 0001:0001f7c4       ??_C@_04IBMKLKGP@fdpc?$AA@ 100207c4     useasm:usetab.obj
 0001:0001f7cc       ??_C@_04HEDAHBPM@fdp4?$AA@ 100207cc     useasm:usetab.obj
 0001:0001f7d4       ??_C@_04DLHBOHDL@fdp3?$AA@ 100207d4     useasm:usetab.obj
 0001:0001f7dc       ??_C@_05HEIOGBDD@setfc?$AA@ 100207dc     useasm:usetab.obj
 0001:0001f7e4       ??_C@_03DKPPLHHB@imo?$AA@  100207e4     useasm:usetab.obj
 0001:0001f7e8       ??_C@_04OHNFNFAF@smbo?$AA@ 100207e8     useasm:usetab.obj
 0001:0001f7f0       ??_C@_05DBFBNMJD@smlsi?$AA@ 100207f0     useasm:usetab.obj
 0001:0001f7f8       ??_C@_03PKDHGMJG@smr?$AA@  100207f8     useasm:usetab.obj
 0001:0001f7fc       ??_C@_04HBIOGLNI@smoa?$AA@ 100207fc     useasm:usetab.obj
 0001:0001f804       ??_C@_06EOEAAGLO@u16tnz?$AA@ 10020804     useasm:usetab.obj
 0001:0001f80c       ??_C@_05NKPLKFJF@u16tz?$AA@ 1002080c     useasm:usetab.obj
 0001:0001f814       ??_C@_04FMGLMKJC@ftnz?$AA@ 10020814     useasm:usetab.obj
 0001:0001f81c       ??_C@_03EGNONJMM@ftz?$AA@  1002081c     useasm:usetab.obj
 0001:0001f820       ??_C@_03GJPGFFDI@nop?$AA@  10020820     useasm:usetab.obj
 0001:0001f824       ??_C@_03FGBGECCC@dma?$AA@  10020824     useasm:usetab.obj
 0001:0001f828       ??_C@_03ODCMFNNH@sms?$AA@  10020828     useasm:usetab.obj
 0001:0001f82c       ??_C@_03BJDMMCMD@ams?$AA@  1002082c     useasm:usetab.obj
 0001:0001f830       ??_C@_03DHGNGCAI@smm?$AA@  10020830     useasm:usetab.obj
 0001:0001f834       ??_C@_03MNHNPNBM@amm?$AA@  10020834     useasm:usetab.obj
 0001:0001f838       ??_C@_03JEAJBGIL@sda?$AA@  10020838     useasm:usetab.obj
 0001:0001f83c       ??_C@_03DILMFJIH@sdm?$AA@  1002083c     useasm:usetab.obj
 0001:0001f840       ??_C@_07KLCMLLPD@setpneq?$AA@ 10020840     useasm:usetab.obj
 0001:0001f848       ??_C@_07DCGPGNGK@setplte?$AA@ 10020848     useasm:usetab.obj
 0001:0001f850       ??_C@_06IKNJBMPL@setplt?$AA@ 10020850     useasm:usetab.obj
 0001:0001f858       ??_C@_06PIHPNDDB@setpeq?$AA@ 10020858     useasm:usetab.obj
 0001:0001f860       ??_C@_07OFGOOKGL@setpgte?$AA@ 10020860     useasm:usetab.obj
 0001:0001f868       ??_C@_06IGIMPDBK@setpgt?$AA@ 10020868     useasm:usetab.obj
 0001:0001f870       ??_C@_04FDNECGOD@fsub?$AA@ 10020870     useasm:usetab.obj
 0001:0001f878       ??_C@_04DGLGBLMD@fssq?$AA@ 10020878     useasm:usetab.obj
 0001:0001f880       ??_C@_04OCHKNHDG@fadd?$AA@ 10020880     useasm:usetab.obj
 0001:0001f888       ??_C@_04HNJBCLMB@fmul?$AA@ 10020888     useasm:usetab.obj
 0001:0001f890       ??_C@_04NMANPHLM@fmov?$AA@ 10020890     useasm:usetab.obj
 0001:0001f898       ??_C@_03CNBJFNFA@mov?$AA@  10020898     useasm:usetab.obj
 0001:0001f89c       ??_C@_07OLONFCKE@emitpds?$AA@ 1002089c     useasm:usetab.obj
 0001:0001f8a4       ??_C@_0O@LEENHJNO@emitprimitive?$AA@ 100208a4     useasm:usetab.obj
 0001:0001f8b4       ??_C@_07DBFEHHMD@emitvtx?$AA@ 100208b4     useasm:usetab.obj
 0001:0001f8bc       ??_C@_06GCOMBHEL@emitst?$AA@ 100208bc     useasm:usetab.obj
 0001:0001f8c4       ??_C@_07MBBIDM@emitpix?$AA@ 100208c4     useasm:usetab.obj
 0001:0001f8cc       ??_C@_08MCBPOJOO@emitpix2?$AA@ 100208cc     useasm:usetab.obj
 0001:0001f8d8       ??_C@_08OJDCLKCN@emitpix1?$AA@ 100208d8     useasm:usetab.obj
 0001:0001f8e4       ??_C@_04LDGNGHLO@limm?$AA@ 100208e4     useasm:usetab.obj
 0001:0001f8ec       ??_C@_03FECKBHBL@wdf?$AA@  100208ec     useasm:usetab.obj
 0001:0001f8f0       ??_C@_03OEOMDHLH@idf?$AA@  100208f0     useasm:usetab.obj
 0001:0001f8f4       ??_C@_0L@JODEDCHK@bexception?$AA@ 100208f4     useasm:usetab.obj
 0001:0001f900       ??_C@_04PMKEFCPM@lapc?$AA@ 10020900     useasm:usetab.obj
 0001:0001f908       ??_C@_02FGOECCNH@br?$AA@   10020908     useasm:usetab.obj
 0001:0001f90c       ??_C@_02DHALGDEF@ba?$AA@   1002090c     useasm:usetab.obj
 0001:0001f910       ??_C@_04GAAFJDCP@eldq?$AA@ 10020910     useasm:usetab.obj
 0001:0001f918       ??_C@_04FHLAHFDL@eldd?$AA@ 10020918     useasm:usetab.obj
 0001:0001f920       ??_C@_04GCOCNAN@sttq?$AA@  10020920     useasm:usetab.obj
 0001:0001f928       ??_C@_04DBJLMLBJ@sttd?$AA@ 10020928     useasm:usetab.obj
 0001:0001f930       ??_C@_04FAHEIKIL@sttw?$AA@ 10020930     useasm:usetab.obj
 0001:0001f938       ??_C@_04GHMBGMJP@sttb?$AA@ 10020938     useasm:usetab.obj
 0001:0001f940       ??_C@_04LEIHHKMB@ldtq?$AA@ 10020940     useasm:usetab.obj
 0001:0001f948       ??_C@_04IDDCJMNF@ldtd?$AA@ 10020948     useasm:usetab.obj
 0001:0001f950       ??_C@_04OCNNNNEH@ldtw?$AA@ 10020950     useasm:usetab.obj
 0001:0001f958       ??_C@_04NFGIDLFD@ldtb?$AA@ 10020958     useasm:usetab.obj
 0001:0001f960       ??_C@_04BEBLNPMF@stlq?$AA@ 10020960     useasm:usetab.obj
 0001:0001f968       ??_C@_04CDKODJNB@stld?$AA@ 10020968     useasm:usetab.obj
 0001:0001f970       ??_C@_04ECEBHIED@stlw?$AA@ 10020970     useasm:usetab.obj
 0001:0001f978       ??_C@_04HFPEJOFH@stlb?$AA@ 10020978     useasm:usetab.obj
 0001:0001f980       ??_C@_04KGLCIIAJ@ldlq?$AA@ 10020980     useasm:usetab.obj
 0001:0001f988       ??_C@_04JBAHGOBN@ldld?$AA@ 10020988     useasm:usetab.obj
 0001:0001f990       ??_C@_04PAOICPIP@ldlw?$AA@ 10020990     useasm:usetab.obj
 0001:0001f998       ??_C@_04MHFNMJJL@ldlb?$AA@ 10020998     useasm:usetab.obj
 0001:0001f9a0       ??_C@_04BMMDEMJG@staq?$AA@ 100209a0     useasm:usetab.obj
 0001:0001f9a8       ??_C@_04CLHGKKIC@stad?$AA@ 100209a8     useasm:usetab.obj
 0001:0001f9b0       ??_C@_04EKJJOLBA@staw?$AA@ 100209b0     useasm:usetab.obj
 0001:0001f9b8       ??_C@_04HNCMANAE@stab?$AA@ 100209b8     useasm:usetab.obj
 0001:0001f9c0       ??_C@_04KOGKBLFK@ldaq?$AA@ 100209c0     useasm:usetab.obj
 0001:0001f9c8       ??_C@_04JJNPPNEO@ldad?$AA@ 100209c8     useasm:usetab.obj
 0001:0001f9d0       ??_C@_04PIDALMNM@ldaw?$AA@ 100209d0     useasm:usetab.obj
 0001:0001f9d8       ??_C@_04MPIFFKMI@ldab?$AA@ 100209d8     useasm:usetab.obj
 0001:0001f9e0       ??_C@_09KIDJGAAM@smp3dgrad?$AA@ 100209e0     useasm:usetab.obj
 0001:0001f9ec       ??_C@_09OEOGLLI@smp2dgrad?$AA@ 100209ec     useasm:usetab.obj
 0001:0001f9f8       ??_C@_09DPKGHBCF@smp1dgrad?$AA@ 100209f8     useasm:usetab.obj
 0001:0001fa04       ??_C@_0N@IMLLGHGO@smp3dreplace?$AA@ 10020a04     useasm:usetab.obj
 0001:0001fa14       ??_C@_0N@GDHJAMFA@smp2dreplace?$AA@ 10020a14     useasm:usetab.obj
 0001:0001fa24       ??_C@_0N@IIEOLHFD@smp1dreplace?$AA@ 10020a24     useasm:usetab.obj
 0001:0001fa34       ??_C@_09OCECLLHE@smp3dbias?$AA@ 10020a34     useasm:usetab.obj
 0001:0001fa40       ??_C@_09EEDFLAMA@smp2dbias?$AA@ 10020a40     useasm:usetab.obj
 0001:0001fa4c       ??_C@_09HFNNKKFN@smp1dbias?$AA@ 10020a4c     useasm:usetab.obj
 0001:0001fa58       ??_C@_05OOKKMHDJ@smp3d?$AA@ 10020a58     useasm:usetab.obj
 0001:0001fa60       ??_C@_05OPGIKNAO@smp2d?$AA@ 10020a60     useasm:usetab.obj
 0001:0001fa68       ??_C@_05ONCOBDFH@smp1d?$AA@ 10020a68     useasm:usetab.obj
 0001:0001fa70       ??_C@_06GGGOMLOL@ssum16?$AA@ 10020a70     useasm:usetab.obj
 0001:0001fa78       ??_C@_05COGELEAH@firhh?$AA@ 10020a78     useasm:usetab.obj
 0001:0001fa80       ??_C@_04JDNAGPBH@firh?$AA@ 10020a80     useasm:usetab.obj
 0001:0001fa88       ??_C@_05FCKLBLAM@bilin?$AA@ 10020a88     useasm:usetab.obj
 0001:0001fa90       ??_C@_05DINMDKHN@firvh?$AA@ 10020a90     useasm:usetab.obj
 0001:0001fa98       ??_C@_04EHJBFAMI@firv?$AA@ 10020a98     useasm:usetab.obj
 0001:0001faa0       ??_C@_07DLAPIEBJ@adifsum?$AA@ 10020aa0     useasm:usetab.obj
 0001:0001faa8       ??_C@_04FNGKAKMF@adif?$AA@ 10020aa8     useasm:usetab.obj
 0001:0001fab0       ??_C@_04CHNIFDFF@idiv?$AA@ 10020ab0     useasm:usetab.obj
 0001:0001fab8       ??_C@_05EIKDCMOM@ima32?$AA@ 10020ab8     useasm:usetab.obj
 0001:0001fac0       ??_C@_04DFCMAMPF@imae?$AA@ 10020ac0     useasm:usetab.obj
 0001:0001fac8       ??_C@_05CPELDNIG@ima16?$AA@ 10020ac8     useasm:usetab.obj
 0001:0001fad0       ??_C@_04DKDJCPOM@ima8?$AA@ 10020ad0     useasm:usetab.obj
 0001:0001fad8       ??_C@_0L@DAOCLPMG@u16dot4off?$AA@ 10020ad8     useasm:usetab.obj
 0001:0001fae4       ??_C@_0L@ICMCGDNG@u16dot3off?$AA@ 10020ae4     useasm:usetab.obj
 0001:0001faf0       ??_C@_09GIAJOEKF@u8dot4off?$AA@ 10020af0     useasm:usetab.obj
 0001:0001fafc       ??_C@_09NKCJDILF@u8dot3off?$AA@ 10020afc     useasm:usetab.obj
 0001:0001fb08       ??_C@_07EFHPPAJH@u16dot4?$AA@ 10020b08     useasm:usetab.obj
 0001:0001fb10       ??_C@_07KDOGGFA@u16dot3?$AA@ 10020b10     useasm:usetab.obj
 0001:0001fb18       ??_C@_06NDMPFPGO@u8dot4?$AA@ 10020b18     useasm:usetab.obj
 0001:0001fb20       ??_C@_06JMIOMJKJ@u8dot3?$AA@ 10020b20     useasm:usetab.obj
 0001:0001fb28       ??_C@_04EEHAHIMI@sop3?$AA@ 10020b28     useasm:usetab.obj
 0001:0001fb30       ??_C@_06GEKMOMGC@sop2wm?$AA@ 10020b30     useasm:usetab.obj
 0001:0001fb38       ??_C@_04FNGLEJIJ@sop2?$AA@ 10020b38     useasm:usetab.obj
 0001:0001fb40       ??_C@_03HBHPADEG@rlp?$AA@  10020b40     useasm:usetab.obj
 0001:0001fb44       ??_C@_03JFEOOAEC@rol?$AA@  10020b44     useasm:usetab.obj
 0001:0001fb48       ??_C@_03BGJPHNPI@asr?$AA@  10020b48     useasm:usetab.obj
 0001:0001fb4c       ??_C@_03PMPMKOHN@shr?$AA@  10020b4c     useasm:usetab.obj
 0001:0001fb50       ??_C@_03CILNJBKC@shl?$AA@  10020b50     useasm:usetab.obj
 0001:0001fb54       ??_C@_0M@CDGCCNBB@unpckc10c10?$AA@ 10020b54     useasm:usetab.obj
 0001:0001fb60       ??_C@_09KNIBBCKD@unpcku8u8?$AA@ 10020b60     useasm:usetab.obj
 0001:0001fb6c       ??_C@_0M@MLPMEEHP@unpcks16c10?$AA@ 10020b6c     useasm:usetab.obj
 0001:0001fb78       ??_C@_0L@GDPGIBDB@unpcks16o8?$AA@ 10020b78     useasm:usetab.obj
 0001:0001fb84       ??_C@_0L@HGMKNLCF@unpcks16s8?$AA@ 10020b84     useasm:usetab.obj
 0001:0001fb90       ??_C@_0L@HCEHKHJH@unpcks16u8?$AA@ 10020b90     useasm:usetab.obj
 0001:0001fb9c       ??_C@_0M@MNLPLEGG@unpcks16s16?$AA@ 10020b9c     useasm:usetab.obj
 0001:0001fba8       ??_C@_0M@OINEOLLK@unpcks16u16?$AA@ 10020ba8     useasm:usetab.obj
 0001:0001fbb4       ??_C@_0M@KKHIBDML@unpcks16f16?$AA@ 10020bb4     useasm:usetab.obj
 0001:0001fbc0       ??_C@_0M@KICMHBEF@unpcku16c10?$AA@ 10020bc0     useasm:usetab.obj
 0001:0001fbcc       ??_C@_0L@LFKPGCCM@unpcku16o8?$AA@ 10020bcc     useasm:usetab.obj
 0001:0001fbd8       ??_C@_0L@KAJDDIDI@unpcku16s8?$AA@ 10020bd8     useasm:usetab.obj
 0001:0001fbe4       ??_C@_0L@KEBOEEIK@unpcku16u8?$AA@ 10020be4     useasm:usetab.obj
 0001:0001fbf0       ??_C@_0M@KOGPIBFM@unpcku16s16?$AA@ 10020bf0     useasm:usetab.obj
 0001:0001fbfc       ??_C@_0M@ILAENOIA@unpcku16u16?$AA@ 10020bfc     useasm:usetab.obj
 0001:0001fc08       ??_C@_0M@MJKICGPB@unpcku16f16?$AA@ 10020c08     useasm:usetab.obj
 0001:0001fc14       ??_C@_0M@POBKPHBG@unpckf16c10?$AA@ 10020c14     useasm:usetab.obj
 0001:0001fc20       ??_C@_0L@DAONBCBJ@unpckf16o8?$AA@ 10020c20     useasm:usetab.obj
 0001:0001fc2c       ??_C@_0L@CFNBEIAN@unpckf16s8?$AA@ 10020c2c     useasm:usetab.obj
 0001:0001fc38       ??_C@_0L@CBFMDELP@unpckf16u8?$AA@ 10020c38     useasm:usetab.obj
 0001:0001fc44       ??_C@_0M@PIFJAHAP@unpckf16s16?$AA@ 10020c44     useasm:usetab.obj
 0001:0001fc50       ??_C@_0M@NNDCFIND@unpckf16u16?$AA@ 10020c50     useasm:usetab.obj
 0001:0001fc5c       ??_C@_0M@JPJOKAKC@unpckf16f16?$AA@ 10020c5c     useasm:usetab.obj
 0001:0001fc68       ??_C@_0M@EGFCPANN@unpckf32c10?$AA@ 10020c68     useasm:usetab.obj
 0001:0001fc74       ??_C@_0L@MFEPNGCO@unpckf32o8?$AA@ 10020c74     useasm:usetab.obj
 0001:0001fc80       ??_C@_0L@NAHDIMDK@unpckf32s8?$AA@ 10020c80     useasm:usetab.obj
 0001:0001fc8c       ??_C@_0L@NEPOPAII@unpckf32u8?$AA@ 10020c8c     useasm:usetab.obj
 0001:0001fc98       ??_C@_0M@EABBAAME@unpckf32s16?$AA@ 10020c98     useasm:usetab.obj
 0001:0001fca4       ??_C@_0M@GFHKFPBI@unpckf32u16?$AA@ 10020ca4     useasm:usetab.obj
 0001:0001fcb0       ??_C@_0M@CHNGKHGJ@unpckf32f16?$AA@ 10020cb0     useasm:usetab.obj
 0001:0001fcbc       ??_C@_0M@EADOLGAD@unpckf32f32?$AA@ 10020cbc     useasm:usetab.obj
 0001:0001fcc8       ??_C@_09DDFDIML@pckc10s16?$AA@ 10020cc8     useasm:usetab.obj
 0001:0001fcd4       ??_C@_09CGFOGHBH@pckc10u16?$AA@ 10020cd4     useasm:usetab.obj
 0001:0001fce0       ??_C@_09GEPCJPGG@pckc10f16?$AA@ 10020ce0     useasm:usetab.obj
 0001:0001fcec       ??_C@_09DBKIOAM@pckc10f32?$AA@ 10020cec     useasm:usetab.obj
 0001:0001fcf8       ??_C@_08IDEMMIKL@pcko8s16?$AA@ 10020cf8     useasm:usetab.obj
 0001:0001fd04       ??_C@_08KGCHJHHH@pcko8u16?$AA@ 10020d04     useasm:usetab.obj
 0001:0001fd10       ??_C@_08OEILGPAG@pcko8f16?$AA@ 10020d10     useasm:usetab.obj
 0001:0001fd1c       ??_C@_08IDGDHOGM@pcko8f32?$AA@ 10020d1c     useasm:usetab.obj
 0001:0001fd28       ??_C@_08PHFIAKEL@pcks8s16?$AA@ 10020d28     useasm:usetab.obj
 0001:0001fd34       ??_C@_08NCDDFFJH@pcks8u16?$AA@ 10020d34     useasm:usetab.obj
 0001:0001fd40       ??_C@_08JAJPKNOG@pcks8f16?$AA@ 10020d40     useasm:usetab.obj
 0001:0001fd4c       ??_C@_08PHHHLMIM@pcks8f32?$AA@ 10020d4c     useasm:usetab.obj
 0001:0001fd58       ??_C@_08CBABOJFG@pcku8s16?$AA@ 10020d58     useasm:usetab.obj
 0001:0001fd64       ??_C@_08EGKLGIK@pcku8u16?$AA@ 10020d64     useasm:usetab.obj
 0001:0001fd70       ??_C@_08EGMGEOPL@pcku8f16?$AA@ 10020d70     useasm:usetab.obj
 0001:0001fd7c       ??_C@_08CBCOFPJB@pcku8f32?$AA@ 10020d7c     useasm:usetab.obj
 0001:0001fd88       ??_C@_09OLKLFBKF@pcks16s16?$AA@ 10020d88     useasm:usetab.obj
 0001:0001fd94       ??_C@_09MOMAAOHJ@pcks16u16?$AA@ 10020d94     useasm:usetab.obj
 0001:0001fda0       ??_C@_09IMGMPGAI@pcks16f16?$AA@ 10020da0     useasm:usetab.obj
 0001:0001fdac       ??_C@_09OLIEOHGC@pcks16f32?$AA@ 10020dac     useasm:usetab.obj
 0001:0001fdb8       ??_C@_09IIHLGEJP@pcku16s16?$AA@ 10020db8     useasm:usetab.obj
 0001:0001fdc4       ??_C@_09KNBADLED@pcku16u16?$AA@ 10020dc4     useasm:usetab.obj
 0001:0001fdd0       ??_C@_09OPLMMDDC@pcku16f16?$AA@ 10020dd0     useasm:usetab.obj
 0001:0001fddc       ??_C@_09IIFENCFI@pcku16f32?$AA@ 10020ddc     useasm:usetab.obj
 0001:0001fde8       ??_C@_09NOENOCMM@pckf16s16?$AA@ 10020de8     useasm:usetab.obj
 0001:0001fdf4       ??_C@_09PLCGLNBA@pckf16u16?$AA@ 10020df4     useasm:usetab.obj
 0001:0001fe00       ??_C@_09LJIKEFGB@pckf16f16?$AA@ 10020e00     useasm:usetab.obj
 0001:0001fe0c       ??_C@_09NOGCFEAL@pckf16f32?$AA@ 10020e0c     useasm:usetab.obj
 0001:0001fe18       ??_C@_03HMHMOHCI@efo?$AA@  10020e18     useasm:usetab.obj
 0001:0001fe1c       ??_C@_07BJAGEKCG@fmaxmin?$AA@ 10020e1c     useasm:usetab.obj
 0001:0001fe24       ??_C@_07IHOEOAG@fminmax?$AA@ 10020e24     useasm:usetab.obj
 0001:0001fe2c       ??_C@_06ICDMGFKB@fmad16?$AA@ 10020e2c     useasm:usetab.obj
 0001:0001fe34       ??_C@_04DDKBPOON@fdsy?$AA@ 10020e34     useasm:usetab.obj
 0001:0001fe3c       ??_C@_04CKLKMPKM@fdsx?$AA@ 10020e3c     useasm:usetab.obj
 0001:0001fe44       ??_C@_04EIBAPHDI@fmax?$AA@ 10020e44     useasm:usetab.obj
 0001:0001fe4c       ??_C@_04FKJLBDFH@fmin?$AA@ 10020e4c     useasm:usetab.obj
 0001:0001fe54       ??_C@_03KABHJCDG@fdp?$AA@  10020e54     useasm:usetab.obj
 0001:0001fe58       ??_C@_04EBKFHEMK@fcos?$AA@ 10020e58     useasm:usetab.obj
 0001:0001fe60       ??_C@_04OKFNDDPL@fsin?$AA@ 10020e60     useasm:usetab.obj
 0001:0001fe68       ??_C@_05OBEHOPDB@fsqrt?$AA@ 10020e68     useasm:usetab.obj
 0001:0001fe70       ??_C@_04FGIKMNCA@fexp?$AA@ 10020e70     useasm:usetab.obj
 0001:0001fe78       ??_C@_04DHGILDMJ@flog?$AA@ 10020e78     useasm:usetab.obj
 0001:0001fe80       ??_C@_04IOAKHMKG@frsq?$AA@ 10020e80     useasm:usetab.obj
 0001:0001fe88       ??_C@_04ILDHOOJH@frcp?$AA@ 10020e88     useasm:usetab.obj
 0001:0001fe90       ??_C@_04CIEHKGIK@ffrc?$AA@ 10020e90     useasm:usetab.obj
 0001:0001fe98       ??_C@_04MMLCCJDO@fmsa?$AA@ 10020e98     useasm:usetab.obj
 0001:0001fea0       ??_C@_04DDLIGMHP@fadm?$AA@ 10020ea0     useasm:usetab.obj
 0001:0001fea8       ??_C@_04KOGHKKGF@fmad?$AA@ 10020ea8     useasm:usetab.obj
 0001:0001feb0       ??_C@_0BA@LLCLJIP@float?5immediate?$AA@ 10020eb0     useasm:usetab.obj
 0001:0001fec0       ??_C@_0BA@GKADHLJN@named?5temporary?$AA@ 10020ec0     useasm:usetab.obj
 0001:0001fed0       ??_C@_0BC@EOODDAGN@filter?5coefficent?$AA@ 10020ed0     useasm:usetab.obj
 0001:0001fee4       ??_C@_0BE@FBIDIDIB@8?9bit?5source?5select?$AA@ 10020ee4     useasm:usetab.obj
 0001:0001fef8       ??_C@_0N@KBLPGIGB@address?5mode?$AA@ 10020ef8     useasm:usetab.obj
 0001:0001ff08       ??_C@_09DBIHEPNC@clipplane?$AA@ 10020f08     useasm:usetab.obj
 0001:0001ff14       ??_C@_09OKBKKDGM@predicate?$AA@ 10020f14     useasm:usetab.obj
 0001:0001ff20       ??_C@_04OHHBHOGB@link?$AA@ 10020f20     useasm:usetab.obj
 0001:0001ff28       ??_C@_09MBGEJPJA@immediate?$AA@ 10020f28     useasm:usetab.obj
 0001:0001ff34       ??_C@_08LEPPLCNF@internal?$AA@ 10020f34     useasm:usetab.obj
 0001:0001ff40       ??_C@_08KFDOCAEB@constant?$AA@ 10020f40     useasm:usetab.obj
 0001:0001ff4c       ??_C@_06FJKEMHGD@global?$AA@ 10020f4c     useasm:usetab.obj
 0001:0001ff54       ??_C@_0BE@EDPEAKOB@secondary?5attribute?$AA@ 10020f54     useasm:usetab.obj
 0001:0001ff68       ??_C@_0BC@FEBGALFK@primary?5attribute?$AA@ 10020f68     useasm:usetab.obj
 0001:0001ff7c       ??_C@_06DKIGHACF@output?$AA@ 10020f7c     useasm:usetab.obj
 0001:0001ff84       ??_C@_09CAHPDAG@temporary?$AA@ 10020f84     useasm:usetab.obj
 0001:0001ff90       pszTypeToString            10020f90     useasm:usetab.obj
 0001:0001ffe8       g_pfHardwareConstants      10020fe8     useasm:usetab.obj
 0001:000200c8       g_asUseInstDesc            100210c8     useasm:usetab.obj
 0001:00021220       g_auNonVecSpecialRegistersInvalidForNonBitwise 10022220     useasm:specialregs.obj
 0001:0002122c       g_uNonVecSpecialRegistersInvalidForNonBitwiseCount 1002222c     useasm:specialregs.obj
 0001:00021258       InitAccumUSECodeBlocks     10022258 f   accum.obj
 0001:000217e0       FreeAccumUSECodeBlocks     100227e0 f   accum.obj
 0001:00021824       SetupBGObject              10022824 f   accum.obj
 0001:00021f80       SendAccumulateObject       10022f80 f   accum.obj
 0001:00023584       SetUSEExecutionAddress     10024584 f i accum.obj
 0001:00023758       SGXBS_CreateSharedShaderState 10024758 f   binshader.obj
 0001:000258f8       SGXBS_CreateProgramState   100268f8 f   binshader.obj
 0001:000260b0       CreateBufObjState          100270b0 f   bufobj.obj
 0001:0002611c       FreeBufObjState            1002711c f   bufobj.obj
 0001:000261e8       ReclaimBufferObjectMemKRM  100271e8 f   bufobj.obj
 0001:00026224       DestroyBufferObjectGhostKRM 10027224 f   bufobj.obj
 0001:00026260       SetupBufObjNameArray       10027260 f   bufobj.obj
 0001:000265c4       glBindBuffer               100275c4 f   bufobj.obj
 0001:000270dc       glDeleteBuffers            100280dc f   bufobj.obj
 0001:00027778       glGenBuffers               10028778 f   bufobj.obj
 0001:00027bb4       glBufferData               10028bb4 f   bufobj.obj
 0001:00028ac0       glBufferSubData            10029ac0 f   bufobj.obj
 0001:00029714       glMapBufferOES             1002a714 f   bufobj.obj
 0001:0002a074       glUnmapBufferOES           1002b074 f   bufobj.obj
 0001:0002a510       InitClearUSECodeBlocks     1002b510 f   clear.obj
 0001:0002a968       FreeClearUSECodeBlocks     1002b968 f   clear.obj
 0001:0002a9a0       SendClearPrims             1002b9a0 f   clear.obj
 0001:0002c2c4       glClear                    1002d2c4 f   clear.obj
 0001:0002cdec       glClearColor               1002ddec f   clear.obj
 0001:0002d10c       glClearDepthf              1002e10c f   clear.obj
 0001:0002d3a8       glClearStencil             1002e3a8 f   clear.obj
 0001:0002d658       BuildSOP2WM                1002e658 f i clear.obj
 0001:0002ee9c       AttachAllUsedBOsAndVAOToCurrentKick 1002fe9c f   drawvarray.obj
 0001:0002f074       glDrawArrays               10030074 f   drawvarray.obj
 0001:00035b5c       glDrawElements             10036b5c f   drawvarray.obj
 0001:0003a4b8       glMultiDrawArraysEXT       1003b4b8 f   drawvarray.obj
 0001:000401bc       glMultiDrawElementsEXT     100411bc f   drawvarray.obj
 0001:000452fc       GetColorAttachmentMemFormat 100462fc f   fbo.obj
 0001:000454c0       FlushAttachableIfNeeded    100464c0 f   fbo.obj
 0001:000457ec       DestroyFBOAttachableRenderSurface 100467ec f   fbo.obj
 0001:00045a00       SetupRenderBufferNameArray 10046a00 f   fbo.obj
 0001:00045b6c       SetupFrameBufferObjectNameArray 10046b6c f   fbo.obj
 0001:00045cf8       CreateFrameBufferState     10046cf8 f   fbo.obj
 0001:00045dd0       FreeFrameBufferState       10046dd0 f   fbo.obj
 0001:00045ecc       RemoveFrameBufferAttachment 10046ecc f   fbo.obj
 0001:0004613c       ChangeDrawableParams       1004713c f   fbo.obj
 0001:000466dc       GetFrameBufferCompleteness 100476dc f   fbo.obj
 0001:00048b90       FBOAttachableHasBeenModified 10049b90 f   fbo.obj
 0001:00048d94       glIsRenderbuffer           10049d94 f   fbo.obj
 0001:00049360       glBindRenderbuffer         1004a360 f   fbo.obj
 0001:00049c24       glDeleteRenderbuffers      1004ac24 f   fbo.obj
 0001:0004a3fc       glGenRenderbuffers         1004b3fc f   fbo.obj
 0001:0004a6e4       glRenderbufferStorage      1004b6e4 f   fbo.obj
 0001:0004b660       glRenderbufferStorageMultisampleIMG 1004c660 f   fbo.obj
 0001:0004b6dc       SetupRenderbufferFromEGLImage 1004c6dc f   fbo.obj
 0001:0004b9e4       glGetRenderbufferParameteriv 1004c9e4 f   fbo.obj
 0001:0004c434       glIsFramebuffer            1004d434 f   fbo.obj
 0001:0004c9e4       glBindFramebuffer          1004d9e4 f   fbo.obj
 0001:0004d67c       glDeleteFramebuffers       1004e67c f   fbo.obj
 0001:0004de48       glGenFramebuffers          1004ee48 f   fbo.obj
 0001:0004e564       glCheckFramebufferStatus   1004f564 f   fbo.obj
 0001:0004e968       glFramebufferTexture2D     1004f968 f   fbo.obj
 0001:0004f410       glFramebufferTexture2DMultisampleIMG 10050410 f   fbo.obj
 0001:0004f4b4       glFramebufferRenderbuffer  100504b4 f   fbo.obj
 0001:0004fc60       glGetFramebufferAttachmentParameteriv 10050c60 f   fbo.obj
 0001:00050610       glGenerateMipmap           10051610 f   fbo.obj
 0001:00050b64       glDiscardFramebufferEXT    10051b64 f   fbo.obj
 0001:00051558       glGetAttachedShaders       10052558 f   get.obj
 0001:00051b7c       glGetBooleanv              10052b7c f   get.obj
 0001:00054138       glGetFloatv                10055138 f   get.obj
 0001:000543c4       glGetIntegerv              100553c4 f   get.obj
 0001:00054650       glGetBufferParameteriv     10055650 f   get.obj
 0001:00054cd4       glGetBufferPointervOES     10055cd4 f   get.obj
 0001:00055268       glGetError                 10056268 f   get.obj
 0001:000554fc       glGetShaderiv              100564fc f   get.obj
 0001:00055be0       glGetProgramiv             10056be0 f   get.obj
 0001:000568dc       glGetProgramInfoLog        100578dc f   get.obj
 0001:00056f1c       glGetShaderInfoLog         10057f1c f   get.obj
 0001:0005755c       glGetShaderSource          1005855c f   get.obj
 0001:00057a10       glGetString                10058a10 f   get.obj
 0001:00057db4       glGetTexParameteriv        10058db4 f   get.obj
 0001:0005846c       glGetTexParameterfv        1005946c f   get.obj
 0001:00058700       glGetUniformfv             10059700 f   get.obj
 0001:00058e20       glGetUniformiv             10059e20 f   get.obj
 0001:000595b0       glGetAttribLocation        1005a5b0 f   get.obj
 0001:00059f00       glGetVertexAttribfv        1005af00 f   get.obj
 0001:0005a79c       glGetVertexAttribiv        1005b79c f   get.obj
 0001:0005af8c       glGetVertexAttribPointerv  1005bf8c f   get.obj
 0001:0005b550       glIsEnabled                1005c550 f   get.obj
 0001:0005b7f4       glIsBuffer                 1005c7f4 f   get.obj
 0001:0005bdd8       glIsProgram                1005cdd8 f   get.obj
 0001:0005c538       glIsShader                 1005d538 f   get.obj
 0001:0005cc98       glIsTexture                1005dc98 f   get.obj
 0001:0005d264       glGetShaderPrecisionFormat 1005e264 f   get.obj
 0001:0005d7cc       AllocateBRN26922Mem        1005e7cc f   gles2errata.obj
 0001:0005d88c       FreeBRN26922Mem            1005e88c f   gles2errata.obj
 0001:0005d8e0       MakeTextureMipmapLevels    1005e8e0 f   makemips.obj
 0001:0006080c       GetFrameTime               1006180c f   metrics.obj
 0001:0006090c       InitMetrics                1006190c f   metrics.obj
 0001:00061068       OutputMetrics              10062068 f   metrics.obj
 0001:00064b04       Clampf                     10065b04 f   misc.obj
 0001:00064b70       Clampi                     10065b70 f   misc.obj
 0001:00064bd4       ColorConvertToHWFormat     10065bd4 f   misc.obj
 0001:00064e94       FloorLog2                  10065e94 f   misc.obj
 0001:00064ee8       GLES2ConvertFloatToF16     10065ee8 f   misc.obj
 0001:00065074       GLES2ConvertFloatToC10     10066074 f   misc.obj
 0001:0006525c       BuildExtensionString       1006625c f   misc.obj
 0001:000654dc       DestroyExtensionString     100664dc f   misc.obj
 0001:00065518       GetApplicationHints        10066518 f   misc.obj
 0001:00065ba8       SetError                   10066ba8 f   misc.obj
 0001:00065be4       glFinish                   10066be4 f   misc.obj
 0001:0006606c       glFlush                    1006706c f   misc.obj
 0001:00066348       glHint                     10067348 f   misc.obj
 0001:00066918       ConvertData                10067918 f   misc.obj
 0001:000674f0       CreateNamesArray           100684f0 f   names.obj
 0001:00067be0       NamesArrayGenNames         10068be0 f   names.obj
 0001:000680ec       NamesArrayMapFunction      100690ec f   names.obj
 0001:000683dc       DestroyNamesArray          100693dc f   names.obj
 0001:000686cc       InsertNamedItem            100696cc f   names.obj
 0001:00068bd4       NamedItemAddRef            10069bd4 f   names.obj
 0001:00069018       NamedItemDelRef            1006a018 f   names.obj
 0001:00069490       NamedItemDelRefByName      1006a490 f   names.obj
 0001:0006984c       GetStridedSurfaceData      1006a84c f   pixelop.obj
 0001:00069e58       glPixelStorei              1006ae58 f   pixelop.obj
 0001:0006a4b0       SetupReadPixelsSpanInfo    1006b4b0 f   pixelop.obj
 0001:0006ad2c       glReadPixels               1006bd2c f   pixelop.obj
 0001:0006c07c       InitProfileData            1006d07c f   profile.obj
 0001:0006c108       AddToStateMetric           1006d108 f   profile.obj
 0001:0006c388       ProfileOutputTotals        1006d388 f   profile.obj
 0001:0006d598       InitScissorUSECodeBlocks   1006e598 f   scissor.obj
 0001:0006d994       FreeScissorUSECodeBlocks   1006e994 f   scissor.obj
 0001:0006d9b8       SendDrawMaskRect           1006e9b8 f   scissor.obj
 0001:0006f110       SendDrawMaskForPrimitive   10070110 f   scissor.obj
 0001:0006f660       SendDrawMaskForClear       10070660 f   scissor.obj
 0001:0006f898       glScissor                  10070898 f   scissor.obj
 0001:0007002c       WaitForTA                  1007102c f   sgxif.obj
 0001:00070324       PrepareToDraw              10071324 f   sgxif.obj
 0001:00071884       KickUnFlushed_ScheduleTA   10072884 f   sgxif.obj
 0001:000719e8       KickLimit_ScheduleTA       100729e8 f   sgxif.obj
 0001:00071a54       ScheduleTA                 10072a54 f   sgxif.obj
 0001:00073844       USESecondaryUploadTaskAddRef 10074844 f   shader.obj
 0001:000738ac       USESecondaryUploadTaskDelRef 100748ac f   shader.obj
 0001:00073964       ShaderScratchMemAddRef     10074964 f   shader.obj
 0001:000739cc       ShaderIndexableTempsMemAddRef 100749cc f   shader.obj
 0001:00073a34       GetNamedProgram            10074a34 f   shader.obj
 0001:00073b1c       GetNamedShader             10074b1c f   shader.obj
 0001:00073c04       glAttachShader             10074c04 f   shader.obj
 0001:00074740       glDetachShader             10075740 f   shader.obj
 0001:00074b4c       glBindAttribLocation       10075b4c f   shader.obj
 0001:00075104       glCreateProgram            10076104 f   shader.obj
 0001:000757e4       glDeleteProgram            100767e4 f   shader.obj
 0001:00075d94       glCreateShader             10076d94 f   shader.obj
 0001:00076604       glDeleteShader             10077604 f   shader.obj
 0001:00076918       glGetActiveAttrib          10077918 f   shader.obj
 0001:00077100       InitializeGLSLCompiler     10078100 f   shader.obj
 0001:000778d4       DestroyGLSLCompiler        100788d4 f   shader.obj
 0001:000779b8       DestroyHashedPDSVariant    100789b8 f   shader.obj
 0001:00077a64       ReclaimUSEShaderVariantMemKRM 10078a64 f   shader.obj
 0001:00077a9c       DestroyUSECodeVariantGhostKRM 10078a9c f   shader.obj
 0001:00077ad0       DestroyVertexVariants      10078ad0 f   shader.obj
 0001:00077c2c       glLinkProgram              10078c2c f   shader.obj
 0001:0007c1e0       glUseProgram               1007d1e0 f   shader.obj
 0001:0007c7f4       glValidateProgram          1007d7f4 f   shader.obj
 0001:0007ce14       glCompileShader            1007de14 f   shader.obj
 0001:0007e084       glReleaseShaderCompiler    1007f084 f   shader.obj
 0001:0007e2f4       glShaderSource             1007f2f4 f   shader.obj
 0001:0007e9d0       glShaderBinary             1007f9d0 f   shader.obj
 0001:0007ee24       glGetProgramBinaryOES      1007fe24 f   shader.obj
 0001:0007f558       glProgramBinaryOES         10080558 f   shader.obj
 0001:0007fce0       SetupProgramNameArray      10080ce0 f   shader.obj
 0001:00080268       CreateProgramState         10081268 f   shader.obj
 0001:00080678       FreeProgramState           10081678 f   shader.obj
 0001:00080744       DestroyUSEShaderVariant    10081744 f   shader.obj
 0001:0008093c       DestroyUSEShaderVariantGhost 1008193c f   shader.obj
 0001:000809f4       BuildNOP                   100819f4 f i shader.obj
 0001:00080a54       SpanPack16                 10081a54 f   spanpack.obj
 0001:00080b30       SpanPack32                 10081b30 f   spanpack.obj
 0001:00080c0c       SpanPackARGB4444toRGBA4444 10081c0c f   spanpack.obj
 0001:00080cbc       SpanPackARGB1555toRGBA5551 10081cbc f   spanpack.obj
 0001:00080d6c       SpanPackARGB8888toABGR8888 10081d6c f   spanpack.obj
 0001:00080e48       SpanPackARGB8888toXBGR8888 10081e48 f   spanpack.obj
 0001:00080f1c       SpanPackARGB8888toRGB565   10081f1c f   spanpack.obj
 0001:00081028       SpanPackARGB8888toARGB4444 10082028 f   spanpack.obj
 0001:00081164       SpanPackARGB8888toARGB1555 10082164 f   spanpack.obj
 0001:000812ac       SpanPackARGB8888toLuminanceAlpha 100822ac f   spanpack.obj
 0001:0008135c       SpanPackARGB8888toLuminance 1008235c f   spanpack.obj
 0001:00081400       SpanPackAXXX8888toAlpha    10082400 f   spanpack.obj
 0001:000814a4       SpanPackABGR8888toARGB8888 100824a4 f   spanpack.obj
 0001:00081580       SpanPackABGR8888toXBGR8888 10082580 f   spanpack.obj
 0001:00081654       SpanPackABGR8888toRGB565   10082654 f   spanpack.obj
 0001:00081768       SpanPackABGR8888toARGB4444 10082768 f   spanpack.obj
 0001:000818ac       SpanPackABGR8888toARGB1555 100828ac f   spanpack.obj
 0001:000819fc       SpanPackABGR8888toLuminanceAlpha 100829fc f   spanpack.obj
 0001:00081ab8       SpanPackABGR8888toLuminance 10082ab8 f   spanpack.obj
 0001:00081b5c       SpanPackARGB4444toABGR8888 10082b5c f   spanpack.obj
 0001:00081cc4       SpanPackARGB4444toXBGR8888 10082cc4 f   spanpack.obj
 0001:00081e04       SpanPackARGB4444toARGB8888 10082e04 f   spanpack.obj
 0001:00081f6c       SpanPackARGB4444toRGB565   10082f6c f   spanpack.obj
 0001:000820c4       SpanPackARGB4444toARGB1555 100830c4 f   spanpack.obj
 0001:00082250       SpanPackARGB4444toLuminanceAlpha 10083250 f   spanpack.obj
 0001:00082354       SpanPackARGB4444toLuminance 10083354 f   spanpack.obj
 0001:00082414       SpanPackARGB4444toAlpha    10083414 f   spanpack.obj
 0001:000824d4       SpanPackARGB1555toABGR8888 100834d4 f   spanpack.obj
 0001:00082678       SpanPackARGB1555toXBGR8888 10083678 f   spanpack.obj
 0001:000827f8       SpanPackARGB1555toARGB8888 100837f8 f   spanpack.obj
 0001:0008299c       SpanPackARGB1555toRGB565   1008399c f   spanpack.obj
 0001:00082a84       SpanPackARGB1555toARGB4444 10083a84 f   spanpack.obj
 0001:00082ba8       SpanPackARGB1555toLuminanceAlpha 10083ba8 f   spanpack.obj
 0001:00082ca4       SpanPackARGB1555toLuminance 10083ca4 f   spanpack.obj
 0001:00082d68       SpanPackARGB1555toAlpha    10083d68 f   spanpack.obj
 0001:00082e18       SpanPackRGB565toXBGR8888   10083e18 f   spanpack.obj
 0001:00082f88       SpanPackRGB565toLuminance  10083f88 f   spanpack.obj
 0001:00083050       SpanPackXBGR8888toABGR8888 10084050 f   spanpack.obj
 0001:00083114       glBlendColor               10084114 f   state.obj
 0001:00083480       glBlendEquation            10084480 f   state.obj
 0001:00083908       glBlendEquationSeparate    10084908 f   state.obj
 0001:00083f54       glBlendFuncSeparate        10084f54 f   state.obj
 0001:000844fc       glBlendFunc                100854fc f   state.obj
 0001:00084790       glColorMask                10085790 f   state.obj
 0001:00084b04       glCullFace                 10085b04 f   state.obj
 0001:00084e0c       glDepthFunc                10085e0c f   state.obj
 0001:00085274       glDepthMask                10086274 f   state.obj
 0001:0008559c       ApplyDepthRange            1008659c f   state.obj
 0001:00085710       glDepthRangef              10086710 f   state.obj
 0001:00085984       glDisable                  10086984 f   state.obj
 0001:00086684       glEnable                   10087684 f   state.obj
 0001:00087384       glFrontFace                10088384 f   state.obj
 0001:00087678       glLineWidth                10088678 f   state.obj
 0001:00087afc       glPolygonOffset            10088afc f   state.obj
 0001:00087e08       glSampleCoverage           10088e08 f   state.obj
 0001:000880d4       glStencilFunc              100890d4 f   state.obj
 0001:000886c8       glStencilFuncSeparate      100896c8 f   state.obj
 0001:00088954       glStencilMask              10089954 f   state.obj
 0001:00088d78       glStencilMaskSeparate      10089d78 f   state.obj
 0001:00088ff8       glStencilOp                10089ff8 f   state.obj
 0001:000895fc       glStencilOpSeparate        1008a5fc f   state.obj
 0001:0008989c       ApplyViewport              1008a89c f   state.obj
 0001:00089a48       glViewport                 1008aa48 f   state.obj
 0001:0008a194       HashTableCreate            1008b194 f   statehash.obj
 0001:0008a2c0       HashTableDestroy           1008b2c0 f   statehash.obj
 0001:0008a3b4       HashFunc                   1008b3b4 f   statehash.obj
 0001:0008a494       HashTableSearch            1008b494 f   statehash.obj
 0001:0008a614       HashTableInsert            1008b614 f   statehash.obj
 0001:0008a880       HashTableDelete            1008b880 f   statehash.obj
 0001:0008aae8       CopyTextureFloatRGBA       1008bae8 f   tex.obj
 0001:0008ad30       CopyTextureFloatRGB        1008bd30 f   tex.obj
 0001:0008af08       CopyTextureFloatLA         1008bf08 f   tex.obj
 0001:0008b070       CopyTextureHalfFloatRGBA   1008c070 f   tex.obj
 0001:0008b234       CopyTextureHalfFloatRGB    1008c234 f   tex.obj
 0001:0008b3d0       CopyTextureBGRA8888toRGBA8888 1008c3d0 f   tex.obj
 0001:0008b4e8       CopyTextureBGRA8888to5551  1008c4e8 f   tex.obj
 0001:0008b690       CopyTextureBGRA8888to4444  1008c690 f   tex.obj
 0001:0008b838       CopyTexture32Bits          1008c838 f   tex.obj
 0001:0008b920       CopyTexture16Bits          1008c920 f   tex.obj
 0001:0008ba08       CopyTexture8Bits           1008ca08 f   tex.obj
 0001:0008bae0       CopyTexture5551            1008cae0 f   tex.obj
 0001:0008bbe4       CopyTexture4444            1008cbe4 f   tex.obj
 0001:0008bce8       CopyTexture888X            1008cce8 f   tex.obj
 0001:0008be34       CopyTexture888to565        1008ce34 f   tex.obj
 0001:0008bf90       CopyTexture565toRGBX8888   1008cf90 f   tex.obj
 0001:0008c150       CopyTexture5551to4444      1008d150 f   tex.obj
 0001:0008c2dc       CopyTexture5551toBGRA8888  1008d2dc f   tex.obj
 0001:0008c4cc       CopyTexture5551toRGBA8888  1008d4cc f   tex.obj
 0001:0008c6bc       CopyTexture4444to5551      1008d6bc f   tex.obj
 0001:0008c8b0       CopyTexture4444toRGBA8888  1008d8b0 f   tex.obj
 0001:0008cab0       CopyTextureRGBA8888to5551  1008dab0 f   tex.obj
 0001:0008cc60       CopyTextureRGBA8888to4444  1008dc60 f   tex.obj
 0001:0008ce10       glTexParameteri            1008de10 f   tex.obj
 0001:0008d64c       glTexParameterf            1008e64c f   tex.obj
 0001:0008d8d0       glTexParameteriv           1008e8d0 f   tex.obj
 0001:0008db6c       glTexParameterfv           1008eb6c f   tex.obj
 0001:0008de00       glActiveTexture            1008ee00 f   tex.obj
 0001:0008e0d0       BindTexture                1008f0d0 f   tex.obj
 0001:0008e424       glBindTexture              1008f424 f   tex.obj
 0001:0008ebd4       glDeleteTextures           1008fbd4 f   tex.obj
 0001:0008f57c       glGenTextures              1009057c f   tex.obj
 0001:0008fc98       glTexImage2D               10090c98 f   tex.obj
 0001:0009167c       glTexSubImage2D            1009267c f   tex.obj
 0001:000942fc       glCompressedTexImage2D     100952fc f   tex.obj
 0001:00095250       glCompressedTexSubImage2D  10096250 f   tex.obj
 0001:00095e04       glCopyTexImage2D           10096e04 f   tex.obj
 0001:00097c10       glCopyTexSubImage2D        10098c10 f   tex.obj
 0001:0009b328       PrepareHWTQTextureUpload   1009c328 f   texdata.obj
 0001:0009c228       HWTQTextureUpload          1009d228 f   texdata.obj
 0001:0009c38c       PrepareHWTQTextureNormalBlit 1009d38c f   texdata.obj
 0001:0009cf58       HWTQTextureNormalBlit      1009df58 f   texdata.obj
 0001:0009d15c       ReadBackTiledData          1009e15c f   texdata.obj
 0001:0009d414       GetMipMapOffset            1009e414 f   texdata.obj
 0001:0009d4d4       GetCompressedMipMapOffset  1009e4d4 f   texdata.obj
 0001:0009d640       GetNPOTMipMapOffset        1009e640 f   texdata.obj
 0001:0009d8cc       TranslateLevel             1009e8cc f   texdata.obj
 0001:0009e81c       ReadBackTextureData        1009f81c f   texdata.obj
 0001:0009f3cc       SetupTwiddleFns            100a03cc f   texdata.obj
 0001:0009f4dc       CopyTextureData            100a04dc f   texdata.obj
 0001:0009f99c       CreateTextureMemory        100a099c f   texmgmt.obj
 0001:000a0320       SetupTextureRenderTargetControlWords 100a1320 f   texmgmt.obj
 0001:000a0ae8       TexMgrGhostTexture         100a1ae8 f   texmgmt.obj
 0001:000a0dcc       TextureRemoveResident      100a1dcc f   texmgmt.obj
 0001:000a0df4       TextureMakeResident        100a1df4 f   texmgmt.obj
 0001:000a1894       UnloadInconsistentTexture  100a2894 f   texmgmt.obj
 0001:000a1ed8       IsTextureConsistent        100a2ed8 f   texmgmt.obj
 0001:000a2dac       TextureCreateImageLevel    100a3dac f   texmgmt.obj
 0001:000a33d4       TextureCreateLevel         100a43d4 f   texmgmt.obj
 0001:000a39e0       CreateTexture              100a49e0 f   texmgmt.obj
 0001:000a3c6c       CreateTextureManager       100a4c6c f   texmgmt.obj
 0001:000a45b8       CreateTextureState         100a55b8 f   texmgmt.obj
 0001:000a47b8       SetupTexNameArray          100a57b8 f   texmgmt.obj
 0001:000a4bcc       ReleaseTextureManager      100a5bcc f   texmgmt.obj
 0001:000a4d6c       FreeTextureState           100a5d6c f   texmgmt.obj
 0001:000a4f40       SetupTextureState          100a5f40 f   texmgmt.obj
 0001:000a5edc       ConvertGLSLtoGLType        100a6edc f   uniform.obj
 0001:000a5f18       SetupBuiltInUniforms       100a6f18 f   uniform.obj
 0001:000a6690       WriteUSEShaderMemConsts    100a7690 f   uniform.obj
 0001:000a6eac       GetUniformData             100a7eac f   uniform.obj
 0001:000a71ac       FindUniformFromLocation    100a81ac f   uniform.obj
 0001:000a7290       glGetActiveUniform         100a8290 f   uniform.obj
 0001:000a7798       glGetUniformLocation       100a8798 f   uniform.obj
 0001:000a7f00       glUniform1i                100a8f00 f   uniform.obj
 0001:000a8c4c       glUniform2i                100a9c4c f   uniform.obj
 0001:000a8fb0       glUniform3i                100a9fb0 f   uniform.obj
 0001:000a931c       glUniform4i                100aa31c f   uniform.obj
 0001:000a967c       glUniform1f                100aa67c f   uniform.obj
 0001:000a9f54       glUniform2f                100aaf54 f   uniform.obj
 0001:000aa2b0       glUniform3f                100ab2b0 f   uniform.obj
 0001:000aa61c       glUniform4f                100ab61c f   uniform.obj
 0001:000aa988       glUniform1iv               100ab988 f   uniform.obj
 0001:000aae44       glUniform2iv               100abe44 f   uniform.obj
 0001:000ab1e4       glUniform3iv               100ac1e4 f   uniform.obj
 0001:000ab57c       glUniform4iv               100ac57c f   uniform.obj
 0001:000ab91c       glUniform1fv               100ac91c f   uniform.obj
 0001:000abca4       glUniform2fv               100acca4 f   uniform.obj
 0001:000ac044       glUniform3fv               100ad044 f   uniform.obj
 0001:000ac3dc       glUniform4fv               100ad3dc f   uniform.obj
 0001:000ac77c       glUniformMatrix2fv         100ad77c f   uniform.obj
 0001:000acb24       glUniformMatrix3fv         100adb24 f   uniform.obj
 0001:000acecc       glUniformMatrix4fv         100adecc f   uniform.obj
 0001:000ad274       GetFBBlendType             100ae274 f   use.obj
 0001:000ad52c       CreateFBBlendUSECode       100ae52c f   use.obj
 0001:000ade7c       CreateColorMaskUSECode     100aee7c f   use.obj
 0001:000adf34       WriteEOTUSSECode           100aef34 f   use.obj
 0001:000ae1ac       GetStateCopyUSEAddress     100af1ac f   use.obj
 0001:000ae258       InitSpecialUSECodeBlocks   100af258 f   use.obj
 0001:000ae934       FreeSpecialUSECodeBlocks   100af934 f   use.obj
 0001:000ae9c4       SetupUSEVertexShader       100af9c4 f   use.obj
 0001:000b1698       SetupUSEFragmentShader     100b2698 f   use.obj
 0001:000b377c       DumpVertexShader           100b477c f   use.obj
 0001:000b3d84       DumpFragmentShader         100b4d84 f   use.obj
 0001:000b4bec       BuildMOV                   100b5bec f i use.obj
 0001:000b4d44       BuildLIMM                  100b5d44 f i use.obj
 0001:000b4e04       BuildUNPCKF32              100b5e04 f i use.obj
 0001:000b4e90       BuildPCKUNPCK              100b5e90 f i use.obj
 0001:000b5004       BuildMAD                   100b6004 f i use.obj
 0001:000b5090       BuildFARITH                100b6090 f i use.obj
 0001:000b5300       BuildSMLSI                 100b6300 f i use.obj
 0001:000b5388       EncodeDmaBurst             100b6388 f   validate.obj
 0001:000b5694       OutputTerminateState       100b6694 f   validate.obj
 0001:000b5cb4       SetupPixelEventProgram     100b6cb4 f   validate.obj
 0001:000b6434       PatchPregenMTEStateCopyPrograms 100b7434 f   validate.obj
 0001:000b671c       WriteMTEStateCopyPrograms  100b771c f   validate.obj
 0001:000b6a08       SetupStateUpdate           100b7a08 f   validate.obj
 0001:000b6d48       SetupMTEPregenBuffer       100b7d48 f   validate.obj
 0001:000b6e04       ValidateState              100b7e04 f   validate.obj
 0001:000b9c28       GLES2EmitState             100bac28 f   validate.obj
 0001:000c2318       PDSMTEStateCopySetDMA0     100c3318 f i validate.obj
 0001:000c2334       PDSMTEStateCopySetDMA1     100c3334 f i validate.obj
 0001:000c2354       PDSMTEStateCopySetDMA2     100c3354 f i validate.obj
 0001:000c2374       PDSMTEStateCopySetDMA3     100c3374 f i validate.obj
 0001:000c2394       PDSMTEStateCopySetUSE0     100c3394 f i validate.obj
 0001:000c23b4       PDSMTEStateCopySetUSE1     100c33b4 f i validate.obj
 0001:000c2a1c       glEnableVertexAttribArray  100c3a1c f   vertex.obj
 0001:000c3008       glDisableVertexAttribArray 100c4008 f   vertex.obj
 0001:000c35e0       glVertexAttrib1f           100c45e0 f   vertex.obj
 0001:000c3a80       glVertexAttrib2f           100c4a80 f   vertex.obj
 0001:000c3f0c       glVertexAttrib3f           100c4f0c f   vertex.obj
 0001:000c43a0       glVertexAttrib4f           100c53a0 f   vertex.obj
 0001:000c482c       glVertexAttrib1fv          100c582c f   vertex.obj
 0001:000c4cc4       glVertexAttrib2fv          100c5cc4 f   vertex.obj
 0001:000c516c       glVertexAttrib3fv          100c616c f   vertex.obj
 0001:000c55f4       glVertexAttrib4fv          100c65f4 f   vertex.obj
 0001:000c5a9c       glVertexAttribPointer      100c6a9c f   vertex.obj
 0001:000c64a8       ReleaseImageFromTexture    100c74a8 f   eglimage.obj
 0001:000c6dc0       glEGLImageTargetTexture2DOES 100c7dc0 f   eglimage.obj
 0001:000c791c       glEGLImageTargetRenderbufferStorageOES 100c891c f   eglimage.obj
 0001:000c8290       ReleaseImageFromRenderbuffer 100c9290 f   eglimage.obj
 0001:000c82d0       GLESGetImageSource         100c92d0 f   eglimage.obj
 0001:000c8da0       GetNumStreamDevices        100c9da0 f   texstream.obj
 0001:000c8e08       FreeTexStreamState         100c9e08 f   texstream.obj
 0001:000c8f50       glGetTexStreamDeviceAttributeivIMG 100c9f50 f   texstream.obj
 0001:000c9da8       glTexBindStreamIMG         100cada8 f   texstream.obj
 0001:000ca494       glGetTexStreamDeviceNameIMG 100cb494 f   texstream.obj
 0001:000ca8f0       InitialiseYUVCoefficients  100cb8f0 f   texyuv.obj
 0001:000cb270       CopyYUVRegisters           100cc270 f   texyuv.obj
 0001:000cb36c       CreateExternalTextureState 100cc36c f   texyuv.obj
 0001:000cbb24       CreateVertexArrayObjectState 100ccb24 f   vertexarrobj.obj
 0001:000cbbe8       ReclaimVAOMemKRM           100ccbe8 f   vertexarrobj.obj
 0001:000cbc24       DestroyVAOGhostKRM         100ccc24 f   vertexarrobj.obj
 0001:000cbc60       FreeVertexArrayObjectState 100ccc60 f   vertexarrobj.obj
 0001:000cc0e0       SetupVertexArrayObjectNameArray 100cd0e0 f   vertexarrobj.obj
 0001:000cc1a8       glBindVertexArrayOES       100cd1a8 f   vertexarrobj.obj
 0001:000cc9b0       glDeleteVertexArraysOES    100cd9b0 f   vertexarrobj.obj
 0001:000cd188       glGenVertexArraysOES       100ce188 f   vertexarrobj.obj
 0001:000cd864       glIsVertexArrayOES         100ce864 f   vertexarrobj.obj
 0001:000cde38       OGLES2_GetTLSID            100cee38 f   wince6_tls.obj
 0001:000cde5c       OGLES2_GetTLSValue         100cee5c f   wince6_tls.obj
 0001:000cdeb0       OGLES2_SetTLSValue         100ceeb0 f   wince6_tls.obj
 0001:000cdf28       GetCurrentThreadId         100cef28 f i wince6_tls.obj
 0001:000cdf50       TlsAlloc                   100cef50 f i wince6_tls.obj
 0001:000cdf7c       PDSGeneratePixelEventProgram 100cef7c f   pds.obj
 0001:000ce140       PDSGeneratePixelShaderSAProgram 100cf140 f   pds.obj
 0001:000ce8ac       PDSGenerateStaticPixelShaderSAProgram 100cf8ac f   pds.obj
 0001:000cee2c       PDSGeneratePixelShaderProgram 100cfe2c f   pds.obj
 0001:000cf5e0       PDSGenerateStateCopyProgram 100d05e0 f   pds.obj
 0001:000cfb04       PDSGenerateVertexShaderSAProgram 100d0b04 f   pds.obj
 0001:000d0040       PDSGenerateStaticVertexShaderProgram 100d1040 f   pds.obj
 0001:000d0c2c       PDSGenerateVertexShaderProgram 100d1c2c f   pds.obj
 0001:000d22d4       PDSPatchVertexShaderProgram 100d32d4 f   pds.obj
 0001:000d2490       PDSGenerateConstUploadProgram 100d3490 f   pds.obj
 0001:000d2a3c       PDSGenerateTerminateStateProgram 100d3a3c f   pds.obj
 0001:000d2efc       PDSPatchTerminateStateProgram 100d3efc f   pds.obj
 0001:000d3484       PDSGeneratePixelEventProgramTileXY 100d4484 f   pds.obj
 0001:000d35dc       PDSGetPixeventProgSize     100d45dc f   pds.obj
 0001:000d35f4       PDSGetPixeventTileXYProgSize 100d45f4 f   pds.obj
 0001:000d360c       PDSPixelEventSetPTOFF0     100d460c f i pds.obj
 0001:000d3628       PDSPixelEventSetPTOFF1     100d4628 f i pds.obj
 0001:000d3648       PDSPixelEventSetPTOFF2     100d4648 f i pds.obj
 0001:000d3668       PDSPixelEventSetEOT0       100d4668 f i pds.obj
 0001:000d3688       PDSPixelEventSetEOT1       100d4688 f i pds.obj
 0001:000d36a8       PDSPixelEventSetEOT2       100d46a8 f i pds.obj
 0001:000d36c8       PDSPixelEventSetEOR0       100d46c8 f i pds.obj
 0001:000d36e8       PDSPixelEventSetEOR1       100d46e8 f i pds.obj
 0001:000d3708       PDSPixelEventSetEOR2       100d4708 f i pds.obj
 0001:000d3728       PDSEncodeMOVS              100d4728 f i pds.obj
 0001:000d37b0       PDSEncodeHALT              100d47b0 f i pds.obj
 0001:000d37d8       PDSEncodeADD               100d47d8 f i pds.obj
 0001:000d3840       PDSEncodeMUL               100d4840 f i pds.obj
 0001:000d38a8       PDSEncodeSHL               100d48a8 f i pds.obj
 0001:000d3908       PDSEncodeSHR               100d4908 f i pds.obj
 0001:000d3968       PDSEncodeMOVSA             100d4968 f i pds.obj
 0001:000d39f4       PDSPixelEvent_TileXYSetPTOFF0 100d49f4 f i pds.obj
 0001:000d3a10       PDSPixelEvent_TileXYSetPTOFF1 100d4a10 f i pds.obj
 0001:000d3a30       PDSPixelEvent_TileXYSetPTOFF2 100d4a30 f i pds.obj
 0001:000d3a50       PDSPixelEvent_TileXYSetEOT0 100d4a50 f i pds.obj
 0001:000d3a70       PDSPixelEvent_TileXYSetEOT1 100d4a70 f i pds.obj
 0001:000d3a90       PDSPixelEvent_TileXYSetEOT2 100d4a90 f i pds.obj
 0001:000d3ab0       PDSPixelEvent_TileXYSetEOR0 100d4ab0 f i pds.obj
 0001:000d3ad0       PDSPixelEvent_TileXYSetEOR1 100d4ad0 f i pds.obj
 0001:000d3af0       PDSPixelEvent_TileXYSetEOR2 100d4af0 f i pds.obj
 0001:000d3b10       WritePTOffUSSECode         100d4b10 f   pixevent.obj
 0001:000d3b70       WriteEndOfRenderUSSECode   100d4b70 f   pixevent.obj
 0001:000d3c48       WriteEndOfTileUSSECode     100d4c48 f   pixevent.obj
 0001:000d3e48       WritePBEEmitState          100d4e48 f   pixeventpbesetup.obj
 0001:000d44a0       PVRCombineBlendCodeWithShader 100d54a0 f   combiner.obj
 0001:000d5f28       USEGenCalculateStateSize   100d6f28 f   usegen.obj
 0001:000d5fc0       USEGenWriteStateEmitFragment 100d6fc0 f   usegen.obj
 0001:000d60d8       USEGenWriteEndVtxShaderFragment 100d70d8 f   usegen.obj
 0001:000d6190       USEGenWriteEndVtxShaderGBFragment 100d7190 f   usegen.obj
 0001:000d65b8       USEGenWriteStateEmitProgram 100d75b8 f   usegen.obj
 0001:000d66ac       USEGenWriteAccum2PProgram  100d76ac f   usegen.obj
 0001:000d6768       USEGenWriteSpecialObjVtxProgram 100d7768 f   usegen.obj
 0001:000d6c28       USEGenWriteClearPixelProgram 100d7c28 f   usegen.obj
 0001:000d6cd8       BuildEMITMTE               100d7cd8 f i usegen.obj
 0001:000d6d7c       BuildEMIT                  100d7d7c f i usegen.obj
 0001:000d6f0c       UCH_CodeHeapCreate         100d7f0c f   codeheap.obj
 0001:000d712c       UCH_CodeHeapDestroy        100d812c f   codeheap.obj
 0001:000d72e0       UCH_CodeHeapFreeFunc       100d82e0 f   codeheap.obj
 0001:000d78dc       UCH_CodeHeapAllocateFunc   100d88dc f   codeheap.obj
 0001:000d8510       UCH_TrackCodeHeapAllocate  100d9510 f   codeheap.obj
 0001:000d86f4       UCH_TrackCodeHeapFree      100d96f4 f   codeheap.obj
 0001:000d87fc       CBUF_GetBufferSpace        100d97fc f   buffers.obj
 0001:000d9314       CBUF_UpdateBufferPos       100da314 f   buffers.obj
 0001:000d94dc       CBUF_GetBufferDeviceAddress 100da4dc f   buffers.obj
 0001:000d9594       CBUF_UpdateBufferCommittedPrimOffsets 100da594 f   buffers.obj
 0001:000d9748       CBUF_UpdateVIBufferCommittedPrimOffsets 100da748 f   buffers.obj
 0001:000d98b0       CBUF_UpdateBufferCommittedHWOffsets 100da8b0 f   buffers.obj
 0001:000d9970       CBUF_UpdateTACtrlKickBase  100da970 f   buffers.obj
 0001:000d9a58       CBUF_CreateBuffer          100daa58 f   buffers.obj
 0001:000d9e08       CBUF_DestroyBuffer         100dae08 f   buffers.obj
 0001:000d9e44       DeTwiddleAddress16bpp      100dae44 f   twiddle.obj
 0001:000dbf70       ReadBackTwiddle16bpp       100dcf70 f   twiddle.obj
 0001:000dc370       DeTwiddleAddress32bpp      100dd370 f   twiddle.obj
 0001:000de258       ReadBackTwiddle32bpp       100df258 f   twiddle.obj
 0001:000de658       ReadBackTwiddle8bpp        100df658 f   twiddle.obj
 0001:000de848       ReadBackTwiddleETC1        100df848 f   twiddle.obj
 0001:000de988       DeTwiddleAddress8bpp       100df988 f   twiddle.obj
 0001:000ded10       DeTwiddleAddressETC1       100dfd10 f   twiddle.obj
 0001:000df150       KRM_Initialize             100e0150 f   kickresource.obj
 0001:000df488       KRM_Attach                 100e0488 f   kickresource.obj
 0001:000df9fc       KRM_IsResourceInUse        100e09fc f   kickresource.obj
 0001:000dfdfc       KRM_IsResourceNeeded       100e0dfc f   kickresource.obj
 0001:000dffa8       KRM_WaitUntilResourceIsNotNeeded 100e0fa8 f   kickresource.obj
 0001:000e0240       KRM_WaitForAllResources    100e1240 f   kickresource.obj
 0001:000e0368       KRM_GhostResource          100e1368 f   kickresource.obj
 0001:000e0488       KRM_ReclaimUnneededResources 100e1488 f   kickresource.obj
 0001:000e0678       KRM_DestroyUnneededGhosts  100e1678 f   kickresource.obj
 0001:000e09e4       KRM_RemoveResourceFromAllLists 100e19e4 f   kickresource.obj
 0001:000e0a64       KRM_RemoveAttachmentPointReferences 100e1a64 f   kickresource.obj
 0001:000e0ca4       KRM_Destroy                100e1ca4 f   kickresource.obj
 0001:000e0dd0       KRM_FlushUnKickedResource  100e1dd0 f   kickresource.obj
 0001:000e0fd0       CalculatePixelDMSInfo      100e1fd0 f   dmscalc.obj
 0001:000e1420       CalculateVertexDMSInfo     100e2420 f   dmscalc.obj
 0001:000e1640       PVRUniPatchCreateContext   100e2640 f   usp:usp.obj
 0001:000e16e0       PVRUniPatchCreateShader    100e26e0 f   usp:usp.obj
 0001:000e1748       PVRUniPatchCreatePCShader  100e2748 f   usp:usp.obj
 0001:000e17b8       PVRUniPatchSetTextureFormat 100e27b8 f   usp:usp.obj
 0001:000e1894       PVRUniPatchSetOutputLocation 100e2894 f   usp:usp.obj
 0001:000e18c4       PVRUniPatchSetPreambleInstCount 100e28c4 f   usp:usp.obj
 0001:000e1918       PVRUniPatchFinaliseShader  100e2918 f   usp:usp.obj
 0001:000e1e70       PVRUniPatchDestroyHWShader 100e2e70 f   usp:usp.obj
 0001:000e1eb0       PVRUniPatchDestroyShader   100e2eb0 f   usp:usp.obj
 0001:000e1ee4       PVRUniPatchDestroyPCShader 100e2ee4 f   usp:usp.obj
 0001:000e1f18       PVRUniPatchDestroyContext  100e2f18 f   usp:usp.obj
 0001:000e1f4c       USPShaderAddResultRef      100e2f4c f   usp:uspshader.obj
 0001:000e1fe8       USPShaderRemoveResultRef   100e2fe8 f   usp:uspshader.obj
 0001:000e2404       USPShaderDestroy           100e3404 f   usp:uspshader.obj
 0001:000e2928       PCShaderCreate             100e3928 f   usp:uspshader.obj
 0001:000e57bc       USPShaderCreate            100e67bc f   usp:uspshader.obj
 0001:000ea678       HandleUSPSampleTextureFormat 100eb678 f   usp:finalise.obj
 0001:000eadec       ResetShader                100ebdec f   usp:finalise.obj
 0001:000eb07c       FinaliseResultLocations    100ec07c f   usp:finalise.obj
 0001:000eb3cc       FinaliseRegCounts          100ec3cc f   usp:finalise.obj
 0001:000ebac0       FinaliseSamples            100ecac0 f   usp:finalise.obj
 0001:000ebc4c       RemoveDummyIterations      100ecc4c f   usp:finalise.obj
 0001:000ebdd4       FinaliseResults            100ecdd4 f   usp:finalise.obj
 0001:000ec52c       FinaliseShaderPreamble     100ed52c f   usp:finalise.obj
 0001:000ec624       FinaliseInstructions       100ed624 f   usp:finalise.obj
 0001:000ec6bc       FinaliseBranches           100ed6bc f   usp:finalise.obj
 0001:000ec82c       CreateHWShader             100ed82c f   usp:finalise.obj
 0001:000ee928       USPInstBlockReset          100ef928 f   usp:usp_instblock.obj
 0001:000eeba8       USPInstBlockInsertHWInst   100efba8 f   usp:usp_instblock.obj
 0001:000ef2e4       USPInstBlockAddPCInst      100f02e4 f   usp:usp_instblock.obj
 0001:000ef690       USPInstBlockRemoveInst     100f0690 f   usp:usp_instblock.obj
 0001:000ef814       USPInstBlockFinaliseInsts  100f0814 f   usp:usp_instblock.obj
 0001:000f0660       USPInstBlockCreate         100f1660 f   usp:usp_instblock.obj
 0001:000f0ac0       USPInstBlockDestroy        100f1ac0 f   usp:usp_instblock.obj
 0001:000f0b90       USPResultRefSetup          100f1b90 f   usp:usp_resultref.obj
 0001:000f0c1c       USPResultRefCreate         100f1c1c f   usp:usp_resultref.obj
 0001:000f0c98       USPResultRefSetInst        100f1c98 f   usp:usp_resultref.obj
 0001:000f0f24       USPResultRefDestroy        100f1f24 f   usp:usp_resultref.obj
 0001:000f0f64       USPResultRefReset          100f1f64 f   usp:usp_resultref.obj
 0001:000f0fa8       USPResultRefSupportsRegLocation 100f1fa8 f   usp:usp_resultref.obj
 0001:000f124c       USPResultRefChangeRegLocation 100f224c f   usp:usp_resultref.obj
 0001:000f1724       USPSampleDataAdd           100f2724 f   usp:usp_sample.obj
 0001:000f2470       USPSampleReset             100f3470 f   usp:usp_sample.obj
 0001:000f2614       USPSampleUnpackReset       100f3614 f   usp:usp_sample.obj
 0001:000f2698       USPSampleGenerateCode      100f3698 f   usp:usp_sample.obj
 0001:000fc78c       USPSampleUnpackGenerateCode 100fd78c f   usp:usp_sample.obj
 0001:000fd158       USPSampleCreate            100fe158 f   usp:usp_sample.obj
 0001:000fd2f4       USPSampleDestroy           100fe2f4 f   usp:usp_sample.obj
 0001:000fd318       USPSampleUnpackCreate      100fe318 f   usp:usp_sample.obj
 0001:000fd4a4       USPSampleUnpackDestroy     100fe4a4 f   usp:usp_sample.obj
 0001:000fd4c8       DecideChunksSampling       100fe4c8 f   usp:usp_sample.obj
 0001:000ff3a0       DecideFinalTextureFormats  101003a0 f   usp:usp_sample.obj
 0001:00101e98       USPInputDataGetPreSampledData 10102e98 f   usp:usp_inputdata.obj
 0001:00101fbc       USPInputDataGetIteratedData 10102fbc f   usp:usp_inputdata.obj
 0001:00102078       USPInputDataGetTexStateData 10103078 f   usp:usp_inputdata.obj
 0001:00102144       USPInputDataCalcPARegUse   10103144 f   usp:usp_inputdata.obj
 0001:00102284       USPInputDataAddTexStateData 10103284 f   usp:usp_inputdata.obj
 0001:001027e8       USPInputDataFixUnusedPreSampledData 101037e8 f   usp:usp_inputdata.obj
 0001:00102a64       USPInputDataAddPreSampledData 10103a64 f   usp:usp_inputdata.obj
 0001:001034c4       USPInputDataAddIteratedData 101044c4 f   usp:usp_inputdata.obj
 0001:00103870       USPInputDataGetIteratedDataForNonDepSample 10104870 f   usp:usp_inputdata.obj
 0001:001039dc       USPInputDataAddPCInputData 101049dc f   usp:usp_inputdata.obj
 0001:00104144       USPInputDataCreate         10105144 f   usp:usp_inputdata.obj
 0001:001041bc       USPInputDataCreateIteratedDataList 101051bc f   usp:usp_inputdata.obj
 0001:00104274       USPInputDataCreatePreSampledDataList 10105274 f   usp:usp_inputdata.obj
 0001:0010435c       USPInputDataCreateTexStateDataList 1010535c f   usp:usp_inputdata.obj
 0001:00104438       USPInputDataDestroy        10105438 f   usp:usp_inputdata.obj
 0001:001044ec       USPInputDataReset          101054ec f   usp:usp_inputdata.obj
 0001:00104618       HWInstGetOpcode            10105618 f   usp:hwinst.obj
 0001:00105360       HWInstGetOperandsUsed      10106360 f   usp:hwinst.obj
 0001:001067dc       HWInstCanUseExtSrc0Banks   101077dc f   usp:hwinst.obj
 0001:00106870       HWInstIsMOEControlInst     10107870 f   usp:hwinst.obj
 0001:001068c4       HWInstUpdateMOEState       101078c4 f   usp:hwinst.obj
 0001:00106b60       HWInstGetPerOperandFmtCtl  10107b60 f   usp:hwinst.obj
 0001:00106dac       HWInstEncodeDestBankAndNum 10107dac f   usp:hwinst.obj
 0001:00107640       HWInstDecodeDestBankAndNum 10108640 f   usp:hwinst.obj
 0001:00107c80       HWInstEncodeSrc0BankAndNum 10108c80 f   usp:hwinst.obj
 0001:00108164       HWInstDecodeSrc0BankAndNum 10109164 f   usp:hwinst.obj
 0001:0010848c       HWInstEncodeSrc1BankAndNum 1010948c f   usp:hwinst.obj
 0001:001088a8       HWInstDecodeSrc1BankAndNum 101098a8 f   usp:hwinst.obj
 0001:00108be0       HWInstEncodeSrc2BankAndNum 10109be0 f   usp:hwinst.obj
 0001:0010900c       HWInstDecodeSrc2BankAndNum 1010a00c f   usp:hwinst.obj
 0001:00109340       HWInstDecodeOperandBankAndNum 1010a340 f   usp:hwinst.obj
 0001:00109468       HWInstDecodeSMPOperandBankAndNum 1010a468 f   usp:hwinst.obj
 0001:001094c4       HWInstEncodeOperandBankAndNum 1010a4c4 f   usp:hwinst.obj
 0001:001095fc       HWInstEncodeANDInst        1010a5fc f   usp:hwinst.obj
 0001:001099dc       HWInstEncodeMOVInst        1010a9dc f   usp:hwinst.obj
 0001:00109b0c       HWInstDecodeMOVInstTestDataType 1010ab0c f   usp:hwinst.obj
 0001:00109be8       HWInstDecodeRepeat         1010abe8 f   usp:hwinst.obj
 0001:00109f94       HWInstEncodeSMLSIInst      1010af94 f   usp:hwinst.obj
 0001:0010a318       HWInstEncodeSMBOInst       1010b318 f   usp:hwinst.obj
 0001:0010a448       HWInstEncodeSETFCInst      1010b448 f   usp:hwinst.obj
 0001:0010a4cc       HWInstEncodePCKUNPCKInst   1010b4cc f   usp:hwinst.obj
 0001:0010aaa8       HWInstSetBranchOffset      1010baa8 f   usp:hwinst.obj
 0001:0010ab24       HWInstSetBranchAddr        1010bb24 f   usp:hwinst.obj
 0001:0010aba0       HWInstSupportsNoSched      1010bba0 f   usp:hwinst.obj
 0001:0010ac6c       HWInstSetNoSched           1010bc6c f   usp:hwinst.obj
 0001:0010ae30       HWInstEncodeNOPInst        1010be30 f   usp:hwinst.obj
 0001:0010ae74       HWInstNeedsSyncStartBefore 1010be74 f   usp:hwinst.obj
 0001:0010af60       HWInstSupportsSyncStart    1010bf60 f   usp:hwinst.obj
 0001:0010b010       HWInstGetSyncStart         1010c010 f   usp:hwinst.obj
 0001:0010b0c8       HWInstSetSyncStart         1010c0c8 f   usp:hwinst.obj
 0001:0010b1b8       HWInstSupportsSyncEnd      1010c1b8 f   usp:hwinst.obj
 0001:0010b20c       HWInstGetSyncEnd           1010c20c f   usp:hwinst.obj
 0001:0010b284       HWInstForcesDeschedule     1010c284 f   usp:hwinst.obj
 0001:0010b33c       HWInstIsIllegalInstPair    1010c33c f   usp:hwinst.obj
 0001:0010b454       HWInstSupportsEnd          1010c454 f   usp:hwinst.obj
 0001:0010b504       HWInstSupportsWriteMask    1010c504 f   usp:hwinst.obj
 0001:0010b558       HWInstDecodePCKUNPCKInstWriteMask 1010c558 f   usp:hwinst.obj
 0001:0010b58c       HWInstDecodeSOPWMInstWriteMask 1010c58c f   usp:hwinst.obj
 0001:0010b660       HWInstDecodeWriteMask      1010c660 f   usp:hwinst.obj
 0001:0010b6ec       HWInstEncodePCKUNPCKInstWriteMask 1010c6ec f   usp:hwinst.obj
 0001:0010b92c       HWInstEncodeSOPWMInstWriteMask 1010c92c f   usp:hwinst.obj
 0001:0010ba50       HWInstEncodeWriteMask      1010ca50 f   usp:hwinst.obj
 0001:0010bad4       HWInstForceFullWriteMask   1010cad4 f   usp:hwinst.obj
 0001:0010c00c       HWInstDecodeSMPInstDRCNum  1010d00c f   usp:hwinst.obj
 0001:0010c03c       HWInstEncodeWDFInst        1010d03c f   usp:hwinst.obj
 0001:0010c0b8       HWInstEncodeSOPWMInst      1010d0b8 f   usp:hwinst.obj
 0001:0010c280       HWInstEncodeSOP2Inst       1010d280 f   usp:hwinst.obj
 0001:0010c470       HWInstDecodeSMPInstCoordFmt 1010d470 f   usp:hwinst.obj
 0001:0010c49c       HWInstDecodeSMPInstCoordDim 1010d49c f   usp:hwinst.obj
 0001:0010c52c       HWInstDecodePCKUNPCKInstSrcFormat 1010d52c f   usp:hwinst.obj
 0001:0010c610       HWInstDecodePCKUNPCKInstDstFormat 1010d610 f   usp:hwinst.obj
 0001:0010c6f4       HWInstEncodeLDInstFetchCount 1010d6f4 f   usp:hwinst.obj
 0001:0010c788       HWInstEncodeLDInst         1010d788 f   usp:hwinst.obj
 0001:0010c8e8       HWInstEncodeFIRHInst       1010d8e8 f   usp:hwinst.obj
 0001:0010cbf0       HWInstEncodeSMPInstCoordDim 1010dbf0 f   usp:hwinst.obj
 0001:0010cc98       UseDecodeInstruction       1010dc98 f   useasm:usedisasm.obj
 0001:00116dc8       UseDisassembleInstruction  10117dc8 f   useasm:usedisasm.obj
 0001:00118e10       UseDisassembler            10119e10 f   useasm:usedisasm.obj
 0001:00118f1c       GetCurrentProcess          10119f1c f i useasm:usedisasm.obj
 0001:00118f34       UseAsmGetCoreDesc          10119f34 f   useasm:utils.obj
 0001:00118fe0       IsRevisionValid            10119fe0 f   useasm:utils.obj
 0001:00119040       FixBRN21697                1011a040 f   useasm:utils.obj
 0001:0011908c       FixBRN21713                1011a08c f   useasm:utils.obj
 0001:001190d8       FixBRN23062                1011a0d8 f   useasm:utils.obj
 0001:00119124       FixBRN23164                1011a124 f   useasm:utils.obj
 0001:00119170       FixBRN23461                1011a170 f   useasm:utils.obj
 0001:001191bc       FixBRN23960                1011a1bc f   useasm:utils.obj
 0001:00119208       FixBRN24895                1011a208 f   useasm:utils.obj
 0001:00119254       FixBRN25355                1011a254 f   useasm:utils.obj
 0001:001192a0       FixBRN25060                1011a2a0 f   useasm:utils.obj
 0001:001192ec       FixBRN25580                1011a2ec f   useasm:utils.obj
 0001:00119338       FixBRN25582                1011a338 f   useasm:utils.obj
 0001:00119384       FixBRN26570                1011a384 f   useasm:utils.obj
 0001:001193d0       FixBRN27005                1011a3d0 f   useasm:utils.obj
 0001:0011941c       FixBRN26681                1011a41c f   useasm:utils.obj
 0001:00119468       FixBRN27984                1011a468 f   useasm:utils.obj
 0001:001194b4       FixBRN29643                1011a4b4 f   useasm:utils.obj
 0001:00119500       FixBRN30871                1011a500 f   useasm:utils.obj
 0001:0011954c       FixBRN30898                1011a54c f   useasm:utils.obj
 0001:00119598       IsEnhancedNoSched          1011a598 f   useasm:utils.obj
 0001:001195e8       IsHighPrecisionFIR         1011a5e8 f   useasm:utils.obj
 0001:00119638       IsLoadMOEStateFromRegisters 1011a638 f   useasm:utils.obj
 0001:00119688       IsPerInstMoeIncrements     1011a688 f   useasm:utils.obj
 0001:001196d8       IsFClampInstruction        1011a6d8 f   useasm:utils.obj
 0001:00119728       IsSqrtSinCosInstruction    1011a728 f   useasm:utils.obj
 0001:00119778       IsIMA32Instruction         1011a778 f   useasm:utils.obj
 0001:001197c8       IsIDIVInstruction          1011a7c8 f   useasm:utils.obj
 0001:00119818       SupportsExtendedLoad       1011a818 f   useasm:utils.obj
 0001:00119868       SupportsLDSTExtendedCacheModes 1011a868 f   useasm:utils.obj
 0001:001198bc       SupportsSTNoReadBeforeWrite 1011a8bc f   useasm:utils.obj
 0001:00119910       SupportsSMPResultFormatConvert 1011a910 f   useasm:utils.obj
 0001:00119964       HasNewEfoOptions           1011a964 f   useasm:utils.obj
 0001:001199b4       HasPackMultipleRoundModes  1011a9b4 f   useasm:utils.obj
 0001:00119a04       HasDualIssue               1011aa04 f   useasm:utils.obj
 0001:00119a54       HasUnlimitedPhases         1011aa54 f   useasm:utils.obj
 0001:00119aa4       HasNoInstructionPairing    1011aaa4 f   useasm:utils.obj
 0001:00119af4       NumberOfMutexesSupported   1011aaf4 f   useasm:utils.obj
 0001:00119b28       NumberOfMonitorsSupported  1011ab28 f   useasm:utils.obj
 0001:00119b5c       NumberOfProgramCounterBits 1011ab5c f   useasm:utils.obj
 0001:00119b90       NumberOfInternalRegisters  1011ab90 f   useasm:utils.obj
 0001:00119bc4       SupportsAlphaToCoverage    1011abc4 f   useasm:utils.obj
 0001:00119c14       SupportsFmad16Swizzles     1011ac14 f   useasm:utils.obj
 0001:00119c64       SupportsFnormalise         1011ac64 f   useasm:utils.obj
 0001:00119cb4       SupportsPCF                1011acb4 f   useasm:utils.obj
 0001:00119d04       SupportsRawSample          1011ad04 f   useasm:utils.obj
 0001:00119d54       SupportsNopTrigger         1011ad54 f   useasm:utils.obj
 0001:00119da4       SupportsBranchException    1011ada4 f   useasm:utils.obj
 0001:00119df4       SupportsExtSyncEnd         1011adf4 f   useasm:utils.obj
 0001:00119e44       SupportsMOEStore           1011ae44 f   useasm:utils.obj
 0001:00119e94       SupportsCFI                1011ae94 f   useasm:utils.obj
 0001:00119ee4       SupportsVCB                1011aee4 f   useasm:utils.obj
 0001:00119f34       SupportsVEC34              1011af34 f   useasm:utils.obj
 0001:00119f84       SupportsBranchPwait        1011af84 f   useasm:utils.obj
 0001:00119fd4       SupportsRawSampleBoth      1011afd4 f   useasm:utils.obj
 0001:0011a024       ReducedSMPRepeatCount      1011b024 f   useasm:utils.obj
 0001:0011a078       IMA32Is32x16Plus32         1011b078 f   useasm:utils.obj
 0001:0011a0cc       SupportsTESTSUB32          1011b0cc f   useasm:utils.obj
 0001:0011a120       NoRepeatMaskOnBitwiseInstructions 1011b120 f   useasm:utils.obj
 0001:0011a174       NoRepeatMaskOnSMPInstructions 1011b174 f   useasm:utils.obj
 0001:0011a1c8       SupportSkipInvalidOnIDFInstruction 1011b1c8 f   useasm:utils.obj
 0001:0011a21c       SupportsAllAnyInstancesFlagOnBranchInstruction 1011b21c f   useasm:utils.obj
 0001:0011a270       SupportsLDSTAtomicOps      1011b270 f   useasm:utils.obj
 0001:0011a2c4       SupportsIntegerConditionalInstructions 1011b2c4 f   useasm:utils.obj
 0001:0011a318       SupportsQwordLDST          1011b318 f   useasm:utils.obj
 0001:0011a36c       SupportsIDXSC              1011b36c f   useasm:utils.obj
 0001:0011a3c0       SupportsTESTSABLND         1011b3c0 f   useasm:utils.obj
 0001:0011a414       SupportsLDRSTRRepeat       1011b414 f   useasm:utils.obj
 0001:0011a468       SupportsSTRPredicate       1011b468 f   useasm:utils.obj
 0001:0011a4bc       SupportsLDRSTRExtendedImmediate 1011b4bc f   useasm:utils.obj
 0001:0011a510       SupportsIndexTwoBanks      1011b510 f   useasm:utils.obj
 0001:0011a564       SupportsSPRVV              1011b564 f   useasm:utils.obj
 0001:0011a5b8       IsInvalidSpecialRegisterForNonBitwiseInstructions 1011b5b8 f   useasm:utils.obj
 0001:0011a664       UseAsmInitInst             1011b664 f   useasm:utils.obj
 0001:0011a6a0       UseAsmInitReg              1011b6a0 f   useasm:utils.obj
 0001:0011a6e0       OpcodeArgumentCount        1011b6e0 f   useasm:usetab.obj
 0001:0011a720       OpcodeName                 1011b720 f   useasm:usetab.obj
 0001:0011a75c       OpcodeAcceptsSkipInv       1011b75c f   useasm:usetab.obj
 0001:0011a7b8       OpcodeAcceptsNoSched       1011b7b8 f   useasm:usetab.obj
 0001:0011a814       OpcodeAcceptsNoSchedEnhanced 1011b814 f   useasm:usetab.obj
 0001:0011a870       OpcodeDescFlags            1011b870 f   useasm:usetab.obj
 0001:0011a8b0       PVRSRVDebugAssertFail      1011b8b0 f   srvclum:SRVCLUM.dll
 0001:0011a8c0       PVRSRVDebugPrintf          1011b8c0 f   srvclum:SRVCLUM.dll
 0001:0011a8d0       PVRSRVFreeUserModeMemTracking 1011b8d0 f   srvclum:SRVCLUM.dll
 0001:0011a8e0       PVRSRVAllocUserModeMemTracking 1011b8e0 f   srvclum:SRVCLUM.dll
 0001:0011a8f0       PVRSRVReallocUserModeMemTracking 1011b8f0 f   srvclum:SRVCLUM.dll
 0001:0011a900       PVRSRVCallocUserModeMemTracking 1011b900 f   srvclum:SRVCLUM.dll
 0001:0011a910       PVRSRVMetricsTimeNow       1011b910 f   srvclum:SRVCLUM.dll
 0001:0011a920       PVRSRVMemCopy              1011b920 f   srvclum:SRVCLUM.dll
 0001:0011a930       PVRSRVUnlockMutex          1011b930 f   srvclum:SRVCLUM.dll
 0001:0011a940       PVRSRVLockMutex            1011b940 f   srvclum:SRVCLUM.dll
 0001:0011a950       PVRSRVMemSet               1011b950 f   srvclum:SRVCLUM.dll
 0001:0011a960       PVRSRVDestroyMutex         1011b960 f   srvclum:SRVCLUM.dll
 0001:0011a970       PVRSRVCreateMutex          1011b970 f   srvclum:SRVCLUM.dll
 0001:0011a980       PVRSRVPollForValue         1011b980 f   srvclum:SRVCLUM.dll
 0001:0011a990       SGXQueueTransfer           1011b990 f   srvclum:SRVCLUM.dll
 0001:0011a9a0       PVRSRVMetricsGetCPUFreq    1011b9a0 f   srvclum:SRVCLUM.dll
 0001:0011a9b0       PVRSRVTrace                1011b9b0 f   srvclum:SRVCLUM.dll
 0001:0011a9c0       PVRSRVFreeAppHintState     1011b9c0 f   srvclum:SRVCLUM.dll
 0001:0011a9d0       PVRSRVGetAppHint           1011b9d0 f   srvclum:SRVCLUM.dll
 0001:0011a9e0       PVRSRVCreateAppHintState   1011b9e0 f   srvclum:SRVCLUM.dll
 0001:0011a9f0       PVRSRVDeInitProfileOutput  1011b9f0 f   srvclum:SRVCLUM.dll
 0001:0011aa00       PVRSRVProfileOutput        1011ba00 f   srvclum:SRVCLUM.dll
 0001:0011aa10       PVRSRVInitProfileOutput    1011ba10 f   srvclum:SRVCLUM.dll
 0001:0011aa20       PVRSRVClientEvent          1011ba20 f   srvclum:SRVCLUM.dll
 0001:0011aa30       PVRSRVEventObjectWait      1011ba30 f   srvclum:SRVCLUM.dll
 0001:0011aa40       SGXKickTA                  1011ba40 f   srvclum:SRVCLUM.dll
 0001:0011aa50       PVRSRVGetLibFuncAddr       1011ba50 f   srvclum:SRVCLUM.dll
 0001:0011aa60       PVRSRVLoadLibrary          1011ba60 f   srvclum:SRVCLUM.dll
 0001:0011aa70       PVRSRVUnloadLibrary        1011ba70 f   srvclum:SRVCLUM.dll
 0001:0011aa80       PVRSRVCloseBCDevice        1011ba80 f   srvclum:SRVCLUM.dll
 0001:0011aa90       PVRSRVUnmapDeviceClassMemory 1011ba90 f   srvclum:SRVCLUM.dll
 0001:0011aaa0       PVRSRVEnumerateDeviceClass 1011baa0 f   srvclum:SRVCLUM.dll
 0001:0011aab0       PVRSRVMapDeviceClassMemory 1011bab0 f   srvclum:SRVCLUM.dll
 0001:0011aac0       PVRSRVGetBCBuffer          1011bac0 f   srvclum:SRVCLUM.dll
 0001:0011aad0       PVRSRVGetBCBufferInfo      1011bad0 f   srvclum:SRVCLUM.dll
 0001:0011aae0       PVRSRVOpenBCDevice         1011bae0 f   srvclum:SRVCLUM.dll
 0001:0011aaf0       PVRSRVFreeUserModeMem      1011baf0 f   srvclum:SRVCLUM.dll
 0001:0011ab00       PVRSRVFreeDeviceMem        1011bb00 f   srvclum:SRVCLUM.dll
 0001:0011ab10       PVRSRVAllocDeviceMem       1011bb10 f   srvclum:SRVCLUM.dll
 0001:0011ab20       PVRSRVCallocUserModeMem    1011bb20 f   srvclum:SRVCLUM.dll
 0001:0011ab30       PVRSRVAllocUserModeMem     1011bb30 f   srvclum:SRVCLUM.dll
 0001:0011ab40       PVRSRVReallocUserModeMem   1011bb40 f   srvclum:SRVCLUM.dll
 0001:0011ab50       KEGLFreeDeviceMemTrack     1011bb50 f   libimgegl:libIMGEGL.dll
 0001:0011ab60       KEGLAllocDeviceMemTrack    1011bb60 f   libimgegl:libIMGEGL.dll
 0001:0011ab70       KEGLGetDrawableParameters  1011bb70 f   libimgegl:libIMGEGL.dll
 0001:0011ab80       KEGLDestroyRenderSurface   1011bb80 f   libimgegl:libIMGEGL.dll
 0001:0011ab90       KEGLUnbindImage            1011bb90 f   libimgegl:libIMGEGL.dll
 0001:0011aba0       KEGLCreateRenderSurface    1011bba0 f   libimgegl:libIMGEGL.dll
 0001:0011abb0       KEGLResizeRenderSurface    1011bbb0 f   libimgegl:libIMGEGL.dll
 0001:0011abc0       KEGLBindImage              1011bbc0 f   libimgegl:libIMGEGL.dll
 0001:0011abd0       KEGLGetImageSource         1011bbd0 f   libimgegl:libIMGEGL.dll
 0001:0011abe0       __GetUserKData             1011bbe0 f   coredll:COREDLL.dll
 0001:0011abf0       TlsGetValue                1011bbf0 f   coredll:COREDLL.dll
 0001:0011ac00       TlsCall                    1011bc00 f   coredll:COREDLL.dll
 0001:0011ac10       TlsSetValue                1011bc10 f   coredll:COREDLL.dll
 0001:0011ac20       OutputDebugStringW         1011bc20 f   coredll:COREDLL.dll
 0001:0011ac30       TerminateProcess           1011bc30 f   coredll:COREDLL.dll
 0001:0011ac40       DllMain                    1011bc40 f   corelib0:dllmain.obj
 0001:0011ac78       _DllMainCRTStartup         1011bc78 f   corelib0:pegdmain.obj
 0001:0011ae10       __security_init_cookie     1011be10 f   corelib0:seccinit.obj
 0001:0011aeac       __GSHandlerCheck           1011beac f   corelib0:gshandler.obj
 0001:0011aef0       __GSHandlerCheckCommon     1011bef0 f   corelib0:gshandler.obj
 0001:0011af90       __security_check_cookie    1011bf90 f   corelib0:armsecgs.obj
 0001:0011afa0       __gsfailure                1011bfa0     corelib0:armsecgs.obj
 0001:0011afe4       exit                       1011bfe4 f   corelib0:cexit.obj
 0001:0011b104       _exit                      1011c104 f   corelib0:cexit.obj
 0001:0011b124       _cexit                     1011c124 f   corelib0:cexit.obj
 0001:0011b13c       _c_exit                    1011c13c f   corelib0:cexit.obj
 0001:0011b154       _initterm                  1011c154 f   corelib0:crt0dat.obj
 0001:0011b1a0       _cinit                     1011c1a0 f   corelib0:crt0dat.obj
 0001:0011b1d0       __crt_ExitProcess          1011c1d0 f   corelib0:exitproc_proxy.obj
 0001:0011b1fc       _onexit                    1011c1fc f   corelib0:onexit.obj
 0001:0011b3d8       atexit                     1011c3d8 f   corelib0:onexit.obj
 0001:0011b428       memset                     1011c428 f   corelib1:COREDLL.dll
 0001:0011b438       memcpy                     1011c438 f   corelib1:COREDLL.dll
 0001:0011b448       fopen                      1011c448 f   corelib1:COREDLL.dll
 0001:0011b458       fclose                     1011c458 f   corelib1:COREDLL.dll
 0001:0011b468       strcmp                     1011c468 f   corelib1:COREDLL.dll
 0001:0011b478       strlen                     1011c478 f   corelib1:COREDLL.dll
 0001:0011b488       strncpy                    1011c488 f   corelib1:COREDLL.dll
 0001:0011b498       sprintf                    1011c498 f   corelib1:COREDLL.dll
 0001:0011b4a8       floor                      1011c4a8 f   corelib1:COREDLL.dll
 0001:0011b4b8       strcat                     1011c4b8 f   corelib1:COREDLL.dll
 0001:0011b4c8       fprintf                    1011c4c8 f   corelib1:COREDLL.dll
 0001:0011b4d8       strcpy                     1011c4d8 f   corelib1:COREDLL.dll
 0001:0011b4e8       strncmp                    1011c4e8 f   corelib1:COREDLL.dll
 0001:0011b4f8       vsprintf                   1011c4f8 f   corelib1:COREDLL.dll
 0001:0011b508       vfprintf                   1011c508 f   corelib1:COREDLL.dll
 0001:0011b518       memcmp                     1011c518 f   corelib1:COREDLL.dll
 0001:0011b528       atoi                       1011c528 f   corelib1:COREDLL.dll
 0001:0011b538       printf                     1011c538 f   corelib1:COREDLL.dll
 0001:0011b548       _XcptFilter                1011c548 f   corelib1:COREDLL.dll
 0001:0011b558       __C_specific_handler       1011c558 f   corelib1:COREDLL.dll
 0001:0011b568       __security_gen_cookie2     1011c568 f   corelib1:COREDLL.dll
 0001:0011b578       __report_gsfailure         1011c578 f   corelib1:COREDLL.dll
 0001:0011b588       free                       1011c588 f   corelib1:COREDLL.dll
 0001:0011b598       realloc                    1011c598 f   corelib1:COREDLL.dll
 0001:0011b5a8       malloc                     1011c5a8 f   corelib1:COREDLL.dll
 0001:0011b5b8       _msize                     1011c5b8 f   corelib1:COREDLL.dll
 0001:0011b5c8       DisableThreadLibraryCalls  1011c5c8 f   coredll:COREDLL.dll
 0001:0011b638       __IMPORT_DESCRIPTOR_SRVCLUM 1011c638     srvclum:SRVCLUM.dll
 0001:0011b64c       __IMPORT_DESCRIPTOR_libIMGEGL 1011c64c     libimgegl:libIMGEGL.dll
 0001:0011b660       __IMPORT_DESCRIPTOR_COREDLL 1011c660     coredll:COREDLL.dll
 0001:0011b674       __NULL_IMPORT_DESCRIPTOR   1011c674     srvclum:SRVCLUM.dll
 0002:00000000       __imp_DisableThreadLibraryCalls 1011e000     coredll:COREDLL.dll
 0002:00000004       __imp_memcmp               1011e004     corelib1:COREDLL.dll
 0002:00000008       __imp_vfprintf             1011e008     corelib1:COREDLL.dll
 0002:0000000c       __imp_vsprintf             1011e00c     corelib1:COREDLL.dll
 0002:00000010       __imp_strncmp              1011e010     corelib1:COREDLL.dll
 0002:00000014       __imp_strcpy               1011e014     corelib1:COREDLL.dll
 0002:00000018       __imp_fprintf              1011e018     corelib1:COREDLL.dll
 0002:0000001c       __imp___rt_sdiv            1011e01c     corelib1:COREDLL.dll
 0002:00000020       __imp_strcat               1011e020     corelib1:COREDLL.dll
 0002:00000024       __imp_floor                1011e024     corelib1:COREDLL.dll
 0002:00000028       __imp_sprintf              1011e028     corelib1:COREDLL.dll
 0002:0000002c       __imp_strncpy              1011e02c     corelib1:COREDLL.dll
 0002:00000030       __imp_strlen               1011e030     corelib1:COREDLL.dll
 0002:00000034       __imp_strcmp               1011e034     corelib1:COREDLL.dll
 0002:00000038       __imp_fclose               1011e038     corelib1:COREDLL.dll
 0002:0000003c       __imp_fopen                1011e03c     corelib1:COREDLL.dll
 0002:00000040       __imp___rt_udiv            1011e040     corelib1:COREDLL.dll
 0002:00000044       __imp_memcpy               1011e044     corelib1:COREDLL.dll
 0002:00000048       __imp_memset               1011e048     corelib1:COREDLL.dll
 0002:0000004c       __imp_TerminateProcess     1011e04c     coredll:COREDLL.dll
 0002:00000050       __imp_OutputDebugStringW   1011e050     coredll:COREDLL.dll
 0002:00000054       __imp_TlsSetValue          1011e054     coredll:COREDLL.dll
 0002:00000058       __imp_TlsCall              1011e058     coredll:COREDLL.dll
 0002:0000005c       __imp_TlsGetValue          1011e05c     coredll:COREDLL.dll
 0002:00000060       __imp___GetUserKData       1011e060     coredll:COREDLL.dll
 0002:00000064       __imp_printf               1011e064     corelib1:COREDLL.dll
 0002:00000068       __imp__XcptFilter          1011e068     corelib1:COREDLL.dll
 0002:0000006c       __imp___C_specific_handler 1011e06c     corelib1:COREDLL.dll
 0002:00000070       __imp___security_gen_cookie2 1011e070     corelib1:COREDLL.dll
 0002:00000074       __imp___report_gsfailure   1011e074     corelib1:COREDLL.dll
 0002:00000078       __imp_free                 1011e078     corelib1:COREDLL.dll
 0002:0000007c       __imp_realloc              1011e07c     corelib1:COREDLL.dll
 0002:00000080       __imp_malloc               1011e080     corelib1:COREDLL.dll
 0002:00000084       __imp__msize               1011e084     corelib1:COREDLL.dll
 0002:00000088       __imp_atoi                 1011e088     corelib1:COREDLL.dll
 0002:0000008c       \177COREDLL_NULL_THUNK_DATA 1011e08c     coredll:COREDLL.dll
 0002:00000090       __imp_PVRSRVFreeUserModeMem 1011e090     srvclum:SRVCLUM.dll
 0002:00000094       __imp_PVRSRVFreeDeviceMem  1011e094     srvclum:SRVCLUM.dll
 0002:00000098       __imp_PVRSRVAllocDeviceMem 1011e098     srvclum:SRVCLUM.dll
 0002:0000009c       __imp_PVRSRVOpenBCDevice   1011e09c     srvclum:SRVCLUM.dll
 0002:000000a0       __imp_PVRSRVAllocUserModeMem 1011e0a0     srvclum:SRVCLUM.dll
 0002:000000a4       __imp_PVRSRVReallocUserModeMem 1011e0a4     srvclum:SRVCLUM.dll
 0002:000000a8       __imp_PVRSRVGetBCBufferInfo 1011e0a8     srvclum:SRVCLUM.dll
 0002:000000ac       __imp_PVRSRVDebugAssertFail 1011e0ac     srvclum:SRVCLUM.dll
 0002:000000b0       __imp_PVRSRVGetBCBuffer    1011e0b0     srvclum:SRVCLUM.dll
 0002:000000b4       __imp_PVRSRVMapDeviceClassMemory 1011e0b4     srvclum:SRVCLUM.dll
 0002:000000b8       __imp_PVRSRVEnumerateDeviceClass 1011e0b8     srvclum:SRVCLUM.dll
 0002:000000bc       __imp_PVRSRVUnmapDeviceClassMemory 1011e0bc     srvclum:SRVCLUM.dll
 0002:000000c0       __imp_PVRSRVCloseBCDevice  1011e0c0     srvclum:SRVCLUM.dll
 0002:000000c4       __imp_PVRSRVUnloadLibrary  1011e0c4     srvclum:SRVCLUM.dll
 0002:000000c8       __imp_PVRSRVLoadLibrary    1011e0c8     srvclum:SRVCLUM.dll
 0002:000000cc       __imp_PVRSRVGetLibFuncAddr 1011e0cc     srvclum:SRVCLUM.dll
 0002:000000d0       __imp_SGXKickTA            1011e0d0     srvclum:SRVCLUM.dll
 0002:000000d4       __imp_PVRSRVEventObjectWait 1011e0d4     srvclum:SRVCLUM.dll
 0002:000000d8       __imp_PVRSRVClientEvent    1011e0d8     srvclum:SRVCLUM.dll
 0002:000000dc       __imp_PVRSRVInitProfileOutput 1011e0dc     srvclum:SRVCLUM.dll
 0002:000000e0       __imp_PVRSRVProfileOutput  1011e0e0     srvclum:SRVCLUM.dll
 0002:000000e4       __imp_PVRSRVDeInitProfileOutput 1011e0e4     srvclum:SRVCLUM.dll
 0002:000000e8       __imp_PVRSRVCreateAppHintState 1011e0e8     srvclum:SRVCLUM.dll
 0002:000000ec       __imp_PVRSRVGetAppHint     1011e0ec     srvclum:SRVCLUM.dll
 0002:000000f0       __imp_PVRSRVFreeAppHintState 1011e0f0     srvclum:SRVCLUM.dll
 0002:000000f4       __imp_PVRSRVTrace          1011e0f4     srvclum:SRVCLUM.dll
 0002:000000f8       __imp_PVRSRVMetricsGetCPUFreq 1011e0f8     srvclum:SRVCLUM.dll
 0002:000000fc       __imp_SGXQueueTransfer     1011e0fc     srvclum:SRVCLUM.dll
 0002:00000100       __imp_PVRSRVPollForValue   1011e100     srvclum:SRVCLUM.dll
 0002:00000104       __imp_PVRSRVCreateMutex    1011e104     srvclum:SRVCLUM.dll
 0002:00000108       __imp_PVRSRVDestroyMutex   1011e108     srvclum:SRVCLUM.dll
 0002:0000010c       __imp_PVRSRVMemSet         1011e10c     srvclum:SRVCLUM.dll
 0002:00000110       __imp_PVRSRVLockMutex      1011e110     srvclum:SRVCLUM.dll
 0002:00000114       __imp_PVRSRVUnlockMutex    1011e114     srvclum:SRVCLUM.dll
 0002:00000118       __imp_PVRSRVMemCopy        1011e118     srvclum:SRVCLUM.dll
 0002:0000011c       __imp_PVRSRVMetricsTimeNow 1011e11c     srvclum:SRVCLUM.dll
 0002:00000120       __imp_PVRSRVCallocUserModeMemTracking 1011e120     srvclum:SRVCLUM.dll
 0002:00000124       __imp_PVRSRVReallocUserModeMemTracking 1011e124     srvclum:SRVCLUM.dll
 0002:00000128       __imp_PVRSRVAllocUserModeMemTracking 1011e128     srvclum:SRVCLUM.dll
 0002:0000012c       __imp_PVRSRVFreeUserModeMemTracking 1011e12c     srvclum:SRVCLUM.dll
 0002:00000130       __imp_PVRSRVDebugPrintf    1011e130     srvclum:SRVCLUM.dll
 0002:00000134       __imp_PVRSRVCallocUserModeMem 1011e134     srvclum:SRVCLUM.dll
 0002:00000138       \177SRVCLUM_NULL_THUNK_DATA 1011e138     srvclum:SRVCLUM.dll
 0002:0000013c       __imp_KEGLGetImageSource   1011e13c     libimgegl:libIMGEGL.dll
 0002:00000140       __imp_KEGLBindImage        1011e140     libimgegl:libIMGEGL.dll
 0002:00000144       __imp_KEGLResizeRenderSurface 1011e144     libimgegl:libIMGEGL.dll
 0002:00000148       __imp_KEGLCreateRenderSurface 1011e148     libimgegl:libIMGEGL.dll
 0002:0000014c       __imp_KEGLUnbindImage      1011e14c     libimgegl:libIMGEGL.dll
 0002:00000150       __imp_KEGLDestroyRenderSurface 1011e150     libimgegl:libIMGEGL.dll
 0002:00000154       __imp_KEGLGetDrawableParameters 1011e154     libimgegl:libIMGEGL.dll
 0002:00000158       __imp_KEGLFreeDeviceMemTrack 1011e158     libimgegl:libIMGEGL.dll
 0002:0000015c       __imp_KEGLAllocDeviceMemTrack 1011e15c     libimgegl:libIMGEGL.dll
 0002:00000160       \177libIMGEGL_NULL_THUNK_DATA 1011e160     libimgegl:libIMGEGL.dll
 0002:00000168       __security_cookie          1011e168     corelib0:seccinit.obj
 0002:0000016c       __security_cookie_complement 1011e16c     corelib0:seccinit.obj
 0002:00000170       ui32TextureMemCurrent      1011e170     texmgmt.obj
 0002:00000174       ui32TextureMemHWM          1011e174     texmgmt.obj
 0002:0000017c       _exitflag                  1011e17c     corelib0:cexit.obj
 0002:00000180       __onexitend                1011e180     <common>
 0002:00000184       __onexitbegin              1011e184     <common>
 0002:00000188       _pRawDllMain               1011e188     <common>

 entry point at        0001:0011ac78

 Static symbols

 0001:000224ec       SetupVerticesAndShaderForAccum 100234ec f   accum.obj
 0001:00022a90       SetupVerticesForAccum      10023a90 f   accum.obj
 0001:00023914       SGXBS_TestBinaryShaderInterface 10024914 f   binshader.obj
 0001:00023988       SGXBS_FreeAllocatedMemory  10024988 f   binshader.obj
 0001:000239f8       UnpackBinary               100249f8 f   binshader.obj
 0001:00023b70       SGXBS_ComputeHash          10024b70 f   binshader.obj
 0001:00023e28       ReadU32                    10024e28 f   binshader.obj
 0001:00023f70       UnpackRevision             10024f70 f   binshader.obj
 0001:00024290       GetCoreAndRevisionNumber   10025290 f   binshader.obj
 0001:000242c0       SGXBS_ValidateHWRevision   100252c0 f   binshader.obj
 0001:00024aec       ReadU16                    10025aec f   binshader.obj
 0001:00024be8       UnpackSharedShaderState    10025be8 f   binshader.obj
 0001:00024f80       SGXBS_Calloc               10025f80 f   binshader.obj
 0001:0002515c       ReadU8                     1002615c f   binshader.obj
 0001:0002522c       ReadFloat                  1002622c f   binshader.obj
 0001:0002537c       ReadArrayHeader            1002637c f   binshader.obj
 0001:000253ac       UnpackSymbolBindings       100263ac f   binshader.obj
 0001:00025638       ReadString                 10026638 f   binshader.obj
 0001:000257ac       UnpackUniPatchInput        100267ac f   binshader.obj
 0001:00025b38       UnpackProgramBinary        10026b38 f   binshader.obj
 0001:00025f9c       UnpackUserBindings         10026f9c f   binshader.obj
 0001:00026284       DisposeBufObject           10027284 f   bufobj.obj
 0001:000262b4       FreeBufferObject           100272b4 f   bufobj.obj
 0001:000263d8       WaitUntilBufObjNotUsed     100273d8 f   bufobj.obj
 0001:00027018       CreateBufferObject         10028018 f   bufobj.obj
 0001:0002b07c       SetupVerticesAndShaderForClear 1002c07c f   clear.obj
 0001:0002b61c       SetupVerticesForClear      1002c61c f   clear.obj
 0001:0002bc2c       GetClearSize               1002cc2c f   clear.obj
 0001:0002be74       SetupFragmentShaderForClear 1002ce74 f   clear.obj
 0001:0002d840       WriteDirect16Indices       1002e840 f   drawvarray.obj
 0001:0002ddac       WriteLineStripOrLoop16Indices 1002edac f   drawvarray.obj
 0001:0002e3a8       WriteDirect32Indices       1002f3a8 f   drawvarray.obj
 0001:0002e900       WriteLineStripOrLoop32Indices 1002f900 f   drawvarray.obj
 0001:00032828       GetNumIndices              10033828 f   drawvarray.obj
 0001:000329d0       PickDrawArraysProc         100339d0 f   drawvarray.obj
 0001:00032c78       CreateSequentialStaticIndices 10033c78 f   drawvarray.obj
 0001:00032e3c       DrawVertexArray            10033e3c f   drawvarray.obj
 0001:00033050       CopyVArrayData             10034050 f   drawvarray.obj
 0001:00033538       SetupStreamPointers        10034538 f   drawvarray.obj
 0001:0003380c       GetVertexIndexBufferSpace  1003480c f   drawvarray.obj
 0001:00033af8       CreateLineStripStaticIndices 10034af8 f   drawvarray.obj
 0001:00033cf8       DrawArraysBatchedStaticIndices 10034cf8 f   drawvarray.obj
 0001:00033e80       GetVArrayBatchRewindCount  10034e80 f   drawvarray.obj
 0001:00033f9c       DrawArraysAutoIndices      10034f9c f   drawvarray.obj
 0001:000344d8       DrawBatchOnVBuffer         100354d8 f   drawvarray.obj
 0001:00035138       CopyVArrayDataDeindex      10036138 f   drawvarray.obj
 0001:0003576c       AttachAllUsedResourcesToCurrentSurface 1003676c f   drawvarray.obj
 0001:00035804       AttachUsedTexturesToCurrentSurface 10036804 f   drawvarray.obj
 0001:000359a0       AttachTextureDependency    100369a0 f   drawvarray.obj
 0001:00039558       DrawElementsIndexBO        1003a558 f   drawvarray.obj
 0001:000398a0       PickDrawElementsProc       1003a8a0 f   drawvarray.obj
 0001:00039ec4       DrawElementsDeindex        1003aec4 f   drawvarray.obj
 0001:00039fd0       DetermineMinAndMaxIndices  1003afd0 f   drawvarray.obj
 0001:0003a2f8       TransformIndicesTo16Bits   1003b2f8 f   drawvarray.obj
 0001:0003e738       PickMultiDrawArraysProc    1003f738 f   drawvarray.obj
 0001:0003e8dc       MultiDrawArraysAutoIndices 1003f8dc f   drawvarray.obj
 0001:0003ef48       MultiDrawBatchOnVBuffer    1003ff48 f   drawvarray.obj
 0001:0003fddc       MultiDrawVertexArray       10040ddc f   drawvarray.obj
 0001:00041d4c       MultiDrawElementsIndexBO   10042d4c f   drawvarray.obj
 0001:000420b4       PickMultiDrawElementsProc  100430b4 f   drawvarray.obj
 0001:000423bc       MultiDrawElementsDeindex   100433bc f   drawvarray.obj
 0001:00042728       GLES2CreateGC              10043728 f   eglglue.obj
 0001:0004285c       _GLES2CreateContext        1004385c f   eglglue.obj
 0001:00042890       _GLES2DestroyContext       10043890 f   eglglue.obj
 0001:000428a8       InitContext                100438a8 f   eglglue.obj
 0001:000438d4       FreeContextSharedState     100448d4 f   eglglue.obj
 0001:00043cfc       CreateSharedState          10044cfc f   eglglue.obj
 0001:0004447c       OpenShaderAnalysisFile     1004547c f   eglglue.obj
 0001:000444b0       DeInitContext              100454b0 f   eglglue.obj
 0001:00044768       GLES2DestroyGC             10045768 f   eglglue.obj
 0001:000447e8       GLES2MakeCurrentGC         100457e8 f   eglglue.obj
 0001:00044ae0       GLES2MakeUnCurrentGC       10045ae0 f   eglglue.obj
 0001:00044b98       GLES2FlushBuffersGC        10045b98 f   eglglue.obj
 0001:00044d74       GLES2MarkRenderSurfaceAsInvalid 10045d74 f   eglglue.obj
 0001:00044e24       GLES2InsertFenceSyncGC     10045e24 f   eglglue.obj
 0001:00044eb8       GLES2RemoveFenceSyncGC     10045eb8 f   eglglue.obj
 0001:00044f08       GLES2GetProcAddress        10045f08 f   eglglue.obj
 0001:00045a24       DisposeRenderBuffer        10046a24 f   fbo.obj
 0001:00045a88       FreeRenderBuffer           10046a88 f   fbo.obj
 0001:00045b90       DisposeFrameBufferObject   10046b90 f   fbo.obj
 0001:00045bf4       FreeFrameBuffer            10046bf4 f   fbo.obj
 0001:00046100       FrameBufferHasBeenModified 10047100 f   fbo.obj
 0001:00046824       ComputeFrameBufferCompleteness 10047824 f   fbo.obj
 0001:00048bf4       NotifyFrameBuffer          10049bf4 f   fbo.obj
 0001:00049b94       CreateRenderBufferObject   1004ab94 f   fbo.obj
 0001:0004a718       RenderbufferStorage        1004b718 f   fbo.obj
 0001:0004d5dc       CreateFrameBufferObject    1004e5dc f   fbo.obj
 0001:0004e9a4       FramebufferTexture2D       1004f9a4 f   fbo.obj
 0001:00051e10       DoGet                      10052e10 f   get.obj
 0001:00053ca4       IsEnabled                  10054ca4 f   get.obj
 0001:00053e84       GetBlendEquation           10054e84 f   get.obj
 0001:00053f00       GetBlendFactor             10054f00 f   get.obj
 0001:00054058       GetStencilOp               10055058 f   get.obj
 0001:00058048       GetTexParameter            10059048 f   get.obj
 0001:0005e230       MakeMapLevel8bpp           1005f230 f   makemips.obj
 0001:0005e554       MakeMapLevel16bpp          1005f554 f   makemips.obj
 0001:0005ec90       MakeMapLevel32bpp          1005fc90 f   makemips.obj
 0001:0005f240       HardwareMakeTextureMipmapLevels 10060240 f   makemips.obj
 0001:0005ff04       HardwareMipGen             10060f04 f   makemips.obj
 0001:00060324       SetupMipmapTextureControlWords 10061324 f   makemips.obj
 0001:00060a34       StartUpMemSpeedTest        10061a34 f   metrics.obj
 0001:00064c88       FloatToHWByte              10065c88 f   misc.obj
 0001:000654c4       GetExternalExtensionString 100664c4 f   misc.obj
 0001:00067fd4       LOCK_NAMES_ARRAY           10068fd4 f   names.obj
 0001:00068008       UNLOCK_NAMES_ARRAY         10069008 f   names.obj
 0001:0006803c       LookupItemByName           1006903c f   names.obj
 0001:00069338       RemoveItemFromList         1006a338 f   names.obj
 0001:0006a840       ClipReadPixels             1006b840 f   pixelop.obj
 0001:0006aabc       ElementsPerGroup           1006babc f   pixelop.obj
 0001:0006abd0       BytesPerElement            1006bbd0 f   pixelop.obj
 0001:0006ac7c       BytesPerPixel              1006bc7c f   pixelop.obj
 0001:0006bd84       CheckReadPixelArgs         1006cd84 f   pixelop.obj
 0001:0006c83c       DrawCallProfiling          1006d83c f   profile.obj
 0001:0006cdd4       DisplayStateMetricTable    1006ddd4 f   profile.obj
 0001:0006d0ec       PrintMetricStateRow        1006e0ec f   profile.obj
 0001:0006d244       DestroyStateMetricData     1006e244 f   profile.obj
 0001:0006d2bc       DisplayRedundantCallInfo   1006e2bc f   profile.obj
 0001:0006e34c       CalcRegionClip             1006f34c f   scissor.obj
 0001:0006e53c       SetupVerticesAndShaderForDrawmask 1006f53c f   scissor.obj
 0001:0006eae4       SetupVerticesForDrawmask   1006fae4 f   scissor.obj
 0001:00070fe8       StartFrame                 10071fe8 f   sgxif.obj
 0001:00071460       GLES2InitRegs              10072460 f   sgxif.obj
 0001:00071660       SetupZLSRegs               10072660 f   sgxif.obj
 0001:00071bc4       WaitForRender              10072bc4 f   sgxif.obj
 0001:00072034       ValidateMemory             10073034 f   sgxif.obj
 0001:00072060       DoKickTA                   10073060 f   sgxif.obj
 0001:00075720       CreateProgram              10076720 f   shader.obj
 0001:00076584       CreateShader               10077584 f   shader.obj
 0001:00077364       LoadCompilerModule         10078364 f   shader.obj
 0001:00077518       SetPrecision               10078518 f   shader.obj
 0001:00077830       PrintShaders               10078830 f   shader.obj
 0001:00077920       UnloadCompilerModule       10078920 f   shader.obj
 0001:00077b38       FreeListOfVertexUSEVariants 10078b38 f   shader.obj
 0001:000781a0       ResetProgramLinkedState    100791a0 f   shader.obj
 0001:000783ac       SharedShaderStateDelRef    100793ac f   shader.obj
 0001:000785d8       FreeListOfFragmentUSEVariants 100795d8 f   shader.obj
 0001:000786b0       GhostUSEShaderVariant      100796b0 f   shader.obj
 0001:00078910       AppendMessageToProgramInfoLog 10079910 f   shader.obj
 0001:00078a18       LinkVertexFragmentPrograms 10079a18 f   shader.obj
 0001:0007a63c       SharedShaderStateAddRef    1007b63c f   shader.obj
 0001:0007a6bc       SetupOutputRemapping       1007b6bc f   shader.obj
 0001:0007a9d8       AssignAttributeLocations   1007b9d8 f   shader.obj
 0001:0007aec8       GetNumIndicesForAttribute  1007bec8 f   shader.obj
 0001:0007af3c       AssignUniformLocations     1007bf3c f   shader.obj
 0001:0007b030       AttributeCompileMask       1007c030 f   shader.obj
 0001:0007b1b8       SetupProgramOutputSelects  1007c1b8 f   shader.obj
 0001:0007b444       CountAttribUniformVaryings 1007c444 f   shader.obj
 0001:0007b5f4       AddNewUniforms             1007c5f4 f   shader.obj
 0001:0007bc88       AddFragmentProgramUniforms 1007cc88 f   shader.obj
 0001:0007c168       SetupDirtyProgramValidationFlags 1007d168 f   shader.obj
 0001:0007c464       UseProgram                 1007d464 f   shader.obj
 0001:0007d854       CreateSharedShaderState    1007e854 f   shader.obj
 0001:0007dc3c       CopySymbolBindings         1007ec3c f   shader.obj
 0001:0007fd04       DisposeProgram             10080d04 f   shader.obj
 0001:0007fdbc       FreeShader                 10080dbc f   shader.obj
 0001:0007fe08       FreeProgram                10080e08 f   shader.obj
 0001:0007ff9c       ShaderScratchMemDelRef     10080f9c f   shader.obj
 0001:0008007c       ShaderIndexableTempsMemDelRef 1008107c f   shader.obj
 0001:0008015c       DetachAllShaders           1008115c f   shader.obj
 0001:00080564       UniPatchMalloc             10081564 f   shader.obj
 0001:000805a0       UniPatchFree               100815a0 f   shader.obj
 0001:000805b8       UniPatchDebugPrint         100815b8 f   shader.obj
 0001:000841e8       BlendFuncSeparate          100851e8 f   state.obj
 0001:00088368       StencilFunc                10089368 f   state.obj
 0001:00088bdc       StencilMask                10089bdc f   state.obj
 0001:00089298       StencilOp                  1008a298 f   state.obj
 0001:0008d0ac       TexParameterfv             1008e0ac f   tex.obj
 0001:000910a8       CopyTexture16BitIntTo32BitFloat 100920a8 f   tex.obj
 0001:000911a8       CopyTexture32BitIntTo32BitFloat 100921a8 f   tex.obj
 0001:000912a8       CopyTexture24_8DepthStencilTo32BitFloat8BitInt 100922a8 f   tex.obj
 0001:0009141c       CheckTexImageArgs          1009241c f   tex.obj
 0001:00091588       IsLegalRangeTex            10092588 f   tex.obj
 0001:00093c5c       CheckTexSubImageArgs       10094c5c f   tex.obj
 0001:00094068       UpdateEGLImage             10095068 f   tex.obj
 0001:00094f0c       CopyTexturePVRTC           10095f0c f   tex.obj
 0001:000950e8       CopyTextureETC1            100960e8 f   tex.obj
 0001:0009f01c       ReadBackMultiChunkData     100a001c f   texdata.obj
 0001:0009f5a8       PrepareHWTQTextureBufferBlit 100a05a8 f   texdata.obj
 0001:0009f7a0       HWTQTextureBufferBlit      100a07a0 f   texdata.obj
 0001:000a17d4       IsTextureConsistentWithMipMaps 100a27d4 f   texmgmt.obj
 0001:000a3da4       ReclaimTextureMemKRM       100a4da4 f   texmgmt.obj
 0001:000a4004       DestroyTextureGhostKRM     100a5004 f   texmgmt.obj
 0001:000a4108       TexStreamUnbindBufferDevice 100a5108 f   texmgmt.obj
 0001:000a434c       CreateDummyTextures        100a534c f   texmgmt.obj
 0001:000a4714       InitTextureState           100a5714 f   texmgmt.obj
 0001:000a47dc       DisposeTexObj              100a57dc f   texmgmt.obj
 0001:000a4840       FreeTexture                100a5840 f   texmgmt.obj
 0001:000a4c20       DestroyDummyTextures       100a5c20 f   texmgmt.obj
 0001:000a5a64       SetupEGLImageArbitraryStride 100a6a64 f   texmgmt.obj
 0001:000a5c7c       SetupExternalTextureState  100a6c7c f   texmgmt.obj
 0001:000a65c4       GetConstantDataPtr         100a75c4 f   uniform.obj
 0001:000a831c       SaveUniformDataInteger     100a931c f   uniform.obj
 0001:000a8ba8       UpdateConstantRange        100a9ba8 f   uniform.obj
 0001:000a99d0       SaveUniformDataFloat       100aa9d0 f   uniform.obj
 0001:000ad3f0       IsBlendNone                100ae3f0 f   use.obj
 0001:000ad45c       IsBlendTranslucent         100ae45c f   use.obj
 0001:000ad4e4       ReplaceDestinationAlpha    100ae4e4 f   use.obj
 0001:000ad7ac       EncodeTwoSourceBlend       100ae7ac f   use.obj
 0001:000adac4       EncodeThreeSourceBlend     100aeac4 f   use.obj
 0001:000ae330       InitPixelEventUSECodeBlocks 100af330 f   use.obj
 0001:000ae640       InitStateCopyUSECodeBlocks 100af640 f   use.obj
 0001:000ae96c       FreePixelEventUSECodeBlocks 100af96c f   use.obj
 0001:000ae9a0       FreeStateCopyUSECodeBlocks 100af9a0 f   use.obj
 0001:000af0a0       CreateVertexUnpackUSECode  100b00a0 f   use.obj
 0001:000b06d4       SetupUSESecondaryUploadTask 100b16d4 f   use.obj
 0001:000b2eb0       SetupIteratorsAndTextureLookups 100b3eb0 f   use.obj
 0001:000b61b4       SetupPBEStateEmit          100b71b4 f   validate.obj
 0001:000b85f4       SetupVAOAttribPointers     100b95f4 f   validate.obj
 0001:000b871c       SetupVAOAttribStreams      100b971c f   validate.obj
 0001:000b8c84       OptimiseVaryingPrecision   100b9c84 f   validate.obj
 0001:000b8f58       SetupRenderState           100b9f58 f   validate.obj
 0001:000bc380       WritePDSPixelShaderProgram 100bd380 f   validate.obj
 0001:000bd734       WritePDSVertexShaderProgramWithVAO 100be734 f   validate.obj
 0001:000bfa74       WritePDSUSEShaderSAProgram 100c0a74 f   validate.obj
 0001:000c0538       ReserveScratchMemory       100c1538 f   validate.obj
 0001:000c0738       ReserveMemoryForIndexableTemps 100c1738 f   validate.obj
 0001:000c0938       LoadSecondaryAttributes    100c1938 f   validate.obj
 0001:000c1700       WriteMTEState              100c2700 f   validate.obj
 0001:000c1f5c       WriteVDMControlStream      100c2f5c f   validate.obj
 0001:000c23d4       Copy1Byte                  100c33d4 f   vertex.obj
 0001:000c2444       Copy3Bytes                 100c3444 f   vertex.obj
 0001:000c24e4       Copy1Short                 100c34e4 f   vertex.obj
 0001:000c2564       Copy3Shorts                100c3564 f   vertex.obj
 0001:000c2614       Copy1Long                  100c3614 f   vertex.obj
 0001:000c2694       Copy2Longs                 100c3694 f   vertex.obj
 0001:000c272c       Copy3Longs                 100c372c f   vertex.obj
 0001:000c27dc       Copy4Longs                 100c37dc f   vertex.obj
 0001:000c28a4       MemCopy1Byte               100c38a4 f   vertex.obj
 0001:000c28cc       MemCopy3Bytes              100c38cc f   vertex.obj
 0001:000c28fc       MemCopy1Short              100c38fc f   vertex.obj
 0001:000c292c       MemCopy3Shorts             100c392c f   vertex.obj
 0001:000c295c       MemCopy1Long               100c395c f   vertex.obj
 0001:000c298c       MemCopy2Longs              100c398c f   vertex.obj
 0001:000c29bc       MemCopy3Longs              100c39bc f   vertex.obj
 0001:000c29ec       MemCopy4Longs              100c39ec f   vertex.obj
 0001:000c9484       FindBufferDevice           100ca484 f   texstream.obj
 0001:000c9530       AddBufferDevice            100ca530 f   texstream.obj
 0001:000c9d2c       CreateTextureStreamState   100cad2c f   texstream.obj
 0001:000ca37c       SetTextureFormat           100cb37c f   texstream.obj
 0001:000cab48       SetupYUVCoefficients       100cbb48 f   texyuv.obj
 0001:000cbd80       FreeVertexArrayObjectInternalPointers 100ccd80 f   vertexarrobj.obj
 0001:000cbfdc       WaitUntilVAONotUsed        100ccfdc f   vertexarrobj.obj
 0001:000cc104       DisposeVertexArrayObject   100cd104 f   vertexarrobj.obj
 0001:000cc134       FreeVertexArrayObject      100cd134 f   vertexarrobj.obj
 0001:000cc8cc       CreateVertexArrayObject    100cd8cc f   vertexarrobj.obj
 0001:000cf410       PDSEncodeSimpleMOVS        100d0410 f   pds.obj
 0001:000d2f8c       PDSGetNextConstant         100d3f8c f   pds.obj
 0001:000d30cc       PDSGetTemps                100d40cc f   pds.obj
 0001:000d3158       PDSGetConstants            100d4158 f   pds.obj
 0001:000d31e4       PDSGetDS0ConstantOffset    100d41e4 f   pds.obj
 0001:000d3254       PDSGetDS1ConstantOffset    100d4254 f   pds.obj
 0001:000d32c8       PDSSetDS0Constant          100d42c8 f   pds.obj
 0001:000d3310       PDSSetDS1Constant          100d4310 f   pds.obj
 0001:000d3358       PDSGetNumConstants         100d4358 f   pds.obj
 0001:000d444c       FloorLog2                  100d544c f   pixeventpbesetup.obj
 0001:000d4824       ReplaceArguments           100d5824 f   combiner.obj
 0001:000d4d38       ReplaceArgument            100d5d38 f   combiner.obj
 0001:000d4fac       GetDestination             100d5fac f   combiner.obj
 0001:000d505c       GetSource                  100d605c f   combiner.obj
 0001:000d5170       CombineSOPs                100d6170 f   combiner.obj
 0001:000d5788       CheckForIntegerMultiply    100d6788 f   combiner.obj
 0001:000d5aa4       CheckForIntegerAdd         100d6aa4 f   combiner.obj
 0001:000d5cb8       CheckForMove               100d6cb8 f   combiner.obj
 0001:000d7410       CodeHeapIsSane             100d8410 f   codeheap.obj
 0001:000d7568       CodeHeapInsertBlockInFreeList 100d8568 f   codeheap.obj
 0001:000d82cc       FindFreeBlock              100d92cc f   codeheap.obj
 0001:000d8b84       CheckPDSBufferSpace        100d9b84 f   buffers.obj
 0001:000d8d20       GetBufferSpaceLeftInBytes  100d9d20 f   buffers.obj
 0001:000d8e20       CheckUSSEBufferSpace       100d9e20 f   buffers.obj
 0001:000d8fe0       ExtraSizeForAlignment      100d9fe0 f   buffers.obj
 0001:000d9054       CheckVIBufferSpace         100da054 f   buffers.obj
 0001:000d9174       GetTotalBufferSpaceLeftInBytes 100da174 f   buffers.obj
 0001:000d91f8       CheckTACtrlBufferSpace     100da1f8 f   buffers.obj
 0001:000d9f00       InitLookupTable32          100daf00 f   twiddle.obj
 0001:000da220       TwiddleSmallTexture16bpp   100db220 f   twiddle.obj
 0001:000da670       Write8x8Pixels16bpp        100db670 f   twiddle.obj
 0001:000db0b4       RecursiveTwid16bpp         100dc0b4 f   twiddle.obj
 0001:000db21c       Twiddle32x3216bpp          100dc21c f   twiddle.obj
 0001:000db828       TwiddleRectangularTexture16bpp 100dc828 f   twiddle.obj
 0001:000dbed8       GetRectangularOffset       100dced8 f   twiddle.obj
 0001:000dc1f0       Untwiddle16Bpp             100dd1f0 f   twiddle.obj
 0001:000dc42c       TwiddleSmallTexture32bpp   100dd42c f   twiddle.obj
 0001:000dc8a4       Write8x8Pixels32bpp        100dd8a4 f   twiddle.obj
 0001:000dd3e8       RecursiveTwid32bpp         100de3e8 f   twiddle.obj
 0001:000dd550       Twiddle32x3232bpp          100de550 f   twiddle.obj
 0001:000ddb88       TwiddleRectangularTexture32bpp 100deb88 f   twiddle.obj
 0001:000de4d8       Untwiddle32bpp             100df4d8 f   twiddle.obj
 0001:000de728       getTwiddledAddress         100df728 f   twiddle.obj
 0001:000debe0       getUV                      100dfbe0 f   twiddle.obj
 0001:000df794       KRM_ENTER_CRITICAL_SECTION 100e0794 f   kickresource.obj
 0001:000df7c8       KRM_EXIT_CRITICAL_SECTION  100e07c8 f   kickresource.obj
 0001:000df7fc       AllocAttachment            100e07fc f   kickresource.obj
 0001:000dfabc       IsResourceInUse            100e0abc f   kickresource.obj
 0001:000dfce4       IsKickFinished             100e0ce4 f   kickresource.obj
 0001:000dfe9c       IsResourceNeeded           100e0e9c f   kickresource.obj
 0001:000e004c       WaitUntilResourceIsNotNeeded 100e104c f   kickresource.obj
 0001:000e013c       IsResourceKicked           100e113c f   kickresource.obj
 0001:000e0524       ReclaimUnneededResourcesInList 100e1524 f   kickresource.obj
 0001:000e070c       RemoveResourceFromAllLists 100e170c f   kickresource.obj
 0001:000e08d0       FreeAttachment             100e18d0 f   kickresource.obj
 0001:000e0b08       RemoveAttachmentPointReferencesInList 100e1b08 f   kickresource.obj
 0001:000e1588       GetMaxInstancesInAttributes 100e2588 f   dmscalc.obj
 0001:000e20d4       ReadUINT32Straight         100e30d4 f   usp:uspshader.obj
 0001:000e2168       ReadUINT32Swapped          100e3168 f   usp:uspshader.obj
 0001:000e21fc       ReadUINT16Straight         100e31fc f   usp:uspshader.obj
 0001:000e2260       ReadUINT16Swapped          100e3260 f   usp:uspshader.obj
 0001:000e22c4       WriteUINT32Straight        100e32c4 f   usp:uspshader.obj
 0001:000e2358       WriteUINT16Straight        100e3358 f   usp:uspshader.obj
 0001:000e23bc       WriteAddSizeUINT32         100e33bc f   usp:uspshader.obj
 0001:000e23e0       WriteAddSizeUINT16         100e33e0 f   usp:uspshader.obj
 0001:000e26b4       USPProgDescDestroy         100e36b4 f   usp:uspshader.obj
 0001:000e2828       USPBranchDestroy           100e3828 f   usp:uspshader.obj
 0001:000e284c       USPLabelDestroy            100e384c f   usp:uspshader.obj
 0001:000e2870       USPTexSampDestroy          100e3870 f   usp:uspshader.obj
 0001:000e2c14       WritePCBlockHdr            100e3c14 f   usp:uspshader.obj
 0001:000e2ca0       WritePCProgDescBlock       100e3ca0 f   usp:uspshader.obj
 0001:000e3f94       WriteUSPBlocks             100e4f94 f   usp:uspshader.obj
 0001:000e45f8       WriteUSPSampleBlock        100e55f8 f   usp:uspshader.obj
 0001:000e4c34       WriteUSPMOEState           100e5c34 f   usp:uspshader.obj
 0001:000e4df0       InitPCInstDescFlags        100e5df0 f   usp:uspshader.obj
 0001:000e4eac       WriteUSPSampleUnpackBlock  100e5eac f   usp:uspshader.obj
 0001:000e5540       WriteUSPHWCodeBlock        100e6540 f   usp:uspshader.obj
 0001:000e56f4       WriteUSPBranchBlock        100e66f4 f   usp:uspshader.obj
 0001:000e5e88       USPShaderAddInstBlock      100e6e88 f   usp:uspshader.obj
 0001:000e6068       ReadPCBlockHdr             100e7068 f   usp:uspshader.obj
 0001:000e6100       ReadPCHWCodeBlock          100e7100 f   usp:uspshader.obj
 0001:000e65d8       USPShaderAddPCInstBlock    100e75d8 f   usp:uspshader.obj
 0001:000e6780       InitUSPInstDescFlags       100e7780 f   usp:uspshader.obj
 0001:000e683c       ReadPCMOEState             100e783c f   usp:uspshader.obj
 0001:000e6914       DecodePCMOEState           100e7914 f   usp:uspshader.obj
 0001:000e6ac8       ReadPCProgDescBlock        100e7ac8 f   usp:uspshader.obj
 0001:000e7e60       USPProgDescCreate          100e8e60 f   usp:uspshader.obj
 0001:000e8374       ReadPCSampleBlock          100e9374 f   usp:uspshader.obj
 0001:000e8db0       USPShaderAddSample         100e9db0 f   usp:uspshader.obj
 0001:000e8eac       AddNewTextureFormat        100e9eac f   usp:uspshader.obj
 0001:000e9150       ReadPCSampleUnpackBlock    100ea150 f   usp:uspshader.obj
 0001:000e9ac0       USPShaderAddSampleUnpack   100eaac0 f   usp:uspshader.obj
 0001:000e9b70       ReadPCBranchBlock          100eab70 f   usp:uspshader.obj
 0001:000e9cf0       USPBranchCreate            100eacf0 f   usp:uspshader.obj
 0001:000e9e48       USPShaderAddBranch         100eae48 f   usp:uspshader.obj
 0001:000e9f9c       ReadPCLabelBlock           100eaf9c f   usp:uspshader.obj
 0001:000ea0a0       USPLabelCreate             100eb0a0 f   usp:uspshader.obj
 0001:000ea12c       USPShaderAddLabel          100eb12c f   usp:uspshader.obj
 0001:000ea3c8       SetupInputData             100eb3c8 f   usp:uspshader.obj
 0001:000eabac       FindSmpUnpack              100ebbac f   usp:finalise.obj
 0001:000ee508       SetTextureControlWords     100ef508 f   usp:finalise.obj
 0001:000eef54       USPInstDescSetup           100eff54 f   usp:usp_instblock.obj
 0001:000ef144       USPInstBlockInserInst      100f0144 f   usp:usp_instblock.obj
 0001:000ef8fc       USPInstBlockSetupNoSchedFlag 100f08fc f   usp:usp_instblock.obj
 0001:000f0314       USPInstBlockSetupSyncStartFlag 100f1314 f   usp:usp_instblock.obj
 0001:000f05d4       USPInstBlockApplyBRNFixes  100f15d4 f   usp:usp_instblock.obj
 0001:000f1798       GetTexChanInfo             100f2798 f   usp:usp_sample.obj
 0001:000f22e8       CalcTexChanBitCountAndFmt  100f32e8 f   usp:usp_sample.obj
 0001:000f23b0       IsChanSwizzleRequired      100f33b0 f   usp:usp_sample.obj
 0001:000f2904       SampleTextureData          100f3904 f   usp:usp_sample.obj
 0001:000f3680       SaveInternalRegs           100f4680 f   usp:usp_sample.obj
 0001:000f3ca8       ReStoreInternalRegs        100f4ca8 f   usp:usp_sample.obj
 0001:000f40e4       UpdateSampleDestCahnnels   100f50e4 f   usp:usp_sample.obj
 0001:000f41d4       ColourSpaceConvertTextureData 100f51d4 f   usp:usp_sample.obj
 0001:000f4c40       FindPreSampledTextureData  100f5c40 f   usp:usp_sample.obj
 0001:000f529c       SetupChunkRegsForUnpackPhase 100f629c f   usp:usp_sample.obj
 0001:000f5408       SetupChanSrcRegs           100f6408 f   usp:usp_sample.obj
 0001:000f5f78       CalcSrcRegForTexChan       100f6f78 f   usp:usp_sample.obj
 0001:000f60ec       UnpackTextureData          100f70ec f   usp:usp_sample.obj
 0001:000f62d0       UnpackTextureDataToF32     100f72d0 f   usp:usp_sample.obj
 0001:000f70c0       SampleInstReadsReg         100f80c0 f   usp:usp_sample.obj
 0001:000f7580       GetSampleChannelFormat     100f8580 f   usp:usp_sample.obj
 0001:000f7684       UnpackChunksFromTemp       100f8684 f   usp:usp_sample.obj
 0001:000f7e3c       UpdateSampleChunkFormat    100f8e3c f   usp:usp_sample.obj
 0001:000f7edc       IsSamplingIntegerTextureChunk 100f8edc f   usp:usp_sample.obj
 0001:000f7fdc       GetSampleDestinationFormat 100f8fdc f   usp:usp_sample.obj
 0001:000f8088       IsUsingAndForDF32Texture   100f9088 f   usp:usp_sample.obj
 0001:000f8164       UnpackTextureDataToU8C10   100f9164 f   usp:usp_sample.obj
 0001:000fa820       RemapInteger16Channel      100fb820 f   usp:usp_sample.obj
 0001:000fac30       UnpackTextureDataToF16     100fbc30 f   usp:usp_sample.obj
 0001:000fbee4       AddSampleCode              100fcee4 f   usp:usp_sample.obj
 0001:000fbfe8       ResetMOEStateBeforeSample  100fcfe8 f   usp:usp_sample.obj
 0001:000fc2b4       RestoreMOEStateAfterSample 100fd2b4 f   usp:usp_sample.obj
 0001:000fc8a0       AddSampleUnpackCode        100fd8a0 f   usp:usp_sample.obj
 0001:000fc9a4       ResetMOEStateBeforeSampleUnpack 100fd9a4 f   usp:usp_sample.obj
 0001:000fcc70       RestoreMOEStateAfterSampleUnpack 100fdc70 f   usp:usp_sample.obj
 0001:000fd6f0       GroupTexChunksSamplesByTexCoords 100fe6f0 f   usp:usp_sample.obj
 0001:000fdc7c       AddSampleToTexChunksSamplesGroup 100fec7c f   usp:usp_sample.obj
 0001:000fdecc       AddSampleToTexChunksSamples 100feecc f   usp:usp_sample.obj
 0001:000fdfbc       SetCostsOfTexChunksSampsGroups 100fefbc f   usp:usp_sample.obj
 0001:000fe130       AddCostOfIteratedData      100ff130 f   usp:usp_sample.obj
 0001:000fe1bc       FetchAllNonDepSmpsAsNonDep 100ff1bc f   usp:usp_sample.obj
 0001:000fe308       FetchAllTexChunkSmpsByItdCoordsOnly 100ff308 f   usp:usp_sample.obj
 0001:000fe494       DoSelectionsForMinimumPAUsage 100ff494 f   usp:usp_sample.obj
 0001:000fe81c       DoMaxPAAndEntriesUsage     100ff81c f   usp:usp_sample.obj
 0001:000ff080       AddReservedNonDepTexSampleChunks 10100080 f   usp:usp_sample.obj
 0001:000ff1cc       GetMaxPARegsAvailableForCommands 101001cc f   usp:usp_sample.obj
 0001:000ff2d4       FreeChunksDecisionData     101002d4 f   usp:usp_sample.obj
 0001:000ff608       AddSampleTextureControlWords 10100608 f   usp:usp_sample.obj
 0001:000ffafc       SetDefaultTextureControlWords 10100afc f   usp:usp_sample.obj
 0001:0010013c       GenerateUSPTextureFormatInfo 1010113c f   usp:usp_sample.obj
 0001:00101c40       RearrangeTextureSwizzle    10102c40 f   usp:usp_sample.obj
 0001:00101e30       SetTextureChanFlags        10102e30 f   usp:usp_sample.obj
 0001:00105728       HWInstGetOperandsUsedEFO   10106728 f   usp:hwinst.obj
 0001:00105ab4       HWInstGetOperandsUsedPCKUNPCK 10106ab4 f   usp:hwinst.obj
 0001:00105c9c       HWInstGetOperandsUsedTEST  10106c9c f   usp:hwinst.obj
 0001:00105ec8       HWInstGetOperandsUsedSOP2  10106ec8 f   usp:hwinst.obj
 0001:00106288       HWInstGetOperandsUsedSOPWM 10107288 f   usp:hwinst.obj
 0001:001064c8       HWInstGetOperandsUsedIMA8  101074c8 f   usp:hwinst.obj
 0001:001065cc       HWInstGetOperandsUsedADIF  101075cc f   usp:hwinst.obj
 0001:00106624       HWInstGetOperandsUsedDOT3  10107624 f   usp:hwinst.obj
 0001:00106784       HWInstGetOperandsUsedLD    10107784 f   usp:hwinst.obj
 0001:00107458       HWInstEncodeIndexedOperandNum 10108458 f   usp:hwinst.obj
 0001:00107b44       HWInstDecodeIndexedOperandNum 10108b44 f   usp:hwinst.obj
 0001:001080cc       HWInstEncodeSrcNumber      101090cc f   usp:hwinst.obj
 0001:0010a540       HWInstEncodePCKUNPCKInstNonVec 1010b540 f   usp:hwinst.obj
 0001:0010d0cc       DecodeLdSt                 1010e0cc f   useasm:usedisasm.obj
 0001:0010d584       DecodeSrc0                 1010e584 f   useasm:usedisasm.obj
 0001:0010d610       DecodeSrc0WithNum          1010e610 f   useasm:usedisasm.obj
 0001:0010d690       DecodeRegister             1010e690 f   useasm:usedisasm.obj
 0001:0010d968       DecodeIndex                1010e968 f   useasm:usedisasm.obj
 0001:0010dac8       AdjustRegisterNumberUnits  1010eac8 f   useasm:usedisasm.obj
 0001:0010daf0       DecodeSrc0Bank             1010eaf0 f   useasm:usedisasm.obj
 0001:0010dbdc       DecodeSrc12                1010ebdc f   useasm:usedisasm.obj
 0001:0010dcb4       DecodeSrc12WithNum         1010ecb4 f   useasm:usedisasm.obj
 0001:0010dd50       DecodeSrc12Bank            1010ed50 f   useasm:usedisasm.obj
 0001:0010df38       SetupDRCSource             1010ef38 f   useasm:usedisasm.obj
 0001:0010df84       DecodeLdStCacheFlags       1010ef84 f   useasm:usedisasm.obj
 0001:0010dfec       DecodeComplexOpInstruction 1010efec f   useasm:usedisasm.obj
 0001:0010e310       DecodeDest                 1010f310 f   useasm:usedisasm.obj
 0001:0010e394       DecodeDestWithNum          1010f394 f   useasm:usedisasm.obj
 0001:0010e454       DecodeDestBank             1010f454 f   useasm:usedisasm.obj
 0001:0010e5c0       DecodeRepeatCountMask      1010f5c0 f   useasm:usedisasm.obj
 0001:0010e660       DecodeFloatInstruction     1010f660 f   useasm:usedisasm.obj
 0001:0010ed84       DecodeMovcInstruction      1010fd84 f   useasm:usedisasm.obj
 0001:0010f1d4       DecodeEfoInstruction       101101d4 f   useasm:usedisasm.obj
 0001:0010f4e0       DecodeSmp                  101104e0 f   useasm:usedisasm.obj
 0001:0010f984       SetupIntSrcSel             10110984 f   useasm:usedisasm.obj
 0001:0010f9d0       DecodeFIRHInstruction      101109d0 f   useasm:usedisasm.obj
 0001:0010ffc0       SetupImmediateSource       10110fc0 f   useasm:usedisasm.obj
 0001:0011000c       SignExt                    1011100c f   useasm:usedisasm.obj
 0001:00110074       DecodePCKInstruction       10111074 f   useasm:usedisasm.obj
 0001:00110420       DecodeBitwiseInstruction   10111420 f   useasm:usedisasm.obj
 0001:0011080c       RotateLeft                 1011180c f   useasm:usedisasm.obj
 0001:00110854       DecodeTestInstruction      10111854 f   useasm:usedisasm.obj
 0001:00110e80       DecodeTestOpcode           10111e80 f   useasm:usedisasm.obj
 0001:00110ed4       DecodeRLPInstruction       10111ed4 f   useasm:usedisasm.obj
 0001:00111104       DecodeSOP2Instruction      10112104 f   useasm:usedisasm.obj
 0001:001116c4       DecodeSOPWMInstruction     101126c4 f   useasm:usedisasm.obj
 0001:00111b18       DecodeSOP3Instruction      10112b18 f   useasm:usedisasm.obj
 0001:001125a8       DecodeIMA8Instruction      101135a8 f   useasm:usedisasm.obj
 0001:00112aac       DecodeDOT34Instruction     10113aac f   useasm:usedisasm.obj
 0001:0011318c       DecodeIMAEInstruction      1011418c f   useasm:usedisasm.obj
 0001:00113694       DecodeIMA16Instruction     10114694 f   useasm:usedisasm.obj
 0001:00113b20       DecodeADIFFIRVBILINInstruction 10114b20 f   useasm:usedisasm.obj
 0001:00113c1c       DecodeFIRVInstruction      10114c1c f   useasm:usedisasm.obj
 0001:00113f28       DecodeStandardIntegerInstructionModifiers 10114f28 f   useasm:usedisasm.obj
 0001:00114058       DecodeSSUM16Instruction    10115058 f   useasm:usedisasm.obj
 0001:00114340       DecodeADIFInstruction      10115340 f   useasm:usedisasm.obj
 0001:00114508       DecodeBILINInstruction     10115508 f   useasm:usedisasm.obj
 0001:0011477c       DecodeSpecialInstruction   1011577c f   useasm:usedisasm.obj
 0001:001148ac       DecodeFlowControl          101158ac f   useasm:usedisasm.obj
 0001:00114efc       DecodeOther2               10115efc f   useasm:usedisasm.obj
 0001:00114f48       DecodeMoeControlInstruction 10115f48 f   useasm:usedisasm.obj
 0001:001157c8       SetupAddressModeSource     101167c8 f   useasm:usedisasm.obj
 0001:00115814       DecodeSpecialOtherInstruction 10116814 f   useasm:usedisasm.obj
 0001:001159a8       DecodeLDRSTRInstruction    101169a8 f   useasm:usedisasm.obj
 0001:00115c00       DecodeWOPInstruction       10116c00 f   useasm:usedisasm.obj
 0001:00115cb0       DecodeMutexInstruction     10116cb0 f   useasm:usedisasm.obj
 0001:00115dac       DecodeLIMMInstruction      10116dac f   useasm:usedisasm.obj
 0001:00115f48       DecodeEMITInstruction      10116f48 f   useasm:usedisasm.obj
 0001:0011638c       DecodeSETMInstruction      1011738c f   useasm:usedisasm.obj
 0001:00116490       DecodeWDFInstruction       10117490 f   useasm:usedisasm.obj
 0001:00116540       DecodeIDFInstruction       10117540 f   useasm:usedisasm.obj
 0001:00116610       DecodeVistestInstruction   10117610 f   useasm:usedisasm.obj
 0001:001166e0       DecodeATST8Instruction     101176e0 f   useasm:usedisasm.obj
 0001:001169d8       DecodeDEPTHFInstruction    101179d8 f   useasm:usedisasm.obj
 0001:00116c28       DecodePTCTRLInstruction    10117c28 f   useasm:usedisasm.obj
 0001:00117080       usedisasm_asprintf         10118080 f   useasm:usedisasm.obj
 0001:001170d0       PrintStandardInstruction   101180d0 f   useasm:usedisasm.obj
 0001:001172e8       PrintDestRegister          101182e8 f   useasm:usedisasm.obj
 0001:00117348       BasePrintRegister          10118348 f   useasm:usedisasm.obj
 0001:00117acc       PrintFlags                 10118acc f   useasm:usedisasm.obj
 0001:00117b60       PrintSwizzle               10118b60 f   useasm:usedisasm.obj
 0001:00117c38       PrintSourceRegister        10118c38 f   useasm:usedisasm.obj
 0001:00117dc0       PrintPredicate             10118dc0 f   useasm:usedisasm.obj
 0001:00117e0c       PrintInstructionFlags      10118e0c f   useasm:usedisasm.obj
 0001:00118154       PrintTest                  10119154 f   useasm:usedisasm.obj
 0001:001183d4       PrintWriteMask             101193d4 f   useasm:usedisasm.obj
 0001:00118460       IsDestinationMaskDefault   10119460 f   useasm:usedisasm.obj
 0001:001184e0       DisassembleLdSt            101194e0 f   useasm:usedisasm.obj
 0001:0011880c       DisassembleEfoInstruction  1011980c f   useasm:usedisasm.obj
 0001:00118b40       DisassembleEMITInstruction 10119b40 f   useasm:usedisasm.obj
 0001:00118d14       DisassembleIDFInstruction  10119d14 f   useasm:usedisasm.obj
 0001:0011acc8       _DllMainCRTStartupHelper   1011bcc8 f   corelib0:pegdmain.obj
 0001:0011b004       doexit                     1011c004 f   corelib0:cexit.obj
