 srvkm

 Timestamp is 4f20d456 (Wed Jan 25 23:19:34 2012)

 Preferred load address is 10000000

 Start         Length     Name                   Class
 0001:00000000 00000004H .CRT$XCA                CODE
 0001:00000004 00000004H .CRT$XCZ                CODE
 0001:00000008 00000004H .CRT$XIA                CODE
 0001:0000000c 00000004H .CRT$XIZ                CODE
 0001:00000010 00000004H .CRT$XPA                CODE
 0001:00000014 00000004H .CRT$XPZ                CODE
 0001:00000018 00000004H .CRT$XTA                CODE
 0001:0000001c 00000004H .CRT$XTZ                CODE
 0001:00000020 00011aa8H .rdata                  CODE
 0001:00011ac8 00000022H .rdata$debug            CODE
 0001:00011aec 00048e2cH .text                   CODE
 0001:0005a918 0000006cH .xdata                  CODE
 0001:0005a984 00000028H .idata$2                CODE
 0001:0005a9ac 00000014H .idata$3                CODE
 0001:0005a9c0 00000164H .idata$4                CODE
 0001:0005ab24 00000016H .idata$6                CODE
 0001:0005ab40 000000edH .edata                  CODE
 0002:00000000 00000164H .idata$5                DATA
 0002:00000168 00016324H .data                   DATA
 0002:000164a0 000023f0H .bss                    DATA
 0003:00000000 00001c70H .pdata                  DATA

  Address         Publics by Value              Rva+Base       Lib:Object

 0000:00000000       ___safe_se_handler_table   00000000     <absolute>
 0000:00000000       ___safe_se_handler_count   00000000     <absolute>
 0001:00000000       __xc_a                     10001000     corelib0:crt0init.obj
 0001:00000004       __xc_z                     10001004     corelib0:crt0init.obj
 0001:00000008       __xi_a                     10001008     corelib0:crt0init.obj
 0001:0000000c       __xi_z                     1000100c     corelib0:crt0init.obj
 0001:00000010       __xp_a                     10001010     corelib0:crt0init.obj
 0001:00000014       __xp_z                     10001014     corelib0:crt0init.obj
 0001:00000018       __xt_a                     10001018     corelib0:crt0init.obj
 0001:0000001c       __xt_z                     1000101c     corelib0:crt0init.obj
 0001:00000040       ??_C@_0FM@JNIPEECC@c?3?2data?2jatin?2powervr_build?2ddk1@ 10001040     pvr_kernel.obj
 0001:000000a0       ??_C@_0FP@DMKIMAEE@c?3?2data?2jatin?2powervr_build?2ddk1@ 100010a0     pvr_kernel.obj
 0001:00000100       ??_C@_1DI@CLBLOOMB@?$AAP?$AAV?$AAR?$AAS?$AAR?$AAV?$AA_?$AAB?$AAR?$AAI?$AAD?$AAG?$AAE?$AA_?$AAD?$AAI?$AAS?$AAP?$AAL?$AAA?$AAY?$AA_?$AAM?$AAU?$AAT?$AAE?$AAX?$AA?$AA@ 10001100     pvr_kernel.obj
 0001:00000138       ??_C@_0GB@MDIOOCJG@c?3?2data?2jatin?2powervr_build?2ddk1@ 10001138     pvr_bridge_k.obj
 0001:0000019c       ??_C@_0DN@KPIOPOPA@PVRSRV_BridgeDispatchKM?3?5Couldn?8@ 1000119c     pvr_bridge_k.obj
 0001:000001dc       ??_C@_0DJ@MALPCHLF@PVRSRV_BridgeDispatchKM?3?5invalid@ 100011dc     pvr_bridge_k.obj
 0001:00000218       ??_C@_1GC@BJFKPCMA@?$AAk?$AAe?$AAr?$AAn?$AAe?$AAl?$AA?5?$AAP?$AAV?$AAR?$AAS?$AAR?$AAV?$AA_?$AAI?$AAO?$AAC?$AAT?$AAL?$AA_?$AAP?$AAO?$AAW?$AAE?$AAR?$AA_?$AAS?$AAE?$AAT?$AA?5?$AAs?$AAe@ 10001218     pvr_bridge_k.obj
 0001:0000027c       ??_C@_1BO@BALEBABC@?$AAI?$AAM?$AAG?$AA_?$AAP?$AAO?$AAW?$AAE?$AAR?$AA_?$AAL?$AAO?$AAC?$AAK?$AA?$AA@ 1000127c     pvr_bridge_k.obj
 0001:0000029c       ??_C@_0CJ@GIKFONCK@Unmap?5MemInfo?5Mem?7?5pvLinAddr?5?$CF08@ 1000129c     pvr_bridge_k.obj
 0001:000002c8       ??_C@_0CH@INJDCFDK@Map?5MemInfo?5Mem?7?5pvLinAddr?5?$CF08x?5@ 100012c8     pvr_bridge_k.obj
 0001:000002f0       ??_C@_0DD@MEKONKFL@Free?5Shared?5Sys?5Mem?5hKm?5?$CF08x?5pvL@ 100012f0     pvr_bridge_k.obj
 0001:00000324       ??_C@_0DE@PAFCAMCK@Alloc?5Shared?5Sys?5Mem?5hKm?5?$CF08x?5pv@ 10001324     pvr_bridge_k.obj
 0001:00000358       ??_C@_0EH@KLNFFGM@PVRSRV_BridgeDispatch?3?5PVRSRV_BR@ 10001358     pvr_bridge_k.obj
 0001:000003a0       ??_C@_0CL@OJJBJIEA@Free?5DevMem?5hKm?5?$CF08x?5pvLinAddr?5?$CF@ 100013a0     pvr_bridge_k.obj
 0001:000003cc       ??_C@_0CM@HPFJGBOB@Alloc?5DevMem?5hKm?5?$CF08x?5pvLinAddr?5@ 100013cc     pvr_bridge_k.obj
 0001:000003f8       ??_C@_0DH@FBALEENG@PVRSRV_BridgeDispatch?3?5invalid?5i@ 100013f8     pvr_bridge_k.obj
 0001:00000430       ??_C@_0DI@DDALKFKJ@PVRSRV_BridgeDispatchKM?3?5Couldn?8@ 10001430     pvr_bridge_k.obj
 0001:00000468       ??_C@_0EI@HILNFDPF@RemapClientMemInfo?3?5invalid?5mapp@ 10001468     pvr_bridge_k.obj
 0001:000004b0       ??_C@_0EG@BJICBIOH@RemapClientMemInfo?3?5PVRSRV_HAP_K@ 100014b0     pvr_bridge_k.obj
 0001:000004f8       ??_C@_0EP@DDNKBBJB@FreeMappedClientMemInfo?3?5invalid@ 100014f8     pvr_bridge_k.obj
 0001:00000548       ??_C@_0EN@OFICCBEN@FreeMappedClientMemInfo?3?5PVRSRV_@ 10001548     pvr_bridge_k.obj
 0001:00000598       ??_C@_0DF@PJOICJFM@OSAllocMem?$CI?$CJ?5failed?5to?5lock?5page@ 10001598     osfunc_srvkm.obj
 0001:000005d0       ??_C@_0GB@PJDCFEEB@c?3?2data?2jatin?2powervr_build?2ddk1@ 100015d0     osfunc_srvkm.obj
 0001:00000638       ??_C@_0ED@BKMJPBHG@OSAllocMem?$CI?$CJ?5failed?5to?5reserve?1c@ 10001638     osfunc_srvkm.obj
 0001:0000067c       ??_C@_0CO@BIOEIKGA@OSFreeMem?3?5bad?5magic?5cookie?5in?5p@ 1000167c     osfunc_srvkm.obj
 0001:000006ac       ??_C@_0CC@HGJFKAJE@OSAllocPages?5?3?5invalid?5flags?50x?$CF@ 100016ac     osfunc_srvkm.obj
 0001:000006d0       ??_C@_0EM@KFDLHBOC@OSAllocPages?3?5call?5to?5AllocPhysM@ 100016d0     osfunc_srvkm.obj
 0001:0000071c       ??_C@_0DG@PJELFGJL@OSAllocPages?3?5failed?5to?5allocate@ 1000171c     osfunc_srvkm.obj
 0001:00000754       ??_C@_0DH@DANAHKLN@OSAllocPages?$CI?$CJ?5failed?5to?5allocat@ 10001754     osfunc_srvkm.obj
 0001:0000078c       ??_C@_0DO@LNJLONLP@OSAllocPages?$CI?$CJ?5failed?5to?5CeSetMe@ 1000178c     osfunc_srvkm.obj
 0001:000007cc       ??_C@_0CI@FNMEMEBA@OSAllocPages?$CI?$CJ?5failed?5to?5lock?5th@ 100017cc     osfunc_srvkm.obj
 0001:000007f8       ??_C@_0EC@CMMAAHBG@OSAllocPages?$CI?$CJ?5failed?5to?5allocat@ 100017f8     osfunc_srvkm.obj
 0001:0000083c       ??_C@_0CG@EBLCHHNK@OSAllocPages?$CI?$CJ?5cache?5type?5unspec@ 1000183c     osfunc_srvkm.obj
 0001:00000864       ??_C@_0CB@FBBPJAEL@OSFreePages?5?3?5invalid?5flags?50x?$CFx@ 10001864     osfunc_srvkm.obj
 0001:00000888       ??_C@_0CN@HGOACGLI@OSFreePages?5?3?5failed?5to?5release?5@ 10001888     osfunc_srvkm.obj
 0001:000008b8       ??_C@_0CO@IJCKGAHJ@OSFreePages?5?3?5failed?5to?5decommit@ 100018b8     osfunc_srvkm.obj
 0001:000008e8       ??_C@_0EI@NFNHAFEE@MapUserFromKernel?$CI?$CJ?5failed?5call?5@ 100018e8     osfunc_srvkm.obj
 0001:00000930       ??_C@_0CN@CMEJBGMD@MapDevMemIntoUserSpace?3?5VirtualC@ 10001930     osfunc_srvkm.obj
 0001:00000960       ??_C@_0CJ@INIGDPCN@MapUserFromKernel?3?5VirtualAllocE@ 10001960     osfunc_srvkm.obj
 0001:00000990       ??_C@_0ED@JGLINADP@MapUserFromKernel?$CI?$CJ?5failed?5to?5Ce@ 10001990     osfunc_srvkm.obj
 0001:000009d4       ??_C@_0CK@PFIJJEND@RemapClientMemInfo?$CI?$CJ?5failed?5to?5m@ 100019d4     osfunc_srvkm.obj
 0001:00000a00       ??_C@_0CJ@KAPCAFFI@MapUserFromKernel?$CI?$CJ?5failed?5alloc@ 10001a00     osfunc_srvkm.obj
 0001:00000a2c       ??_C@_0CI@DLLPCCB@MapUserFromKernel?$CI?$CJ?3?5invalid?5par@ 10001a2c     osfunc_srvkm.obj
 0001:00000a58       ??_C@_0EG@KFEJDPGM@UnmapUserFromKernel?$CI?$CJ?5failed?5to?5@ 10001a58     osfunc_srvkm.obj
 0001:00000aa0       ??_C@_0DK@MPBGPOBM@UnmapUserFromKernel?3?5failed?5to?5f@ 10001aa0     osfunc_srvkm.obj
 0001:00000adc       ??_C@_0DG@CAEDCNPH@MapUserFromKernel?$CI?$CJ?5failed?5to?5ma@ 10001adc     osfunc_srvkm.obj
 0001:00000b14       ??_C@_0CH@JEKFGPMJ@Inside?5device?5ISR?0?5psDeviceNode?5@ 10001b14     osfunc_srvkm.obj
 0001:00000b3c       ??_C@_0DI@LJJHHHBL@OSInstallDeviceLISR?3?5Unable?5to?5c@ 10001b3c     osfunc_srvkm.obj
 0001:00000b74       ??_C@_0DH@BMEJAGAE@OSInstallDeviceLISR?3?5Unable?5to?5i@ 10001b74     osfunc_srvkm.obj
 0001:00000bac       ??_C@_0DH@LKNNCADL@OSInstallDeviceLISR?3?5Unable?5to?5c@ 10001bac     osfunc_srvkm.obj
 0001:00000be4       ??_C@_0DA@FEJPPOCN@OSInstallDeviceLISR?3?5Interrupt?5m@ 10001be4     osfunc_srvkm.obj
 0001:00000c14       ??_C@_0DC@CKAMAFNL@OSUninstallDeviceLISR?3?5Interrupt@ 10001c14     osfunc_srvkm.obj
 0001:00000c48       ??_C@_0DJ@JMIALCND@OSUninstallDeviceLISR?3?5Fail?5to?5c@ 10001c48     osfunc_srvkm.obj
 0001:00000c84       ??_C@_0DK@PJIOPEOG@OSUninstallDeviceLISR?3?5Fail?5to?5c@ 10001c84     osfunc_srvkm.obj
 0001:00000cc0       ??_C@_0DF@DIPBFEHH@OSInstallDeviceLISR?3?5Failed?5to?5c@ 10001cc0     osfunc_srvkm.obj
 0001:00000cf8       ??_C@_0EA@DMFNDMAM@OSInstallDeviceLISR?3?5Failed?5to?5a@ 10001cf8     osfunc_srvkm.obj
 0001:00000d38       ??_C@_0DA@LHFCEKNE@OSInstallDeviceLISR?3?5Failed?5to?5c@ 10001d38     osfunc_srvkm.obj
 0001:00000d68       ??_C@_0CM@CJJCLLH@OSInstallDeviceLISR?3?5Could?5not?5l@ 10001d68     osfunc_srvkm.obj
 0001:00000d94       ??_C@_0CM@DKNPLEAO@OSInstallSystemLISR?3?5Failed?5to?5g@ 10001d94     osfunc_srvkm.obj
 0001:00000dc0       ??_C@_1BA@BDHDGOBO@?$AAS?$AAy?$AAs?$AAI?$AAn?$AAt?$AAr?$AA?$AA@ 10001dc0     osfunc_srvkm.obj
 0001:00000dd0       ??_C@_0DM@NAOBNDIA@OSInstallSystemLISR?3?5IRQ?5in?5Reg?5@ 10001dd0     osfunc_srvkm.obj
 0001:00000e0c       ??_C@_0CP@EKJLOBC@OSInstallSystemLISR?3?5Failed?5to?5g@ 10001e0c     osfunc_srvkm.obj
 0001:00000e3c       ??_C@_17DJGGJCGD@?$AAI?$AAr?$AAq?$AA?$AA@ 10001e3c     osfunc_srvkm.obj
 0001:00000e44       ??_C@_0DG@BJKOHDIM@OSInstallSystemLISR?3?5Failed?5to?5g@ 10001e44     osfunc_srvkm.obj
 0001:00000e7c       ??_C@_1BG@NELPJJNN@?$AAI?$AAs?$AAr?$AAH?$AAa?$AAn?$AAd?$AAl?$AAe?$AAr?$AA?$AA@ 10001e7c     osfunc_srvkm.obj
 0001:00000e94       ??_C@_0DB@LEMOOMP@OSInstallSystemLISR?3?5Failed?5to?5g@ 10001e94     osfunc_srvkm.obj
 0001:00000ec8       ??_C@_1O@MDNCMDKF@?$AAI?$AAs?$AAr?$AAD?$AAl?$AAl?$AA?$AA@ 10001ec8     osfunc_srvkm.obj
 0001:00000ed8       ??_C@_0FA@OKPECMKJ@OSInstallSystemLISR?3?5Cannot?5inst@ 10001ed8     osfunc_srvkm.obj
 0001:00000f28       ??_C@_0DM@DPAKBGJL@OSUninstallSystemLISR?3?5Fail?5to?5f@ 10001f28     osfunc_srvkm.obj
 0001:00000f64       ??_C@_0DJ@MPIODADO@OSUninstallSystemLISR?3?5Fail?5to?5c@ 10001f64     osfunc_srvkm.obj
 0001:00000fa0       ??_C@_0DK@CHGGGEKB@OSUninstallSystemLISR?3?5Fail?5to?5c@ 10001fa0     osfunc_srvkm.obj
 0001:00000fdc       ??_C@_0DH@OCIIAPJL@OSInstallMISR?3?5Do?5not?5succeed?5to@ 10001fdc     osfunc_srvkm.obj
 0001:00001014       ??_C@_0CP@JIENGKHF@OSInstallMISR?3?5Do?5not?5succeed?5to@ 10002014     osfunc_srvkm.obj
 0001:00001044       ??_C@_0CP@IIFGEGAB@OSUninstallMISR?3?5Fail?5to?5close?5t@ 10002044     osfunc_srvkm.obj
 0001:00001074       ??_C@_0CO@PFLHNMJH@OSUninstallMISR?3?5Fail?5to?5close?5t@ 10002074     osfunc_srvkm.obj
 0001:000010a4       ??_C@_0CJ@FCOINPOP@OSUnlockResource?3?5Resource?5is?5no@ 100020a4     osfunc_srvkm.obj
 0001:000010d0       ??_C@_0BM@PFMJOINA@Should?5be?5?$CFx?5is?5actually?5?$CFx?$AA@ 100020d0     osfunc_srvkm.obj
 0001:000010ec       ??_C@_0DO@EDNNFPFH@OSUnlockResource?3?5Resource?5is?5no@ 100020ec     osfunc_srvkm.obj
 0001:0000112c       ??_C@_0DL@LBNEICBA@OSUnlockResource?3?5Resource?5is?5no@ 1000212c     osfunc_srvkm.obj
 0001:00001168       ??_C@_0CM@LBFGHPEH@OSMapLinToCPUPhys?3?5Call?5to?5LockP@ 10002168     osfunc_srvkm.obj
 0001:00001198       ??_C@_1FK@FNONLNGN@?$AA?$CF?$AAs?$AA?3?$AA?5?$AAD?$AAE?$AAB?$AAU?$AAG?$AAC?$AAH?$AAK?$AA?5?$AAf?$AAa?$AAi?$AAl?$AAe?$AAd?$AA?5?$AAi?$AAn?$AA?5?$AAf?$AAi?$AAl?$AAe?$AA?5?$AA?$CF?$AAs?$AA?5?$AAa@ 10002198     osfunc_srvkm.obj
 0001:000011f4       ??_C@_1BA@LEPJIIOK@?$AAU?$AAn?$AAk?$AAn?$AAo?$AAw?$AAn?$AA?$AA@ 100021f4     osfunc_srvkm.obj
 0001:00001208       ??_C@_1MC@JACPBPJA@?$AAc?$AA?3?$AA?2?$AAd?$AAa?$AAt?$AAa?$AA?2?$AAj?$AAa?$AAt?$AAi?$AAn?$AA?2?$AAp?$AAo?$AAw?$AAe?$AAr?$AAv?$AAr?$AA_?$AAb?$AAu?$AAi?$AAl?$AAd?$AA?2?$AAd?$AAd?$AAk?$AA1@ 10002208     osfunc_srvkm.obj
 0001:000012d0       ??_C@_0EA@KCJLMHLC@OSMapPhysToLin?$CI?$CJ?5failed?5to?5CeSet@ 100022d0     osfunc_srvkm.obj
 0001:00001310       ??_C@_0DJ@HDGGHNHJ@OSMapPhysToLin?5?3?5Failed?5to?5map?5?$CF@ 10002310     osfunc_srvkm.obj
 0001:0000134c       ??_C@_0DI@LMDBGGKL@OSReservePhys?$CI?$CJ?5failed?5to?5alloca@ 1000234c     osfunc_srvkm.obj
 0001:00001384       ??_C@_0CM@JBDDPNAM@OSAddTimer?3?5Failed?5to?5create?5wor@ 10002384     osfunc_srvkm.obj
 0001:000013b0       ??_C@_0CM@HNEOKAPK@OSAddTimer?3?5Failed?5to?5create?5unb@ 100023b0     osfunc_srvkm.obj
 0001:000013dc       ??_C@_0CK@BHJCKCPN@OSAddTimer?3?5Failed?5to?5create?5blo@ 100023dc     osfunc_srvkm.obj
 0001:00001408       ??_C@_0CJ@BAOALPBD@OSAddTimer?3?5Failed?5to?5create?5exi@ 10002408     osfunc_srvkm.obj
 0001:00001434       ??_C@_0DO@HNEPGPMC@OSAddTimer?3?5failed?5to?5allocate?5m@ 10002434     osfunc_srvkm.obj
 0001:00001474       ??_C@_0CE@HKFCPCJI@OSAddTimer?3?5passed?5invalid?5callb@ 10002474     osfunc_srvkm.obj
 0001:00001498       ??_C@_0DM@KBCACMOL@OSEventObjectCreateKM?3?5psEventOb@ 10002498     osfunc_srvkm.obj
 0001:000014d4       ??_C@_0CK@BJGDJICH@OSEventObjectCreateKM?3?5CreateEve@ 100024d4     osfunc_srvkm.obj
 0001:00001500       ??_C@_15MAOEGKJF@?$AA?$CF?$AAS?$AA?$AA@ 10002500     osfunc_srvkm.obj
 0001:00001508       ??_C@_0BG@OLGOIILN@PVRSRV_EVENTOBJECT_?$CFd?$AA@ 10002508     osfunc_srvkm.obj
 0001:00001520       ??_C@_0DN@PJJCPJEM@OSEventObjectDestroyKM?3?5psEventO@ 10002520     osfunc_srvkm.obj
 0001:00001560       ??_C@_0DK@HAIBKAEG@OSEventObjectDestroyKM?3?5hOSEvent@ 10002560     osfunc_srvkm.obj
 0001:0000159c       ??_C@_0CL@BDCMHEI@OSEventObjectDestroyKM?3?5CloseHan@ 1000259c     osfunc_srvkm.obj
 0001:000015c8       ??_C@_0DI@IFBJPHGD@PVRSRVEventObjectWait?3?5hOSEventK@ 100025c8     osfunc_srvkm.obj
 0001:00001600       ??_C@_0ED@PGKPANGI@PVRSRVEventObjectWait?3?5call?5to?5P@ 10002600     osfunc_srvkm.obj
 0001:00001644       ??_C@_0DI@NOIIHBBH@OSEventObjectSignalKM?3?5hOSEventK@ 10002644     osfunc_srvkm.obj
 0001:0000167c       ??_C@_1CC@HNHLKECD@?$AA?$CI?$AAe?$AAr?$AAr?$AAo?$AAr?$AA?5?$AAc?$AAo?$AAd?$AAe?$AA?3?$AA?5?$AA?$CF?$AAd?$AA?$CJ?$AA?$AA@ 1000267c     osfunc_srvkm.obj
 0001:000016a0       ??_C@_1CI@OHCJFJPM@?$AAE?$AAR?$AAR?$AAO?$AAR?$AA?3?$AA?5?$AA?$CF?$AAs?$AA?5?$AAl?$AAi?$AAn?$AAe?$AA?5?$AA?$CF?$AAd?$AA?3?$AA?5?$AA?$AA@ 100026a0     osfunc_srvkm.obj
 0001:000016c8       ??_C@_0DI@JPHODPHN@OSRegisterMem?$CI?$CJ?5failed?5to?5alloca@ 100026c8     osfunc_srvkm.obj
 0001:00001700       ??_C@_0EB@BPNGMOHI@OSRegisterDiscontigMem?$CI?$CJ?5failed?5@ 10002700     osfunc_srvkm.obj
 0001:00001744       ??_C@_0DM@GOBDCJHN@OSReserveDiscontigPhys?3?5VirtualC@ 10002744     osfunc_srvkm.obj
 0001:00001780       ??_C@_0CM@CFEHDBDC@OSReserveDiscontigPhys?3?5VirtualA@ 10002780     osfunc_srvkm.obj
 0001:000017b0       ??_C@_0EA@GLOPOPOM@OSAcquirePhysPageAddr?$CI?$CJ?5failed?5t@ 100027b0     osfunc_srvkm.obj
 0001:000017f0       ??_C@_0DC@KPPMAEKK@OSReadRegistryString?5?3?5key?5?$CI?$CFs?0?$CF@ 100027f0     registry.obj
 0001:00001828       ??_C@_0FN@LCFMLMDC@c?3?2data?2jatin?2powervr_build?2ddk1@ 10002828     registry.obj
 0001:00001888       ??_C@_0DF@JJOGEKPG@OSReadRegistryString?5?3?5?8szKey?8?5b@ 10002888     registry.obj
 0001:000018c0       ??_C@_1LK@NFDDCHIL@?$AAc?$AA?3?$AA?2?$AAd?$AAa?$AAt?$AAa?$AA?2?$AAj?$AAa?$AAt?$AAi?$AAn?$AA?2?$AAp?$AAo?$AAw?$AAe?$AAr?$AAv?$AAr?$AA_?$AAb?$AAu?$AAi?$AAl?$AAd?$AA?2?$AAd?$AAd?$AAk?$AA1@ 100028c0     registry.obj
 0001:0000197c       ??_C@_09KBHAHJDF@?2PowerVR?2?$AA@ 1000297c     registry.obj
 0001:00001988       ??_C@_0CI@NBACKENE@OSReadRegistryString?5?3?5Set?5value@ 10002988     registry.obj
 0001:000019b0       ??_C@_0DN@GNLEMPD@OSReadRegistryString?5?3?5impossibl@ 100029b0     registry.obj
 0001:000019f0       ??_C@_0DJ@KCGCFANF@MapDevMemIntoUserSpace?$CI?$CJ?5failed?5@ 100029f0     osfnex_srvkm.obj
 0001:00001a30       ??_C@_0GB@HINHOAOI@c?3?2data?2jatin?2powervr_build?2ddk1@ 10002a30     osfnex_srvkm.obj
 0001:00001a94       ??_C@_0DL@OGJFLMOC@MapDevMemIntoUserSpace?$CI?$CJ?5failed?5@ 10002a94     osfnex_srvkm.obj
 0001:00001ad0       ??_C@_0DP@FNIACMH@UnmapDevMemFromUserSpace?$CI?$CJ?5faile@ 10002ad0     osfnex_srvkm.obj
 0001:00001b10       ??_C@_01EEMJAFIK@?6?$AA@   10002b10     pvr_debug.obj
 0001:00001b14       ??_C@_07IEJGGFOD@PVR_K?3?5?$AA@ 10002b14     pvr_debug.obj
 0001:00001b20       ??_C@_0FO@COJJLDAP@c?3?2data?2jatin?2powervr_build?2ddk1@ 10002b20     pvr_debug.obj
 0001:00001b80       ??_C@_0L@COEGHJGH@?5?$FL?$CFd?0?5?$CFs?$FN?6?$AA@ 10002b80     pvr_debug.obj
 0001:00001b8c       ??_C@_0BO@IIMBEIDF@PVR_K?3?$CIUnknown?5message?5level?$CJ?$AA@ 10002b8c     pvr_debug.obj
 0001:00001bac       ??_C@_0BC@HCBNPMDI@PVR_K?3?$CIVerbose?$CJ?3?5?$AA@ 10002bac     pvr_debug.obj
 0001:00001bc0       ??_C@_0BC@JANIKBJB@PVR_K?3?$CIMessage?$CJ?3?5?$AA@ 10002bc0     pvr_debug.obj
 0001:00001bd4       ??_C@_0BC@ELIPOBNC@PVR_K?3?$CIWarning?$CJ?3?5?$AA@ 10002bd4     pvr_debug.obj
 0001:00001be8       ??_C@_0BA@FCCKFJOP@PVR_K?3?$CIError?$CJ?3?5?$AA@ 10002be8     pvr_debug.obj
 0001:00001bf8       ??_C@_0BA@BPJJCOEL@PVR_K?3?$CIFatal?$CJ?3?5?$AA@ 10002bf8     pvr_debug.obj
 0001:00001c08       ??_C@_0BI@NLGOAFIB@Debug?5assertion?5failed?$CB?$AA@ 10002c08     pvr_debug.obj
 0001:00001c20       ??_C@_0FH@EDGMFCJ@c?3?2data?2jatin?2powervr_build?2ddk1@ 10002c20     srvkmcmn:pvrsrv.obj
 0001:00001c78       ??_C@_0DK@HENMBIGA@AllocateDeviceID?3?5No?5free?5and?5va@ 10002c78     srvkmcmn:pvrsrv.obj
 0001:00001cb4       ??_C@_0DB@JOFJMNDG@FreeDeviceID?3?5no?5matching?5dev?5ID@ 10002cb4     srvkmcmn:pvrsrv.obj
 0001:00001ce8       ??_C@_0CJ@LKKKNNDA@WriteHWReg?5Base?3?$CFx?0?5Offset?3?5?$CFx?0?5@ 10002ce8     srvkmcmn:pvrsrv.obj
 0001:00001d14       ??_C@_0CJ@OCEAFHM@PVRSRVEnumerateDevicesKM?3?5Invali@ 10002d14     srvkmcmn:pvrsrv.obj
 0001:00001d40       ??_C@_0BK@CJAANPAB@PVRSRV_GLOBAL_EVENTOBJECT?$AA@ 10002d40     srvkmcmn:pvrsrv.obj
 0001:00001d5c       ??_C@_0DA@NNAECADH@PVRSRVDeInit?3?5PVRSRVPerProcessDa@ 10002d5c     srvkmcmn:pvrsrv.obj
 0001:00001d8c       ??_C@_0CI@JDNOIKEP@PVRSRVDeInit?3?5PVRSRVHandleDeInit@ 10002d8c     srvkmcmn:pvrsrv.obj
 0001:00001db4       ??_C@_0DI@CMPPLHLA@PVRSRVDeInit?3?5PVRSRVHandleDeInit@ 10002db4     srvkmcmn:pvrsrv.obj
 0001:00001dec       ??_C@_0DB@KDIDIPME@PVRSRVRegisterDevice?5?3?5Failed?5to@ 10002dec     srvkmcmn:pvrsrv.obj
 0001:00001e20       ??_C@_0DP@LOJIEPGJ@PVRSRVRegisterDevice?5?3?5Failed?5to@ 10002e20     srvkmcmn:pvrsrv.obj
 0001:00001e60       ??_C@_0CP@OFILOCGL@PVRSRVInitialiseDevice?3?5Failed?5I@ 10002e60     srvkmcmn:pvrsrv.obj
 0001:00001e90       ??_C@_0DI@PEEBHKGI@PVRSRVInitialiseDevice?3?5Failed?5P@ 10002e90     srvkmcmn:pvrsrv.obj
 0001:00001ec8       ??_C@_0DI@FOFKJAHJ@PVRSRVInitialiseDevice?3?5requeste@ 10002ec8     srvkmcmn:pvrsrv.obj
 0001:00001f00       ??_C@_0BH@HNLLNIAE@PVRSRVInitialiseDevice?$AA@ 10002f00     srvkmcmn:pvrsrv.obj
 0001:00001f18       ??_C@_0CO@BHKPGEBI@PVRSRVFinaliseSystem?3?5SysFinalis@ 10002f18     srvkmcmn:pvrsrv.obj
 0001:00001f48       ??_C@_0BF@FAFHFDLL@PVRSRVFinaliseSystem?$AA@ 10002f48     srvkmcmn:pvrsrv.obj
 0001:00001f60       ??_C@_0FB@LNOKFBEO@PVRSRVFinaliseSystem?3?5Failed?5PVR@ 10002f60     srvkmcmn:pvrsrv.obj
 0001:00001fb8       ??_C@_0EO@IGJDCNOH@PVRSRVFinaliseSystem?3?5Failed?5PVR@ 10002fb8     srvkmcmn:pvrsrv.obj
 0001:00002008       ??_C@_0DL@IKNFCCOO@PVRSRVAcquireDeviceDataKM?3?5reque@ 10003008     srvkmcmn:pvrsrv.obj
 0001:00002044       ??_C@_0BK@OCPIHKAL@PVRSRVAcquireDeviceDataKM?$AA@ 10003044     srvkmcmn:pvrsrv.obj
 0001:00002060       ??_C@_0DD@OMMCOBGD@PVRSRVDeinitialiseDevice?3?5Failed@ 10003060     srvkmcmn:pvrsrv.obj
 0001:00002094       ??_C@_0DO@GAINBCME@PVRSRVDeinitialiseDevice?3?5Failed@ 10003094     srvkmcmn:pvrsrv.obj
 0001:000020d8       ??_C@_0EC@JDKDBKIA@PVRSRVDeinitialiseDevice?3?5Failed@ 100030d8     srvkmcmn:pvrsrv.obj
 0001:0000211c       ??_C@_0DN@HBBLBAOE@PVRSRVDeinitialiseDevice?3?5reques@ 1000311c     srvkmcmn:pvrsrv.obj
 0001:00002160       ??_C@_0ED@EGHNEDIN@PollForValueKM?3?5Timeout?4?5Expecte@ 10003160     srvkmcmn:pvrsrv.obj
 0001:000021a4       ??_C@_0CP@PLCOAGKJ@PVRSRVGetMiscInfoKM?3?5Can?8t?5find?5@ 100031a4     srvkmcmn:pvrsrv.obj
 0001:000021d8       ??_C@_0HN@IPPEAIJK@PVRSRVGetMiscInfoKM?3?5Deferred?5ca@ 100031d8     srvkmcmn:pvrsrv.obj
 0001:00002258       ??_C@_0EE@CIGDDJBE@PVRSRVGetMiscInfoKM?3?5Ignoring?5no@ 10003258     srvkmcmn:pvrsrv.obj
 0001:0000229c       ??_C@_01LFCBOECM@?4?$AA@   1000329c     srvkmcmn:pvrsrv.obj
 0001:000022a0       ??_C@_02GMHACPFF@?$CFu?$AA@ 100032a0     srvkmcmn:pvrsrv.obj
 0001:000022a4       ??_C@_0BH@KCGJGLPH@?6Local?5Backing?5Store?3?6?$AA@ 100032a4     srvkmcmn:pvrsrv.obj
 0001:000022bc       ??_C@_0DB@IDPLOAHB@PVRSRVGetMiscInfoKM?3?5invalid?5sta@ 100032bc     srvkmcmn:pvrsrv.obj
 0001:000022f0       ??_C@_0CI@KELDHHPD@PVRSRVGetMiscInfoKM?3?5invalid?5par@ 100032f0     srvkmcmn:pvrsrv.obj
 0001:00002318       ??_C@_0BC@PNPFJMEC@?6Kernel?5Context?3?6?$AA@ 10003318     srvkmcmn:pvrsrv.obj
 0001:0000232c       ??_C@_0BD@FELDEKBN@?6?6Device?5Type?5?$CFd?3?6?$AA@ 1000332c     srvkmcmn:pvrsrv.obj
 0001:00002340       ??_C@_0CL@DKBAJCDL@?6Application?5Context?5?$CIhDevMemCon@ 10003340     srvkmcmn:pvrsrv.obj
 0001:0000236c       ??_C@_0CC@ODPMOPIE@PVRSRVDeviceLISR?3?5Invalid?5params@ 1000336c     srvkmcmn:pvrsrv.obj
 0001:00002390       ??_C@_0CC@FGDKJEIO@PVRSRVSystemLISR?3?5Invalid?5params@ 10003390     srvkmcmn:pvrsrv.obj
 0001:000023b4       ??_C@_0BM@CDKMOPLF@PVRSRVMISR?3?5Invalid?5params?6?$AA@ 100033b4     srvkmcmn:pvrsrv.obj
 0001:000023d0       ??_C@_0DC@EEMFNOCK@PVRSRVSaveRestoreLiveSegments?3?5S@ 100033d0     srvkmcmn:pvrsrv.obj
 0001:00002408       ??_C@_0EC@DHOGFEGA@PVRSRVSaveRestoreLiveSegments?3?5F@ 10003408     srvkmcmn:pvrsrv.obj
 0001:0000244c       ??_C@_0DD@ECLEEELE@PVRSRVSaveRestoreLiveSegments?3?5B@ 1000344c     srvkmcmn:pvrsrv.obj
 0001:00002480       ??_C@_0BM@HCFNFMOJ@Unknown?5PVRSRV?5error?5number?$AA@ 10003480     srvkmcmn:pvrsrv.obj
 0001:0000249c       ??_C@_0BH@KIJOMCBO@PVRSRV_ERROR_FORCE_I32?$AA@ 1000349c     srvkmcmn:pvrsrv.obj
 0001:000024b4       ??_C@_0BM@CFEHPLHJ@PVRSRV_ERROR_BAD_SYNC_STATE?$AA@ 100034b4     srvkmcmn:pvrsrv.obj
 0001:000024d0       ??_C@_0BP@NHELJICG@PVRSRV_ERROR_UNKNOWN_SGL_ERROR?$AA@ 100034d0     srvkmcmn:pvrsrv.obj
 0001:000024f0       ??_C@_0CI@HJPOMDFO@PVRSRV_ERROR_UNABLE_TO_GET_SYSTE@ 100034f0     srvkmcmn:pvrsrv.obj
 0001:00002518       ??_C@_0CI@CGGDLFFJ@PVRSRV_ERROR_UNABLE_TO_GET_PAREN@ 10003518     srvkmcmn:pvrsrv.obj
 0001:00002540       ??_C@_0CB@CCCIHNDH@PVRSRV_ERROR_UNABLE_TO_GET_CLOCK@ 10003540     srvkmcmn:pvrsrv.obj
 0001:00002564       ??_C@_0CE@CFBBFGPK@PVRSRV_ERROR_UNABLE_TO_ENABLE_CL@ 10003564     srvkmcmn:pvrsrv.obj
 0001:00002588       ??_C@_0CI@EPPGCOPO@PVRSRV_ERROR_UNABLE_TO_ROUND_CLO@ 10003588     srvkmcmn:pvrsrv.obj
 0001:000025b0       ??_C@_0CG@KPLOJDHO@PVRSRV_ERROR_UNABLE_TO_SET_CLOCK@ 100035b0     srvkmcmn:pvrsrv.obj
 0001:000025d8       ??_C@_0CD@GAMEIPOH@PVRSRV_ERROR_DISABLE_CLOCK_FAILU@ 100035d8     srvkmcmn:pvrsrv.obj
 0001:000025fc       ??_C@_0CC@PABGGPKN@PVRSRV_ERROR_CLOCK_REQUEST_FAILE@ 100035fc     srvkmcmn:pvrsrv.obj
 0001:00002620       ??_C@_0CF@IIPAOMOP@PVRSRV_ERROR_UNABLE_TO_RELEASE_C@ 10003620     srvkmcmn:pvrsrv.obj
 0001:00002648       ??_C@_0CH@FNLDOAHI@PVRSRV_ERROR_SEMAPHORE_NOT_INITI@ 10003648     srvkmcmn:pvrsrv.obj
 0001:00002670       ??_C@_0BO@GHHHCBEB@PVRSRV_ERROR_COPY_TEST_FAILED?$AA@ 10003670     srvkmcmn:pvrsrv.obj
 0001:00002690       ??_C@_0CC@ODOAAPND@PVRSRV_ERROR_CPUPADDR_TEST_FAILE@ 10003690     srvkmcmn:pvrsrv.obj
 0001:000026b4       ??_C@_0CA@BEALENNN@PVRSRV_ERROR_MEMORY_TEST_FAILED?$AA@ 100036b4     srvkmcmn:pvrsrv.obj
 0001:000026d4       ??_C@_0CA@DOJHPEIC@PVRSRV_ERROR_DEVICEID_NOT_FOUND?$AA@ 100036d4     srvkmcmn:pvrsrv.obj
 0001:000026f4       ??_C@_0BO@DIHOFPBH@PVRSRV_ERROR_INVALID_DEVICEID?$AA@ 100036f4     srvkmcmn:pvrsrv.obj
 0001:00002714       ??_C@_0CJ@IDLEAJDI@PVRSRV_ERROR_NO_FREE_DEVICEIDS_A@ 10003714     srvkmcmn:pvrsrv.obj
 0001:00002740       ??_C@_0CH@ONFCEEPC@PVRSRV_ERROR_UNKNOWN_INIT_SERVER@ 10003740     srvkmcmn:pvrsrv.obj
 0001:00002768       ??_C@_0CH@ELEEJEGJ@PVRSRV_ERROR_UNABLE_TO_DESTROY_B@ 10003768     srvkmcmn:pvrsrv.obj
 0001:00002790       ??_C@_0CH@HNIMJHDG@PVRSRV_ERROR_UNSUPPORTED_BACKING@ 10003790     srvkmcmn:pvrsrv.obj
 0001:000027b8       ??_C@_0CL@EJDKELLL@PVRSRV_ERROR_INSERT_HASH_TABLE_D@ 100037b8     srvkmcmn:pvrsrv.obj
 0001:000027e4       ??_C@_0CJ@GAKIDFHP@PVRSRV_ERROR_UNABLE_TO_CREATE_HA@ 100037e4     srvkmcmn:pvrsrv.obj
 0001:00002810       ??_C@_0CJ@NNLHBLIG@PVRSRV_ERROR_HANDLE_BATCH_COMMIT@ 10003810     srvkmcmn:pvrsrv.obj
 0001:0000283c       ??_C@_0CB@DPIGENEK@PVRSRV_ERROR_HANDLE_BATCH_IN_USE@ 1000383c     srvkmcmn:pvrsrv.obj
 0001:00002860       ??_C@_0BP@PPLALFCC@PVRSRV_ERROR_INVALID_SUBHANDLE?$AA@ 10003860     srvkmcmn:pvrsrv.obj
 0001:00002880       ??_C@_0BO@LIOHNOGG@PVRSRV_ERROR_HANDLE_NOT_FOUND?$AA@ 10003880     srvkmcmn:pvrsrv.obj
 0001:000028a0       ??_C@_0CC@NLOKPNHA@PVRSRV_ERROR_HANDLE_NOT_SHAREABL@ 100038a0     srvkmcmn:pvrsrv.obj
 0001:000028c4       ??_C@_0CC@IFEHJFJG@PVRSRV_ERROR_UNABLE_TO_ADD_HANDL@ 100038c4     srvkmcmn:pvrsrv.obj
 0001:000028e8       ??_C@_0CC@DGDIMDCO@PVRSRV_ERROR_HANDLE_TYPE_MISMATC@ 100038e8     srvkmcmn:pvrsrv.obj
 0001:0000290c       ??_C@_0CC@INLAPEOG@PVRSRV_ERROR_HANDLE_NOT_ALLOCATE@ 1000390c     srvkmcmn:pvrsrv.obj
 0001:00002930       ??_C@_0CH@OKMANHFO@PVRSRV_ERROR_HANDLE_INDEX_OUT_OF@ 10003930     srvkmcmn:pvrsrv.obj
 0001:00002958       ??_C@_0CG@KGFPCCCL@PVRSRV_ERROR_UNKNOWN_SCRIPT_OPER@ 10003958     srvkmcmn:pvrsrv.obj
 0001:00002980       ??_C@_0CC@HMMIFPCH@PVRSRV_ERROR_UNKNOWN_PIXEL_FORMA@ 10003980     srvkmcmn:pvrsrv.obj
 0001:000029a4       ??_C@_0CE@LIEKCDJM@PVRSRV_ERROR_UNABLE_TO_REMOVE_TI@ 100039a4     srvkmcmn:pvrsrv.obj
 0001:000029c8       ??_C@_0CF@DJJGLFBA@PVRSRV_ERROR_UNABLE_TO_DISABLE_T@ 100039c8     srvkmcmn:pvrsrv.obj
 0001:000029f0       ??_C@_0CE@MGKGPGII@PVRSRV_ERROR_UNABLE_TO_ENABLE_TI@ 100039f0     srvkmcmn:pvrsrv.obj
 0001:00002a14       ??_C@_0CB@PPDFAIIA@PVRSRV_ERROR_UNABLE_TO_KILL_TASK@ 10003a14     srvkmcmn:pvrsrv.obj
 0001:00002a38       ??_C@_0CF@CHLDEJLO@PVRSRV_ERROR_UNABLE_TO_SCHEDULE_@ 10003a38     srvkmcmn:pvrsrv.obj
 0001:00002a60       ??_C@_0CB@IDHAGJLJ@PVRSRV_ERROR_UNABLE_TO_INIT_TASK@ 10003a60     srvkmcmn:pvrsrv.obj
 0001:00002a84       ??_C@_0CF@FCCCAGGP@PVRSRV_ERROR_FAILED_TO_PROCESS_Q@ 10003a84     srvkmcmn:pvrsrv.obj
 0001:00002aac       ??_C@_0CB@OJLICDPA@PVRSRV_ERROR_NO_CLIENTNODE_FOUND@ 10003aac     srvkmcmn:pvrsrv.obj
 0001:00002ad0       ??_C@_0CB@PONPFNHH@PVRSRV_ERROR_NO_DEVICENODE_FOUND@ 10003ad0     srvkmcmn:pvrsrv.obj
 0001:00002af4       ??_C@_0CB@CKDDHJML@PVRSRV_ERROR_NO_DEVICEDATA_FOUND@ 10003af4     srvkmcmn:pvrsrv.obj
 0001:00002b18       ??_C@_0CF@CEBBKCNF@PVRSRV_ERROR_UNABLE_TO_REMOVE_DE@ 10003b18     srvkmcmn:pvrsrv.obj
 0001:00002b40       ??_C@_0CG@LFFHICFO@PVRSRV_ERROR_UNABLE_TO_OPEN_DC_D@ 10003b40     srvkmcmn:pvrsrv.obj
 0001:00002b68       ??_C@_0CB@CJANGKJE@PVRSRV_ERROR_NO_DC_DEVICES_FOUND@ 10003b68     srvkmcmn:pvrsrv.obj
 0001:00002b8c       ??_C@_0CA@FALMFPBA@PVRSRV_ERROR_INIT2_PHASE_FAILED?$AA@ 10003b8c     srvkmcmn:pvrsrv.obj
 0001:00002bac       ??_C@_0CA@OIBAKJOC@PVRSRV_ERROR_DEINT_PHASE_FAILED?$AA@ 10003bac     srvkmcmn:pvrsrv.obj
 0001:00002bcc       ??_C@_0CD@FMBMFHJF@PVRSRV_ERROR_SRV_DISCONNECT_FAIL@ 10003bcc     srvkmcmn:pvrsrv.obj
 0001:00002bf0       ??_C@_0CA@NDLMENJD@PVRSRV_ERROR_SRV_CONNECT_FAILED?$AA@ 10003bf0     srvkmcmn:pvrsrv.obj
 0001:00002c10       ??_C@_0BP@EBEBCOGD@PVRSRV_ERROR_PROCESS_NOT_FOUND?$AA@ 10003c10     srvkmcmn:pvrsrv.obj
 0001:00002c30       ??_C@_0CF@HKPLCDFD@PVRSRV_ERROR_PROCESS_NOT_INITIAL@ 10003c30     srvkmcmn:pvrsrv.obj
 0001:00002c58       ??_C@_0CM@HCKJJIED@PVRSRV_ERROR_INSUFFICIENT_SPACE_@ 10003c58     srvkmcmn:pvrsrv.obj
 0001:00002c84       ??_C@_0CH@DHFFMLBG@PVRSRV_ERROR_INSUFFICIENT_SCRIPT@ 10003c84     srvkmcmn:pvrsrv.obj
 0001:00002cac       ??_C@_0CH@PNKMHDP@PVRSRV_ERROR_MUTEX_INTERRUPTIBLE@ 10003cac     srvkmcmn:pvrsrv.obj
 0001:00002cd4       ??_C@_0CC@BONABOHG@PVRSRV_ERROR_MUTEX_DESTROY_FAILE@ 10003cd4     srvkmcmn:pvrsrv.obj
 0001:00002cf8       ??_C@_0CM@LHKCAPJK@PVRSRV_ERROR_INCOMPLETE_LINE_OVE@ 10003cf8     srvkmcmn:pvrsrv.obj
 0001:00002d24       ??_C@_0BO@FNBFECAM@PVRSRV_ERROR_PDUMP_NOT_ACTIVE?$AA@ 10003d24     srvkmcmn:pvrsrv.obj
 0001:00002d44       ??_C@_0CA@HJJNKLFA@PVRSRV_ERROR_PDUMP_BUF_OVERFLOW?$AA@ 10003d44     srvkmcmn:pvrsrv.obj
 0001:00002d64       ??_C@_0BP@IPFMEHKC@PVRSRV_ERROR_PDUMP_BUFFER_FULL?$AA@ 10003d64     srvkmcmn:pvrsrv.obj
 0001:00002d84       ??_C@_0CB@OGNKNAEL@PVRSRV_ERROR_PDUMP_NOT_AVAILABLE@ 10003d84     srvkmcmn:pvrsrv.obj
 0001:00002da8       ??_C@_0BP@HECKKIBF@PVRSRV_ERROR_BLIT_SETUP_FAILED?$AA@ 10003da8     srvkmcmn:pvrsrv.obj
 0001:00002dc8       ??_C@_0CH@NNHBOMLA@PVRSRV_ERROR_UNABLE_TO_INSERT_FE@ 10003dc8     srvkmcmn:pvrsrv.obj
 0001:00002df0       ??_C@_0CF@HOKPNFOO@PVRSRV_ERROR_UNEXPECTED_PRIMARY_@ 10003df0     srvkmcmn:pvrsrv.obj
 0001:00002e18       ??_C@_0CH@PBPIMIFK@PVRSRV_ERROR_UNEXPECTED_SECONDAR@ 10003e18     srvkmcmn:pvrsrv.obj
 0001:00002e40       ??_C@_0CC@HJBCGGAJ@PVRSRV_ERROR_UNKNOWN_PRIMARY_FRA@ 10003e40     srvkmcmn:pvrsrv.obj
 0001:00002e64       ??_C@_0CK@BOHDMOPL@PVRSRV_ERROR_CREATE_RENDER_CONTE@ 10003e64     srvkmcmn:pvrsrv.obj
 0001:00002e90       ??_C@_0CH@CMMGPLD@PVRSRV_ERROR_TIMEOUT_POLLING_FOR@ 10003e90     srvkmcmn:pvrsrv.obj
 0001:00002eb8       ??_C@_0CE@MPIHJLMN@PVRSRV_ERROR_UNBLANK_DISPLAY_FAI@ 10003eb8     srvkmcmn:pvrsrv.obj
 0001:00002edc       ??_C@_0BJ@FLGCMKAP@PVRSRV_ERROR_FLIP_FAILED?$AA@ 10003edc     srvkmcmn:pvrsrv.obj
 0001:00002ef8       ??_C@_0CB@KIAOHMLO@PVRSRV_ERROR_RESOURCE_NOT_LOCKED@ 10003ef8     srvkmcmn:pvrsrv.obj
 0001:00002f1c       ??_C@_0BN@CPBJLNJG@PVRSRV_ERROR_INVALID_LOCK_ID?$AA@ 10003f1c     srvkmcmn:pvrsrv.obj
 0001:00002f3c       ??_C@_0CF@PABKAPHK@PVRSRV_ERROR_UNABLE_TO_LOCK_RESO@ 10003f3c     srvkmcmn:pvrsrv.obj
 0001:00002f64       ??_C@_0CB@BANPLHC@PVRSRV_ERROR_INVALID_CCB_COMMAND@ 10003f64     srvkmcmn:pvrsrv.obj
 0001:00002f88       ??_C@_0CJ@KNBEJGBM@PVRSRV_ERROR_UNABLE_TO_REGISTER_@ 10003f88     srvkmcmn:pvrsrv.obj
 0001:00002fb4       ??_C@_0CI@JBLMGAIH@PVRSRV_ERROR_UNABLE_TO_REGISTER_@ 10003fb4     srvkmcmn:pvrsrv.obj
 0001:00002fdc       ??_C@_0CG@NCPFHFJO@PVRSRV_ERROR_UNABLE_TO_CLOSE_SER@ 10003fdc     srvkmcmn:pvrsrv.obj
 0001:00003004       ??_C@_0CJ@OILKPHEO@PVRSRV_ERROR_UNABLE_TO_DO_BACKWA@ 10004004     srvkmcmn:pvrsrv.obj
 0001:00003030       ??_C@_0CF@JOFBAFPI@PVRSRV_ERROR_UNABLE_TO_RETRIEVE_@ 10004030     srvkmcmn:pvrsrv.obj
 0001:00003058       ??_C@_0CM@BDLMMENJ@PVRSRV_ERROR_UNABLE_TO_INITIALIS@ 10004058     srvkmcmn:pvrsrv.obj
 0001:00003084       ??_C@_0BP@GNCEMJLP@PVRSRV_ERROR_ISR_NOT_INSTALLED?$AA@ 10004084     srvkmcmn:pvrsrv.obj
 0001:000030a4       ??_C@_0CD@KLNGLGPP@PVRSRV_ERROR_ISR_ALREADY_INSTALL@ 100040a4     srvkmcmn:pvrsrv.obj
 0001:000030c8       ??_C@_0CF@FAGLLHFO@PVRSRV_ERROR_UNABLE_TO_UNINSTALL@ 100040c8     srvkmcmn:pvrsrv.obj
 0001:000030f0       ??_C@_0CD@DJPFDGIH@PVRSRV_ERROR_UNABLE_TO_INSTALL_I@ 100040f0     srvkmcmn:pvrsrv.obj
 0001:00003114       ??_C@_0CM@EPFOMCNC@PVRSRV_ERROR_UNABLE_TO_REGISTER_@ 10004114     srvkmcmn:pvrsrv.obj
 0001:00003140       ??_C@_0BP@GOLFOPOB@PVRSRV_ERROR_THREAD_READ_ERROR?$AA@ 10004140     srvkmcmn:pvrsrv.obj
 0001:00003160       ??_C@_0CE@OOLMOIMP@PVRSRV_ERROR_UNABLE_TO_CLOSE_THR@ 10004160     srvkmcmn:pvrsrv.obj
 0001:00003184       ??_C@_0CF@DINOCBMP@PVRSRV_ERROR_UNABLE_TO_CREATE_TH@ 10004184     srvkmcmn:pvrsrv.obj
 0001:000031ac       ??_C@_0CF@PMDLEMMO@PVRSRV_ERROR_UNABLE_TO_DESTROY_E@ 100041ac     srvkmcmn:pvrsrv.obj
 0001:000031d4       ??_C@_0CG@EKELNJGD@PVRSRV_ERROR_UNABLE_TO_REGISTER_@ 100041d4     srvkmcmn:pvrsrv.obj
 0001:000031fc       ??_C@_0CE@HDCHEHGN@PVRSRV_ERROR_UNABLE_TO_ENABLE_EV@ 100041fc     srvkmcmn:pvrsrv.obj
 0001:00003220       ??_C@_0CE@JGCGBACF@PVRSRV_ERROR_UNABLE_TO_CREATE_EV@ 10004220     srvkmcmn:pvrsrv.obj
 0001:00003244       ??_C@_0CL@LEMFMBBI@PVRSRV_ERROR_UNABLE_TO_CREATE_PE@ 10004244     srvkmcmn:pvrsrv.obj
 0001:00003270       ??_C@_0CJ@CNBJIJKF@PVRSRV_ERROR_NO_STAGING_BUFFER_A@ 10004270     srvkmcmn:pvrsrv.obj
 0001:0000329c       ??_C@_0CA@MBNOGMOG@PVRSRV_ERROR_EXCEEDED_HW_LIMITS?$AA@ 1000429c     srvkmcmn:pvrsrv.obj
 0001:000032bc       ??_C@_0CC@KKCCLGJC@PVRSRV_ERROR_MAPPING_STILL_IN_US@ 100042bc     srvkmcmn:pvrsrv.obj
 0001:000032e0       ??_C@_0CJ@NEDJJHO@PVRSRV_ERROR_UNABLE_TO_FIND_MAPP@ 100042e0     srvkmcmn:pvrsrv.obj
 0001:0000330c       ??_C@_0CD@IKHEIIFL@PVRSRV_ERROR_INVALID_UNMAP_REQUE@ 1000430c     srvkmcmn:pvrsrv.obj
 0001:00003330       ??_C@_0CB@HCLAAFAF@PVRSRV_ERROR_INVALID_MAP_REQUEST@ 10004330     srvkmcmn:pvrsrv.obj
 0001:00003354       ??_C@_0CJ@HCJCDILF@PVRSRV_ERROR_FAILED_TO_RETRIEVE_@ 10004354     srvkmcmn:pvrsrv.obj
 0001:00003380       ??_C@_0BN@MGGBIDLJ@PVRSRV_ERROR_INVALID_PERPROC?$AA@ 10004380     srvkmcmn:pvrsrv.obj
 0001:000033a0       ??_C@_0BO@CNPDFMEG@PVRSRV_ERROR_INVALID_HEAPINFO?$AA@ 100043a0     srvkmcmn:pvrsrv.obj
 0001:000033c0       ??_C@_0BO@FKBPOEAL@PVRSRV_ERROR_INVALID_CPU_ADDR?$AA@ 100043c0     srvkmcmn:pvrsrv.obj
 0001:000033e0       ??_C@_0BP@LNBMGPFK@PVRSRV_ERROR_INVALID_PHYS_ADDR?$AA@ 100043e0     srvkmcmn:pvrsrv.obj
 0001:00003400       ??_C@_0BP@OMEHJEEF@PVRSRV_ERROR_INVALID_WRAP_TYPE?$AA@ 10004400     srvkmcmn:pvrsrv.obj
 0001:00003420       ??_C@_0CB@NIOKABFF@PVRSRV_ERROR_INVALID_HANDLE_TYPE@ 10004420     srvkmcmn:pvrsrv.obj
 0001:00003444       ??_C@_0CB@HJCFCHMF@PVRSRV_ERROR_UNKNOWN_POWER_STATE@ 10004444     srvkmcmn:pvrsrv.obj
 0001:00003468       ??_C@_0CA@BCBCHKHA@PVRSRV_ERROR_INVALID_KERNELINFO?$AA@ 10004468     srvkmcmn:pvrsrv.obj
 0001:00003488       ??_C@_0BK@CMOHHFGM@PVRSRV_ERROR_INVALID_HEAP?$AA@ 10004488     srvkmcmn:pvrsrv.obj
 0001:000034a4       ??_C@_0CH@KHAHDJI@PVRSRV_ERROR_UNABLE_TO_DESTROY_C@ 100044a4     srvkmcmn:pvrsrv.obj
 0001:000034cc       ??_C@_0BN@MAJFNAFK@PVRSRV_ERROR_INVALID_CONTEXT?$AA@ 100044cc     srvkmcmn:pvrsrv.obj
 0001:000034ec       ??_C@_0BL@GHPFOKOB@PVRSRV_ERROR_UNKNOWN_IOCTL?$AA@ 100044ec     srvkmcmn:pvrsrv.obj
 0001:00003508       ??_C@_0BO@EFMIPBJE@PVRSRV_ERROR_INVALID_MISCINFO?$AA@ 10004508     srvkmcmn:pvrsrv.obj
 0001:00003528       ??_C@_0BN@HAEHOFK@PVRSRV_ERROR_INVALID_MEMINFO?$AA@ 10004528     srvkmcmn:pvrsrv.obj
 0001:00003548       ??_C@_0BN@HBFKJHCJ@PVRSRV_ERROR_INVALID_DEVINFO?$AA@ 10004548     srvkmcmn:pvrsrv.obj
 0001:00003568       ??_C@_0CA@IFKDLGBP@PVRSRV_ERROR_INVALID_SGXDEVDATA?$AA@ 10004568     srvkmcmn:pvrsrv.obj
 0001:00003588       ??_C@_0CD@FMNMBIDN@PVRSRV_ERROR_INVALID_SEGMENT_BLO@ 10004588     srvkmcmn:pvrsrv.obj
 0001:000035ac       ??_C@_0CG@CENKJPLK@PVRSRV_ERROR_FAILED_TO_MAP_PAGE_@ 100045ac     srvkmcmn:pvrsrv.obj
 0001:000035d4       ??_C@_0CI@DAHCCMKG@PVRSRV_ERROR_PHYS_ADDRESS_EXCEED@ 100045d4     srvkmcmn:pvrsrv.obj
 0001:000035fc       ??_C@_0BP@DDJAFCPB@PVRSRV_ERROR_MAPPING_NOT_FOUND?$AA@ 100045fc     srvkmcmn:pvrsrv.obj
 0001:0000361c       ??_C@_0BK@IEAABBED@PVRSRV_ERROR_STILL_MAPPED?$AA@ 1000461c     srvkmcmn:pvrsrv.obj
 0001:00003638       ??_C@_0CE@FLLPJDPE@PVRSRV_ERROR_UNABLE_TO_UNLOCK_PA@ 10004638     srvkmcmn:pvrsrv.obj
 0001:0000365c       ??_C@_0CC@MDPMLEGH@PVRSRV_ERROR_UNABLE_TO_LOCK_PAGE@ 1000465c     srvkmcmn:pvrsrv.obj
 0001:00003680       ??_C@_0CC@GIOAPCCN@PVRSRV_ERROR_FAILED_TO_COPY_PAGE@ 10004680     srvkmcmn:pvrsrv.obj
 0001:000036a4       ??_C@_0CC@GKEHHGN@PVRSRV_ERROR_FAILED_TO_FREE_PAGE@ 100046a4     srvkmcmn:pvrsrv.obj
 0001:000036c8       ??_C@_0CD@GLIEHHEJ@PVRSRV_ERROR_FAILED_TO_ALLOC_PAG@ 100046c8     srvkmcmn:pvrsrv.obj
 0001:000036ec       ??_C@_0CI@HMAMMEDH@PVRSRV_ERROR_FAILED_TO_COPY_VIRT@ 100046ec     srvkmcmn:pvrsrv.obj
 0001:00003714       ??_C@_0CJ@CAGNGIJE@PVRSRV_ERROR_FAILED_TO_ALLOC_VIR@ 10004714     srvkmcmn:pvrsrv.obj
 0001:00003740       ??_C@_0CF@PHIMLFIF@PVRSRV_ERROR_FAILED_TO_GET_PHYS_@ 10004740     srvkmcmn:pvrsrv.obj
 0001:00003768       ??_C@_0CJ@NACABMCI@PVRSRV_ERROR_FAILED_TO_MAP_SHARE@ 10004768     srvkmcmn:pvrsrv.obj
 0001:00003794       ??_C@_0CH@KKODOHKH@PVRSRV_ERROR_FAILED_TO_ALLOC_VP_@ 10004794     srvkmcmn:pvrsrv.obj
 0001:000037bc       ??_C@_0CG@JHKNFNLN@PVRSRV_ERROR_FAILED_TO_ALLOC_USE@ 100047bc     srvkmcmn:pvrsrv.obj
 0001:000037e4       ??_C@_0CE@JNKOEKFC@PVRSRV_ERROR_BM_BAD_SHAREMEM_HAN@ 100047e4     srvkmcmn:pvrsrv.obj
 0001:00003808       ??_C@_0CD@HMFLFCFF@PVRSRV_ERROR_REGISTER_BASE_NOT_S@ 10004808     srvkmcmn:pvrsrv.obj
 0001:0000382c       ??_C@_0CG@NAAJMMIK@PVRSRV_ERROR_BAD_REGION_SIZE_MIS@ 1000482c     srvkmcmn:pvrsrv.obj
 0001:00003854       ??_C@_0CE@BPLFPAB@PVRSRV_ERROR_PCI_REGION_UNAVAILA@ 10004854     srvkmcmn:pvrsrv.obj
 0001:00003878       ??_C@_0CC@JJOMLEEH@PVRSRV_ERROR_PCI_REGION_TOO_SMAL@ 10004878     srvkmcmn:pvrsrv.obj
 0001:0000389c       ??_C@_0BN@MDFDBNDL@PVRSRV_ERROR_PCI_CALL_FAILED?$AA@ 1000489c     srvkmcmn:pvrsrv.obj
 0001:000038bc       ??_C@_0CC@BDJIKBNK@PVRSRV_ERROR_PCI_DEVICE_NOT_FOUN@ 100048bc     srvkmcmn:pvrsrv.obj
 0001:000038e0       ??_C@_0CL@MCBFHJJP@PVRSRV_ERROR_BUFFER_DEVICE_ALREA@ 100048e0     srvkmcmn:pvrsrv.obj
 0001:0000390c       ??_C@_0CF@GCFHNFJ@PVRSRV_ERROR_BUFFER_DEVICE_NOT_F@ 1000490c     srvkmcmn:pvrsrv.obj
 0001:00003934       ??_C@_0CD@ELPAHKFH@PVRSRV_ERROR_MMU_CONTEXT_NOT_FOU@ 10004934     srvkmcmn:pvrsrv.obj
 0001:00003958       ??_C@_0BP@PGOEMLB@PVRSRV_ERROR_IOCTL_CALL_FAILED?$AA@ 10004958     srvkmcmn:pvrsrv.obj
 0001:00003978       ??_C@_0CA@IDIMEAGF@PVRSRV_ERROR_BRIDGE_CALL_FAILED?$AA@ 10004978     srvkmcmn:pvrsrv.obj
 0001:00003998       ??_C@_0CD@BBONNMLG@PVRSRV_ERROR_UNLOAD_LIBRARY_FAIL@ 10004998     srvkmcmn:pvrsrv.obj
 0001:000039bc       ??_C@_0CC@JFJNGDJA@PVRSRV_ERROR_UNABLE_GET_FUNC_ADD@ 100049bc     srvkmcmn:pvrsrv.obj
 0001:000039e0       ??_C@_0CE@CLHAJILA@PVRSRV_ERROR_UNABLE_TO_LOAD_LIBR@ 100049e0     srvkmcmn:pvrsrv.obj
 0001:00003a04       ??_C@_0CI@JNNKKKDH@PVRSRV_ERROR_FAILED_TO_REGISTER_@ 10004a04     srvkmcmn:pvrsrv.obj
 0001:00003a2c       ??_C@_0BL@PLMNHCGF@PVRSRV_ERROR_INVALID_FLAGS?$AA@ 10004a2c     srvkmcmn:pvrsrv.obj
 0001:00003a48       ??_C@_0BM@OOOKADIF@PVRSRV_ERROR_UPLOAD_TOO_BIG?$AA@ 10004a48     srvkmcmn:pvrsrv.obj
 0001:00003a64       ??_C@_0CE@HDBIHLDJ@PVRSRV_ERROR_CORE_REVISION_MISMA@ 10004a64     srvkmcmn:pvrsrv.obj
 0001:00003a88       ??_C@_0BM@NJBBOLAG@PVRSRV_ERROR_BUILD_MISMATCH?$AA@ 10004a88     srvkmcmn:pvrsrv.obj
 0001:00003aa4       ??_C@_0CC@JCFDHBML@PVRSRV_ERROR_DDK_VERSION_MISMATC@ 10004aa4     srvkmcmn:pvrsrv.obj
 0001:00003ac8       ??_C@_0BD@COEEPPOL@PVRSRV_ERROR_RETRY?$AA@ 10004ac8     srvkmcmn:pvrsrv.obj
 0001:00003adc       ??_C@_0CG@FCILKACH@PVRSRV_ERROR_CANNOT_GET_RENDERDE@ 10004adc     srvkmcmn:pvrsrv.obj
 0001:00003b04       ??_C@_0CE@NLLBGAEA@PVRSRV_ERROR_CANNOT_GET_QUEUE_SP@ 10004b04     srvkmcmn:pvrsrv.obj
 0001:00003b28       ??_C@_0CA@NBGAMPKE@PVRSRV_ERROR_CANNOT_FLUSH_QUEUE?$AA@ 10004b28     srvkmcmn:pvrsrv.obj
 0001:00003b48       ??_C@_0CA@KIDKOOGL@PVRSRV_ERROR_PROCESSING_BLOCKED?$AA@ 10004b48     srvkmcmn:pvrsrv.obj
 0001:00003b68       ??_C@_0CB@EBGLIGPI@PVRSRV_ERROR_NOT_SUPPORTED?5?9?5fix@ 10004b68     srvkmcmn:pvrsrv.obj
 0001:00003b8c       ??_C@_0BM@MCHBLHIP@PVRSRV_ERROR_TOOMANYBUFFERS?$AA@ 10004b8c     srvkmcmn:pvrsrv.obj
 0001:00003ba8       ??_C@_0CE@FHHHLEGE@PVRSRV_ERROR_DEVICE_REGISTER_FAI@ 10004ba8     srvkmcmn:pvrsrv.obj
 0001:00003bcc       ??_C@_0BJ@PHLIKBPN@PVRSRV_ERROR_CMD_TOO_BIG?$AA@ 10004bcc     srvkmcmn:pvrsrv.obj
 0001:00003be8       ??_C@_0BP@PFBLKCEO@PVRSRV_ERROR_CMD_NOT_PROCESSED?$AA@ 10004be8     srvkmcmn:pvrsrv.obj
 0001:00003c08       ??_C@_0CB@HFGDLHLE@PVRSRV_ERROR_FAILED_DEPENDENCIES@ 10004c08     srvkmcmn:pvrsrv.obj
 0001:00003c2c       ??_C@_0BK@JAAFMMBM@PVRSRV_ERROR_STREAM_ERROR?$AA@ 10004c2c     srvkmcmn:pvrsrv.obj
 0001:00003c48       ??_C@_0BL@JPEIBKNH@PVRSRV_ERROR_SCENE_INVALID?$AA@ 10004c48     srvkmcmn:pvrsrv.obj
 0001:00003c64       ??_C@_0CC@MCIBNBIO@PVRSRV_ERROR_INVALID_SWAPINTERVA@ 10004c64     srvkmcmn:pvrsrv.obj
 0001:00003c88       ??_C@_0BP@FMELGOJO@PVRSRV_ERROR_FLIP_CHAIN_EXISTS?$AA@ 10004c88     srvkmcmn:pvrsrv.obj
 0001:00003ca8       ??_C@_0BF@KGIMOMJE@PVRSRV_ERROR_TIMEOUT?$AA@ 10004ca8     srvkmcmn:pvrsrv.obj
 0001:00003cc0       ??_C@_0BJ@PHFCJIBD@PVRSRV_ERROR_BAD_MAPPING?$AA@ 10004cc0     srvkmcmn:pvrsrv.obj
 0001:00003cdc       ??_C@_0BH@OEOFFCIM@PVRSRV_ERROR_NOT_OWNER?$AA@ 10004cdc     srvkmcmn:pvrsrv.obj
 0001:00003cf4       ??_C@_0BM@COIEDMNF@PVRSRV_ERROR_INVALID_DEVICE?$AA@ 10004cf4     srvkmcmn:pvrsrv.obj
 0001:00003d10       ??_C@_0CE@POPMCOCG@PVRSRV_ERROR_CANT_REGISTER_CALLB@ 10004d10     srvkmcmn:pvrsrv.obj
 0001:00003d34       ??_C@_0BK@JHPIKHJG@PVRSRV_ERROR_INIT_FAILURE?$AA@ 10004d34     srvkmcmn:pvrsrv.obj
 0001:00003d50       ??_C@_0BM@LGNAOM@PVRSRV_ERROR_INVALID_PARAMS?$AA@ 10004d50     srvkmcmn:pvrsrv.obj
 0001:00003d6c       ??_C@_0BN@IHBDMIPO@PVRSRV_ERROR_TOO_FEW_BUFFERS?$AA@ 10004d6c     srvkmcmn:pvrsrv.obj
 0001:00003d90       ??_C@_0EA@DBFPNECM@PVRSRV_ERROR_OUT_OF_MEMORY?5?9?5Una@ 10004d90     srvkmcmn:pvrsrv.obj
 0001:00003dd0       ??_C@_09FEDLIFM@No?5Errors?$AA@ 10004dd0     srvkmcmn:pvrsrv.obj
 0001:00003de0       ??_C@_0FI@NEAPJJGE@c?3?2data?2jatin?2powervr_build?2ddk1@ 10004de0     srvkmcmn:perproc.obj
 0001:00003e38       ??_C@_0DL@BFKDHLNH@PVRSRVPerProcessDataConnect?3?5Pro@ 10004e38     srvkmcmn:perproc.obj
 0001:00003e78       ??_C@_0EJ@NBLNNNPM@PVRSRVPerProcessDataConnect?3?5Cou@ 10004e78     srvkmcmn:perproc.obj
 0001:00003ec4       ??_C@_0DO@EEPHMMLO@PVRSRVPerProcessDataConnect?3?5Cou@ 10004ec4     srvkmcmn:perproc.obj
 0001:00003f08       ??_C@_0EM@OEBKEGJI@PVRSRVPerProcessDataConnect?3?5Cou@ 10004f08     srvkmcmn:perproc.obj
 0001:00003f58       ??_C@_0FA@LJCAAFHK@PVRSRVPerProcessDataConnect?3?5Cou@ 10004f58     srvkmcmn:perproc.obj
 0001:00003fa8       ??_C@_0EF@BJDFIBN@PVRSRVPerProcessDataConnect?3?5OSP@ 10004fa8     srvkmcmn:perproc.obj
 0001:00003ff0       ??_C@_0EO@GNCELKJK@PVRSRVPerProcessDataConnect?3?5Cou@ 10004ff0     srvkmcmn:perproc.obj
 0001:00004040       ??_C@_0EF@LPEPJLNJ@PVRSRVPerProcessDataConnect?3?5Cou@ 10005040     srvkmcmn:perproc.obj
 0001:00004088       ??_C@_0DI@CNAFMBIC@FreePerProcessData?3?5Couldn?8t?5fre@ 10005088     srvkmcmn:perproc.obj
 0001:000040c0       ??_C@_0DO@OKECBJCP@FreePerProcessData?3?5OSPerProcess@ 100050c0     srvkmcmn:perproc.obj
 0001:00004100       ??_C@_0EC@NHJPDLEE@FreePerProcessData?3?5Couldn?8t?5rel@ 10005100     srvkmcmn:perproc.obj
 0001:00004144       ??_C@_0DP@GNNHLJID@FreePerProcessData?3?5Couldn?8t?5fre@ 10005144     srvkmcmn:perproc.obj
 0001:00004188       ??_C@_0EJ@NHIDOMEO@FreePerProcessData?3?5Couldn?8t?5fin@ 10005188     srvkmcmn:perproc.obj
 0001:000041d4       ??_C@_0CG@GIJBNMEC@FreePerProcessData?3?5invalid?5para@ 100051d4     srvkmcmn:perproc.obj
 0001:00004200       ??_C@_0EI@NNOOJCAG@PVRSRVPerProcessDataDisconnect?3?5@ 10005200     srvkmcmn:perproc.obj
 0001:00004248       ??_C@_0DP@IGGJGAIM@PVRSRVPerProcessDataDisconnect?3?5@ 10005248     srvkmcmn:perproc.obj
 0001:00004288       ??_C@_0EG@EKNDPAHH@PVRSRVPerProcessDataDisconnect?3?5@ 10005288     srvkmcmn:perproc.obj
 0001:000042d0       ??_C@_0EJ@LEMHINPM@PVRSRVPerProcessDataDealloc?3?5Cou@ 100052d0     srvkmcmn:perproc.obj
 0001:00004320       ??_C@_0EG@ONEAGCMK@PVRSRVPerProcessDataInit?3?5Couldn@ 10005320     srvkmcmn:perproc.obj
 0001:00004368       ??_C@_0FG@FDALGIKI@c?3?2data?2jatin?2powervr_build?2ddk1@ 10005368     srvkmcmn:power.obj
 0001:000043c0       ??_C@_0CM@DMMPJFCG@PVRSRVSetInitServerState?5?3?5Unkno@ 100053c0     srvkmcmn:power.obj
 0001:000043ec       ??_C@_0CM@NCMNJLAA@PVRSRVGetInitServerState?5?3?5Unkno@ 100053ec     srvkmcmn:power.obj
 0001:00004418       ??_C@_0DL@BHFLPEED@PVRSRVSetDevicePowerStateKM?5?3?5Tr@ 10005418     srvkmcmn:power.obj
 0001:00004458       ??_C@_0EC@LFDINKHC@PVRSRVSystemPrePowerStateKM?3?5Tra@ 10005458     srvkmcmn:power.obj
 0001:000044a0       ??_C@_0EH@NBFFLDOJ@PVRSRVSystemPostPowerStateKM?3?5Sy@ 100054a0     srvkmcmn:power.obj
 0001:000044e8       ??_C@_0DM@IDDAHHEA@PVRSRVSetPowerStateKM?3?5Transitio@ 100054e8     srvkmcmn:power.obj
 0001:00004524       ??_C@_0DM@CKEJCOEE@PVRSRVRegisterPowerDevice?3?5Faile@ 10005524     srvkmcmn:power.obj
 0001:00004560       ??_C@_0DP@IGNKIDON@PVRSRVDevicePreClockSpeedChange?5@ 10005560     srvkmcmn:power.obj
 0001:000045a0       ??_C@_0EF@PIPLCKNH@PVRSRVDevicePreClockSpeedChange?5@ 100055a0     srvkmcmn:power.obj
 0001:000045e8       ??_C@_0EA@CJDKIPEP@PVRSRVDevicePostClockSpeedChange@ 100055e8     srvkmcmn:power.obj
 0001:00004628       ??_C@_0DE@GNNDAEJO@PVRSRVAllocHandle?3?5Lookup?5of?5exi@ 10005628     srvkmcmn:handle.obj
 0001:00004660       ??_C@_0FH@EGIBAIHJ@c?3?2data?2jatin?2powervr_build?2ddk1@ 10005660     srvkmcmn:handle.obj
 0001:000046b8       ??_C@_0DE@CCPBGCLN@GetHandleStructure?3?5Handle?5type?5@ 100056b8     srvkmcmn:handle.obj
 0001:000046ec       ??_C@_0DF@ILHMOKGM@GetHandleStructure?3?5Handle?5not?5a@ 100056ec     srvkmcmn:handle.obj
 0001:00004724       ??_C@_0DJ@IGBGNJOM@GetHandleStructure?3?5Handle?5index@ 10005724     srvkmcmn:handle.obj
 0001:00004760       ??_C@_0CP@KPGBJIPI@AllocHandle?3?5Couldn?8t?5add?5handle@ 10005760     srvkmcmn:handle.obj
 0001:00004790       ??_C@_0CL@OIPDHGGB@AllocHandle?3?5EnsureFreeHandles?5f@ 10005790     srvkmcmn:handle.obj
 0001:000047c0       ??_C@_0EP@MEIPDEED@AllocHandle?3?5Handle?5batch?5size?5?$CI@ 100057c0     srvkmcmn:handle.obj
 0001:00004810       ??_C@_0HJ@OFPCNKGE@EnsureFreeHandles?3?5Couldn?8t?5allo@ 10005810     srvkmcmn:handle.obj
 0001:0000488c       ??_C@_0DI@PGLKBOIB@IncreaseHandleArraySize?3?5Realloc@ 1000588c     srvkmcmn:handle.obj
 0001:000048c4       ??_C@_0DL@BJOGIDCK@IncreaseHandleArraySize?3?5Maximum@ 100058c4     srvkmcmn:handle.obj
 0001:00004900       ??_C@_0DI@JACAENLD@ReallocHandleArray?3?5Couldn?8t?5fre@ 10005900     srvkmcmn:handle.obj
 0001:00004938       ??_C@_0DI@HCEPEFHE@ReallocHandleArray?3?5Couldn?8t?5fre@ 10005938     srvkmcmn:handle.obj
 0001:00004970       ??_C@_0DN@IEKIMONB@ReallocHandleArray?3?5Couldn?8t?5all@ 10005970     srvkmcmn:handle.obj
 0001:000049b0       ??_C@_0DJ@FBFOCOIC@ReallocHandleArray?3?5Couldn?8t?5fre@ 100059b0     srvkmcmn:handle.obj
 0001:000049ec       ??_C@_0DM@GIBPKJB@ReallocHandleArray?3?5Couldn?8t?5all@ 100059ec     srvkmcmn:handle.obj
 0001:00004a28       ??_C@_0DH@JOGPNLHD@PVRSRVAllocSubHandle?3?5Lookup?5of?5@ 10005a28     srvkmcmn:handle.obj
 0001:00004a60       ??_C@_0DI@MGHDCEOH@PVRSRVLookupHandleAnyType?3?5Error@ 10005a60     srvkmcmn:handle.obj
 0001:00004a98       ??_C@_0DB@PMAHCGOO@PVRSRVLookupHandle?3?5Error?5lookin@ 10005a98     srvkmcmn:handle.obj
 0001:00004ad0       ??_C@_0EC@PGNJCKBB@PVRSRVLookupSubHandle?3?5Subhandle@ 10005ad0     srvkmcmn:handle.obj
 0001:00004b14       ??_C@_0DH@GCAIPJFM@PVRSRVLookupSubHandle?3?5Error?5loo@ 10005b14     srvkmcmn:handle.obj
 0001:00004b4c       ??_C@_0DH@IEJNGEAD@PVRSRVGetParentHandle?3?5Error?5loo@ 10005b4c     srvkmcmn:handle.obj
 0001:00004b84       ??_C@_0DL@OPNIGGEL@PVRSRVLookupAndReleaseHandle?3?5Er@ 10005b84     srvkmcmn:handle.obj
 0001:00004bc0       ??_C@_0DB@LFELGPBA@FreeHandle?3?5Error?5whilst?5freeing@ 10005bc0     srvkmcmn:handle.obj
 0001:00004bf4       ??_C@_0DC@HKKCEAML@PVRSRVReleaseHandle?3?5Error?5looki@ 10005bf4     srvkmcmn:handle.obj
 0001:00004c28       ??_C@_0DK@OEHCMPAA@PVRSRVNewHandleBatch?3?5EnsureFree@ 10005c28     srvkmcmn:handle.obj
 0001:00004c64       ??_C@_0CO@BBNMDLMO@PVRSRVNewHandleBatch?3?5Invalid?5ba@ 10005c64     srvkmcmn:handle.obj
 0001:00004c98       ??_C@_0EH@MCMOHLNE@PVRSRVNewHandleBatch?3?5There?5is?5a@ 10005c98     srvkmcmn:handle.obj
 0001:00004ce0       ??_C@_0GH@MMAOAAI@PVRSRVHandleBatchCommitOrRelease@ 10005ce0     srvkmcmn:handle.obj
 0001:00004d48       ??_C@_0DM@JNANPDHH@PVRSRVHandleBatchCommitOrRelease@ 10005d48     srvkmcmn:handle.obj
 0001:00004d88       ??_C@_0FO@EKDHPJFC@PVRSRVHandleBatchCommitOrRelease@ 10005d88     srvkmcmn:handle.obj
 0001:00004de8       ??_C@_0DL@CPBGMKCG@PVRSRVHandleBatchCommitOrRelease@ 10005de8     srvkmcmn:handle.obj
 0001:00004e28       ??_C@_0FE@PKPDLPPD@PVRSRVSetMaxHandle?3?5Limit?5cannot@ 10005e28     srvkmcmn:handle.obj
 0001:00004e7c       ??_C@_0DP@INDMBIJO@PVRSRVSetMaxHandle?3?5Limit?5must?5b@ 10005e7c     srvkmcmn:handle.obj
 0001:00004ebc       ??_C@_0DN@CHOBGIGN@PVRSRVSetMaxHandle?3?5Limit?5cannot@ 10005ebc     srvkmcmn:handle.obj
 0001:00004efc       ??_C@_0DP@KBKOFOMA@PVRSRVEnableHandlePurging?3?5Handl@ 10005efc     srvkmcmn:handle.obj
 0001:00004f3c       ??_C@_0DD@PKKOODNF@PVRSRVEnableHandlePurging?3?5Purgi@ 10005f3c     srvkmcmn:handle.obj
 0001:00004f70       ??_C@_0DN@LHCBFLMC@PVRSRVPurgeHandles?3?5Purging?5not?5@ 10005f70     srvkmcmn:handle.obj
 0001:00004fb0       ??_C@_0DN@MCCGPKBO@PVRSRVPurgeHandles?3?5Purging?5not?5@ 10005fb0     srvkmcmn:handle.obj
 0001:00004ff0       ??_C@_0EA@FBJFGAFJ@PVRSRVAllocHandleBase?3?5Couldn?8t?5@ 10005ff0     srvkmcmn:handle.obj
 0001:00005030       ??_C@_0DK@EMECADI@PVRSRVAllocHandleBase?3?5Couldn?8t?5@ 10006030     srvkmcmn:handle.obj
 0001:0000506c       ??_C@_0DB@OHAHDOHK@PVRSRVFreeHandleBase?3?5FreeHandle@ 1000606c     srvkmcmn:handle.obj
 0001:000050a0       ??_C@_0CP@LKLEPPKF@FreeHandleBase?3?5Couldn?8t?5free?5ha@ 100060a0     srvkmcmn:handle.obj
 0001:000050d0       ??_C@_0DA@NNGOPBFD@FreeHandleBase?3?5Couldn?8t?5free?5ha@ 100060d0     srvkmcmn:handle.obj
 0001:00005100       ??_C@_0CL@PLKIONHM@FreeHandleBase?3?5Couldn?8t?5free?5ha@ 10006100     srvkmcmn:handle.obj
 0001:0000512c       ??_C@_0DE@CJNFCFGI@FreeHandleBase?3?5Uncommitted?1Unre@ 1000612c     srvkmcmn:handle.obj
 0001:00005160       ??_C@_0CH@KLKLLOEC@FreeAllHandles?3?5FreeHandle?5faile@ 10006160     srvkmcmn:handle.obj
 0001:00005188       ??_C@_0DI@NCMFOOGD@PVRSRVHandleInit?3?5PVRSRVEnableHa@ 10006188     srvkmcmn:handle.obj
 0001:000051c0       ??_C@_0DE@EPAEMHFN@PVRSRVHandleInit?3?5PVRSRVAllocHan@ 100061c0     srvkmcmn:handle.obj
 0001:000051f4       ??_C@_0CP@CHBLNMMD@PVRSRVHandleDeInit?3?5FreeHandleBa@ 100061f4     srvkmcmn:handle.obj
 0001:00005228       ??_C@_1EC@IHFNPCAB@?$AA?5?$AA0?$AAx?$AA?$CF?$AA0?$AA8?$AAx?$AA?5?$AA0?$AAx?$AA?$CF?$AA0?$AA8?$AAp?$AA?5?$AA0?$AAx?$AA?$CF?$AA0?$AA8?$AAx?$AA?5?$AA0?$AAx?$AA?$CF?$AA0?$AA8?$AAp?$AA?5?$AA?$CF?$AAS?$AA?6@ 10006228     srvkmcmn:resman.obj
 0001:0000526c       ??_C@_0BD@JCGPAIIB@Unknown?5?$CItype?5?$CFlu?$CJ?$AA@ 1000626c     srvkmcmn:resman.obj
 0001:00005280       ??_C@_0BE@POHECLHP@Syncobject?5Resource?$AA@ 10006280     srvkmcmn:resman.obj
 0001:00005294       ??_C@_0CE@HENIFEMC@Syncobject?5synchronisation?5Resou@ 10006294     srvkmcmn:resman.obj
 0001:000052b8       ??_C@_0CG@NACMFB@Shared?5system?5memory?5meminfo?5Res@ 100062b8     srvkmcmn:resman.obj
 0001:000052e0       ??_C@_0BG@EBPKADG@Event?5Object?5Resource?$AA@ 100062e0     srvkmcmn:resman.obj
 0001:000052f8       ??_C@_0CC@FIDEFPMI@Device?5Memory?5Allocation?5Resourc@ 100062f8     srvkmcmn:resman.obj
 0001:0000531c       ??_C@_0BM@DKKCIMBA@Device?5Memory?5Wrap?5Resource?$AA@ 1000631c     srvkmcmn:resman.obj
 0001:00005338       ??_C@_0BP@EAKJCAF@Device?5Memory?5Mapping?5Resource?$AA@ 10006338     srvkmcmn:resman.obj
 0001:00005358       ??_C@_0BP@JLJKMHDE@Device?5Memory?5Context?5Resource?$AA@ 10006358     srvkmcmn:resman.obj
 0001:00005378       ??_C@_0BP@BKJFDAEL@OS?5specific?5User?5mode?5mappings?$AA@ 10006378     srvkmcmn:resman.obj
 0001:00005398       ??_C@_0BN@KELPFLKB@Buffer?5Class?5Device?5Resource?$AA@ 10006398     srvkmcmn:resman.obj
 0001:000053b8       ??_C@_0BO@ENMFCJLM@Display?5Class?5Device?5Resource?$AA@ 100063b8     srvkmcmn:resman.obj
 0001:000053d8       ??_C@_0DC@ODOJCAPM@Display?5Class?5Shared?5Swapchain?5R@ 100063d8     srvkmcmn:resman.obj
 0001:0000540c       ??_C@_0CP@GLADGIHB@Shared?5Parameter?5Buffer?5Creation@ 1000640c     srvkmcmn:resman.obj
 0001:0000543c       ??_C@_0CN@CKOIDONM@Shared?5Parameter?5Buffer?5Descript@ 1000643c     srvkmcmn:resman.obj
 0001:0000546c       ??_C@_0BH@EHABHDCN@HW?52D?5Context?5Resource?$AA@ 1000646c     srvkmcmn:resman.obj
 0001:00005484       ??_C@_0BN@FDLEJJJD@HW?5Transfer?5Context?5Resource?$AA@ 10006484     srvkmcmn:resman.obj
 0001:000054a4       ??_C@_0BL@KFBLAEDP@HW?5Render?5Context?5Resource?$AA@ 100064a4     srvkmcmn:resman.obj
 0001:000054c0       ??_C@_0FH@PFLCCBBK@c?3?2data?2jatin?2powervr_build?2ddk1@ 100064c0     srvkmcmn:resman.obj
 0001:00005518       ??_C@_0EA@EJOGILDO@PVRSRVResManConnect?3?5ERROR?5alloc@ 10006518     srvkmcmn:resman.obj
 0001:00005558       ??_C@_0DG@CAMPIGHP@ResManRegisterRes?3?5ERROR?5allocat@ 10006558     srvkmcmn:resman.obj
 0001:00005590       ??_C@_0GN@CIHOJMCC@ResManRegisterRes?3?5register?5reso@ 10006590     srvkmcmn:resman.obj
 0001:00005600       ??_C@_0DH@MJKOABAF@ResManRegisterRes?3?5invalid?5param@ 10006600     srvkmcmn:resman.obj
 0001:00005638       ??_C@_0CN@GHAMKGEE@ResManFreeResByPtr?3?5freeing?5reso@ 10006638     srvkmcmn:resman.obj
 0001:00005668       ??_C@_0CN@KDLBEEJI@ResManFreeResByPtr?3?5NULL?5ptr?5?9?5n@ 10006668     srvkmcmn:resman.obj
 0001:00005698       ??_C@_0FH@KLIPJIH@ResManFreeResByCriteria?3?5Context@ 10006698     srvkmcmn:resman.obj
 0001:000056f0       ??_C@_0DI@LAENAEOI@ResManDissociateRes?3?5failed?5to?5f@ 100066f0     srvkmcmn:resman.obj
 0001:00005728       ??_C@_0DD@PBNMJDGB@ResManDissociateRes?3?5invalid?5par@ 10006728     srvkmcmn:resman.obj
 0001:00005760       ??_C@_0GA@DGIKMINL@FindResourceByPtr?3?5Resource?5Ctx?5@ 10006760     srvkmcmn:resman.obj
 0001:000057c0       ??_C@_0DE@EIGBDCF@FindResourceByPtr?3?5psItem?$DN?$CF08X?0?5@ 100067c0     srvkmcmn:resman.obj
 0001:000057f4       ??_C@_0CL@EMOFMHHJ@ResManFindResourceByPtr?3?5invalid@ 100067f4     srvkmcmn:resman.obj
 0001:00005820       ??_C@_0DH@JBADPOIA@FreeResourceByPtr?3?5ERROR?5calling@ 10006820     srvkmcmn:resman.obj
 0001:00005858       ??_C@_0EN@FBGPPHFC@FreeResourceByPtr?3?5Type?50x?$CFx?0?5Ad@ 10006858     srvkmcmn:resman.obj
 0001:000058a8       ??_C@_0DE@FBNGFKLI@FreeResourceByPtr?3?5psItem?$DN?$CF08X?0?5@ 100068a8     srvkmcmn:resman.obj
 0001:000058dc       ??_C@_0CF@NPHNJEHP@FreeResourceByPtr?3?5invalid?5param@ 100068dc     srvkmcmn:resman.obj
 0001:00005908       ??_C@_0EP@HKBPDHIP@psCurItem?$DN?$CF08X?5psCurItem?9?$DOppsThi@ 10006908     srvkmcmn:resman.obj
 0001:00005958       ??_C@_0DK@IMJBPBEG@psCC?$DN?$CF08X?5psCC?9?$DOppsThis?$DN?$CF08X?5psC@ 10006958     srvkmcmn:resman.obj
 0001:00005994       ??_C@_0CM@BFGHKINM@ValidateResList?3?5resman?5not?5init@ 10006994     srvkmcmn:resman.obj
 0001:000059c0       ??_C@_1GG@EECGJFPN@?$AA?$CK?$AA?$CK?$AA?$CK?$AA?$CK?$AA?$CK?$AA?$CK?$AA?$CK?$AA?$CK?$AA?$CK?$AA?$CK?$AA?$CK?$AA?5?$AAe?$AAn?$AAd?$AA?5?$AAo?$AAf?$AA?5?$AAr?$AAe?$AAs?$AAm?$AAa?$AAn?$AA?5?$AAi?$AAn?$AAf?$AAo?$AAr?$AAm@ 100069c0     srvkmcmn:resman.obj
 0001:00005a28       ??_C@_1DM@IEOEEKLI@?$AA?$CK?$AA?5?$AAR?$AAe?$AAs?$AAm?$AAa?$AAn?$AA?5?$AAR?$AAe?$AAs?$AAI?$AAt?$AAe?$AAm?$AA?5?$AAC?$AAo?$AAu?$AAn?$AAt?$AA?3?$AA?5?$AA?$CF?$AAu?$AA?5?$AA?$CK?$AA?6?$AA?$AA@ 10006a28     srvkmcmn:resman.obj
 0001:00005a64       ??_C@_1DM@DDGKFMHA@?$AA?$CK?$AA?5?$AAR?$AAe?$AAs?$AAm?$AAa?$AAn?$AA?5?$AAC?$AAo?$AAn?$AAt?$AAe?$AAx?$AAt?$AA?5?$AAC?$AAo?$AAu?$AAn?$AAt?$AA?3?$AA?5?$AA?$CF?$AAu?$AA?5?$AA?$CK?$AA?6?$AA?$AA@ 10006a64     srvkmcmn:resman.obj
 0001:00005aa0       ??_C@_1IE@ODGBLPLD@?$AA?$CK?$AA?5?$AAF?$AAi?$AAn?$AAa?$AAl?$AA?5?$AAh?$AAa?$AAn?$AAd?$AAl?$AAe?$AA?5?$AAc?$AAl?$AAo?$AAs?$AAe?$AAd?$AA?5?$AAf?$AAo?$AAr?$AA?5?$AA?$CF?$AAs?$AA?5?$AAp?$AAi?$AAd@ 10006aa0     srvkmcmn:resman.obj
 0001:00005b28       ??_C@_1FO@JJHCBIKN@?$AA?$CK?$AA?5?$AAR?$AAe?$AAs?$AAM?$AAa?$AAn?$AAD?$AAi?$AAs?$AAc?$AAo?$AAn?$AAn?$AAe?$AAc?$AAt?$AA?5?$AAc?$AAa?$AAl?$AAl?$AAe?$AAd?$AA?5?$AAf?$AAo?$AAr?$AA?5?$AA?$CF?$AAs@ 10006b28     srvkmcmn:resman.obj
 0001:00005b88       ??_C@_1GG@IOMABNHN@?$AA?$CK?$AA?$CK?$AA?$CK?$AA?$CK?$AA?$CK?$AA?$CK?$AA?$CK?$AA?$CK?$AA?$CK?$AA?$CK?$AA?$CK?$AA?$CK?$AA?$CK?$AA?$CK?$AA?$CK?$AA?5?$AAr?$AAe?$AAs?$AAm?$AAa?$AAn?$AA?5?$AAi?$AAn?$AAf?$AAo?$AAr?$AAm?$AAa?$AAt?$AAi@ 10006b88     srvkmcmn:resman.obj
 0001:00005bf0       ??_C@_0DE@EAHANDOO@PrintAndValidateResList?3?5resman?5@ 10006bf0     srvkmcmn:resman.obj
 0001:00005c28       ??_C@_1GG@MDKMPOND@?$AA?5?$AAF?$AAl?$AAa?$AAg?$AAs?$AA?5?$AA?5?$AA?5?$AA?5?$AA?5?$AA?5?$AAp?$AAP?$AAa?$AAr?$AAa?$AAm?$AA?5?$AA?5?$AA?5?$AA?5?$AA?5?$AAP?$AAa?$AAr?$AAa?$AAm?$AA?5?$AA?5?$AA?5?$AA?5@ 10006c28     srvkmcmn:resman.obj
 0001:00005c90       ??_C@_1BK@MIPKPBLK@?$AA?5?$AAc?$AAt?$AAx?$AA?$DN?$AA0?$AAx?$AA?$CF?$AA0?$AA8?$AAp?$AA?6?$AA?$AA@ 10006c90     srvkmcmn:resman.obj
 0001:00005cac       ??_C@_1CA@IJDPLLPL@?$AA?5?$AA?$CF?$AAs?$AA?5?$AAp?$AAi?$AAd?$AA?$DN?$AA0?$AAx?$AA?$CF?$AA0?$AA8?$AAx?$AA?6?$AA?$AA@ 10006cac     srvkmcmn:resman.obj
 0001:00005cd0       ??_C@_0FM@JBOGPIJP@c?3?2data?2jatin?2powervr_build?2ddk1@ 10006cd0     srvkmcmn:deviceclass.obj
 0001:00005d2c       ??_C@_0CI@EODHJEJM@PVRSRVEnumerateDCKM?3?5Invalid?5par@ 10006d2c     srvkmcmn:deviceclass.obj
 0001:00005d54       ??_C@_0DI@EFDKEIEL@PVRSRVOpenDCDeviceKM?3?5Failed?5to?5@ 10006d54     srvkmcmn:deviceclass.obj
 0001:00005d8c       ??_C@_0CN@NEFOCGNP@PVRSRVOpenDCDeviceKM?3?5Failed?5syn@ 10006d8c     srvkmcmn:deviceclass.obj
 0001:00005dbc       ??_C@_0DG@JJAIKFCH@PVRSRVOpenDCDeviceKM?3?5Failed?5psD@ 10006dbc     srvkmcmn:deviceclass.obj
 0001:00005df4       ??_C@_0DD@IHGOFMDP@PVRSRVOpenDCDeviceKM?3?5no?5devnode@ 10006df4     srvkmcmn:deviceclass.obj
 0001:00005e28       ??_C@_0CF@ONOLNH@PVRSRVOpenDCDeviceKM?3?5Invalid?5pa@ 10006e28     srvkmcmn:deviceclass.obj
 0001:00005e50       ??_C@_0EJ@POBKNHGB@CloseDCDeviceCallBack?3?5system?5bu@ 10006e50     srvkmcmn:deviceclass.obj
 0001:00005e9c       ??_C@_0CK@CMDAPDJA@PVRSRVEnumDCFormatsKM?3?5Invalid?5p@ 10006e9c     srvkmcmn:deviceclass.obj
 0001:00005ec8       ??_C@_0CH@FMLDMBCE@PVRSRVEnumDCDimsKM?3?5Invalid?5para@ 10006ec8     srvkmcmn:deviceclass.obj
 0001:00005ef0       ??_C@_0FC@OAEHDDN@PVRSRVGetDCSystemBufferKM?3?5Faile@ 10006ef0     srvkmcmn:deviceclass.obj
 0001:00005f44       ??_C@_0CO@DBPCEFPD@PVRSRVGetDCSystemBufferKM?3?5Inval@ 10006f44     srvkmcmn:deviceclass.obj
 0001:00005f74       ??_C@_0CG@HMJOFLAN@PVRSRVGetDCInfoKM?3?5Invalid?5param@ 10006f74     srvkmcmn:deviceclass.obj
 0001:00005f9c       ??_C@_0CP@BAAOMMKB@PVRSRVDestroyDCSwapChainKM?3?5Inva@ 10006f9c     srvkmcmn:deviceclass.obj
 0001:00005fd0       ??_C@_0EA@EKPDAKJI@PVRSRVCreateDCSwapChainKM?3?5Faile@ 10006fd0     srvkmcmn:deviceclass.obj
 0001:00006010       ??_C@_0DB@GDPPCAD@PVRSRVCreateDCSwapChainKM?3?5Faile@ 10007010     srvkmcmn:deviceclass.obj
 0001:00006048       ??_C@_0ED@HKDGPJPL@PVRSRVCreateDCSwapChainKM?3?5Faile@ 10007048     srvkmcmn:deviceclass.obj
 0001:0000608c       ??_C@_0DF@LIHJJINC@PVRSRVCreateDCSwapChainKM?3?5Faile@ 1000708c     srvkmcmn:deviceclass.obj
 0001:000060c4       ??_C@_0DE@KCLODPJA@PVRSRVCreateDCSwapChainKM?3?5Faile@ 100070c4     srvkmcmn:deviceclass.obj
 0001:000060f8       ??_C@_0DP@KOLEGHEC@PVRSRVCreateDCSwapChainKM?3?5No?5sh@ 100070f8     srvkmcmn:deviceclass.obj
 0001:00006138       ??_C@_0EA@DLLJNOLD@PVRSRVCreateDCSwapChainKM?3?5Could@ 10007138     srvkmcmn:deviceclass.obj
 0001:00006178       ??_C@_0CL@FMCGGEDD@PVRSRVCreateDCSwapChainKM?3?5Too?5f@ 10007178     srvkmcmn:deviceclass.obj
 0001:000061a4       ??_C@_0CM@JEGLFEHG@PVRSRVCreateDCSwapChainKM?3?5Too?5m@ 100071a4     srvkmcmn:deviceclass.obj
 0001:000061d0       ??_C@_0CO@GPPJEGGJ@PVRSRVCreateDCSwapChainKM?3?5Inval@ 100071d0     srvkmcmn:deviceclass.obj
 0001:00006200       ??_C@_0DK@FALHDCNM@PVRSRVCreateDCSwapChainRefKM?3?5Fa@ 10007200     srvkmcmn:deviceclass.obj
 0001:00006240       ??_C@_0FH@OEPHCNGO@DestroyDCSwapChainRefCallBack?3?5s@ 10007240     srvkmcmn:deviceclass.obj
 0001:00006298       ??_C@_0DM@BOJJLNAA@DestroyDCSwapChainCallBack?3?5Fail@ 10007298     srvkmcmn:deviceclass.obj
 0001:000062d4       ??_C@_0CJ@JKIONDKG@PVRSRVSetDCDstRectKM?3?5Invalid?5pa@ 100072d4     srvkmcmn:deviceclass.obj
 0001:00006300       ??_C@_0CJ@CDBBLNDL@PVRSRVSetDCSrcRectKM?3?5Invalid?5pa@ 10007300     srvkmcmn:deviceclass.obj
 0001:0000632c       ??_C@_0CO@EIHFLMDE@PVRSRVSetDCDstColourKeyKM?3?5Inval@ 1000732c     srvkmcmn:deviceclass.obj
 0001:0000635c       ??_C@_0CO@HJFCDFJJ@PVRSRVSetDCSrcColourKeyKM?3?5Inval@ 1000735c     srvkmcmn:deviceclass.obj
 0001:0000638c       ??_C@_0CJ@BCKBGDKB@PVRSRVGetDCBuffersKM?3?5Invalid?5pa@ 1000738c     srvkmcmn:deviceclass.obj
 0001:000063b8       ??_C@_0DA@PCGFONAG@PVRSRVSwapToDCBufferKM?3?5Failed?5t@ 100073b8     srvkmcmn:deviceclass.obj
 0001:000063e8       ??_C@_0DB@GGEBHDGI@PVRSRVSwapToDCBufferKM?3?5Failed?5t@ 100073e8     srvkmcmn:deviceclass.obj
 0001:0000641c       ??_C@_0DF@MBOGDBGJ@PVRSRVSwapToDCBufferKM?3?5Failed?5t@ 1000741c     srvkmcmn:deviceclass.obj
 0001:00006458       ??_C@_0FB@DAMNBCMD@PVRSRVSwapToDCBufferKM?3?5Invalid?5@ 10007458     srvkmcmn:deviceclass.obj
 0001:000064ac       ??_C@_0CL@JIGPIHPA@PVRSRVSwapToDCBufferKM?3?5Invalid?5@ 100074ac     srvkmcmn:deviceclass.obj
 0001:000064d8       ??_C@_0DA@PALEALEH@PVRSRVSwapToDCSystemKM?3?5Failed?5t@ 100074d8     srvkmcmn:deviceclass.obj
 0001:00006508       ??_C@_0DB@GHJINDII@PVRSRVSwapToDCSystemKM?3?5Failed?5t@ 10007508     srvkmcmn:deviceclass.obj
 0001:0000653c       ??_C@_0DF@OJBMGDPB@PVRSRVSwapToDCSystemKM?3?5Failed?5t@ 1000753c     srvkmcmn:deviceclass.obj
 0001:00006574       ??_C@_0CL@EAHHAPP@PVRSRVSwapToDCSystemKM?3?5Invalid?5@ 10007574     srvkmcmn:deviceclass.obj
 0001:000065a0       ??_C@_0DH@FJBIBMFF@PVRSRVRegisterBCDeviceKM?3?5Failed@ 100075a0     srvkmcmn:deviceclass.obj
 0001:000065d8       ??_C@_0DE@BHCFFJJB@PVRSRVRegisterDCDeviceKM?3?5Failed@ 100075d8     srvkmcmn:deviceclass.obj
 0001:0000660c       ??_C@_0DD@BOFANJND@PVRSRVRegisterDCDeviceKM?3?5Failed@ 1000760c     srvkmcmn:deviceclass.obj
 0001:00006640       ??_C@_0DA@BKOKCGNJ@PVRSRVRegisterDCDeviceKM?3?5Failed@ 10007640     srvkmcmn:deviceclass.obj
 0001:00006670       ??_C@_0FA@CPBEOGIP@PVRSRVRemoveDCDeviceKM?3?5failed?5a@ 10007670     srvkmcmn:deviceclass.obj
 0001:000066c0       ??_C@_0DI@JMCMJJCN@PVRSRVRemoveDCDeviceKM?3?5requeste@ 100076c0     srvkmcmn:deviceclass.obj
 0001:000066f8       ??_C@_0DI@CKPDEPOE@PVRSRVRegisterSystemISRHandler?3?5@ 100076f8     srvkmcmn:deviceclass.obj
 0001:00006730       ??_C@_0CP@JPKNMFHD@PVRSRVOpenBCDeviceKM?3?5Failed?5to?5@ 10007730     srvkmcmn:deviceclass.obj
 0001:00006760       ??_C@_0CN@BIIJFMKM@PVRSRVOpenBCDeviceKM?3?5Failed?5syn@ 10007760     srvkmcmn:deviceclass.obj
 0001:00006790       ??_C@_0DE@NNMJPLNJ@PVRSRVOpenBCDeviceKM?3?5Failed?5to?5@ 10007790     srvkmcmn:deviceclass.obj
 0001:000067c4       ??_C@_0CN@NBHNGLEM@PVRSRVOpenBCDeviceKM?5?3?5Failed?5to@ 100077c4     srvkmcmn:deviceclass.obj
 0001:000067f4       ??_C@_0DI@JDOAGHCH@PVRSRVOpenBCDeviceKM?3?5Failed?5to?5@ 100077f4     srvkmcmn:deviceclass.obj
 0001:0000682c       ??_C@_0DG@IIDCEGBB@PVRSRVOpenBCDeviceKM?3?5Failed?5psB@ 1000782c     srvkmcmn:deviceclass.obj
 0001:00006864       ??_C@_0DD@EMGMCJHB@PVRSRVOpenBCDeviceKM?3?5No?5devnode@ 10007864     srvkmcmn:deviceclass.obj
 0001:00006898       ??_C@_0CF@LMLELGBA@PVRSRVOpenBCDeviceKM?3?5Invalid?5pa@ 10007898     srvkmcmn:deviceclass.obj
 0001:000068c0       ??_C@_0EP@KPLFDLOC@CloseBCDeviceCallBack?3?5buffer?5?$CFd@ 100078c0     srvkmcmn:deviceclass.obj
 0001:00006910       ??_C@_0CK@MBGHAGGK@PVRSRVGetBCInfoKM?5?3?5Failed?5to?5ge@ 10007910     srvkmcmn:deviceclass.obj
 0001:0000693c       ??_C@_0CG@ONPPILJE@PVRSRVGetBCInfoKM?3?5Invalid?5param@ 1000793c     srvkmcmn:deviceclass.obj
 0001:00006964       ??_C@_0DH@JMODHDCK@PVRSRVGetBCBufferKM?3?5Buffer?5inde@ 10007964     srvkmcmn:deviceclass.obj
 0001:0000699c       ??_C@_0CI@NICDAPAL@PVRSRVGetBCBufferKM?3?5Invalid?5par@ 1000799c     srvkmcmn:deviceclass.obj
 0001:000069c4       ??_C@_0DE@IMPFFJFP@PVRSRVRegisterBCDeviceKM?3?5Failed@ 100079c4     srvkmcmn:deviceclass.obj
 0001:000069f8       ??_C@_0DD@KKJCKHBD@PVRSRVRegisterBCDeviceKM?3?5Failed@ 100079f8     srvkmcmn:deviceclass.obj
 0001:00006a2c       ??_C@_0DA@GBACBPLA@PVRSRVRegisterBCDeviceKM?3?5Failed@ 10007a2c     srvkmcmn:deviceclass.obj
 0001:00006a60       ??_C@_0FA@HBOFFGLG@PVRSRVRemoveBCDeviceKM?3?5failed?5a@ 10007a60     srvkmcmn:deviceclass.obj
 0001:00006ab0       ??_C@_0DI@GANMAIGB@PVRSRVRemoveBCDeviceKM?3?5requeste@ 10007ab0     srvkmcmn:deviceclass.obj
 0001:00006ae8       ??_C@_0FD@EFGAKLHL@c?3?2data?2jatin?2powervr_build?2ddk1@ 10007ae8     srvkmcmn:ra.obj
 0001:00006b40       ??_C@_0ED@EGAKHIEJ@RA_Create?3?5name?$DN?8?$CFs?8?0?5base?$DN0x?$CFx?0@ 10007b40     srvkmcmn:ra.obj
 0001:00006b84       ??_C@_0DD@FCBFAEKP@_InsertResource?3?5call?5to?5_Segmen@ 10007b84     srvkmcmn:ra.obj
 0001:00006bb8       ??_C@_0CM@LMOEFHNM@_InsertResource?3?5invalid?5paramet@ 10007bb8     srvkmcmn:ra.obj
 0001:00006be4       ??_C@_0CM@LBLNFBK@_SegmentListInsertAfter?3?5invalid@ 10007be4     srvkmcmn:ra.obj
 0001:00006c10       ??_C@_0CB@EMFLKNEJ@RA_Delete?3?5base?5?$DN?50x?$CFx?5size?$DN0x?$CFx@ 10007c10     srvkmcmn:ra.obj
 0001:00006c38       ??_C@_0FE@GMCLDFNB@Likely?5Cause?3?5client?5drivers?5not@ 10007c38     srvkmcmn:ra.obj
 0001:00006c90       ??_C@_0EI@OJCHNEBE@RA_Delete?3?5allocations?5still?5exi@ 10007c90     srvkmcmn:ra.obj
 0001:00006cd8       ??_C@_0BF@CPJEKIMB@RA_Delete?3?5name?$DN?8?$CFs?8?$AA@ 10007cd8     srvkmcmn:ra.obj
 0001:00006cf0       ??_C@_0CG@GMLNBLL@RA_Delete?3?5invalid?5parameter?5?9?5p@ 10007cf0     srvkmcmn:ra.obj
 0001:00006d18       ??_C@_0CF@FBABDACF@RA_TestDelete?3?5base?5?$DN?50x?$CFx?5size?$DN@ 10007d18     srvkmcmn:ra.obj
 0001:00006d40       ??_C@_0CH@LHKMALOL@RA_TestDelete?3?5detected?5resource@ 10007d40     srvkmcmn:ra.obj
 0001:00006d68       ??_C@_0CI@KPHLKMFP@RA_Add?3?5name?$DN?8?$CFs?8?0?5base?$DN0x?$CFx?0?5si@ 10007d68     srvkmcmn:ra.obj
 0001:00006d90       ??_C@_0CD@FNNDJBCH@RA_Add?3?5invalid?5parameter?5?9?5pAre@ 10007d90     srvkmcmn:ra.obj
 0001:00006db4       ??_C@_0DA@MMPKEFA@RA_Alloc?3?5name?$DN?8?$CFs?8?0?5size?$DN0x?$CFx?0?5@ 10007db4     srvkmcmn:ra.obj
 0001:00006de4       ??_C@_0CH@IKNKKEED@RA_Alloc?3?5name?$DN?8?$CFs?8?5uAlignment?5f@ 10007de4     srvkmcmn:ra.obj
 0001:00006e0c       ??_C@_0CH@LEPELAJE@RA_Alloc?3?5name?$DN?8?$CFs?8?0?5size?$DN0x?$CFx?5f@ 10007e0c     srvkmcmn:ra.obj
 0001:00006e38       ??_C@_0ED@ELFCLAC@RA_Alloc?3?5arena?$DN?8?$CFs?8?0?5size?$DN0x?$CFx?$CI@ 10007e38     srvkmcmn:ra.obj
 0001:00006e7c       ??_C@_0CF@NCPJJOEM@RA_Alloc?3?5invalid?5parameter?5?9?5pA@ 10007e7c     srvkmcmn:ra.obj
 0001:00006ea4       ??_C@_0DI@KOCJOKED@RA_InsertResourceSpan?3?5arena?$DN?8?$CFs@ 10007ea4     srvkmcmn:ra.obj
 0001:00006edc       ??_C@_0DA@ILGIMPPP@_InsertResourceSpan?3?5invalid?5par@ 10007edc     srvkmcmn:ra.obj
 0001:00006f10       ??_C@_0EG@JCKLCKFA@AttemptAllocAligned?3?5mismatch?5in@ 10007f10     srvkmcmn:ra.obj
 0001:00006f58       ??_C@_0CI@JPEBBDLL@_AttemptAllocAligned?3?5Back?5split@ 10007f58     srvkmcmn:ra.obj
 0001:00006f80       ??_C@_0CJ@IKHDHEOL@_AttemptAllocAligned?3?5Front?5spli@ 10007f80     srvkmcmn:ra.obj
 0001:00006fb0       ??_C@_0EP@KDMPOKBK@RA_AttemptAllocAligned?3?5pBT?9base@ 10007fb0     srvkmcmn:ra.obj
 0001:00007000       ??_C@_0DB@CCNIEJ@_AttemptAllocAligned?3?5invalid?5pa@ 10008000     srvkmcmn:ra.obj
 0001:00007034       ??_C@_0CK@NNCHEEFP@_SegmentSplit?3?5invalid?5parameter@ 10008034     srvkmcmn:ra.obj
 0001:00007060       ??_C@_0BL@KLLLEDPG@_FreeBT?3?5invalid?5parameter?$AA@ 10008060     srvkmcmn:ra.obj
 0001:0000707c       ??_C@_0BO@HLPLMMKK@RA_Free?3?5name?$DN?8?$CFs?8?0?5base?$DN0x?$CFx?$AA@ 1000807c     srvkmcmn:ra.obj
 0001:0000709c       ??_C@_0CE@IHPFJEHB@RA_Free?3?5invalid?5parameter?5?9?5pAr@ 1000809c     srvkmcmn:ra.obj
 0001:000070c0       ??_C@_0CF@NLNFGEAD@?7base?$DN0x?$CFx?5size?$DN0x?$CFx?5type?$DN?$CFs?5ref@ 100080c0     srvkmcmn:ra.obj
 0001:000070e8       ??_C@_0DF@OLDHKALG@?5?5error?3?5tail?5boundary?5tag?5has?5i@ 100080e8     srvkmcmn:ra.obj
 0001:00007120       ??_C@_0DF@LCJMIKHC@?5?5error?3?5head?5boundary?5tag?5has?5i@ 10008120     srvkmcmn:ra.obj
 0001:00007158       ??_C@_0BC@EDPCNOOG@?5?5segment?5Chain?3?6?$AA@ 10008158     srvkmcmn:ra.obj
 0001:0000716c       ??_C@_0BC@CCFCNGOG@export?5count?7?7?$CFu?6?$AA@ 1000816c     srvkmcmn:ra.obj
 0001:00007180       ??_C@_0BC@NNFENKBN@import?5count?7?7?$CFu?6?$AA@ 10008180     srvkmcmn:ra.obj
 0001:00007194       ??_C@_0BB@ILAJODFG@total?5frees?7?7?$CFu?6?$AA@ 10008194     srvkmcmn:ra.obj
 0001:000071a8       ??_C@_0BC@DNHNOODK@total?5allocs?7?7?$CFu?6?$AA@ 100081a8     srvkmcmn:ra.obj
 0001:000071bc       ??_C@_0BP@JOODJHMD@free?5resource?5count?7?$CFu?5?$CI0x?$CFx?$CJ?6?$AA@ 100081bc     srvkmcmn:ra.obj
 0001:000071dc       ??_C@_0BH@MJPDOMCE@free?5segment?5count?7?$CFu?6?$AA@ 100081dc     srvkmcmn:ra.obj
 0001:000071f4       ??_C@_0BH@DNOKCNOF@live?5segment?5count?7?$CFu?6?$AA@ 100081f4     srvkmcmn:ra.obj
 0001:0000720c       ??_C@_0BA@IFMOELMP@span?5count?7?7?$CFu?6?$AA@ 1000820c     srvkmcmn:ra.obj
 0001:0000721c       ??_C@_0CN@KEHAIOEL@?5?5allocCB?$DN?$CFp?5freeCB?$DN?$CFp?5handle?$DN?$CFp@ 1000821c     srvkmcmn:ra.obj
 0001:0000724c       ??_C@_0O@FCFOECN@?6Arena?5?8?$CFs?8?3?6?$AA@ 1000824c     srvkmcmn:ra.obj
 0001:0000725c       ??_C@_04HCPOGDOG@junk?$AA@ 1000825c     srvkmcmn:ra.obj
 0001:00007264       ??_C@_04GLMHKBCH@live?$AA@ 10008264     srvkmcmn:ra.obj
 0001:0000726c       ??_C@_04LIAPHEDB@free?$AA@ 1000826c     srvkmcmn:ra.obj
 0001:00007274       ??_C@_04FOPLNFFP@span?$AA@ 10008274     srvkmcmn:ra.obj
 0001:0000727c       ??_C@_0CE@BNPACLDO@Bytes?5free?3?5Arena?5?$CF?930s?3?5?$CFu?5?$CI0x?$CF@ 1000827c     srvkmcmn:ra.obj
 0001:000072a0       ??_C@_0DI@MPDCBGNL@There?5is?5no?5Command?5Complete?5Dat@ 100082a0     srvkmcmn:queue.obj
 0001:000072d8       ??_C@_0DF@GHDMPDDH@Flip?5Command?5Complete?5Data?5?$CFu?5fo@ 100082d8     srvkmcmn:queue.obj
 0001:00007310       ??_C@_0BF@HFLGPNHL@?7?$CFs?5?$CFu?3?5?$CINot?5in?5use?$CJ?$AA@ 10008310     srvkmcmn:queue.obj
 0001:00007328       ??_C@_0FB@IFCNJACL@?7?$CFs?5?$CFu?3?5ROC?5DevVAddr?30x?$CFX?5ROP?30x@ 10008328     srvkmcmn:queue.obj
 0001:0000737c       ??_C@_04IIEJFGNN@DEST?$AA@ 1000837c     srvkmcmn:queue.obj
 0001:00007384       ??_C@_03LDGPGGLH@SRC?$AA@  10008384     srvkmcmn:queue.obj
 0001:00007388       ??_C@_0DJ@BBLJMNEC@PVRSRVCreateCommandQueueKM?3?5Fail@ 10008388     srvkmcmn:queue.obj
 0001:000073c8       ??_C@_0FG@LPDPPAIC@c?3?2data?2jatin?2powervr_build?2ddk1@ 100083c8     srvkmcmn:queue.obj
 0001:00007420       ??_C@_0DJ@JOFHJLJK@PVRSRVCreateCommandQueueKM?3?5Fail@ 10008420     srvkmcmn:queue.obj
 0001:0000745c       ??_C@_0DE@BNOPFLFJ@PVRSRVDestroyCommandQueueKM?5?3?5Fa@ 1000845c     srvkmcmn:queue.obj
 0001:00007490       ??_C@_0DC@IFEECGJO@PVRSRVGetQueueSpace?3?5max?5command@ 10008490     srvkmcmn:queue.obj
 0001:000074c8       ??_C@_0EG@BFPMMFJ@PVRSRVInsertCommandKM?3?5Src?5?$CFu?5RO@ 100084c8     srvkmcmn:queue.obj
 0001:00007510       ??_C@_0EG@HPGBLOIN@PVRSRVInsertCommandKM?3?5Dst?5?$CFu?5RO@ 10008510     srvkmcmn:queue.obj
 0001:00007558       ??_C@_0CO@NDPHNMEC@No?5Queues?5installed?5?9?5cannot?5pro@ 10008558     srvkmcmn:queue.obj
 0001:00007588       ??_C@_0EO@BMDOJAFJ@PVRSRVProcessCommand?3?5Src?5?$CFu?5RO?9@ 10008588     srvkmcmn:queue.obj
 0001:000075d8       ??_C@_0EO@HCNEKEDP@PVRSRVProcessCommand?3?5Dst?5?$CFu?5RO?9@ 100085d8     srvkmcmn:queue.obj
 0001:00007628       ??_C@_0CO@HFHFHANO@PVRSRVProcessCommand?3?5invalid?5De@ 10008628     srvkmcmn:queue.obj
 0001:00007658       ??_C@_0GH@OJBHPPFB@PVRSRVProcessCommand?3?5Stale?5sync@ 10008658     srvkmcmn:queue.obj
 0001:000076c0       ??_C@_0EI@GAFHLNJF@PVRSRVCommandCompleteKM?3?5Src?5?$CFu?5@ 100086c0     srvkmcmn:queue.obj
 0001:00007708       ??_C@_0EI@BOGJMPEB@PVRSRVCommandCompleteKM?3?5Dst?5?$CFu?5@ 10008708     srvkmcmn:queue.obj
 0001:00007750       ??_C@_0EJ@CMMAEEKI@PVRSRVRegisterCmdProcListKM?3?5Fai@ 10008750     srvkmcmn:queue.obj
 0001:0000779c       ??_C@_0DE@NAKKFBHL@PVRSRVRegisterCmdProcListKM?3?5Fai@ 1000879c     srvkmcmn:queue.obj
 0001:000077d0       ??_C@_0DF@OMPPKCHN@PVRSRVRegisterCmdProcListKM?3?5Fai@ 100087d0     srvkmcmn:queue.obj
 0001:00007808       ??_C@_0DF@MCNDIMFG@PVRSRVRegisterCmdProcListKM?3?5inv@ 10008808     srvkmcmn:queue.obj
 0001:00007840       ??_C@_0DD@KNHFPOAN@PVRSRVRemoveCmdProcListKM?3?5inval@ 10008840     srvkmcmn:queue.obj
 0001:00007878       ??_C@_0FF@CFOAIDEI@c?3?2data?2jatin?2powervr_build?2ddk1@ 10008878     srvkmcmn:hash.obj
 0001:000078d0       ??_C@_0CH@DNLNNLHH@HASH_Create_Extended?3?5InitialSiz@ 100088d0     srvkmcmn:hash.obj
 0001:000078f8       ??_C@_0CK@JEOFEIEN@HASH_Delete?3?5leak?5detected?5in?5ha@ 100088f8     srvkmcmn:hash.obj
 0001:00007924       ??_C@_0M@ONNJEOBP@HASH_Delete?$AA@ 10008924     srvkmcmn:hash.obj
 0001:00007930       ??_C@_0CI@LEDLCMON@HASH_Insert_Extended?3?5invalid?5pa@ 10008930     srvkmcmn:hash.obj
 0001:00007958       ??_C@_0DH@BOBINED@HASH_Insert_Extended?3?5Hash?$DN0x?$CF08@ 10008958     srvkmcmn:hash.obj
 0001:00007990       ??_C@_0CA@CFAJLCAF@_ChainInsert?3?5invalid?5parameter?$AA@ 10008990     srvkmcmn:hash.obj
 0001:000079b0       ??_C@_0DE@NEOLFAFA@HASH_Resize?3?5oldsize?$DN0x?$CFx?5?5newsi@ 100089b0     srvkmcmn:hash.obj
 0001:000079e4       ??_C@_0CF@CFGOAJCO@_Rehash?3?5call?5to?5_ChainInsert?5fa@ 100089e4     srvkmcmn:hash.obj
 0001:00007a0c       ??_C@_0CH@HIJOIIOG@HASH_Insert?3?5Hash?$DN0x?$CFx?0?5k?$DN0x?$CFx?0?5@ 10008a0c     srvkmcmn:hash.obj
 0001:00007a34       ??_C@_0DG@CHFHCMAF@HASH_Remove_Extended?3?5Hash?$DN0x?$CFx?0@ 10008a34     srvkmcmn:hash.obj
 0001:00007a6c       ??_C@_0DC@BHNPHMEO@HASH_Remove_Extended?3?5Hash?$DN0x?$CFx?0@ 10008a6c     srvkmcmn:hash.obj
 0001:00007aa0       ??_C@_0CG@CJBFLAFN@HASH_Remove_Extended?3?5Null?5hash?5@ 10008aa0     srvkmcmn:hash.obj
 0001:00007ac8       ??_C@_0CL@JNAOMEJG@HASH_Remove_Extended?3?5Hash?$DN0x?$CFx?0@ 10008ac8     srvkmcmn:hash.obj
 0001:00007af4       ??_C@_0BP@CBDHJFAO@HASH_Remove?3?5Hash?$DN0x?$CFx?0?5k?$DN0x?$CFx?$AA@ 10008af4     srvkmcmn:hash.obj
 0001:00007b14       ??_C@_0CP@LHIPGHKP@HASH_Retrieve?3?5Hash?$DN0x?$CFx?0?5pKey?$DN0@ 10008b14     srvkmcmn:hash.obj
 0001:00007b44       ??_C@_0CL@NGDLLPHI@HASH_Retrieve?3?5Hash?$DN0x?$CFx?0?5pKey?$DN0@ 10008b44     srvkmcmn:hash.obj
 0001:00007b70       ??_C@_0CI@IFKANGKO@HASH_Retrieve_Extended?3?5Null?5has@ 10008b70     srvkmcmn:hash.obj
 0001:00007b98       ??_C@_0CN@ENPAIJNK@HASH_Retrieve_Extended?3?5Hash?$DN0x?$CF@ 10008b98     srvkmcmn:hash.obj
 0001:00007bc8       ??_C@_0CB@DGOCPAJM@HASH_Retrieve?3?5Hash?$DN0x?$CFx?0?5k?$DN0x?$CFx@ 10008bc8     srvkmcmn:hash.obj
 0001:00007bf0       ??_C@_0FK@BDEAJBPB@c?3?2data?2jatin?2powervr_build?2ddk1@ 10008bf0     srvkmcmn:devicemem.obj
 0001:00007c4c       ??_C@_0CO@GEGKEMOD@PVRSRVGetDeviceMemHeapsKM?3?5hDevC@ 10008c4c     srvkmcmn:devicemem.obj
 0001:00007c7c       ??_C@_0DI@LAMABGHP@PVRSRVCreateDeviceMemContextKM?3?5@ 10008c7c     srvkmcmn:devicemem.obj
 0001:00007cb4       ??_C@_0DD@LHPNFOHI@PVRSRVCreateDeviceMemContextKM?3?5@ 10008cb4     srvkmcmn:devicemem.obj
 0001:00007ce8       ??_C@_0DB@LBIJIGFB@PVRSRVGetDeviceMemHeapInfoKM?3?5hD@ 10008ce8     srvkmcmn:devicemem.obj
 0001:00007d1c       ??_C@_0CO@GPJAIOGB@PVRSRVAllocSyncInfoKM?3?5Failed?5to@ 10008d1c     srvkmcmn:devicemem.obj
 0001:00007d4c       ??_C@_0CA@HNMHJOMG@AllocDeviceMem?3?5BM_Alloc?5Failed?$AA@ 10008d4c     srvkmcmn:devicemem.obj
 0001:00007d6c       ??_C@_0DB@GBNGNMLG@AllocDeviceMem?3?5Failed?5to?5alloc?5@ 10008d6c     srvkmcmn:devicemem.obj
 0001:00007da0       ??_C@_0DC@BEIHEBJK@oops?3?5sync?5info?5ref?5count?5not?5ze@ 10008da0     srvkmcmn:devicemem.obj
 0001:00007dd4       ??_C@_0CH@NNNFOFFE@FreeMemCallBackCommon?3?5Unknown?5m@ 10008dd4     srvkmcmn:devicemem.obj
 0001:00007e00       ??_C@_0EH@BIAGNCED@FreeMemCallBackCommon?3?5PVRSRVRel@ 10008e00     srvkmcmn:devicemem.obj
 0001:00007e48       ??_C@_0EN@PLNJICIO@FreeMemCallBackCommon?3?5can?8t?5fin@ 10008e48     srvkmcmn:devicemem.obj
 0001:00007e98       ??_C@_0CG@NPGAPIGJ@PVRSRVWrapExtMemoryKM?3?5BM_Wrap?5F@ 10008e98     srvkmcmn:devicemem.obj
 0001:00007ec0       ??_C@_0DD@JJILEMFM@PVRSRVWrapExtMemoryKM?3?5unable?5to@ 10008ec0     srvkmcmn:devicemem.obj
 0001:00007ef4       ??_C@_0DI@PIJKDLJN@PVRSRVWrapExtMemoryKM?3?5Failed?5to@ 10008ef4     srvkmcmn:devicemem.obj
 0001:00007f2c       ??_C@_0CJ@JEMEAEFE@PVRSRVWrapExtMemoryKM?3?5invalid?5p@ 10008f2c     srvkmcmn:devicemem.obj
 0001:00007f58       ??_C@_0CI@LBCGDJGB@PVRSRVMapDeviceMemoryKM?3?5BM_Wrap@ 10008f58     srvkmcmn:devicemem.obj
 0001:00007f80       ??_C@_0DJ@LBJFAJMF@PVRSRVMapDeviceMemoryKM?3?5Failed?5@ 10008f80     srvkmcmn:devicemem.obj
 0001:00007fbc       ??_C@_0DK@FNAFDCEG@PVRSRVMapDeviceMemoryKM?3?5Failed?5@ 10008fbc     srvkmcmn:devicemem.obj
 0001:00007ff8       ??_C@_0CM@DBHAALJI@PVRSRVMapDeviceMemoryKM?3?5invalid@ 10008ff8     srvkmcmn:devicemem.obj
 0001:00008024       ??_C@_0DG@FOBFMBAD@UnmapDeviceMemoryCallBack?3?5Faile@ 10009024     srvkmcmn:devicemem.obj
 0001:0000805c       ??_C@_0DE@HHLFKMLO@UnmapDeviceMemoryCallBack?3?5Faile@ 1000905c     srvkmcmn:devicemem.obj
 0001:00008090       ??_C@_0CN@JKFHGLKA@PVRSRVMapDeviceClassMemoryKM?3?5BM@ 10009090     srvkmcmn:devicemem.obj
 0001:000080c0       ??_C@_0DP@BPKFMEOA@PVRSRVMapDeviceClassMemoryKM?3?5Fa@ 100090c0     srvkmcmn:devicemem.obj
 0001:00008100       ??_C@_0DK@GBHKDAJP@PVRSRVMapDeviceClassMemoryKM?3?5un@ 10009100     srvkmcmn:devicemem.obj
 0001:0000813c       ??_C@_0DL@JBJIENCA@PVRSRVMapDeviceClassMemoryKM?3?5un@ 1000913c     srvkmcmn:devicemem.obj
 0001:00008178       ??_C@_0EF@LGKADKLK@PVRSRVMapDeviceClassMemoryKM?3?5Fa@ 10009178     srvkmcmn:devicemem.obj
 0001:000081c0       ??_C@_0DB@KCBMJNC@PVRSRVMapDeviceClassMemoryKM?3?5in@ 100091c0     srvkmcmn:devicemem.obj
 0001:000081f4       ??_C@_0DA@GCFHIMGA@BM_DestroyContext?3?5ResManFreeRes@ 100091f4     srvkmcmn:buffer_manager.obj
 0001:00008224       ??_C@_0DI@KNBMLILF@BM_DestroyContext?3?5List_BM_HEAP_@ 10009224     srvkmcmn:buffer_manager.obj
 0001:0000825c       ??_C@_0CC@DMGJBDFD@BM_DestroyContext?3?5Invalid?5handl@ 1000925c     srvkmcmn:buffer_manager.obj
 0001:00008280       ??_C@_0FP@CIKMCEEA@c?3?2data?2jatin?2powervr_build?2ddk1@ 10009280     srvkmcmn:buffer_manager.obj
 0001:000082e0       ??_C@_0BC@GFNGIFDP@BM_DestroyContext?$AA@ 100092e0     srvkmcmn:buffer_manager.obj
 0001:000082f4       ??_C@_0CO@FLFHBMEI@BM_DestroyContext_AnyCb?3?5RA_Test@ 100092f4     srvkmcmn:buffer_manager.obj
 0001:00008324       ??_C@_0CL@OGGNDNMC@BM_CreateContext?3?5ResManRegister@ 10009324     srvkmcmn:buffer_manager.obj
 0001:00008350       ??_C@_0DM@LAKGOMNL@BM_CreateContext?3?5psDevMemoryInf@ 10009350     srvkmcmn:buffer_manager.obj
 0001:0000838c       ??_C@_0CH@FCIMMDGG@BM_CreateContext?3?5MMUInitialise?5@ 1000938c     srvkmcmn:buffer_manager.obj
 0001:000083b4       ??_C@_0CF@LLHJIMCJ@BM_CreateContext?3?5HASH_Create?5fa@ 100093b4     srvkmcmn:buffer_manager.obj
 0001:000083dc       ??_C@_0BP@PAGOMEJH@BM_CreateContext?3?5Alloc?5failed?$AA@ 100093dc     srvkmcmn:buffer_manager.obj
 0001:000083fc       ??_C@_0BB@JEMLJDHN@BM_CreateContext?$AA@ 100093fc     srvkmcmn:buffer_manager.obj
 0001:00008410       ??_C@_0DC@HFHAJAIK@BM_DestroyContext?3?5backing?5store@ 10009410     srvkmcmn:buffer_manager.obj
 0001:00008444       ??_C@_0CF@DIPNFBHF@BM_CreateHeap?3?5LocalDevMemArena?5@ 10009444     srvkmcmn:buffer_manager.obj
 0001:0000846c       ??_C@_0CA@POCIOFO@BM_CreateHeap?3?5RA_Create?5failed?$AA@ 1000946c     srvkmcmn:buffer_manager.obj
 0001:0000848c       ??_C@_0CA@BOBMIKCI@BM_CreateHeap?3?5MMUCreate?5failed?$AA@ 1000948c     srvkmcmn:buffer_manager.obj
 0001:000084ac       ??_C@_0BM@LKNFHMDK@BM_CreateHeap?3?5Alloc?5failed?$AA@ 100094ac     srvkmcmn:buffer_manager.obj
 0001:000084c8       ??_C@_0BP@FGCGFLM@BM_CreateHeap?3?5BM_CONTEXT?5null?$AA@ 100094c8     srvkmcmn:buffer_manager.obj
 0001:000084e8       ??_C@_0O@MPDBGJMA@BM_CreateHeap?$AA@ 100094e8     srvkmcmn:buffer_manager.obj
 0001:000084f8       ??_C@_0CE@DOHGMOCF@BM_DestroyHeap?3?5invalid?5heap?5han@ 100094f8     srvkmcmn:buffer_manager.obj
 0001:0000851c       ??_C@_0CP@ILLKBIDP@BM_DestroyHeap?3?5backing?5store?5ty@ 1000951c     srvkmcmn:buffer_manager.obj
 0001:0000854c       ??_C@_0P@INMIHDBN@BM_DestroyHeap?$AA@ 1000954c     srvkmcmn:buffer_manager.obj
 0001:0000855c       ??_C@_0BA@JBONACAH@BM_Reinitialise?$AA@ 1000955c     srvkmcmn:buffer_manager.obj
 0001:0000856c       ??_C@_0CD@GCGDEDB@BM_Alloc?5?$CIuSize?$DN0x?$CFx?0?5uFlags?$DN0x?$CF@ 1000956c     srvkmcmn:buffer_manager.obj
 0001:00008590       ??_C@_0BN@HPMHFDKF@BM_Alloc?3?5AllocMemory?5FAILED?$AA@ 10009590     srvkmcmn:buffer_manager.obj
 0001:000085b0       ??_C@_0BO@LIKLKKCO@BM_Alloc?3?5BM_Buf?5alloc?5FAILED?$AA@ 100095b0     srvkmcmn:buffer_manager.obj
 0001:000085d0       ??_C@_0DM@LCOMHOMG@BM_Alloc?5?$CIuSize?$DN0x?$CFx?0?5uFlags?$DN0x?$CF@ 100095d0     srvkmcmn:buffer_manager.obj
 0001:0000860c       ??_C@_0BM@BOAHELLH@BM_Alloc?3?5invalid?5parameter?$AA@ 1000960c     srvkmcmn:buffer_manager.obj
 0001:00008628       ??_C@_0EB@PNAGBLMI@AllocMemory?3?5pBuf?$DN?$CF08x?3?5DevV?$DN?$CF08@ 10009628     srvkmcmn:buffer_manager.obj
 0001:00008670       ??_C@_0EF@FEPIDLMB@AllocMemory?3?5pMapping?$DN?$CF08x?3?5DevV@ 10009670     srvkmcmn:buffer_manager.obj
 0001:000086b8       ??_C@_0CF@DGOMLKB@AllocMemory?3?5OSAllocMem?$CI0x?$CFx?$CJ?5FA@ 100096b8     srvkmcmn:buffer_manager.obj
 0001:000086e0       ??_C@_0CM@BAIPECNL@AllocMemory?3?5invalid?5parameter?5?9@ 100096e0     srvkmcmn:buffer_manager.obj
 0001:0000870c       ??_C@_0CG@DOHCOAMA@AllocMemory?3?5OSGetSubMemHandle?5F@ 1000970c     srvkmcmn:buffer_manager.obj
 0001:00008734       ??_C@_0CD@JLNFOIPJ@AllocMemory?3?5RA_Alloc?$CI0x?$CFx?$CJ?5FAIL@ 10009734     srvkmcmn:buffer_manager.obj
 0001:00008758       ??_C@_0DD@PFLAIEKH@AllocMemory?3?5backing?5store?5type?5@ 10009758     srvkmcmn:buffer_manager.obj
 0001:00008790       ??_C@_0FB@NOLGEPFB@AllocMemory?3?5combination?5of?5DevV@ 10009790     srvkmcmn:buffer_manager.obj
 0001:000087e4       ??_C@_0DC@HHPEKCCC@AllocMemory?5?$CIuSize?$DN0x?$CFx?0?5uFlags?$DN@ 100097e4     srvkmcmn:buffer_manager.obj
 0001:00008818       ??_C@_0ED@BFAFKOON@ZeroBuf?3?5OSMapPhysToLin?5while?5ze@ 10009818     srvkmcmn:buffer_manager.obj
 0001:0000885c       ??_C@_0DF@PKCAEEGC@ZeroBuf?3?5OSMapPhysToLin?5for?5cont@ 1000985c     srvkmcmn:buffer_manager.obj
 0001:00008894       ??_C@_0DB@MJDDCBFG@BM_Wrap?5?$CIuSize?$DN0x?$CFx?0?5uFlags?$DN0x?$CFx@ 10009894     srvkmcmn:buffer_manager.obj
 0001:000088c8       ??_C@_0BM@HLKMIDNE@BM_Wrap?3?5HASH_Insert?5FAILED?$AA@ 100098c8     srvkmcmn:buffer_manager.obj
 0001:000088e4       ??_C@_0BL@KEBNHFPP@BM_Wrap?3?5WrapMemory?5FAILED?$AA@ 100098e4     srvkmcmn:buffer_manager.obj
 0001:00008900       ??_C@_0BN@DPEDIEGE@BM_Wrap?3?5BM_Buf?5alloc?5FAILED?$AA@ 10009900     srvkmcmn:buffer_manager.obj
 0001:00008920       ??_C@_0EI@PICNNDAF@BM_Wrap?5?$CIMatched?5previous?5Wrap?$CB?5@ 10009920     srvkmcmn:buffer_manager.obj
 0001:00008968       ??_C@_0FD@GHCGPLBC@BM_Wrap?5?$CIuSize?$DN0x?$CFx?0?5uOffset?$DN0x?$CF@ 10009968     srvkmcmn:buffer_manager.obj
 0001:000089bc       ??_C@_0CL@OFEJHDPC@WrapMemory?3?5DevV?$DN?$CF08X?5CpuP?$DN?$CF08X?5@ 100099bc     srvkmcmn:buffer_manager.obj
 0001:000089e8       ??_C@_0BF@GBOAIGHK@DevVaddr?4uiAddr?$DN?$CF08X?$AA@ 100099e8     srvkmcmn:buffer_manager.obj
 0001:00008a00       ??_C@_0CF@IGKBICII@WrapMemory?3?5OSGetSubMemHandle?5fa@ 10009a00     srvkmcmn:buffer_manager.obj
 0001:00008a28       ??_C@_0CI@LAMDPBDI@WrapMemory?3?5DevMemoryAlloc?$CI0x?$CFx?$CJ@ 10009a28     srvkmcmn:buffer_manager.obj
 0001:00008a50       ??_C@_0DD@NGJKDIJC@WrapMemory?3?5OSReserveDiscontigPh@ 10009a50     srvkmcmn:buffer_manager.obj
 0001:00008a84       ??_C@_0DH@OKNGNLAJ@WrapMemory?3?5OSReservePhys?5Phys?$DN0@ 10009a84     srvkmcmn:buffer_manager.obj
 0001:00008abc       ??_C@_0DD@NCOOHPAA@WrapMemory?3?5OSRegisterDiscontigM@ 10009abc     srvkmcmn:buffer_manager.obj
 0001:00008af0       ??_C@_0DH@BCOFFJIK@WrapMemory?3?5OSRegisterMem?5Phys?$DN0@ 10009af0     srvkmcmn:buffer_manager.obj
 0001:00008b28       ??_C@_0CE@JNFBELBA@WrapMemory?3?5OSAllocMem?$CI0x?$CFx?$CJ?5FAI@ 10009b28     srvkmcmn:buffer_manager.obj
 0001:00008b50       ??_C@_0GF@NPOMMKMH@WrapMemory?$CIpsBMHeap?$DN?$CF08X?0?5size?$DN0@ 10009b50     srvkmcmn:buffer_manager.obj
 0001:00008bb8       ??_C@_0EN@PPKJDICI@FreeBuf?3?5combination?5of?5DevVAddr@ 10009bb8     srvkmcmn:buffer_manager.obj
 0001:00008c08       ??_C@_0DO@KMKKJNMG@FreeBuf?3?5pBuf?$DN0x?$CFx?3?5DevVAddr?$DN?$CF08@ 10009c08     srvkmcmn:buffer_manager.obj
 0001:00008c48       ??_C@_0BL@CCFONIGO@BM_Free?3?5invalid?5parameter?$AA@ 10009c48     srvkmcmn:buffer_manager.obj
 0001:00008c64       ??_C@_0BB@EILADFMM@BM_Free?5?$CIh?$DN0x?$CFx?$CJ?$AA@ 10009c64     srvkmcmn:buffer_manager.obj
 0001:00008c78       ??_C@_0CB@KHNLJNPD@BM_HandleToCpuVaddr?$CIh?$DN0x?$CFx?$CJ?$DN0x?$CFx@ 10009c78     srvkmcmn:buffer_manager.obj
 0001:00008c9c       ??_C@_0CH@LOAMMIJK@BM_HandleToCpuVaddr?3?5invalid?5par@ 10009c9c     srvkmcmn:buffer_manager.obj
 0001:00008cc4       ??_C@_0CB@NMLGAHBB@BM_HandleToDevVaddr?$CIh?$DN0x?$CFx?$CJ?$DN?$CF08X@ 10009cc4     srvkmcmn:buffer_manager.obj
 0001:00008ce8       ??_C@_0CH@BJOLANGA@BM_HandleToDevVaddr?3?5invalid?5par@ 10009ce8     srvkmcmn:buffer_manager.obj
 0001:00008d10       ??_C@_0CB@NKCBLHDN@BM_HandleToSysPaddr?$CIh?$DN0x?$CFx?$CJ?$DN?$CF08X@ 10009d10     srvkmcmn:buffer_manager.obj
 0001:00008d34       ??_C@_0CH@FNFIGFJG@BM_HandleToSysPaddr?3?5invalid?5par@ 10009d34     srvkmcmn:buffer_manager.obj
 0001:00008d5c       ??_C@_0CE@OOMIBMIN@BM_HandleToOSMemHandle?$CIh?$DN0x?$CFx?$CJ?$DN0@ 10009d5c     srvkmcmn:buffer_manager.obj
 0001:00008d80       ??_C@_0CK@DOEFHDDH@BM_HandleToOSMemHandle?3?5invalid?5@ 10009d80     srvkmcmn:buffer_manager.obj
 0001:00008dac       ??_C@_0DA@EFNAAEGB@Illegal?5value?5?$CFd?5for?5pMapping?9?$DOe@ 10009dac     srvkmcmn:buffer_manager.obj
 0001:00008ddc       ??_C@_0BP@OACEIJBB@DevMemoryAlloc?5ERROR?5MMU_Alloc?$AA@ 10009ddc     srvkmcmn:buffer_manager.obj
 0001:00008dfc       ??_C@_0BG@MNBKHKNC@No?0?5it?8s?5already?5set?$CB?$AA@ 10009dfc     srvkmcmn:buffer_manager.obj
 0001:00008e14       ??_C@_0DM@BFEHFBE@gXProcWorkaroundShareIndex?5?$DN?$DN?50x@ 10009e14     srvkmcmn:buffer_manager.obj
 0001:00008e50       ??_C@_0BL@HNGLKPNM@huh?$DP?5?5?5how?5can?5it?5be?5bad?$DP?$DP?$AA@ 10009e50     srvkmcmn:buffer_manager.obj
 0001:00008e6c       ??_C@_0BK@IPBGEGDL@ran?5out?5of?5shared?5buffers?$AA@ 10009e6c     srvkmcmn:buffer_manager.obj
 0001:00008e88       ??_C@_0BK@BALPGNCE@BM_ImportMemory?3?5IMG_TRUE?$AA@ 10009e88     srvkmcmn:buffer_manager.obj
 0001:00008ea4       ??_C@_0CN@LLPEANDK@BM_ImportMemory?3?5DevMemoryAlloc?$CI@ 10009ea4     srvkmcmn:buffer_manager.obj
 0001:00008ed4       ??_C@_0CM@FHGOLIMM@BM_ImportMemory?3?5Invalid?5backing@ 10009ed4     srvkmcmn:buffer_manager.obj
 0001:00008f00       ??_C@_0CG@KIGHFAMF@BM_ImportMemory?3?5OSReservePhys?5f@ 10009f00     srvkmcmn:buffer_manager.obj
 0001:00008f28       ??_C@_0CH@OCDNJKPI@BM_ImportMemory?3?5RA_Alloc?$CI0x?$CFx?$CJ?5@ 10009f28     srvkmcmn:buffer_manager.obj
 0001:00008f50       ??_C@_0CL@BHNOCBEK@BM_ImportMemory?3?5OSAllocPages?$CI0x@ 10009f50     srvkmcmn:buffer_manager.obj
 0001:00008f80       ??_C@_0EK@CGKKBOPN@Cannot?5use?5this?5memory?5sharing?5w@ 10009f80     srvkmcmn:buffer_manager.obj
 0001:00008fcc       ??_C@_0DM@IFPHEEDD@BM_ImportMemory?3?5XProcWorkaround@ 10009fcc     srvkmcmn:buffer_manager.obj
 0001:00009008       ??_C@_0FK@MOKNPBIM@Cannot?5use?5use?5this?5memory?5shari@ 1000a008     srvkmcmn:buffer_manager.obj
 0001:00009064       ??_C@_0CJ@CABNHMLD@BM_ImportMemory?3?5failed?5BM_MAPPI@ 1000a064     srvkmcmn:buffer_manager.obj
 0001:00009090       ??_C@_0CD@OFOGKPJO@BM_ImportMemory?3?5invalid?5paramet@ 1000a090     srvkmcmn:buffer_manager.obj
 0001:000090b8       ??_C@_0EP@GNKKKNLI@BM_ImportMemory?5?$CIpBMContext?$DN0x?$CFx@ 1000a0b8     srvkmcmn:buffer_manager.obj
 0001:00009108       ??_C@_0DJ@FFNGAKLH@XProcWorkaroundAllocShareable?3?5O@ 1000a108     srvkmcmn:buffer_manager.obj
 0001:00009144       ??_C@_0DP@OIGDMLPA@XProcWorkaroundAllocShareable?3?5m@ 1000a144     srvkmcmn:buffer_manager.obj
 0001:00009184       ??_C@_0DE@HCGIGGIL@XProcWorkaroundAllocShareable?3?5O@ 1000a184     srvkmcmn:buffer_manager.obj
 0001:000091b8       ??_C@_0DF@HDIDPJFJ@XProcWorkaroundAllocShareable?3?5R@ 1000a1b8     srvkmcmn:buffer_manager.obj
 0001:000091f0       ??_C@_0EG@CEDGAICC@XProcWorkaroundAllocShareable?3?5m@ 1000a1f0     srvkmcmn:buffer_manager.obj
 0001:00009238       ??_C@_0CB@HHAPFGOG@Can?8t?$CB?5?5Page?5Size?5doesn?8t?5match?$CB@ 1000a238     srvkmcmn:buffer_manager.obj
 0001:0000925c       ??_C@_0BM@JMEDMLPD@Can?8t?$CB?5?5Size?5doesn?8t?5match?$CB?$AA@ 1000a25c     srvkmcmn:buffer_manager.obj
 0001:00009278       ??_C@_0DL@OFOFBDKB@Can?8t?$CB?5?5Flags?5don?8t?5match?$CB?5?$CII?5ha@ 1000a278     srvkmcmn:buffer_manager.obj
 0001:000092b8       ??_C@_0ED@JLJLAAE@XProcWorkaroundAllocShareable?3?5r@ 1000a2b8     srvkmcmn:buffer_manager.obj
 0001:000092fc       ??_C@_0CJ@EBOIEIJO@XProcWorkaroundAllocShareable?3?5b@ 1000a2fc     srvkmcmn:buffer_manager.obj
 0001:00009328       ??_C@_0BC@DLJNMHNB@freeing?5OS?5memory?$AA@ 1000a328     srvkmcmn:buffer_manager.obj
 0001:0000933c       ??_C@_0CJ@EIABLPLH@Reduced?5refcount?5of?5SI?$FL?$CFd?$FN?5from?5@ 1000a33c     srvkmcmn:buffer_manager.obj
 0001:00009368       ??_C@_0L@OKOMGGPJ@bad?5handle?$AA@ 1000a368     srvkmcmn:buffer_manager.obj
 0001:00009374       ??_C@_0CE@NLPDDLAP@?4?4BM_FreeMemory?5?$CIh?$DN0x?$CFx?0?5base?$DN0x@ 1000a374     srvkmcmn:buffer_manager.obj
 0001:00009398       ??_C@_0CK@CHLHCHAF@BM_FreeMemory?3?5Invalid?5backing?5s@ 1000a398     srvkmcmn:buffer_manager.obj
 0001:000093c4       ??_C@_0CB@BPIDGEFF@BM_FreeMemory?3?5invalid?5parameter@ 1000a3c4     srvkmcmn:buffer_manager.obj
 0001:000093e8       ??_C@_0DC@BJFMHDJI@BM_FreeMemory?5?$CIh?$DN0x?$CFx?0?5base?$DN0x?$CFx@ 1000a3e8     srvkmcmn:buffer_manager.obj
 0001:0000941c       ??_C@_0BD@MMPLHOLJ@BM_GetPhysPageAddr?$AA@ 1000a41c     srvkmcmn:buffer_manager.obj
 0001:00009430       ??_C@_0BB@OFPPGJEH@BM_GetMMUContext?$AA@ 1000a430     srvkmcmn:buffer_manager.obj
 0001:00009444       ??_C@_0BP@MPCAOHMO@BM_GetMMUContextFromMemContext?$AA@ 1000a444     srvkmcmn:buffer_manager.obj
 0001:00009464       ??_C@_0O@JGHJEGNE@BM_GetMMUHeap?$AA@ 1000a464     srvkmcmn:buffer_manager.obj
 0001:00009474       ??_C@_0BB@HOFMHHOO@BM_GetDeviceNode?$AA@ 1000a474     srvkmcmn:buffer_manager.obj
 0001:00009488       ??_C@_0BE@EGPMNIGJ@BM_GetMappingHandle?$AA@ 1000a488     srvkmcmn:buffer_manager.obj
 0001:000094a0       ??_C@_0EJ@KPHBAEAF@SrvInit?3?5PVRSRVInitSrvDisconnect@ 1000a4a0     srvinitcommon:srvinit.obj
 0001:000094f0       ??_C@_0EP@PPMIPNHK@SrvInit?3?5Initialisation?5for?5devi@ 1000a4f0     srvinitcommon:srvinit.obj
 0001:00009540       ??_C@_0CH@JBMGPHOB@SrvInit?3?5Device?5class?5?$CFd?5not?5sup@ 1000a540     srvinitcommon:srvinit.obj
 0001:00009568       ??_C@_0CG@GDOBGEPM@SrvInit?3?5Device?5type?5?$CFd?5not?5supp@ 1000a568     srvinitcommon:srvinit.obj
 0001:00009590       ??_C@_0CM@FKEMJGA@SrvInit?3?5PVRSRVEnumerateDevices?5@ 1000a590     srvinitcommon:srvinit.obj
 0001:000095c0       ??_C@_0FK@BDFDOIGH@c?3?2data?2jatin?2powervr_build?2ddk1@ 1000a5c0     srvinitcommon:srvinit.obj
 0001:0000961c       ??_C@_0CK@JJAMDEGD@SrvInit?3?5PVRSRVInitSrvConnect?5fa@ 1000a61c     srvinitcommon:srvinit.obj
 0001:00009648       ??_C@_0GI@HJECFBGI@c?3?2data?2jatin?2powervr_build?2ddk1@ 1000a648     srvclkm:srvclient_wince.obj
 0001:000096b0       ??_C@_0CI@DJJDCMON@OSEventObjectCreate?3?5CreateEvent@ 1000a6b0     srvclkm:srvclient_wince.obj
 0001:000096d8       ??_C@_0DC@HFEBPLJD@OSEventObjectWait?3?5hOSEvent?5is?5n@ 1000a6d8     srvclkm:srvclient_wince.obj
 0001:0000970c       ??_C@_0DN@KFNBFLFN@OSEventObjectWait?3?5call?5to?5WaitF@ 1000a70c     srvclkm:srvclient_wince.obj
 0001:0000974c       ??_C@_0CN@LEDKDDPK@PVRSRVLockResource?3?5failed?5to?5lo@ 1000a74c     srvclkm:srvclient_wince.obj
 0001:0000977c       ??_C@_0CN@ONKAFNGD@PVRSRVUnlockResource?3?5Resource?5i@ 1000a77c     srvclkm:srvclient_wince.obj
 0001:000097b0       ??_C@_0EB@NGCCBOBH@PVRSRVUnlockResource?3?5Resource?5i@ 1000a7b0     srvclkm:srvclient_wince.obj
 0001:000097f4       ??_C@_0CK@GCLLIBAF@Assertion?5?$CI?$CFs?$CJ?5failed?$CB?5File?5?$CFs?0?5@ 1000a7f4     srvclkm:srvclient_wince.obj
 0001:00009820       ??_C@_0HG@FGLNMOM@c?3?2data?2jatin?2powervr_build?2ddk1@ 1000a820     srvclkm:pvr_bridge_clientkm.obj
 0001:00009898       ??_C@_0BM@JPJIOIJG@Cannot?5open?5device?5driver?4?6?$AA@ 1000a898     srvclkm:pvr_bridge_clientkm.obj
 0001:000098b4       ??_C@_1M@DMCDIEDK@?$AAP?$AAK?$AAM?$AA1?$AA?3?$AA?$AA@ 1000a8b4     srvclkm:pvr_bridge_clientkm.obj
 0001:000098c0       ??_C@_0BJ@PAGMBHBD@DeviceIoControl?5failed?4?6?$AA@ 1000a8c0     srvclkm:pvr_bridge_clientkm.obj
 0001:000098dc       ??_C@_0CM@JHEMBEJO@malloc?5failed?5to?5allocate?5pui32B@ 1000a8dc     srvclkm:pvr_bridge_clientkm.obj
 0001:00009908       ??_C@_0CI@BOBJFOOF@PVRSRVInitSrvConnect?3?5Invalid?5pa@ 1000a908     srvclkm:pvr_glue.obj
 0001:00009930       ??_C@_0GL@NFNPOHCK@c?3?2data?2jatin?2powervr_build?2ddk1@ 1000a930     srvclkm:pvr_glue.obj
 0001:0000999c       ??_C@_0CK@PKPJHMDE@PVRSRVInitSrvConnect?3?5Invalid?5co@ 1000a99c     srvclkm:pvr_glue.obj
 0001:000099c8       ??_C@_0CK@EHOJFGCJ@PVRSRVAllocDeviceMem?5?3?5Failed?5to@ 1000a9c8     srvclkm:pvr_glue.obj
 0001:000099f4       ??_C@_0CJ@ECDBINAH@PVRSRVFreeDeviceMem?3?5Ops?5Pending@ 1000a9f4     srvclkm:pvr_glue.obj
 0001:00009a20       ??_C@_0CO@LHNEMMAP@PVRSRVMapDeviceMemory?5?3?5Couldn?8t@ 1000aa20     srvclkm:pvr_glue.obj
 0001:00009a50       ??_C@_0CJ@MAJOMKPI@PVRSRVMapDeviceMemory?3?5BridgeCal@ 1000aa50     srvclkm:pvr_glue.obj
 0001:00009a7c       ??_C@_0CG@NMDKONBF@PVRSRVMapDeviceMemory?3?5Invalid?5p@ 1000aa7c     srvclkm:pvr_glue.obj
 0001:00009aa8       ??_C@_0EF@MKOCDJJF@PVRSRVAllocSharedSysMem?3?5invalid@ 1000aaa8     srvclkm:pvr_glue.obj
 0001:00009af0       ??_C@_0CN@KFNGCPNO@PVRSRVAllocDeviceMem?5?3?5Couldn?8t?5@ 1000aaf0     srvclkm:pvr_glue.obj
 0001:00009b20       ??_C@_0EI@OPIHJCFC@PVRSRVMapSharedMemToClient?3?5Fail@ 1000ab20     srvclkm:pvr_glue.obj
 0001:00009b68       ??_C@_0CO@JGIDDEOG@PVRSRVEnumerateDeviceClass?3?5Erro@ 1000ab68     srvclkm:bridged_pvr_glue.obj
 0001:00009b98       ??_C@_0CO@LFOIIJHK@PVRSRVEnumerateDeviceClass?3?5Brid@ 1000ab98     srvclkm:bridged_pvr_glue.obj
 0001:00009bc8       ??_C@_0CN@OKODPDEH@PVRSRVEnumerateDeviceClass?3?5Inva@ 1000abc8     srvclkm:bridged_pvr_glue.obj
 0001:00009bf8       ??_C@_0GG@BLHPGBNP@c?3?2data?2jatin?2powervr_build?2ddk1@ 1000abf8     srvclkm:bridged_pvr_glue.obj
 0001:00009c60       ??_C@_0CP@BHELHJGJ@PVRSRVEnumerateDeviceClass?3?5Inva@ 1000ac60     srvclkm:bridged_pvr_glue.obj
 0001:00009c90       ??_C@_0EE@FJHEMNCD@PVRSRVConnect?3?5Device?5connect?5ca@ 1000ac90     srvclkm:bridged_pvr_glue.obj
 0001:00009cd8       ??_C@_0ED@PBKBOKGM@PVRSRVConnect?3?5Unable?5to?5acquire@ 1000acd8     srvclkm:bridged_pvr_glue.obj
 0001:00009d1c       ??_C@_0CM@GCGDFPJA@PVRSRVConnect?3?5Unable?5to?5enumera@ 1000ad1c     srvclkm:bridged_pvr_glue.obj
 0001:00009d48       ??_C@_0DJ@HLBPGKDE@PVRSRVConnect?3?5Allocating?5?$CFd?5byt@ 1000ad48     srvclkm:bridged_pvr_glue.obj
 0001:00009d84       ??_C@_0CK@CLLHJPNI@PVRSRVConnect?3?5Unable?5to?5open?5co@ 1000ad84     srvclkm:bridged_pvr_glue.obj
 0001:00009db0       ??_C@_0CJ@ICLJDKGF@PVRSRVConnectServices?3?5Invalid?5p@ 1000adb0     srvclkm:bridged_pvr_glue.obj
 0001:00009ddc       ??_C@_0CD@JIEECIKF@PVRSRVConnect?3?5Invalid?5connectio@ 1000addc     srvclkm:bridged_pvr_glue.obj
 0001:00009e00       ??_C@_0CK@PINANMIN@PVRSRVEnumerateDevices?3?5Error?5?$CFd@ 1000ae00     srvclkm:bridged_pvr_glue.obj
 0001:00009e2c       ??_C@_0CK@NLLLGBBB@PVRSRVEnumerateDevices?3?5BridgeCa@ 1000ae2c     srvclkm:bridged_pvr_glue.obj
 0001:00009e58       ??_C@_0CH@DNPPBLOB@PVRSRVEnumerateDevices?3?5Invalid?5@ 1000ae58     srvclkm:bridged_pvr_glue.obj
 0001:00009e80       ??_C@_0CL@CEANKFDN@PVRSRVAcquireDeviceData?3?5Error?5?$CF@ 1000ae80     srvclkm:bridged_pvr_glue.obj
 0001:00009eac       ??_C@_0CL@HGGBIKB@PVRSRVAcquireDeviceData?3?5BridgeC@ 1000aeac     srvclkm:bridged_pvr_glue.obj
 0001:00009ed8       ??_C@_0DA@INBFIMJB@PVRSRVCreateDeviceMemContext?3?5Er@ 1000aed8     srvclkm:bridged_pvr_glue.obj
 0001:00009f08       ??_C@_0DA@KOHODBAN@PVRSRVCreateDeviceMemContext?3?5Br@ 1000af08     srvclkm:bridged_pvr_glue.obj
 0001:00009f38       ??_C@_0CN@BPKONNHN@PVRSRVCreateDeviceMemContext?3?5In@ 1000af38     srvclkm:bridged_pvr_glue.obj
 0001:00009f68       ??_C@_0FN@JMFJODGP@PVRSRVDestroyDeviceMemContext?3?5a@ 1000af68     srvclkm:bridged_pvr_glue.obj
 0001:00009fc8       ??_C@_0DB@KADAHJIC@PVRSRVDestroyDeviceMemContext?3?5B@ 1000afc8     srvclkm:bridged_pvr_glue.obj
 0001:00009ffc       ??_C@_0CO@ICCJKODB@PVRSRVDestroyDeviceMemContext?3?5I@ 1000affc     srvclkm:bridged_pvr_glue.obj
 0001:0000a02c       ??_C@_0CO@JEMBDFGF@PVRSRVGetDeviceMemHeapInfo?3?5Erro@ 1000b02c     srvclkm:bridged_pvr_glue.obj
 0001:0000a05c       ??_C@_0CO@LHKKIIPJ@PVRSRVGetDeviceMemHeapInfo?3?5Brid@ 1000b05c     srvclkm:bridged_pvr_glue.obj
 0001:0000a08c       ??_C@_0CL@OHFLAJFB@PVRSRVGetDeviceMemHeapInfo?3?5Inva@ 1000b08c     srvclkm:bridged_pvr_glue.obj
 0001:0000a0b8       ??_C@_0CJ@JIODLNAD@PVRSRVExportDeviceMem?3?5BridgeCal@ 1000b0b8     srvclkm:bridged_pvr_glue.obj
 0001:0000a0e4       ??_C@_0CG@BFNGKIFO@PVRSRVExportDeviceMem?3?5Invalid?5p@ 1000b0e4     srvclkm:bridged_pvr_glue.obj
 0001:0000a10c       ??_C@_0DH@IFJKHGDD@PVRSRVWrapExtMemory?5?3?5PVRPMapKMe@ 1000b10c     srvclkm:bridged_pvr_glue.obj
 0001:0000a144       ??_C@_0CH@ONEALJJH@PVRSRVWrapExtMemory?3?5Error?5?$CFd?5re@ 1000b144     srvclkm:bridged_pvr_glue.obj
 0001:0000a16c       ??_C@_0CH@MOCLAEAL@PVRSRVWrapExtMemory?3?5BridgeCall?5@ 1000b16c     srvclkm:bridged_pvr_glue.obj
 0001:0000a194       ??_C@_0CE@BJDKPHOK@PVRSRVWrapExtMemory?3?5Invalid?5par@ 1000b194     srvclkm:bridged_pvr_glue.obj
 0001:0000a1b8       ??_C@_0CJ@BCONJNFP@PVRSRVUnwrapExtMemory?3?5BridgeCal@ 1000b1b8     srvclkm:bridged_pvr_glue.obj
 0001:0000a1e4       ??_C@_0CN@LBBCIMEH@PVRSRVUnwrapExtMemory?3?5FlushClie@ 1000b1e4     srvclkm:bridged_pvr_glue.obj
 0001:0000a214       ??_C@_0CG@PMMNDJAI@PVRSRVUnwrapExtMemory?3?5Invalid?5p@ 1000b214     srvclkm:bridged_pvr_glue.obj
 0001:0000a23c       ??_C@_0CG@DCEAMAFI@FlushClientOps?3?5flush?5to?5token?5f@ 1000b23c     srvclkm:bridged_pvr_glue.obj
 0001:0000a264       ??_C@_0CE@DICKPALE@FlushClientOps?3?5ops?5pending?5time@ 1000b264     srvclkm:bridged_pvr_glue.obj
 0001:0000a288       ??_C@_0CI@CPFGBJOE@FlushClientOps?3?5failed?5to?5acquir@ 1000b288     srvclkm:bridged_pvr_glue.obj
 0001:0000a2b0       ??_C@_0CD@FJDOOAJP@FlushClientOps?3?5invalid?5psSyncIn@ 1000b2b0     srvclkm:bridged_pvr_glue.obj
 0001:0000a2d4       ??_C@_0DO@CEIAMDN@PVRSRVMapDeviceClassMemory?5?3?5PVR@ 1000b2d4     srvclkm:bridged_pvr_glue.obj
 0001:0000a314       ??_C@_0DM@OBFJIGJM@PVRSRVMapDeviceClassMemory?5?3?5PVR@ 1000b314     srvclkm:bridged_pvr_glue.obj
 0001:0000a350       ??_C@_0CO@CMNGEJIM@PVRSRVMapDeviceClassMemory?3?5Brid@ 1000b350     srvclkm:bridged_pvr_glue.obj
 0001:0000a380       ??_C@_0CL@GOFCOJKN@PVRSRVMapDeviceClassMemory?3?5Inva@ 1000b380     srvclkm:bridged_pvr_glue.obj
 0001:0000a3ac       ??_C@_0DA@MLPCNIPJ@PVRSRVUnmapDeviceClassMemory?3?5Br@ 1000b3ac     srvclkm:bridged_pvr_glue.obj
 0001:0000a3dc       ??_C@_0DE@JNBGOBFL@PVRSRVUnmapDeviceClassMemory?3?5Fl@ 1000b3dc     srvclkm:bridged_pvr_glue.obj
 0001:0000a410       ??_C@_0CN@MKDKBMBA@PVRSRVUnmapDeviceClassMemory?3?5In@ 1000b410     srvclkm:bridged_pvr_glue.obj
 0001:0000a440       ??_C@_0DF@JOCDAGEG@PVRSRVGetMiscInfo?3?5Failed?5PVRSRV@ 1000b440     srvclkm:bridged_pvr_glue.obj
 0001:0000a478       ??_C@_0CF@DAMNIAOA@PVRSRVGetMiscInfo?3?5Error?5?$CFd?5retu@ 1000b478     srvclkm:bridged_pvr_glue.obj
 0001:0000a4a0       ??_C@_0CF@BDKGDNHM@PVRSRVGetMiscInfo?3?5BridgeCall?5fa@ 1000b4a0     srvclkm:bridged_pvr_glue.obj
 0001:0000a4c8       ??_C@_0CC@KPBLNBJP@PVRSRVGetMiscInfo?3?5Invalid?5param@ 1000b4c8     srvclkm:bridged_pvr_glue.obj
 0001:0000a4ec       ??_C@_0CJ@KAKAACLI@PVRSRVReleaseMiscInfo?3?5Error?5?$CFd?5@ 1000b4ec     srvclkm:bridged_pvr_glue.obj
 0001:0000a518       ??_C@_0CJ@IDMLLPCE@PVRSRVReleaseMiscInfo?3?5BridgeCal@ 1000b518     srvclkm:bridged_pvr_glue.obj
 0001:0000a544       ??_C@_0CM@FDIEFOPA@PVRSRVMapPhysToUserSpace?3?5Bridge@ 1000b544     srvclkm:bridged_pvr_glue.obj
 0001:0000a570       ??_C@_0CO@OGPAPJDE@PVRSRVUnmapPhysToUserSpace?3?5Brid@ 1000b570     srvclkm:bridged_pvr_glue.obj
 0001:0000a5a0       ??_C@_0DB@LCIALFDD@PVRSRVGetMMUContextPDDevPAddr?3?5B@ 1000b5a0     srvclkm:bridged_pvr_glue.obj
 0001:0000a5d4       ??_C@_0CL@JHJKKFIO@PVRSRVUnmapDeviceMemory?3?5BridgeC@ 1000b5d4     srvclkm:bridged_pvr_glue.obj
 0001:0000a600       ??_C@_0CP@PICOHOAN@PVRSRVUnmapDeviceMemory?3?5FlushCl@ 1000b600     srvclkm:bridged_pvr_glue.obj
 0001:0000a630       ??_C@_0CI@MMKOHGDL@PVRSRVUnmapDeviceMemory?3?5Invalid@ 1000b630     srvclkm:bridged_pvr_glue.obj
 0001:0000a658       ??_C@_0CO@PBIEMLFN@PVRSRVCreateSyncInfoModObj?3?5Erro@ 1000b658     srvclkm:bridged_pvr_glue.obj
 0001:0000a688       ??_C@_0CO@NCOPHGMB@PVRSRVCreateSyncInfoModObj?3?5Brid@ 1000b688     srvclkm:bridged_pvr_glue.obj
 0001:0000a6b8       ??_C@_0CL@NPOMMAGJ@PVRSRVCreateSyncInfoModObj?3?5Inva@ 1000b6b8     srvclkm:bridged_pvr_glue.obj
 0001:0000a6e4       ??_C@_0CP@ELJPBEJC@PVRSRVCreateSyncInfoModObj?3?5Inva@ 1000b6e4     srvclkm:bridged_pvr_glue.obj
 0001:0000a714       ??_C@_0CP@IOHDEBJF@PVRSRVDestroySyncInfoModObj?3?5Err@ 1000b714     srvclkm:bridged_pvr_glue.obj
 0001:0000a744       ??_C@_0CP@KNBIPMAJ@PVRSRVDestroySyncInfoModObj?3?5Bri@ 1000b744     srvclkm:bridged_pvr_glue.obj
 0001:0000a774       ??_C@_0DA@NOFPKJJK@PVRSRVDestroySyncInfoModObj?3?5Inv@ 1000b774     srvclkm:bridged_pvr_glue.obj
 0001:0000a7a4       ??_C@_0CO@HAOIHHGM@PVRSRVModifyPendingSyncOps?3?5Erro@ 1000b7a4     srvclkm:bridged_pvr_glue.obj
 0001:0000a7d4       ??_C@_0CO@FDIDMKPA@PVRSRVModifyPendingSyncOps?3?5Brid@ 1000b7d4     srvclkm:bridged_pvr_glue.obj
 0001:0000a804       ??_C@_0CP@BKMAHIBE@PVRSRVModifyPendingSyncOps?3?5Inva@ 1000b804     srvclkm:bridged_pvr_glue.obj
 0001:0000a834       ??_C@_0CP@JKIKABAA@PVRSRVModifyCompleteSyncOps?3?5Err@ 1000b834     srvclkm:bridged_pvr_glue.obj
 0001:0000a868       ??_C@_0LC@NBAIDDHB@PVRSRVModifyCompleteSyncOps?3?5Bad@ 1000b868     srvclkm:bridged_pvr_glue.obj
 0001:0000a91c       ??_C@_0CP@LJOBLMJM@PVRSRVModifyCompleteSyncOps?3?5Bri@ 1000b91c     srvclkm:bridged_pvr_glue.obj
 0001:0000a94c       ??_C@_0DA@FOCODHBB@PVRSRVModifyCompleteSyncOps?3?5Inv@ 1000b94c     srvclkm:bridged_pvr_glue.obj
 0001:0000a97c       ??_C@_0CK@KIKOCNE@PVRSRVSyncOpsTakeToken?3?5Error?5?$CFd@ 1000b97c     srvclkm:bridged_pvr_glue.obj
 0001:0000a9a8       ??_C@_0CK@CJOBFPEI@PVRSRVSyncOpsTakeToken?3?5BridgeCa@ 1000b9a8     srvclkm:bridged_pvr_glue.obj
 0001:0000a9d4       ??_C@_0CK@EHBGLLLP@PVRSRVSyncOpsTakeToken?3?5Invalid?5@ 1000b9d4     srvclkm:bridged_pvr_glue.obj
 0001:0000aa00       ??_C@_0CL@NPAACBDP@PVRSRVSyncOpsTakeToken?3?5Invalid?5@ 1000ba00     srvclkm:bridged_pvr_glue.obj
 0001:0000aa2c       ??_C@_0CN@PPHFINJA@PVRSRVSyncOpsFlushToToken?3?5Error@ 1000ba2c     srvclkm:bridged_pvr_glue.obj
 0001:0000aa5c       ??_C@_0CN@NMBODAAM@PVRSRVSyncOpsFlushToToken?3?5Bridg@ 1000ba5c     srvclkm:bridged_pvr_glue.obj
 0001:0000aa8c       ??_C@_0DH@ICPCDEP@PVRSRVSyncOpsFlushToToken?0?5block@ 1000ba8c     srvclkm:bridged_pvr_glue.obj
 0001:0000aac4       ??_C@_0CM@JNNDPDDP@PVRSRVSyncOpsFlushToToken?3?5Inval@ 1000bac4     srvclkm:bridged_pvr_glue.obj
 0001:0000aaf0       ??_C@_0CO@KOEEFLNJ@PVRSRVSyncOpsFlushToToken?3?5Inval@ 1000baf0     srvclkm:bridged_pvr_glue.obj
 0001:0000ab20       ??_C@_0CO@IDMNEPPP@PVRSRVSyncOpsFlushToModObj?3?5Erro@ 1000bb20     srvclkm:bridged_pvr_glue.obj
 0001:0000ab50       ??_C@_0CO@KAKGPCGD@PVRSRVSyncOpsFlushToModObj?3?5Brid@ 1000bb50     srvclkm:bridged_pvr_glue.obj
 0001:0000ab80       ??_C@_0DI@JACJCADB@PVRSRVSyncOpsFlushToModObj?0?5bloc@ 1000bb80     srvclkm:bridged_pvr_glue.obj
 0001:0000abb8       ??_C@_0CP@HDDFJPNC@PVRSRVSyncOpsFlushToModObj?3?5Inva@ 1000bbb8     srvclkm:bridged_pvr_glue.obj
 0001:0000abe8       ??_C@_0CN@CICHGDEO@PVRSRVSyncOpsFlushToDelta?3?5Error@ 1000bbe8     srvclkm:bridged_pvr_glue.obj
 0001:0000ac18       ??_C@_0CN@LEMNONC@PVRSRVSyncOpsFlushToDelta?3?5Bridg@ 1000bc18     srvclkm:bridged_pvr_glue.obj
 0001:0000ac48       ??_C@_0DH@MCGEAPLM@PVRSRVSyncOpsFlushToDelta?0?5block@ 1000bc48     srvclkm:bridged_pvr_glue.obj
 0001:0000ac80       ??_C@_0CO@MPPIPGOE@PVRSRVSyncOpsFlushToDelta?3?5Inval@ 1000bc80     srvclkm:bridged_pvr_glue.obj
 0001:0000acb0       ??_C@_0CH@GLCMEAON@PVRSRVAllocSyncInfo?3?5Error?5?$CFd?5re@ 1000bcb0     srvclkm:bridged_pvr_glue.obj
 0001:0000acd8       ??_C@_0CH@EIEHPNHB@PVRSRVAllocSyncInfo?3?5BridgeCall?5@ 1000bcd8     srvclkm:bridged_pvr_glue.obj
 0001:0000ad00       ??_C@_0CC@KJBMEEJO@PVRSRVAllocSyncInfo?3?5Alloc?5faile@ 1000bd00     srvclkm:bridged_pvr_glue.obj
 0001:0000ad24       ??_C@_0CE@CLAKBLF@PVRSRVAllocSyncInfo?3?5Invalid?5par@ 1000bd24     srvclkm:bridged_pvr_glue.obj
 0001:0000ad48       ??_C@_0CG@GFJNEJMK@PVRSRVFreeSyncInfo?3?5Error?5?$CFd?5ret@ 1000bd48     srvclkm:bridged_pvr_glue.obj
 0001:0000ad70       ??_C@_0CG@EGPGPEFG@PVRSRVFreeSyncInfo?3?5BridgeCall?5f@ 1000bd70     srvclkm:bridged_pvr_glue.obj
 0001:0000ad98       ??_C@_0CD@FJMEFPBL@PVRSRVFreeSyncInfo?3?5Invalid?5para@ 1000bd98     srvclkm:bridged_pvr_glue.obj
 0001:0000adbc       ??_C@_0CC@MEMGCBGM@SGXFindSharedPBDesc?3?5KM?5failed?5?$CF@ 1000bdbc     srvclkm:bridged_sgx_glue.obj
 0001:0000ade0       ??_C@_0CH@HPFCPFJ@SGXFindSharedPBDesc?3?5BridgeCall?5@ 1000bde0     srvclkm:bridged_sgx_glue.obj
 0001:0000ae08       ??_C@_0CE@POABMOKP@SGXFindSharedPBDesc?3?5Invalid?5par@ 1000be08     srvclkm:bridged_sgx_glue.obj
 0001:0000ae30       ??_C@_0GK@CFOJHCLG@c?3?2data?2jatin?2powervr_build?2ddk1@ 1000be30     srvclkm:bridged_sgx_glue.obj
 0001:0000ae9c       ??_C@_0BE@EJIEKJCG@SGXFindSharedPBDesc?$AA@ 1000be9c     srvclkm:bridged_sgx_glue.obj
 0001:0000aeb0       ??_C@_0CI@LJJMDMPD@SGXUnrefSharedPBDesc?3?5BridgeCall@ 1000beb0     srvclkm:bridged_sgx_glue.obj
 0001:0000aed8       ??_C@_0CF@OCDCFHEC@SGXUnrefSharedPBDesc?3?5Invalid?5pa@ 1000bed8     srvclkm:bridged_sgx_glue.obj
 0001:0000af00       ??_C@_0BF@IFMGACJJ@SGXUnrefSharedPBDesc?$AA@ 1000bf00     srvclkm:bridged_sgx_glue.obj
 0001:0000af18       ??_C@_0CB@GLJGFLHJ@SGXAddSharedPBDesc?3?5KM?5failed?5?$CFd@ 1000bf18     srvclkm:bridged_sgx_glue.obj
 0001:0000af3c       ??_C@_0CG@OOFEPJMF@SGXAddSharedPBDesc?3?5BridgeCall?5f@ 1000bf3c     srvclkm:bridged_sgx_glue.obj
 0001:0000af64       ??_C@_0CD@HJGEBPMJ@SGXAddSharedPBDesc?3?5Invalid?5para@ 1000bf64     srvclkm:bridged_sgx_glue.obj
 0001:0000af88       ??_C@_0BD@JBGOILGK@SGXAddSharedPBDesc?$AA@ 1000bf88     srvclkm:bridged_sgx_glue.obj
 0001:0000af9c       ??_C@_0CF@MFBLBMF@SGXSubmitTransfer?3?5BridgeCall?5fa@ 1000bf9c     srvclkm:bridged_sgx_glue.obj
 0001:0000afc4       ??_C@_0CC@PKCPBABF@SGXSubmitTransfer?3?5Invalid?5param@ 1000bfc4     srvclkm:bridged_sgx_glue.obj
 0001:0000afe8       ??_C@_0BC@PAENNMGA@SGXSubmitTransfer?$AA@ 1000bfe8     srvclkm:bridged_sgx_glue.obj
 0001:0000affc       ??_C@_0CJ@FADAEPJN@SGXRegisterHWRenderContext?3?5KM?5f@ 1000bffc     srvclkm:bridged_sgx_glue.obj
 0001:0000b028       ??_C@_0CO@NDMJGPI@SGXRegisterHWRenderContext?3?5Brid@ 1000c028     srvclkm:bridged_sgx_glue.obj
 0001:0000b058       ??_C@_0CL@FJKMMGPK@SGXRegisterHWRenderContext?3?5Inva@ 1000c058     srvclkm:bridged_sgx_glue.obj
 0001:0000b084       ??_C@_0BL@HFKPENAF@SGXRegisterHWRenderContext?$AA@ 1000c084     srvclkm:bridged_sgx_glue.obj
 0001:0000b0a0       ??_C@_0DA@GOHJDBPK@SGXUnregisterHWRenderContext?3?5Br@ 1000c0a0     srvclkm:bridged_sgx_glue.obj
 0001:0000b0d0       ??_C@_0CN@MKKNMNJ@SGXUnregisterHWRenderContext?3?5In@ 1000c0d0     srvclkm:bridged_sgx_glue.obj
 0001:0000b100       ??_C@_0BN@OLLMKGAN@SGXUnregisterHWRenderContext?$AA@ 1000c100     srvclkm:bridged_sgx_glue.obj
 0001:0000b120       ??_C@_0CL@KEMMAEEO@SGXRegisterHWTransferContext?3?5KM@ 1000c120     srvclkm:bridged_sgx_glue.obj
 0001:0000b14c       ??_C@_0CN@BCLHDMMC@SGXRegisterHWTransferContext?3?5In@ 1000c14c     srvclkm:bridged_sgx_glue.obj
 0001:0000b17c       ??_C@_0BN@CGGMKJND@SGXRegisterHWTransferContext?$AA@ 1000c17c     srvclkm:bridged_sgx_glue.obj
 0001:0000b19c       ??_C@_0DC@DJPGNFMM@SGXUnregisterHWTransferContext?3?5@ 1000c19c     srvclkm:bridged_sgx_glue.obj
 0001:0000b1d0       ??_C@_0CP@FBHMOHNP@SGXUnregisterHWTransferContext?3?5@ 1000c1d0     srvclkm:bridged_sgx_glue.obj
 0001:0000b200       ??_C@_0BP@NJGNIGDI@SGXUnregisterHWTransferContext?$AA@ 1000c200     srvclkm:bridged_sgx_glue.obj
 0001:0000b220       ??_C@_0CK@CLMDEKAI@SGXFlushHWRenderTarget?3?5BridgeCa@ 1000c220     srvclkm:bridged_sgx_glue.obj
 0001:0000b24c       ??_C@_0BH@CIDACPNO@SGXFlushHWRenderTarget?$AA@ 1000c24c     srvclkm:bridged_sgx_glue.obj
 0001:0000b264       ??_C@_0CH@IAJIAMNC@SGXFlushHWRenderTarget?3?5Invalid?5@ 1000c264     srvclkm:bridged_sgx_glue.obj
 0001:0000b28c       ??_C@_0BN@KKLOHPJ@SGXDoKick?3?5BridgeCall?5failed?$AA@ 1000c28c     srvclkm:bridged_sgx_glue.obj
 0001:0000b2ac       ??_C@_0BK@KMPNNNAO@SGXDoKick?3?5Invalid?5params?$AA@ 1000c2ac     srvclkm:bridged_sgx_glue.obj
 0001:0000b2c8       ??_C@_09JOBFNGFO@SGXDoKick?$AA@ 1000c2c8     srvclkm:bridged_sgx_glue.obj
 0001:0000b2d4       ??_C@_0CM@FNPNEEKI@SGXScheduleProcessQueues?3?5Bridge@ 1000c2d4     srvclkm:bridged_sgx_glue.obj
 0001:0000b300       ??_C@_0CJ@KIJLJIEG@SGXScheduleProcessQueues?3?5Invali@ 1000c300     srvclkm:bridged_sgx_glue.obj
 0001:0000b32c       ??_C@_0BJ@MOLCDPNO@SGXScheduleProcessQueues?$AA@ 1000c32c     srvclkm:bridged_sgx_glue.obj
 0001:0000b348       ??_C@_0CI@KCFOFIAD@SGXGetInfoForSrvInit?3?5BridgeCall@ 1000c348     srvclkm:bridged_sgx_glue.obj
 0001:0000b370       ??_C@_0CF@DAMADJLH@SGXGetInfoForSrvInit?3?5Invalid?5pa@ 1000c370     srvclkm:bridged_sgx_glue.obj
 0001:0000b398       ??_C@_0BF@BODJBPFN@SGXGetInfoForSrvInit?$AA@ 1000c398     srvclkm:bridged_sgx_glue.obj
 0001:0000b3b0       ??_C@_0DH@IBPJLAHJ@Mismatching?5options?5are?50x?$CFx?$DL?5pl@ 1000c3b0     srvclkm:bridged_sgx_glue.obj
 0001:0000b3e8       ??_C@_0DB@PDINOLFA@Build?5options?5?$CFs?3?5client?1UM?50x?$CFx@ 1000c3e8     srvclkm:bridged_sgx_glue.obj
 0001:0000b41c       ??_C@_08LFCOBNOA@mismatch?$AA@ 1000c41c     srvclkm:bridged_sgx_glue.obj
 0001:0000b428       ??_C@_05FNONLPDI@match?$AA@ 1000c428     srvclkm:bridged_sgx_glue.obj
 0001:0000b430       ??_C@_0CD@CADCGLDH@SGXDevInitPart2?3?5BridgeCall?5fail@ 1000c430     srvclkm:bridged_sgx_glue.obj
 0001:0000b454       ??_C@_0CH@JKFCFBMI@SGXDevInitPart2?3?5BridgeIn?5alloc?5@ 1000c454     srvclkm:bridged_sgx_glue.obj
 0001:0000b47c       ??_C@_0CA@NBKPGAJM@SGXDevInitPart2?3?5Invalid?5params?$AA@ 1000c47c     srvclkm:bridged_sgx_glue.obj
 0001:0000b49c       ??_C@_0BA@JKMAICHB@SGXDevInitPart2?$AA@ 1000c49c     srvclkm:bridged_sgx_glue.obj
 0001:0000b4ac       ??_C@_0BP@MIIBNEPL@SGXGetClientInfo?3?5KM?5failed?5?$CFd?$AA@ 1000c4ac     srvclkm:bridged_sgx_glue.obj
 0001:0000b4cc       ??_C@_0CE@MALOGIF@SGXGetClientInfo?3?5BridgeCall?5fai@ 1000c4cc     srvclkm:bridged_sgx_glue.obj
 0001:0000b4f0       ??_C@_0CB@NNGNIKG@SGXGetClientInfo?3?5Invalid?5params@ 1000c4f0     srvclkm:bridged_sgx_glue.obj
 0001:0000b514       ??_C@_0BB@CKELABCP@SGXGetClientInfo?$AA@ 1000c514     srvclkm:bridged_sgx_glue.obj
 0001:0000b528       ??_C@_0CI@DIKDBAGB@SGXReleaseClientInfo?3?5BridgeCall@ 1000c528     srvclkm:bridged_sgx_glue.obj
 0001:0000b550       ??_C@_0CF@BFGKFNFB@SGXReleaseClientInfo?3?5Invalid?5pa@ 1000c550     srvclkm:bridged_sgx_glue.obj
 0001:0000b578       ??_C@_0BF@CBGEBHFG@SGXReleaseClientInfo?$AA@ 1000c578     srvclkm:bridged_sgx_glue.obj
 0001:0000b590       ??_C@_0CE@GPBBOOPA@SGXGetInternalDevInfo?3?5KM?5failed@ 1000c590     srvclkm:bridged_sgx_glue.obj
 0001:0000b5b4       ??_C@_0CJ@PIBIFNIP@SGXGetInternalDevInfo?3?5BridgeCal@ 1000c5b4     srvclkm:bridged_sgx_glue.obj
 0001:0000b5e0       ??_C@_0CG@CICOHPEP@SGXGetInternalDevInfo?3?5Invalid?5p@ 1000c5e0     srvclkm:bridged_sgx_glue.obj
 0001:0000b608       ??_C@_0BG@LALOMPOI@SGXGetInternalDevInfo?$AA@ 1000c608     srvclkm:bridged_sgx_glue.obj
 0001:0000b620       ??_C@_0FE@FPOCDOKA@SGXConnectionCheck?3?5Incompatible@ 1000c620     srvclkm:bridged_sgx_glue.obj
 0001:0000b678       ??_C@_0GJ@KBCLFCOF@SGXConnectionCheck?3?5Build?5option@ 1000c678     srvclkm:bridged_sgx_glue.obj
 0001:0000b6e8       ??_C@_0GJ@FHBDNIK@SGXConnectionCheck?3?5Build?5option@ 1000c6e8     srvclkm:bridged_sgx_glue.obj
 0001:0000b754       ??_C@_0DD@EGOIGMFK@SGXConnectionCheck?3?5Call?5to?5SGXG@ 1000c754     srvclkm:bridged_sgx_glue.obj
 0001:0000b788       ??_C@_0CC@CNFLJPHJ@SGXGetMiscInfo?3?5BridgeCall?5faile@ 1000c788     srvclkm:bridged_sgx_glue.obj
 0001:0000b7ac       ??_C@_0DN@MNOHONDG@SGXGetMiscInfo?3?5SGX_MISC_INFO_RE@ 1000c7ac     srvclkm:bridged_sgx_glue.obj
 0001:0000b7ec       ??_C@_0CD@ODEHAIKC@SGXGetMiscInfo?3?5Invalid?5psMiscIn@ 1000c7ec     srvclkm:bridged_sgx_glue.obj
 0001:0000b810       ??_C@_0P@MJFDBIOJ@SGXGetMiscInfo?$AA@ 1000c810     srvclkm:bridged_sgx_glue.obj
 0001:0000b820       ??_C@_0BO@MFJACAGA@SGXReadHWPerfCB?3?5KM?5failed?5?$CFd?$AA@ 1000c820     srvclkm:bridged_sgx_glue.obj
 0001:0000b840       ??_C@_0CD@LJDMGHO@SGXReadHWPerfCB?3?5BridgeCall?5fail@ 1000c840     srvclkm:bridged_sgx_glue.obj
 0001:0000b864       ??_C@_0BA@ELIFDENA@SGXReadHWPerfCB?$AA@ 1000c864     srvclkm:bridged_sgx_glue.obj
 0001:0000b874       ??_C@_0CL@PKGANFAD@SGX2DQueryBlitsComplete?3?5BridgeC@ 1000c874     srvclkm:bridged_sgx_glue.obj
 0001:0000b8a0       ??_C@_0CM@FDEAKLMK@SGX2DQueryBlitsComplete?3?5Invalid@ 1000c8a0     srvclkm:bridged_sgx_glue.obj
 0001:0000b8cc       ??_C@_0BI@HKEFJOCH@SGX2DQueryBlitsComplete?$AA@ 1000c8cc     srvclkm:bridged_sgx_glue.obj
 0001:0000b8e4       ??_C@_0BI@EHJDGFKA@SGX?5revision?5?$DN?5?$CFu?4?$CFu?4?$CFu?$AA@ 1000c8e4     system:sysconfig.obj
 0001:0000b8fc       ??_C@_0CM@MLHGODHG@SysInitialise?3?5Failed?5to?5initial@ 1000c8fc     system:sysconfig.obj
 0001:0000b928       ??_C@_0DA@EBCGIMFN@SysInitialise?3?5Failed?5to?5Enable?5@ 1000c928     system:sysconfig.obj
 0001:0000b958       ??_C@_0DD@OOCGCMMB@SysInitialise?3?5Failed?5to?5Enable?5@ 1000c958     system:sysconfig.obj
 0001:0000b98c       ??_C@_0CP@LBIIGHBP@SysInitialise?3?5Failed?5to?5find?5SG@ 1000c98c     system:sysconfig.obj
 0001:0000b9bc       ??_C@_0CK@BGHNJAFG@SysInitialise?3?5Failed?5to?5registe@ 1000c9bc     system:sysconfig.obj
 0001:0000b9e8       ??_C@_0CN@JHKGEBBK@SysInitialise?3?5Failed?5to?5registe@ 1000c9e8     system:sysconfig.obj
 0001:0000ba18       ??_C@_0CL@LKKAJONH@SysInitialise?3?5Failed?5to?5map?5OCP@ 1000ca18     system:sysconfig.obj
 0001:0000ba44       ??_C@_0CI@KIBHIOIC@SysInitialise?3?5Failed?5to?5locate?5@ 1000ca44     system:sysconfig.obj
 0001:0000ba6c       ??_C@_0CN@FGFPHDEN@SysInitialise?3?5Failed?5in?5SysInit@ 1000ca6c     system:sysconfig.obj
 0001:0000baa0       ??_C@_0FK@KGJHJEIF@c?3?2data?2jatin?2powervr_build?2ddk1@ 1000caa0     system:sysconfig.obj
 0001:0000bafc       ??_C@_0CN@LGKFKMOI@SysInitialise?3?5Failed?5to?5setup?5e@ 1000cafc     system:sysconfig.obj
 0001:0000bb2c       ??_C@_0CD@CEPGMLMA@SysFinalise?3?5Failed?5to?5install?5I@ 1000cb2c     system:sysconfig.obj
 0001:0000bb50       ??_C@_07OBKPICFC@SGX?5ISR?$AA@ 1000cb50     system:sysconfig.obj
 0001:0000bb58       ??_C@_0CE@NICLHAKB@SysFinalise?3?5Failed?5to?5install?5M@ 1000cb58     system:sysconfig.obj
 0001:0000bb7c       ??_C@_0DB@CCEJDOFL@SysDeinitialise?3?5failed?5to?5de?9in@ 1000cb7c     system:sysconfig.obj
 0001:0000bbb0       ??_C@_0DB@JPJKNPGA@SysDeinitialise?3?5Failed?5to?5unreg@ 1000cbb0     system:sysconfig.obj
 0001:0000bbe4       ??_C@_0CO@OOEOEFAO@SysDeinitialise?3?5failed?5to?5de?9in@ 1000cbe4     system:sysconfig.obj
 0001:0000bc14       ??_C@_0CI@KEBPLJPE@SysDeinitialise?3?5EnableSGXClocks@ 1000cc14     system:sysconfig.obj
 0001:0000bc3c       ??_C@_0CI@ONONKPKK@SysDeinitialise?3?5OSUninstallMISR@ 1000cc3c     system:sysconfig.obj
 0001:0000bc64       ??_C@_0CO@IMKMAPII@SysDeinitialise?3?5OSUninstallDevi@ 1000cc64     system:sysconfig.obj
 0001:0000bc94       ??_C@_0CP@MAJCCPKC@SysGetDeviceMemoryMap?3?5unsupport@ 1000cc94     system:sysconfig.obj
 0001:0000bcc4       ??_C@_0DK@HFPDANIO@SysSystemPrePowerState?3?5OSUninst@ 1000ccc4     system:sysconfig.obj
 0001:0000bd00       ??_C@_0CK@EAHLLMPC@SysSystemPrePowerState?3?5Entering@ 1000cd00     system:sysconfig.obj
 0001:0000bd30       ??_C@_0EI@IBCHCBCK@SysSystemPostPowerState?3?5OSInsta@ 1000cd30     system:sysconfig.obj
 0001:0000bd78       ??_C@_0DM@KDBEOMIC@SysSystemPostPowerState?3?5EnableS@ 1000cd78     system:sysconfig.obj
 0001:0000bdb4       ??_C@_0CL@GIBHKGM@SysSystemPostPowerState?3?5Enterin@ 1000cdb4     system:sysconfig.obj
 0001:0000bde0       ??_C@_0CO@IIOAEHFO@SysDevicePrePowerState?3?5SGX?5Ente@ 1000cde0     system:sysconfig.obj
 0001:0000be10       ??_C@_0CO@CFFLNAGM@SysDevicePostPowerState?3?5SGX?5Lea@ 1000ce10     system:sysconfig.obj
 0001:0000be40       ??_C@_0CG@GNFPKHKB@DisableSGXClocks?3?5SGX?5Clocks?5Dis@ 1000ce40     system:sysutils.obj
 0001:0000be68       ??_C@_0DB@CANECAII@ERROR?3?5DisableSGXClocks?3?5Get?5Dev@ 1000ce68     system:sysutils.obj
 0001:0000be9c       ??_C@_0DD@JOJNMGDN@DisableSGXClocks?3?5Failed?5to?5get?5@ 1000ce9c     system:sysutils.obj
 0001:0000bed0       ??_C@_0FP@MHEHNAOD@c?3?2data?2jatin?2powervr_build?2ddk1@ 1000ced0     system:sysutils.obj
 0001:0000bf30       ??_C@_0CH@NFPEKKCL@DisableSGXClocks?3?5Disabling?5SGX?5@ 1000cf30     system:sysutils.obj
 0001:0000bf58       ??_C@_0DH@NNKLMLOL@ERROR?3?5EnableSGXClocks?3?5failed?5t@ 1000cf58     system:sysutils.obj
 0001:0000bf90       ??_C@_0CF@CBOKLJBG@EnableSGXClocks?3?5Enabling?5SGX?5Cl@ 1000cf90     system:sysutils.obj
 0001:0000bfb8       ??_C@_0DA@KCLIJEEM@ERROR?3?5EnableSGXClocks?3?5Get?5Devi@ 1000cfb8     system:sysutils.obj
 0001:0000bfe8       ??_C@_0DC@FNJCNBNP@EnableSGXClocks?3?5Failed?5to?5get?5d@ 1000cfe8     system:sysutils.obj
 0001:0000c01c       ??_C@_0DL@FDNBGPKK@ERROR?3?5EnableSGXClocks?3?5failed?5t@ 1000d01c     system:sysutils.obj
 0001:0000c058       ??_C@_0EI@KKBKAJMB@ERROR?3?5EnableSGXClocks?3?5KernelIo@ 1000d058     system:sysutils.obj
 0001:0000c0a0       ??_C@_1CO@PCJOMDKN@?$AAP?$AAV?$AAR?$AA?3?$AAg?$AAe?$AAt?$AAC?$AAp?$AAu?$AAF?$AAa?$AAm?$AAi?$AAl?$AAy?$AA?3?$AA?5?$AA?$CF?$AAd?$AA?$AN?$AA?6?$AA?$AA@ 1000d0a0     system:sysutils.obj
 0001:0000c0d0       ??_C@_0BD@MBPPBGAN@PVR?3?5getCpuFamily?3?$AA@ 1000d0d0     system:sysutils.obj
 0001:0000c0e8       ??_C@_0GE@JALKONLP@c?3?2data?2jatin?2powervr_build?2ddk1@ 1000d0e8     srvkmbridged:bridged_pvr_bridge.obj
 0001:0000c150       ??_C@_0FE@KCDPJKLM@?$CFs?3?5BRIDGE?5ERROR?3?5BridgeID?5?$CFu?5ma@ 1000d150     srvkmbridged:bridged_pvr_bridge.obj
 0001:0000c1a4       ??_C@_07MMEBMBFO@DummyBW?$AA@ 1000d1a4     srvkmbridged:bridged_pvr_bridge.obj
 0001:0000c1b0       ??_C@_0EI@OPCEMEPJ@?$CFs?3?5There?5is?5a?5gap?5in?5the?5dispat@ 1000d1b0     srvkmbridged:bridged_pvr_bridge.obj
 0001:0000c1f8       ??_C@_0EJ@ODPJJMHE@NOTE?3?5Enabling?5DEBUG_BRIDGE_KM_D@ 1000d1f8     srvkmbridged:bridged_pvr_bridge.obj
 0001:0000c248       ??_C@_0FD@OHJGMKPF@?$CFs?3?5BUG?$CB?3?5Adding?5dispatch?5table?5@ 1000d248     srvkmbridged:bridged_pvr_bridge.obj
 0001:0000c29c       ??_C@_0BH@OCNNLIIL@_SetDispatchTableEntry?$AA@ 1000d29c     srvkmbridged:bridged_pvr_bridge.obj
 0001:0000c2b4       ??_C@_0BN@JIFDKIIL@PVRSRV_BRIDGE_FREE_SYNC_INFO?$AA@ 1000d2b4     srvkmbridged:bridged_pvr_bridge.obj
 0001:0000c2d4       ??_C@_0BF@HAAAPFKG@PVRSRVFreeSyncInfoBW?$AA@ 1000d2d4     srvkmbridged:bridged_pvr_bridge.obj
 0001:0000c2ec       ??_C@_0BO@IHMIPMLF@PVRSRV_BRIDGE_ALLOC_SYNC_INFO?$AA@ 1000d2ec     srvkmbridged:bridged_pvr_bridge.obj
 0001:0000c30c       ??_C@_0BG@IFKDDIOL@PVRSRVAllocSyncInfoBW?$AA@ 1000d30c     srvkmbridged:bridged_pvr_bridge.obj
 0001:0000c324       ??_C@_0CG@OLGDOFNL@PVRSRV_BRIDGE_SYNC_OPS_FLUSH_TO_@ 1000d324     srvkmbridged:bridged_pvr_bridge.obj
 0001:0000c34c       ??_C@_0BM@EHHACOG@PVRSRVSyncOpsFlushToDeltaBW?$AA@ 1000d34c     srvkmbridged:bridged_pvr_bridge.obj
 0001:0000c368       ??_C@_0CI@LEHJPEL@PVRSRV_BRIDGE_SYNC_OPS_FLUSH_TO_@ 1000d368     srvkmbridged:bridged_pvr_bridge.obj
 0001:0000c390       ??_C@_0BN@OEGNHENM@PVRSRVSyncOpsFlushToModObjBW?$AA@ 1000d390     srvkmbridged:bridged_pvr_bridge.obj
 0001:0000c3b0       ??_C@_0CG@KFKOBCNA@PVRSRV_BRIDGE_SYNC_OPS_FLUSH_TO_@ 1000d3b0     srvkmbridged:bridged_pvr_bridge.obj
 0001:0000c3d8       ??_C@_0BM@MEFKPCFP@PVRSRVSyncOpsFlushToTokenBW?$AA@ 1000d3d8     srvkmbridged:bridged_pvr_bridge.obj
 0001:0000c3f4       ??_C@_0CC@HNBJMFOH@PVRSRV_BRIDGE_SYNC_OPS_TAKE_TOKE@ 1000d3f4     srvkmbridged:bridged_pvr_bridge.obj
 0001:0000c418       ??_C@_0BJ@GLBEENLI@PVRSRVSyncOpsTakeTokenBW?$AA@ 1000d418     srvkmbridged:bridged_pvr_bridge.obj
 0001:0000c434       ??_C@_0CH@LMHKIBOO@PVRSRV_BRIDGE_MODIFY_COMPLETE_SY@ 1000d434     srvkmbridged:bridged_pvr_bridge.obj
 0001:0000c45c       ??_C@_0BO@HBENKOMN@PVRSRVModifyCompleteSyncOpsBW?$AA@ 1000d45c     srvkmbridged:bridged_pvr_bridge.obj
 0001:0000c47c       ??_C@_0CG@PLBDDFAC@PVRSRV_BRIDGE_MODIFY_PENDING_SYN@ 1000d47c     srvkmbridged:bridged_pvr_bridge.obj
 0001:0000c4a4       ??_C@_0BN@LKLLBLOI@PVRSRVModifyPendingSyncOpsBW?$AA@ 1000d4a4     srvkmbridged:bridged_pvr_bridge.obj
 0001:0000c4c4       ??_C@_0CI@JEBAOCDA@PVRSRV_BRIDGE_DESTROY_SYNC_INFO_@ 1000d4c4     srvkmbridged:bridged_pvr_bridge.obj
 0001:0000c4ec       ??_C@_0BO@KJNKNMPJ@PVRSRVDestroySyncInfoModObjBW?$AA@ 1000d4ec     srvkmbridged:bridged_pvr_bridge.obj
 0001:0000c50c       ??_C@_0CH@BLABNHNB@PVRSRV_BRIDGE_CREATE_SYNC_INFO_M@ 1000d50c     srvkmbridged:bridged_pvr_bridge.obj
 0001:0000c534       ??_C@_0BN@GBNEGFFI@PVRSRVCreateSyncInfoModObjBW?$AA@ 1000d534     srvkmbridged:bridged_pvr_bridge.obj
 0001:0000c554       ??_C@_0CB@JOCNBGHB@PVRSRV_BRIDGE_EVENT_OBJECT_CLOSE@ 1000d554     srvkmbridged:bridged_pvr_bridge.obj
 0001:0000c578       ??_C@_0BK@NOJGNPMB@?$CGPVRSRVEventObjectCloseBW?$AA@ 1000d578     srvkmbridged:bridged_pvr_bridge.obj
 0001:0000c594       ??_C@_0CA@GCPBILPE@PVRSRV_BRIDGE_EVENT_OBJECT_OPEN?$AA@ 1000d594     srvkmbridged:bridged_pvr_bridge.obj
 0001:0000c5b4       ??_C@_0BJ@IJIOEJLM@?$CGPVRSRVEventObjectOpenBW?$AA@ 1000d5b4     srvkmbridged:bridged_pvr_bridge.obj
 0001:0000c5d0       ??_C@_0CA@GDPDGEPC@PVRSRV_BRIDGE_EVENT_OBJECT_WAIT?$AA@ 1000d5d0     srvkmbridged:bridged_pvr_bridge.obj
 0001:0000c5f0       ??_C@_0BJ@OPGBBANB@?$CGPVRSRVEventObjectWaitBW?$AA@ 1000d5f0     srvkmbridged:bridged_pvr_bridge.obj
 0001:0000c60c       ??_C@_0CB@FOHCCKDP@PVRSRV_BRIDGE_INITSRV_DISCONNECT@ 1000d60c     srvkmbridged:bridged_pvr_bridge.obj
 0001:0000c630       ??_C@_0BL@HOIEJDKC@?$CGPVRSRVInitSrvDisconnectBW?$AA@ 1000d630     srvkmbridged:bridged_pvr_bridge.obj
 0001:0000c64c       ??_C@_0BO@IHHMELLB@PVRSRV_BRIDGE_INITSRV_CONNECT?$AA@ 1000d64c     srvkmbridged:bridged_pvr_bridge.obj
 0001:0000c66c       ??_C@_0BI@BCGIAFOO@?$CGPVRSRVInitSrvConnectBW?$AA@ 1000d66c     srvkmbridged:bridged_pvr_bridge.obj
 0001:0000c684       ??_C@_0CB@LGKLNBFK@PVRSRV_BRIDGE_GETMMU_PD_DEVPADDR@ 1000d684     srvkmbridged:bridged_pvr_bridge.obj
 0001:0000c6a8       ??_C@_0BE@EDEKLKLM@MMU_GetPDDevPAddrBW?$AA@ 1000d6a8     srvkmbridged:bridged_pvr_bridge.obj
 0001:0000c6bc       ??_C@_0BO@IIOANGLK@PVRSRV_BRIDGE_MAP_MEMINFO_MEM?$AA@ 1000d6bc     srvkmbridged:bridged_pvr_bridge.obj
 0001:0000c6dc       ??_C@_0BG@DECEEKBD@PVRSRVMapMemInfoMemBW?$AA@ 1000d6dc     srvkmbridged:bridged_pvr_bridge.obj
 0001:0000c6f4       ??_C@_0CC@IKBDICJI@PVRSRV_BRIDGE_FREE_SHARED_SYS_ME@ 1000d6f4     srvkmbridged:bridged_pvr_bridge.obj
 0001:0000c718       ??_C@_0BM@NIEOKOJG@PVRSRVFreeSharedSysMemoryBW?$AA@ 1000d718     srvkmbridged:bridged_pvr_bridge.obj
 0001:0000c734       ??_C@_0CD@OMHBEFAF@PVRSRV_BRIDGE_ALLOC_SHARED_SYS_M@ 1000d734     srvkmbridged:bridged_pvr_bridge.obj
 0001:0000c758       ??_C@_0BN@NGNLLEJG@PVRSRVAllocSharedSysMemoryBW?$AA@ 1000d758     srvkmbridged:bridged_pvr_bridge.obj
 0001:0000c778       ??_C@_0CA@LAOOKNLL@PVRSRV_BRIDGE_UNWRAP_EXT_MEMORY?$AA@ 1000d778     srvkmbridged:bridged_pvr_bridge.obj
 0001:0000c798       ??_C@_0BI@HIEOBDLP@PVRSRVUnwrapExtMemoryBW?$AA@ 1000d798     srvkmbridged:bridged_pvr_bridge.obj
 0001:0000c7b0       ??_C@_0BO@PLOOBLBI@PVRSRV_BRIDGE_WRAP_EXT_MEMORY?$AA@ 1000d7b0     srvkmbridged:bridged_pvr_bridge.obj
 0001:0000c7d0       ??_C@_0BG@HHGJFGOO@PVRSRVWrapExtMemoryBW?$AA@ 1000d7d0     srvkmbridged:bridged_pvr_bridge.obj
 0001:0000c7e8       ??_C@_0CF@CFMPKHCL@PVRSRV_BRIDGE_GET_BUFFERCLASS_BU@ 1000d7e8     srvkmbridged:bridged_pvr_bridge.obj
 0001:0000c810       ??_C@_0BE@FCDNDPMB@PVRSRVGetBCBufferBW?$AA@ 1000d810     srvkmbridged:bridged_pvr_bridge.obj
 0001:0000c824       ??_C@_0CD@FINFCFGL@PVRSRV_BRIDGE_GET_BUFFERCLASS_IN@ 1000d824     srvkmbridged:bridged_pvr_bridge.obj
 0001:0000c848       ??_C@_0BC@IDOMNFPG@PVRSRVGetBCInfoBW?$AA@ 1000d848     srvkmbridged:bridged_pvr_bridge.obj
 0001:0000c85c       ??_C@_0CH@GPPHEMIP@PVRSRV_BRIDGE_CLOSE_BUFFERCLASS_@ 1000d85c     srvkmbridged:bridged_pvr_bridge.obj
 0001:0000c884       ??_C@_0BG@JKIIAAMF@PVRSRVCloseBCDeviceBW?$AA@ 1000d884     srvkmbridged:bridged_pvr_bridge.obj
 0001:0000c89c       ??_C@_0CG@PLNONMHJ@PVRSRV_BRIDGE_OPEN_BUFFERCLASS_D@ 1000d89c     srvkmbridged:bridged_pvr_bridge.obj
 0001:0000c8c4       ??_C@_0BF@LDOEAADN@PVRSRVOpenBCDeviceBW?$AA@ 1000d8c4     srvkmbridged:bridged_pvr_bridge.obj
 0001:0000c8dc       ??_C@_0CH@KCGKOKFA@PVRSRV_BRIDGE_SWAP_DISPCLASS_TO_@ 1000d8dc     srvkmbridged:bridged_pvr_bridge.obj
 0001:0000c904       ??_C@_0BH@IINKALO@PVRSRVSwapToDCSystemBW?$AA@ 1000d904     srvkmbridged:bridged_pvr_bridge.obj
 0001:0000c91c       ??_C@_0CH@ILELDECJ@PVRSRV_BRIDGE_SWAP_DISPCLASS_TO_@ 1000d91c     srvkmbridged:bridged_pvr_bridge.obj
 0001:0000c944       ??_C@_0BH@JHBLLEPD@PVRSRVSwapToDCBufferBW?$AA@ 1000d944     srvkmbridged:bridged_pvr_bridge.obj
 0001:0000c95c       ??_C@_0CE@EMAIGDFD@PVRSRV_BRIDGE_GET_DISPCLASS_BUFF@ 1000d95c     srvkmbridged:bridged_pvr_bridge.obj
 0001:0000c980       ??_C@_0BF@KEIMFPDF@PVRSRVGetDCBuffersBW?$AA@ 1000d980     srvkmbridged:bridged_pvr_bridge.obj
 0001:0000c998       ??_C@_0CJ@KCHBKBFJ@PVRSRV_BRIDGE_SET_DISPCLASS_SRCC@ 1000d998     srvkmbridged:bridged_pvr_bridge.obj
 0001:0000c9c4       ??_C@_0BK@FEAGGJLH@PVRSRVSetDCSrcColourKeyBW?$AA@ 1000d9c4     srvkmbridged:bridged_pvr_bridge.obj
 0001:0000c9e0       ??_C@_0CJ@HHGNJMPM@PVRSRV_BRIDGE_SET_DISPCLASS_DSTC@ 1000d9e0     srvkmbridged:bridged_pvr_bridge.obj
 0001:0000ca0c       ??_C@_0BK@NPBOLIBG@PVRSRVSetDCDstColourKeyBW?$AA@ 1000da0c     srvkmbridged:bridged_pvr_bridge.obj
 0001:0000ca28       ??_C@_0CE@FLOAEKFI@PVRSRV_BRIDGE_SET_DISPCLASS_SRCR@ 1000da28     srvkmbridged:bridged_pvr_bridge.obj
 0001:0000ca4c       ??_C@_0BF@BCAECLKI@PVRSRVSetDCSrcRectBW?$AA@ 1000da4c     srvkmbridged:bridged_pvr_bridge.obj
 0001:0000ca64       ??_C@_0CE@JFDKELPN@PVRSRV_BRIDGE_SET_DISPCLASS_DSTR@ 1000da64     srvkmbridged:bridged_pvr_bridge.obj
 0001:0000ca88       ??_C@_0BF@LGHDJNEI@PVRSRVSetDCDstRectBW?$AA@ 1000da88     srvkmbridged:bridged_pvr_bridge.obj
 0001:0000caa0       ??_C@_0CK@PFHILADO@PVRSRV_BRIDGE_DESTROY_DISPCLASS_@ 1000daa0     srvkmbridged:bridged_pvr_bridge.obj
 0001:0000cacc       ??_C@_0BL@FBKAALJG@PVRSRVDestroyDCSwapChainBW?$AA@ 1000dacc     srvkmbridged:bridged_pvr_bridge.obj
 0001:0000cae8       ??_C@_0CJ@OEKODJKB@PVRSRV_BRIDGE_CREATE_DISPCLASS_S@ 1000dae8     srvkmbridged:bridged_pvr_bridge.obj
 0001:0000cb14       ??_C@_0BK@EEDJDJHB@PVRSRVCreateDCSwapChainBW?$AA@ 1000db14     srvkmbridged:bridged_pvr_bridge.obj
 0001:0000cb30       ??_C@_0CB@GCAJBFFM@PVRSRV_BRIDGE_GET_DISPCLASS_INFO@ 1000db30     srvkmbridged:bridged_pvr_bridge.obj
 0001:0000cb54       ??_C@_0BC@PAPGKMHM@PVRSRVGetDCInfoBW?$AA@ 1000db54     srvkmbridged:bridged_pvr_bridge.obj
 0001:0000cb68       ??_C@_0CG@KEMMJEGK@PVRSRV_BRIDGE_GET_DISPCLASS_SYSB@ 1000db68     srvkmbridged:bridged_pvr_bridge.obj
 0001:0000cb90       ??_C@_0BK@OANCBEAN@PVRSRVGetDCSystemBufferBW?$AA@ 1000db90     srvkmbridged:bridged_pvr_bridge.obj
 0001:0000cbac       ??_C@_0CC@GKFMNIFG@PVRSRV_BRIDGE_ENUM_DISPCLASS_DIM@ 1000dbac     srvkmbridged:bridged_pvr_bridge.obj
 0001:0000cbd0       ??_C@_0BD@IIDBOOIO@PVRSRVEnumDCDimsBW?$AA@ 1000dbd0     srvkmbridged:bridged_pvr_bridge.obj
 0001:0000cbe4       ??_C@_0CF@JGCDBMOJ@PVRSRV_BRIDGE_ENUM_DISPCLASS_FOR@ 1000dbe4     srvkmbridged:bridged_pvr_bridge.obj
 0001:0000cc0c       ??_C@_0BG@GHCKDKPK@PVRSRVEnumDCFormatsBW?$AA@ 1000dc0c     srvkmbridged:bridged_pvr_bridge.obj
 0001:0000cc24       ??_C@_0CF@JBNGJOJC@PVRSRV_BRIDGE_CLOSE_DISPCLASS_DE@ 1000dc24     srvkmbridged:bridged_pvr_bridge.obj
 0001:0000cc4c       ??_C@_0BG@HCDNMKIG@PVRSRVCloseDCDeviceBW?$AA@ 1000dc4c     srvkmbridged:bridged_pvr_bridge.obj
 0001:0000cc64       ??_C@_0CE@IIMFEPPC@PVRSRV_BRIDGE_OPEN_DISPCLASS_DEV@ 1000dc64     srvkmbridged:bridged_pvr_bridge.obj
 0001:0000cc88       ??_C@_0BF@FLFBMKHO@PVRSRVOpenDCDeviceBW?$AA@ 1000dc88     srvkmbridged:bridged_pvr_bridge.obj
 0001:0000cca0       ??_C@_0BJ@FAAIBECM@PVRSRV_BRIDGE_ENUM_CLASS?$AA@ 1000dca0     srvkmbridged:bridged_pvr_bridge.obj
 0001:0000ccbc       ??_C@_0BE@IMDLJJBM@PVRSRVEnumerateDCBW?$AA@ 1000dcbc     srvkmbridged:bridged_pvr_bridge.obj
 0001:0000ccd0       ??_C@_0BM@CCBFKNNG@PVRSRV_BRIDGE_GET_OEMJTABLE?$AA@ 1000dcd0     srvkmbridged:bridged_pvr_bridge.obj
 0001:0000ccec       ??_C@_0CA@ODDHBMBE@PVRSRV_BRIDGE_RELEASE_MISC_INFO?$AA@ 1000dcec     srvkmbridged:bridged_pvr_bridge.obj
 0001:0000cd0c       ??_C@_0BM@NLGEIBND@PVRSRV_BRIDGE_GET_MISC_INFO?$AA@ 1000dd0c     srvkmbridged:bridged_pvr_bridge.obj
 0001:0000cd28       ??_C@_0BE@CKFBIKKJ@PVRSRVGetMiscInfoBW?$AA@ 1000dd28     srvkmbridged:bridged_pvr_bridge.obj
 0001:0000cd3c       ??_C@_0BL@LGACGKAD@PVRSRV_BRIDGE_GET_FB_STATS?$AA@ 1000dd3c     srvkmbridged:bridged_pvr_bridge.obj
 0001:0000cd58       ??_C@_0CE@HCCJKLLK@PVRSRV_BRIDGE_GETPHYSTOUSERSPACE@ 1000dd58     srvkmbridged:bridged_pvr_bridge.obj
 0001:0000cd7c       ??_C@_0CD@FBPHLDNF@PVRSRV_BRIDGE_UNMAPPHYSTOUSERSPA@ 1000dd7c     srvkmbridged:bridged_pvr_bridge.obj
 0001:0000cda0       ??_C@_0CB@DIFGFJJJ@PVRSRV_BRIDGE_MAPPHYSTOUSERSPACE@ 1000dda0     srvkmbridged:bridged_pvr_bridge.obj
 0001:0000cdc4       ??_C@_0CF@HEKBBOJD@PVRSRV_BRIDGE_UNREGISTER_SIM_PRO@ 1000ddc4     srvkmbridged:bridged_pvr_bridge.obj
 0001:0000cdec       ??_C@_0CD@GILCHMFN@PVRSRV_BRIDGE_REGISTER_SIM_PROCE@ 1000ddec     srvkmbridged:bridged_pvr_bridge.obj
 0001:0000ce10       ??_C@_0CD@FIGLCCDN@PVRSRV_BRIDGE_PROCESS_SIMISR_EVE@ 1000de10     srvkmbridged:bridged_pvr_bridge.obj
 0001:0000ce34       ??_C@_0CB@HHIHGOGD@PVRSRV_BRIDGE_EXPORT_DEVICEMEM_2@ 1000de34     srvkmbridged:bridged_pvr_bridge.obj
 0001:0000ce58       ??_C@_0BP@CCCIOBAD@PVRSRV_BRIDGE_MAP_DEV_MEMORY_2?$AA@ 1000de58     srvkmbridged:bridged_pvr_bridge.obj
 0001:0000ce78       ??_C@_0CC@LAOCIGJD@PVRSRV_BRIDGE_CHG_DEV_MEM_ATTRIB@ 1000de78     srvkmbridged:bridged_pvr_bridge.obj
 0001:0000ce9c       ??_C@_0CF@LEAOEBLB@PVRSRVChangeDeviceMemoryAttribut@ 1000de9c     srvkmbridged:bridged_pvr_bridge.obj
 0001:0000cec4       ??_C@_0CA@PHKBHDGK@PVRSRV_BRIDGE_RELEASE_MMAP_DATA?$AA@ 1000dec4     srvkmbridged:bridged_pvr_bridge.obj
 0001:0000cee4       ??_C@_0BJ@BHNBKEHP@PVRMMapReleaseMMapDataBW?$AA@ 1000dee4     srvkmbridged:bridged_pvr_bridge.obj
 0001:0000cf00       ??_C@_0BP@MAEGIGMC@PVRSRV_BRIDGE_EXPORT_DEVICEMEM?$AA@ 1000df00     srvkmbridged:bridged_pvr_bridge.obj
 0001:0000cf20       ??_C@_0BI@OOAHKJHD@PVRSRVExportDeviceMemBW?$AA@ 1000df20     srvkmbridged:bridged_pvr_bridge.obj
 0001:0000cf38       ??_C@_0CH@LBAHFEEL@PVRSRV_BRIDGE_UNMAP_MEM_INFO_FRO@ 1000df38     srvkmbridged:bridged_pvr_bridge.obj
 0001:0000cf60       ??_C@_0CD@DFOLOMEB@PVRSRV_BRIDGE_MAP_MEM_INFO_TO_US@ 1000df60     srvkmbridged:bridged_pvr_bridge.obj
 0001:0000cf84       ??_C@_0CH@HOOHMNDN@PVRSRV_BRIDGE_UNMAP_DEVICECLASS_@ 1000df84     srvkmbridged:bridged_pvr_bridge.obj
 0001:0000cfac       ??_C@_0BP@PDNHFIC@PVRSRVUnmapDeviceClassMemoryBW?$AA@ 1000dfac     srvkmbridged:bridged_pvr_bridge.obj
 0001:0000cfcc       ??_C@_0CF@IICCCLJK@PVRSRV_BRIDGE_MAP_DEVICECLASS_ME@ 1000dfcc     srvkmbridged:bridged_pvr_bridge.obj
 0001:0000cff4       ??_C@_0BN@POIIOPBM@PVRSRVMapDeviceClassMemoryBW?$AA@ 1000dff4     srvkmbridged:bridged_pvr_bridge.obj
 0001:0000d014       ??_C@_0BP@GHCHIKIJ@PVRSRV_BRIDGE_UNMAP_DEV_MEMORY?$AA@ 1000e014     srvkmbridged:bridged_pvr_bridge.obj
 0001:0000d034       ??_C@_0BK@NAEFOGOD@PVRSRVUnmapDeviceMemoryBW?$AA@ 1000e034     srvkmbridged:bridged_pvr_bridge.obj
 0001:0000d050       ??_C@_0BN@GDEFGOKM@PVRSRV_BRIDGE_MAP_DEV_MEMORY?$AA@ 1000e050     srvkmbridged:bridged_pvr_bridge.obj
 0001:0000d070       ??_C@_0BI@HFFDDAMO@PVRSRVMapDeviceMemoryBW?$AA@ 1000e070     srvkmbridged:bridged_pvr_bridge.obj
 0001:0000d088       ??_C@_0BP@FKAPHHJH@PVRSRV_BRIDGE_UNMAP_EXT_MEMORY?$AA@ 1000e088     srvkmbridged:bridged_pvr_bridge.obj
 0001:0000d0a8       ??_C@_0BN@FOGNJDLC@PVRSRV_BRIDGE_MAP_EXT_MEMORY?$AA@ 1000e0a8     srvkmbridged:bridged_pvr_bridge.obj
 0001:0000d0c8       ??_C@_0BP@EKGPHLMO@PVRSRV_BRIDGE_FREE_DEV_VIRTMEM?$AA@ 1000e0c8     srvkmbridged:bridged_pvr_bridge.obj
 0001:0000d0e8       ??_C@_0CC@MNIBNNAM@PVRSRV_BRIDGE_RESERVE_DEV_VIRTME@ 1000e0e8     srvkmbridged:bridged_pvr_bridge.obj
 0001:0000d10c       ??_C@_0CA@IOLBDCJJ@PVRSRV_BRIDGE_GET_DEVICEMEMINFO?$AA@ 1000e10c     srvkmbridged:bridged_pvr_bridge.obj
 0001:0000d12c       ??_C@_0BO@KLMDMLDO@PVRSRV_BRIDGE_WRAP_DEVICE_MEM?$AA@ 1000e12c     srvkmbridged:bridged_pvr_bridge.obj
 0001:0000d14c       ??_C@_0CC@OKCMBFOC@PVRSRV_BRIDGE_DISCONNECT_SERVICE@ 1000e14c     srvkmbridged:bridged_pvr_bridge.obj
 0001:0000d170       ??_C@_0BD@ILHMGPPM@PVRSRVDisconnectBW?$AA@ 1000e170     srvkmbridged:bridged_pvr_bridge.obj
 0001:0000d184       ??_C@_0BP@OPGLDLAF@PVRSRV_BRIDGE_CONNECT_SERVICES?$AA@ 1000e184     srvkmbridged:bridged_pvr_bridge.obj
 0001:0000d1a4       ??_C@_0BA@EJLNIKBA@PVRSRVConnectBW?$AA@ 1000e1a4     srvkmbridged:bridged_pvr_bridge.obj
 0001:0000d1b4       ??_C@_0CD@POOCKGEO@PVRSRV_BRIDGE_MHANDLE_TO_MMAP_DA@ 1000e1b4     srvkmbridged:bridged_pvr_bridge.obj
 0001:0000d1d8       ??_C@_0BP@ELEPKEPJ@PVRMMapOSMemHandleToMMapDataBW?$AA@ 1000e1d8     srvkmbridged:bridged_pvr_bridge.obj
 0001:0000d1f8       ??_C@_0CD@CPFMEBIA@PVRSRV_BRIDGE_DESTROY_COMMANDQUE@ 1000e1f8     srvkmbridged:bridged_pvr_bridge.obj
 0001:0000d21c       ??_C@_0CC@MKBGOIBI@PVRSRV_BRIDGE_CREATE_COMMANDQUEU@ 1000e21c     srvkmbridged:bridged_pvr_bridge.obj
 0001:0000d240       ??_C@_0CA@MGIGFPND@PVRSRV_BRIDGE_GETFREE_DEVICEMEM?$AA@ 1000e240     srvkmbridged:bridged_pvr_bridge.obj
 0001:0000d260       ??_C@_0BJ@ENLIGNAL@PVRSRVGetFreeDeviceMemBW?$AA@ 1000e260     srvkmbridged:bridged_pvr_bridge.obj
 0001:0000d27c       ??_C@_0BN@IPNKKKHL@PVRSRV_BRIDGE_FREE_DEVICEMEM?$AA@ 1000e27c     srvkmbridged:bridged_pvr_bridge.obj
 0001:0000d29c       ??_C@_0BG@BINCMNIF@PVRSRVFreeDeviceMemBW?$AA@ 1000e29c     srvkmbridged:bridged_pvr_bridge.obj
 0001:0000d2b4       ??_C@_0BO@JAEBPOEF@PVRSRV_BRIDGE_ALLOC_DEVICEMEM?$AA@ 1000e2b4     srvkmbridged:bridged_pvr_bridge.obj
 0001:0000d2d4       ??_C@_0BH@BAEKFDGF@PVRSRVAllocDeviceMemBW?$AA@ 1000e2d4     srvkmbridged:bridged_pvr_bridge.obj
 0001:0000d2ec       ??_C@_0CC@MPMLBCOG@PVRSRV_BRIDGE_GET_DEVMEM_HEAPINF@ 1000e2ec     srvkmbridged:bridged_pvr_bridge.obj
 0001:0000d310       ??_C@_0BN@HFCCHOKF@PVRSRVGetDeviceMemHeapInfoBW?$AA@ 1000e310     srvkmbridged:bridged_pvr_bridge.obj
 0001:0000d330       ??_C@_0CE@GMGMJLMG@PVRSRV_BRIDGE_DESTROY_DEVMEMCONT@ 1000e330     srvkmbridged:bridged_pvr_bridge.obj
 0001:0000d354       ??_C@_0CA@HEGDEJGI@PVRSRVDestroyDeviceMemContextBW?$AA@ 1000e354     srvkmbridged:bridged_pvr_bridge.obj
 0001:0000d374       ??_C@_0CD@JCFNMKBJ@PVRSRV_BRIDGE_CREATE_DEVMEMCONTE@ 1000e374     srvkmbridged:bridged_pvr_bridge.obj
 0001:0000d398       ??_C@_0BP@HBMCAHOG@PVRSRVCreateDeviceMemContextBW?$AA@ 1000e398     srvkmbridged:bridged_pvr_bridge.obj
 0001:0000d3b8       ??_C@_0CB@HIAHMOJG@PVRSRV_BRIDGE_RELEASE_DEVICEINFO@ 1000e3b8     srvkmbridged:bridged_pvr_bridge.obj
 0001:0000d3dc       ??_C@_0CB@HHCBOGLA@PVRSRV_BRIDGE_ACQUIRE_DEVICEINFO@ 1000e3dc     srvkmbridged:bridged_pvr_bridge.obj
 0001:0000d400       ??_C@_0BK@FNAELLFP@PVRSRVAcquireDeviceDataBW?$AA@ 1000e400     srvkmbridged:bridged_pvr_bridge.obj
 0001:0000d41c       ??_C@_0BL@DPOLAIDC@PVRSRV_BRIDGE_ENUM_DEVICES?$AA@ 1000e41c     srvkmbridged:bridged_pvr_bridge.obj
 0001:0000d438       ??_C@_0BJ@PCLMGJLM@PVRSRVEnumerateDevicesBW?$AA@ 1000e438     srvkmbridged:bridged_pvr_bridge.obj
 0001:0000d458       ??_C@_0GE@HDEODEHE@c?3?2data?2jatin?2powervr_build?2ddk1@ 1000e458     srvkmbridged:bridged_pvr_bridge.obj
 0001:0000d4c0       ??_C@_0EL@HEEMAHHF@PVRSRVExportDeviceMemBW?3?5failed?5@ 1000e4c0     srvkmbridged:bridged_pvr_bridge.obj
 0001:0000d50c       ??_C@_0DI@DNLGGGMP@PVRSRVExportDeviceMemBW?3?5allocat@ 1000e50c     srvkmbridged:bridged_pvr_bridge.obj
 0001:0000d544       ??_C@_0DD@BEINBNCF@PVRSRVExportDeviceMemBW?3?5can?8t?5f@ 1000e544     srvkmbridged:bridged_pvr_bridge.obj
 0001:0000d578       ??_C@_0CO@GKKAJAGN@PVRSRVExportDeviceMemBW?3?5can?8t?5f@ 1000e578     srvkmbridged:bridged_pvr_bridge.obj
 0001:0000d5a8       ??_C@_0BC@EBFIAAPN@lakjgfgewjlrgebhe?$AA@ 1000e5a8     srvkmbridged:bridged_pvr_bridge.obj
 0001:0000d5bc       ??_C@_0DL@OMPONBKM@PVRSRVMapDeviceMemoryBW?$CI?$CJ?3?5faile@ 1000e5bc     srvkmbridged:bridged_pvr_bridge.obj
 0001:0000d5f8       ??_C@_0BP@LMMDHCBL@using?5the?5mem?5wrap?5workaround?4?$AA@ 1000e5f8     srvkmbridged:bridged_pvr_bridge.obj
 0001:0000d618       ??_C@_0EP@FMHBGJKB@PVRSRVUnmapDeviceMemoryBW?3?5inter@ 1000e618     srvkmbridged:bridged_pvr_bridge.obj
 0001:0000d668       ??_C@_0CH@OHMPGAHL@PVRSRVGetMiscInfoBW?5Error?5copy?5t@ 1000e668     srvkmbridged:bridged_pvr_bridge.obj
 0001:0000d690       ??_C@_0DK@MIDHELKK@?5?5Read?5ops?5pending?5snapshot?5?$DN?5?$CFd@ 1000e690     srvkmbridged:bridged_pvr_bridge.obj
 0001:0000d6cc       ??_C@_0DL@INGEBNGK@?5?5Write?5ops?5pending?5snapshot?5?$DN?5?$CF@ 1000e6cc     srvkmbridged:bridged_pvr_bridge.obj
 0001:0000d708       ??_C@_0FA@NPFOIKMP@ModifyCompleteSyncOpsCallBack?3?5t@ 1000e708     srvkmbridged:bridged_pvr_bridge.obj
 0001:0000d758       ??_C@_0EA@PAENFIN@ModifyCompleteSyncOpsCallBack?3?5w@ 1000e758     srvkmbridged:bridged_pvr_bridge.obj
 0001:0000d798       ??_C@_0DB@LCMIHCCL@ModifyCompleteSyncOpsCallBack?3?5i@ 1000e798     srvkmbridged:bridged_pvr_bridge.obj
 0001:0000d7cc       ??_C@_0DJ@MCMDGLEA@PVRSRVDestroySyncInfoModObjBW?3?5R@ 1000e7cc     srvkmbridged:bridged_pvr_bridge.obj
 0001:0000d808       ??_C@_0DK@BHOJFAND@PVRSRVDestroySyncInfoModObjBW?3?5P@ 1000e808     srvkmbridged:bridged_pvr_bridge.obj
 0001:0000d844       ??_C@_0DJ@DDCOIGPG@PVRSRVDestroySyncInfoModObjBW?3?5P@ 1000e844     srvkmbridged:bridged_pvr_bridge.obj
 0001:0000d880       ??_C@_0EI@IDBHBKBE@PVRSRVModifyPendingSyncOpsBW?3?5Sy@ 1000e880     srvkmbridged:bridged_pvr_bridge.obj
 0001:0000d8c8       ??_C@_0DI@MEPHHBNO@PVRSRVModifyPendingSyncOpsBW?3?5PV@ 1000e8c8     srvkmbridged:bridged_pvr_bridge.obj
 0001:0000d900       ??_C@_0DO@DNNONCDM@PVRSRVModifyCompleteSyncOpsBW?3?5D@ 1000e900     srvkmbridged:bridged_pvr_bridge.obj
 0001:0000d940       ??_C@_0DJ@LJILHBOA@PVRSRVModifyCompleteSyncOpsBW?3?5P@ 1000e940     srvkmbridged:bridged_pvr_bridge.obj
 0001:0000d97c       ??_C@_0DE@DACJFMB@PVRSRVSyncOpsTakeTokenBW?3?5PVRSRV@ 1000e97c     srvkmbridged:bridged_pvr_bridge.obj
 0001:0000d9b0       ??_C@_0DM@IJBANHHE@PVRSRVSyncOpsFlushToTokenBW?3?5DoQ@ 1000e9b0     srvkmbridged:bridged_pvr_bridge.obj
 0001:0000d9ec       ??_C@_0DH@HIEGPPG@PVRSRVSyncOpsFlushToTokenBW?3?5PVR@ 1000e9ec     srvkmbridged:bridged_pvr_bridge.obj
 0001:0000da24       ??_C@_0DN@GAFCFKJE@PVRSRVSyncOpsFlushToModObjBW?3?5Do@ 1000ea24     srvkmbridged:bridged_pvr_bridge.obj
 0001:0000da64       ??_C@_0DI@JPICGMII@PVRSRVSyncOpsFlushToModObjBW?3?5PV@ 1000ea64     srvkmbridged:bridged_pvr_bridge.obj
 0001:0000da9c       ??_C@_0DH@MNMPEDAF@PVRSRVSyncOpsFlushToDeltaBW?3?5PVR@ 1000ea9c     srvkmbridged:bridged_pvr_bridge.obj
 0001:0000dad4       ??_C@_0DA@KGPJNBCD@PVRSRVFreeSyncInfoBW?3?5ResManFree@ 1000ead4     srvkmbridged:bridged_pvr_bridge.obj
 0001:0000db04       ??_C@_0DB@MDDGFKIL@PVRSRVFreeSyncInfoBW?3?5PVRSRVRele@ 1000eb04     srvkmbridged:bridged_pvr_bridge.obj
 0001:0000db38       ??_C@_0DA@FHBEDMJF@PVRSRVFreeSyncInfoBW?3?5PVRSRVLook@ 1000eb38     srvkmbridged:bridged_pvr_bridge.obj
 0001:0000db68       ??_C@_0CH@IABLBMCP@?$CFs?3?5ui32BridgeID?5?$DN?5?$CFd?5is?5out?5if?5@ 1000eb68     srvkmbridged:bridged_pvr_bridge.obj
 0001:0000db90       ??_C@_0CN@EDOLDBHB@?$CFs?3?5Driver?5initialisation?5not?5co@ 1000eb90     srvkmbridged:bridged_pvr_bridge.obj
 0001:0000dbc0       ??_C@_0CC@LCEKKKBO@?$CFs?3?5Initialisation?5is?5in?5progres@ 1000ebc0     srvkmbridged:bridged_pvr_bridge.obj
 0001:0000dbe4       ??_C@_0CN@LFBMKDLL@?$CFs?3?5Initialisation?5failed?4?5?5Driv@ 1000ebe4     srvkmbridged:bridged_pvr_bridge.obj
 0001:0000dc14       ??_C@_0BC@OAKCGPCG@BridgedDispatchKM?$AA@ 1000ec14     srvkmbridged:bridged_pvr_bridge.obj
 0001:0000dc28       ??_C@_0CB@CJFFECN@PVRSRV_BRIDGE_SGX_READ_HWPERF_CB@ 1000ec28     srvkmbridged:bridged_sgx_bridge.obj
 0001:0000dc4c       ??_C@_0BC@CGGIOIBC@SGXReadHWPerfCBBW?$AA@ 1000ec4c     srvkmbridged:bridged_sgx_bridge.obj
 0001:0000dc60       ??_C@_0CK@FGMOPBHJ@PVRSRV_BRIDGE_SGX_SCHEDULE_PROCE@ 1000ec60     srvkmbridged:bridged_sgx_bridge.obj
 0001:0000dc8c       ??_C@_0BL@CPDJJJCD@SGXScheduleProcessQueuesBW?$AA@ 1000ec8c     srvkmbridged:bridged_sgx_bridge.obj
 0001:0000dca8       ??_C@_0DB@PNGKKIGJ@PVRSRV_BRIDGE_SGX_UNREGISTER_HW_@ 1000eca8     srvkmbridged:bridged_sgx_bridge.obj
 0001:0000dcdc       ??_C@_0CB@JFKANBLO@SGXUnregisterHWTransferContextBW@ 1000ecdc     srvkmbridged:bridged_sgx_bridge.obj
 0001:0000dd00       ??_C@_0CP@BKGIBLMC@PVRSRV_BRIDGE_SGX_REGISTER_HW_TR@ 1000ed00     srvkmbridged:bridged_sgx_bridge.obj
 0001:0000dd30       ??_C@_0BP@IDPLDJMB@SGXRegisterHWTransferContextBW?$AA@ 1000ed30     srvkmbridged:bridged_sgx_bridge.obj
 0001:0000dd50       ??_C@_0CP@BFBHDDGD@PVRSRV_BRIDGE_SGX_UNREGISTER_HW_@ 1000ed50     srvkmbridged:bridged_sgx_bridge.obj
 0001:0000dd80       ??_C@_0BP@MPPABBB@SGXUnregisterHWRenderContextBW?$AA@ 1000ed80     srvkmbridged:bridged_sgx_bridge.obj
 0001:0000dda0       ??_C@_0CJ@CCNEDCPA@PVRSRV_BRIDGE_SGX_FLUSH_HW_RENDE@ 1000eda0     srvkmbridged:bridged_sgx_bridge.obj
 0001:0000ddcc       ??_C@_0BJ@DCIOGPMF@SGXFlushHWRenderTargetBW?$AA@ 1000edcc     srvkmbridged:bridged_sgx_bridge.obj
 0001:0000dde8       ??_C@_0CN@FLINDIJH@PVRSRV_BRIDGE_SGX_REGISTER_HW_RE@ 1000ede8     srvkmbridged:bridged_sgx_bridge.obj
 0001:0000de18       ??_C@_0BN@PDPOCOPK@SGXRegisterHWRenderContextBW?$AA@ 1000ee18     srvkmbridged:bridged_sgx_bridge.obj
 0001:0000de38       ??_C@_0CC@EJOCNPKJ@PVRSRV_BRIDGE_SGX_ADDSHAREDPBDES@ 1000ee38     srvkmbridged:bridged_sgx_bridge.obj
 0001:0000de5c       ??_C@_0BF@GDJMNKNG@SGXAddSharedPBDescBW?$AA@ 1000ee5c     srvkmbridged:bridged_sgx_bridge.obj
 0001:0000de74       ??_C@_0CE@CCIPBGJL@PVRSRV_BRIDGE_SGX_UNREFSHAREDPBD@ 1000ee74     srvkmbridged:bridged_sgx_bridge.obj
 0001:0000de98       ??_C@_0BH@MIGJEHIE@SGXUnrefSharedPBDescBW?$AA@ 1000ee98     srvkmbridged:bridged_sgx_bridge.obj
 0001:0000deb0       ??_C@_0CD@JIBIOMKF@PVRSRV_BRIDGE_SGX_FINDSHAREDPBDE@ 1000eeb0     srvkmbridged:bridged_sgx_bridge.obj
 0001:0000ded4       ??_C@_0BG@OKDAEDNB@SGXFindSharedPBDescBW?$AA@ 1000eed4     srvkmbridged:bridged_sgx_bridge.obj
 0001:0000deec       ??_C@_0BP@FAAFBBEP@PVRSRV_BRIDGE_SGX_DEVINITPART2?$AA@ 1000eeec     srvkmbridged:bridged_sgx_bridge.obj
 0001:0000df0c       ??_C@_0BC@LDHGKCEG@SGXDevInitPart2BW?$AA@ 1000ef0c     srvkmbridged:bridged_sgx_bridge.obj
 0001:0000df20       ??_C@_0CC@MKMFBNIA@PVRSRV_BRIDGE_SGXINFO_FOR_SRVINI@ 1000ef20     srvkmbridged:bridged_sgx_bridge.obj
 0001:0000df44       ??_C@_0BH@MLEEJLHE@SGXGetInfoForSrvinitBW?$AA@ 1000ef44     srvkmbridged:bridged_sgx_bridge.obj
 0001:0000df5c       ??_C@_0BO@LGACKMBI@PVRSRV_BRIDGE_SGX_GETMISCINFO?$AA@ 1000ef5c     srvkmbridged:bridged_sgx_bridge.obj
 0001:0000df7c       ??_C@_0BB@BKDEILJN@SGXGetMiscInfoBW?$AA@ 1000ef7c     srvkmbridged:bridged_sgx_bridge.obj
 0001:0000df90       ??_C@_0CB@LGMDDJFH@PVRSRV_BRIDGE_SGX_SUBMITTRANSFER@ 1000ef90     srvkmbridged:bridged_sgx_bridge.obj
 0001:0000dfb4       ??_C@_0BE@GMHMJHCI@SGXSubmitTransferBW?$AA@ 1000efb4     srvkmbridged:bridged_sgx_bridge.obj
 0001:0000dfc8       ??_C@_0BP@MOHANIJB@PVRSRV_BRIDGE_SGX_GETMMUPDADDR?$AA@ 1000efc8     srvkmbridged:bridged_sgx_bridge.obj
 0001:0000dfe8       ??_C@_0CG@FICPHDGB@PVRSRV_BRIDGE_SGX_2DQUERYBLTSCOM@ 1000efe8     srvkmbridged:bridged_sgx_bridge.obj
 0001:0000e010       ??_C@_0BK@ELJGOEFO@SGX2DQueryBlitsCompleteBW?$AA@ 1000f010     srvkmbridged:bridged_sgx_bridge.obj
 0001:0000e02c       ??_C@_0CE@IIGLPIN@PVRSRV_BRIDGE_SGX_READREGISTRYDW@ 1000f02c     srvkmbridged:bridged_sgx_bridge.obj
 0001:0000e050       ??_C@_0CC@KICAJGOF@PVRSRV_BRIDGE_SGX_GETPHYSPAGEADD@ 1000f050     srvkmbridged:bridged_sgx_bridge.obj
 0001:0000e074       ??_C@_0BJ@NODNCHPG@PVRSRV_BRIDGE_SGX_DOKICK?$AA@ 1000f074     srvkmbridged:bridged_sgx_bridge.obj
 0001:0000e090       ??_C@_0M@MNGMALBD@SGXDoKickBW?$AA@ 1000f090     srvkmbridged:bridged_sgx_bridge.obj
 0001:0000e09c       ??_C@_0CF@BIBINDHJ@PVRSRV_BRIDGE_SGX_GETINTERNALDEV@ 1000f09c     srvkmbridged:bridged_sgx_bridge.obj
 0001:0000e0c4       ??_C@_0BI@BLJIIEEG@SGXGetInternalDevInfoBW?$AA@ 1000f0c4     srvkmbridged:bridged_sgx_bridge.obj
 0001:0000e0dc       ??_C@_0CE@HLNOPLNM@PVRSRV_BRIDGE_SGX_RELEASECLIENTI@ 1000f0dc     srvkmbridged:bridged_sgx_bridge.obj
 0001:0000e100       ??_C@_0BH@OJNGMMEM@SGXReleaseClientInfoBW?$AA@ 1000f100     srvkmbridged:bridged_sgx_bridge.obj
 0001:0000e118       ??_C@_0CA@EIFFKNMN@PVRSRV_BRIDGE_SGX_GETCLIENTINFO?$AA@ 1000f118     srvkmbridged:bridged_sgx_bridge.obj
 0001:0000e138       ??_C@_0BD@ODPPLAIN@SGXGetClientInfoBW?$AA@ 1000f138     srvkmbridged:bridged_sgx_bridge.obj
 0001:0000e150       ??_C@_0GI@DABELONM@c?3?2data?2jatin?2powervr_build?2ddk1@ 1000f150     srvkmbridged:bridged_sgx_bridge.obj
 0001:0000e1b8       ??_C@_0DD@KDBDNBPG@?$CFs?3?5SGXDoKickBW?3?5Invalid?5pasDstS@ 1000f1b8     srvkmbridged:bridged_sgx_bridge.obj
 0001:0000e1ec       ??_C@_0CH@JBLOPEGP@DevInitSGXPart2BW?3?5A?5dissociate?5@ 1000f1ec     srvkmbridged:bridged_sgx_bridge.obj
 0001:0000e214       ??_C@_0CL@IFGBNMEJ@DevInitSGXPart2BW?3?5A?5handle?5rele@ 1000f214     srvkmbridged:bridged_sgx_bridge.obj
 0001:0000e240       ??_C@_0CK@KBKCNCDH@DevInitSGXPart2BW?3?5A?5handle?5look@ 1000f240     srvkmbridged:bridged_sgx_bridge.obj
 0001:0000e270       ??_C@_0EI@HLMKLDAK@?$CFs?3?5PVRSRV_BRIDGE_SGX_ADDSHAREDP@ 1000f270     srvkmbridged:bridged_sgx_bridge.obj
 0001:0000e2b8       ??_C@_0DG@MJOENAMC@SGXInitialise?3?5Wait?5for?5uKernel?5@ 1000f2b8     srvkmsgx:sgxinit.obj
 0001:0000e2f0       ??_C@_0DB@EELDHADA@SGXInitialise?3?5SGXRunScript?5?$CIpar@ 1000f2f0     srvkmsgx:sgxinit.obj
 0001:0000e328       ??_C@_0FN@KMCMOPFG@c?3?2data?2jatin?2powervr_build?2ddk1@ 1000f328     srvkmsgx:sgxinit.obj
 0001:0000e388       ??_C@_0DB@FFMOBKEJ@SGXInitialise?3?5SGXRunScript?5?$CIpar@ 1000f388     srvkmsgx:sgxinit.obj
 0001:0000e3bc       ??_C@_0CJ@JKIJALOO@SGXRunScript?3?5PC?5?$CFd?3?5Illegal?5com@ 1000f3bc     srvkmsgx:sgxinit.obj
 0001:0000e3e8       ??_C@_0CK@JAHKLNJH@SGXDeinitialise?3?5SGXRunScript?5fa@ 1000f3e8     srvkmsgx:sgxinit.obj
 0001:0000e414       ??_C@_0DM@PCIBNMEG@SGXGetInfoForSrvinit?3?5PVRSRVGetD@ 1000f414     srvkmsgx:sgxinit.obj
 0001:0000e450       ??_C@_0EA@FBPBJEPM@DevInitSGXPart2KM?3?5failed?5to?5reg@ 1000f450     srvkmsgx:sgxinit.obj
 0001:0000e490       ??_C@_0CK@IOFOBAMJ@DevInitSGXPart2KM?3?5Failed?5to?5map@ 1000f490     srvkmsgx:sgxinit.obj
 0001:0000e4bc       ??_C@_0DE@IPJKMAGE@DevInitSGXPart2KM?3?5Failed?5to?5get@ 1000f4bc     srvkmsgx:sgxinit.obj
 0001:0000e4f0       ??_C@_0CO@HOOKJJIO@DevInitSGXPart2KM?3?5Failed?5to?5loa@ 1000f4f0     srvkmsgx:sgxinit.obj
 0001:0000e520       ??_C@_0CE@ECLNKBFI@InitDevInfo?3?5Failed?5to?5alloc?5mem@ 1000f520     srvkmsgx:sgxinit.obj
 0001:0000e544       ??_C@_0CO@FDLIGPGM@SGXOSTimer?$CI?$CJ?5detected?5SGX?5lockup@ 1000f544     srvkmsgx:sgxinit.obj
 0001:0000e574       ??_C@_0CO@PMMFFJAN@HWRecoveryResetSGX?3?5SGXInitialis@ 1000f574     srvkmsgx:sgxinit.obj
 0001:0000e5a4       ??_C@_0DE@BCEIIPOM@HWRecoveryResetSGX?3?5SGX?5Hardware@ 1000f5a4     srvkmsgx:sgxinit.obj
 0001:0000e5d8       ??_C@_0DB@JFFNMLMO@HWRecoveryResetSGX?3?5Power?5transi@ 1000f5d8     srvkmsgx:sgxinit.obj
 0001:0000e60c       ??_C@_0BP@KPCPFALL@SGX?5Kernel?5CCB?5WO?30x?$CFX?5RO?30x?$CFX?$AA@ 1000f60c     srvkmsgx:sgxinit.obj
 0001:0000e62c       ??_C@_0CG@GMEMMKDG@?7?$CIT3C?9?$CFX?$CJ?50x?$CF08X?50x?$CF08X?50x?$CF08X?50@ 1000f62c     srvkmsgx:sgxinit.obj
 0001:0000e654       ??_C@_0BD@JNHKJOPE@SGX?5TA?13D?5control?3?$AA@ 1000f654     srvkmsgx:sgxinit.obj
 0001:0000e668       ??_C@_0CF@FIKAAPLC@?7?$CIHC?9?$CFX?$CJ?50x?$CF08X?50x?$CF08X?50x?$CF08X?50x@ 1000f668     srvkmsgx:sgxinit.obj
 0001:0000e690       ??_C@_0BC@CCKOJHF@SGX?5Host?5control?3?$AA@ 1000f690     srvkmsgx:sgxinit.obj
 0001:0000e6a4       ??_C@_0CE@MJGMDGMI@SGX?5Microkernel?5assert?5fail?3?50x?$CF@ 1000f6a4     srvkmsgx:sgxinit.obj
 0001:0000e6c8       ??_C@_0BK@CHFKHPCM@EUR_CR_PDS_PC_BASE?3?5?5?5?5?5?5?$AA@ 1000f6c8     srvkmsgx:sgxinit.obj
 0001:0000e6e4       ??_C@_0BK@MEBENGCC@EUR_CR_CLKGATECTL?3?5?5?5?5?5?5?5?$AA@ 1000f6e4     srvkmsgx:sgxinit.obj
 0001:0000e700       ??_C@_0BK@DOLEIFIN@EUR_CR_BIF_MEM_REQ_STAT?3?5?$AA@ 1000f700     srvkmsgx:sgxinit.obj
 0001:0000e71c       ??_C@_0BK@NLMGMNO@EUR_CR_BIF_FAULT?3?5?5?5?5?5?5?5?5?$AA@ 1000f71c     srvkmsgx:sgxinit.obj
 0001:0000e738       ??_C@_0BK@OPAJBFHB@EUR_CR_BIF_INT_STAT?3?5?5?5?5?5?$AA@ 1000f738     srvkmsgx:sgxinit.obj
 0001:0000e754       ??_C@_0BK@JDHHCKBD@EUR_CR_BIF_CTRL?3?5?5?5?5?5?5?5?5?5?$AA@ 1000f754     srvkmsgx:sgxinit.obj
 0001:0000e770       ??_C@_0BK@LFNPAIDK@EUR_CR_EVENT_STATUS2?3?5?5?5?5?$AA@ 1000f770     srvkmsgx:sgxinit.obj
 0001:0000e78c       ??_C@_0BK@CEHNGHKA@EUR_CR_EVENT_STATUS?3?5?5?5?5?5?$AA@ 1000f78c     srvkmsgx:sgxinit.obj
 0001:0000e7a8       ??_C@_0BK@BAFLGNAI@EUR_CR_CORE_REVISION?3?5?5?5?5?$AA@ 1000f7a8     srvkmsgx:sgxinit.obj
 0001:0000e7c4       ??_C@_0BK@HPDHJHAO@EUR_CR_CORE_ID?3?5?5?5?5?5?5?5?5?5?5?$AA@ 1000f7c4     srvkmsgx:sgxinit.obj
 0001:0000e7e0       ??_C@_0CN@BOBNGNHC@SGX?5Register?5Base?5Address?5?$CIPhysi@ 1000f7e0     srvkmsgx:sgxinit.obj
 0001:0000e810       ??_C@_0CN@OPPAFKFA@SGX?5Register?5Base?5Address?5?$CILinea@ 1000f810     srvkmsgx:sgxinit.obj
 0001:0000e840       ??_C@_0P@KEPDAJKI@SGX?5debug?5?$CI?$CFs?$CJ?$AA@ 1000f840     srvkmsgx:sgxinit.obj
 0001:0000e850       ??_C@_0M@HPLKLBCA@1?47?417?44352?$AA@ 1000f850     srvkmsgx:sgxinit.obj
 0001:0000e85c       ??_C@_0N@KECBBCPL@?$CIP?$CFu?$CJ?5?$CFs?$CF08X?$AA@ 1000f85c     srvkmsgx:sgxinit.obj
 0001:0000e86c       ??_C@_0CA@CHLECMFG@SGX_ISRHandler?3?5Invalid?5params?6?$AA@ 1000f86c     srvkmsgx:sgxinit.obj
 0001:0000e88c       ??_C@_0BL@MLABKLPC@Percontext?53DParameters?5BS?$AA@ 1000f88c     srvkmsgx:sgxinit.obj
 0001:0000e8a8       ??_C@_0BI@KMNELJCH@Percontext?53DParameters?$AA@ 1000f8a8     srvkmsgx:sgxinit.obj
 0001:0000e8c0       ??_C@_0BH@CGOABONM@Shared?53DParameters?5BS?$AA@ 1000f8c0     srvkmsgx:sgxinit.obj
 0001:0000e8d8       ??_C@_0BE@PKHDBNHF@Shared?53DParameters?$AA@ 1000f8d8     srvkmsgx:sgxinit.obj
 0001:0000e8ec       ??_C@_0BB@ELAGFJPA@CacheCoherent?5BS?$AA@ 1000f8ec     srvkmsgx:sgxinit.obj
 0001:0000e900       ??_C@_0O@MKKIKOIA@CacheCoherent?$AA@ 1000f900     srvkmsgx:sgxinit.obj
 0001:0000e910       ??_C@_0BF@BKOFDGLO@PDSVertexCodeData?5BS?$AA@ 1000f910     srvkmsgx:sgxinit.obj
 0001:0000e928       ??_C@_0BC@JGBCPAPO@PDSVertexCodeData?$AA@ 1000f928     srvkmsgx:sgxinit.obj
 0001:0000e93c       ??_C@_0BE@LIHHJBPP@PDSPixelCodeData?5BS?$AA@ 1000f93c     srvkmsgx:sgxinit.obj
 0001:0000e950       ??_C@_0BB@LHDMHLBH@PDSPixelCodeData?$AA@ 1000f950     srvkmsgx:sgxinit.obj
 0001:0000e964       ??_C@_0BE@EHEPOIPP@VertexShaderUSSE?5BS?$AA@ 1000f964     srvkmsgx:sgxinit.obj
 0001:0000e978       ??_C@_0BB@JNKGBMKH@VertexShaderUSSE?$AA@ 1000f978     srvkmsgx:sgxinit.obj
 0001:0000e98c       ??_C@_0BD@EALBFBFE@PixelShaderUSSE?5BS?$AA@ 1000f98c     srvkmsgx:sgxinit.obj
 0001:0000e9a0       ??_C@_0BA@GBONALCE@PixelShaderUSSE?$AA@ 1000f9a0     srvkmsgx:sgxinit.obj
 0001:0000e9b0       ??_C@_0O@ICBOFOND@KernelData?5BS?$AA@ 1000f9b0     srvkmsgx:sgxinit.obj
 0001:0000e9c0       ??_C@_0L@OKKEBOLA@KernelData?$AA@ 1000f9c0     srvkmsgx:sgxinit.obj
 0001:0000e9cc       ??_C@_0P@BNNOFOFF@Kernel?5Code?5BS?$AA@ 1000f9cc     srvkmsgx:sgxinit.obj
 0001:0000e9dc       ??_C@_0M@HKLGKLCN@Kernel?5Code?$AA@ 1000f9dc     srvkmsgx:sgxinit.obj
 0001:0000e9e8       ??_C@_0L@FJNLGMOD@TA?5Data?5BS?$AA@ 1000f9e8     srvkmsgx:sgxinit.obj
 0001:0000e9f4       ??_C@_07KPJGFCNE@TA?5Data?$AA@ 1000f9f4     srvkmsgx:sgxinit.obj
 0001:0000e9fc       ??_C@_0L@PGEIAGBE@General?5BS?$AA@ 1000f9fc     srvkmsgx:sgxinit.obj
 0001:0000ea08       ??_C@_07ECEMPDJM@General?$AA@ 1000fa08     srvkmsgx:sgxinit.obj
 0001:0000ea10       ??_C@_0EH@CADCCBIM@SGXRegisterDevice?5?3?5Failed?5to?5al@ 1000fa10     srvkmsgx:sgxinit.obj
 0001:0000ea58       ??_C@_0DC@CMALDBNN@DevInitSGX?5?3?5Failed?5to?5alloc?5mem@ 1000fa58     srvkmsgx:sgxinit.obj
 0001:0000ea8c       ??_C@_0CJ@OAMHONMH@DevInitSGXPart1?3?5Failed?5BM_Creat@ 1000fa8c     srvkmsgx:sgxinit.obj
 0001:0000eab8       ??_C@_0DF@CFOFJGEN@DevInitSGXPart1?5?3?5Failed?5to?5allo@ 1000fab8     srvkmsgx:sgxinit.obj
 0001:0000eaf0       ??_C@_0CP@FGBAOAKN@DevDeInitSGX?3?5Failed?5to?5get?5devi@ 1000faf0     srvkmsgx:sgxinit.obj
 0001:0000eb20       ??_C@_0DA@IECPKKMK@DevDeInitSGX?5?3?5Failed?5to?5destroy@ 1000fb20     srvkmsgx:sgxinit.obj
 0001:0000eb50       ??_C@_0CF@KKPAOHAN@DevDeInitSGX?3?5Failed?5to?5remove?5t@ 1000fb50     srvkmsgx:sgxinit.obj
 0001:0000eb78       ??_C@_0BL@GGLCLDDL@DevDeInitSGX?3?5Null?5DevInfo?$AA@ 1000fb78     srvkmsgx:sgxinit.obj
 0001:0000eb94       ??_C@_09MAIEAOCE@SGX?5panic?$AA@ 1000fb94     srvkmsgx:sgxinit.obj
 0001:0000eba0       ??_C@_0DM@FFKFNHCE@SGXInit?3?5Driver?5and?5microkernel?5@ 1000fba0     srvkmsgx:sgxinit.obj
 0001:0000ebe0       ??_C@_0IL@IKEAEKLF@?$CIFAIL?$CJ?5SGXInit?3?5Mismatch?5in?5driv@ 1000fbe0     srvkmsgx:sgxinit.obj
 0001:0000ec70       ??_C@_0IG@ECGJJFJF@?$CIFAIL?$CJ?5SGXInit?3?5Mismatch?5in?5driv@ 1000fc70     srvkmsgx:sgxinit.obj
 0001:0000ecf8       ??_C@_0CP@CEJAJCFH@SGXInit?3?5SGXMKIF?5structure?5sizes@ 1000fcf8     srvkmsgx:sgxinit.obj
 0001:0000ed28       ??_C@_0DF@PGPAHGHN@?$CIFAIL?$CJ?5SGXInit?3?5Mismatch?5in?5SGXM@ 1000fd28     srvkmsgx:sgxinit.obj
 0001:0000ed60       ??_C@_0BC@FCBKEHFK@HWTRANSFERCONTEXT?$AA@ 1000fd60     srvkmsgx:sgxinit.obj
 0001:0000ed74       ??_C@_0M@LNIGIIMD@HWRTDATASET?$AA@ 1000fd74     srvkmsgx:sgxinit.obj
 0001:0000ed80       ??_C@_08MAGDLBH@HWRTDATA?$AA@ 1000fd80     srvkmsgx:sgxinit.obj
 0001:0000ed8c       ??_C@_0BA@OBOAHAHN@HWRENDERDETAILS?$AA@ 1000fd8c     srvkmsgx:sgxinit.obj
 0001:0000ed9c       ??_C@_0BA@FLKADNPG@HWRENDERCONTEXT?$AA@ 1000fd9c     srvkmsgx:sgxinit.obj
 0001:0000edac       ??_C@_08PGANCIOI@HWPBDESC?$AA@ 1000fdac     srvkmsgx:sgxinit.obj
 0001:0000edb8       ??_C@_0M@EPMOBDHO@3DREGISTERS?$AA@ 1000fdb8     srvkmsgx:sgxinit.obj
 0001:0000edc4       ??_C@_0BD@LNDNJJCE@TRANSFERCMD_SHARED?$AA@ 1000fdc4     srvkmsgx:sgxinit.obj
 0001:0000edd8       ??_C@_0M@HIGPFIFO@TRANSFERCMD?$AA@ 1000fdd8     srvkmsgx:sgxinit.obj
 0001:0000ede4       ??_C@_0N@NKGEEAKG@CMDTA_SHARED?$AA@ 1000fde4     srvkmsgx:sgxinit.obj
 0001:0000edf4       ??_C@_05PBDDINCE@CMDTA?$AA@ 1000fdf4     srvkmsgx:sgxinit.obj
 0001:0000edfc       ??_C@_07FBJAHANB@COMMAND?$AA@ 1000fdfc     srvkmsgx:sgxinit.obj
 0001:0000ee08       ??_C@_0GD@DPKIOEJL@SGXDevInitCompatCheck?3?5Size?5chec@ 1000fe08     srvkmsgx:sgxinit.obj
 0001:0000ee6c       ??_C@_08NLIAKGI@HOST_CTL?$AA@ 1000fe6c     srvkmsgx:sgxinit.obj
 0001:0000ee78       ??_C@_0DN@LMPLMMGP@SGXInit?3?5HW?5core?5rev?5?$CI?$CFx?$CJ?5and?5SW@ 1000fe78     srvkmsgx:sgxinit.obj
 0001:0000eeb8       ??_C@_0EE@IIHHFDMG@?$CIFAIL?$CJ?5SGXInit?3?5Incompatible?5HW?5@ 1000feb8     srvkmsgx:sgxinit.obj
 0001:0000eefc       ??_C@_0DL@CLDEGLBE@SGXInit?3?5HW?5core?5rev?5?$CI?$CFx?$CJ?0?5SW?5co@ 1000fefc     srvkmsgx:sgxinit.obj
 0001:0000ef38       ??_C@_0CJ@JFKNCBMA@SGXInit?3?5HW?5core?5rev?5?$CI?$CFx?$CJ?5check?5@ 1000ff38     srvkmsgx:sgxinit.obj
 0001:0000ef64       ??_C@_0DL@CEBBMBJM@SGXInit?3?5driver?5DDK?5?$CI?$CFd?$CJ?5and?5dev@ 1000ff64     srvkmsgx:sgxinit.obj
 0001:0000efa0       ??_C@_0FA@NDJOLBHN@?$CIFAIL?$CJ?5SGXInit?3?5Incompatible?5dri@ 1000ffa0     srvkmsgx:sgxinit.obj
 0001:0000eff0       ??_C@_0DG@IAPIGDPG@?$CIFAIL?$CJ?5SGXInit?3?5Unable?5to?5valida@ 1000fff0     srvkmsgx:sgxinit.obj
 0001:0000f028       ??_C@_0DP@NBPPAELC@SGXInit?3?5Client?9side?5and?5KM?5driv@ 10010028     srvkmsgx:sgxinit.obj
 0001:0000f068       ??_C@_0IF@COCMBNPA@?$CIFAIL?$CJ?5SGXInit?3?5Mismatch?5in?5clie@ 10010068     srvkmsgx:sgxinit.obj
 0001:0000f0f0       ??_C@_0JF@LHJDJOE@?$CIFAIL?$CJ?5SGXInit?3?5Mismatch?5in?5clie@ 100100f0     srvkmsgx:sgxinit.obj
 0001:0000f188       ??_C@_0CH@CAALGEPL@?$CIFAIL?$CJ?5SGXInit?3?5Device?5not?5of?5ty@ 10010188     srvkmsgx:sgxinit.obj
 0001:0000f1b0       ??_C@_0DP@MIBNFAJB@SGXGetMiscInfoUkernel?3?5Timeout?5o@ 100101b0     srvkmsgx:sgxinit.obj
 0001:0000f1f0       ??_C@_0DH@LHCJKKJK@SGXGetMiscInfoUkernel?3?5SGXSchedu@ 100101f0     srvkmsgx:sgxinit.obj
 0001:0000f228       ??_C@_0CI@PCHFJOMK@SGXGetMiscInfoUkernel?3?5Invalid?5a@ 10010228     srvkmsgx:sgxinit.obj
 0001:0000f250       ??_C@_0BJ@LJMIMCAE@User?5requested?5SGX?5panic?$AA@ 10010250     srvkmsgx:sgxinit.obj
 0001:0000f26c       ??_C@_0BO@ELJMOGNE@User?5requested?5SGX?5debug?5info?$AA@ 1001026c     srvkmsgx:sgxinit.obj
 0001:0000f28c       ??_C@_0DE@MDIHMOBD@SGXGetMiscInfoKM?3?5DDK?5version?50x@ 1001028c     srvkmsgx:sgxinit.obj
 0001:0000f2c0       ??_C@_0DG@BEDIMAHC@SGXGetMiscInfoKM?3?5Core?50x?$CFx?0?5sw?5@ 100102c0     srvkmsgx:sgxinit.obj
 0001:0000f2f8       ??_C@_0DA@GFIPJCHN@An?5error?5occurred?5in?5SGXGetMiscI@ 100102f8     srvkmsgx:sgxinit.obj
 0001:0000f328       ??_C@_0FO@DFHLBCAB@c?3?2data?2jatin?2powervr_build?2ddk1@ 10010328     srvkmsgx:sgxutils.obj
 0001:0000f388       ??_C@_0CB@ODFGLLAB@SGXTestActivePowerEvent?5error?3?$CFu@ 10010388     srvkmsgx:sgxutils.obj
 0001:0000f3ac       ??_C@_0DA@LKJKHEEB@SGXScheduleCCBCommand?3?5Unknown?5c@ 100103ac     srvkmsgx:sgxutils.obj
 0001:0000f3dc       ??_C@_0DE@FHKNBHDC@SGXScheduleCCBCommand?3?5Wait?5for?5@ 100103dc     srvkmsgx:sgxutils.obj
 0001:0000f410       ??_C@_0EH@PHMGAPAA@SGXScheduleCCBCommand?3?5Wait?5for?5@ 10010410     srvkmsgx:sgxutils.obj
 0001:0000f458       ??_C@_0EL@CCOAHAO@SGXScheduleCCBCommandKM?5failed?5t@ 10010458     srvkmsgx:sgxutils.obj
 0001:0000f4a4       ??_C@_0DO@PHKEFFLE@SGXScheduleProcessQueuesKM?5faile@ 100104a4     srvkmsgx:sgxutils.obj
 0001:0000f4e4       ??_C@_0DM@FPLPNMHH@SGXCleanupRequest?3?5Wait?5for?5uKer@ 100104e4     srvkmsgx:sgxutils.obj
 0001:0000f520       ??_C@_0DF@CCIMENAD@SGXCleanupRequest?3?5Failed?5to?5sub@ 10010520     srvkmsgx:sgxutils.obj
 0001:0000f558       ??_C@_0DH@JLANLHBN@SGXRegisterHWRenderContextKM?3?5Re@ 10010558     srvkmsgx:sgxutils.obj
 0001:0000f590       ??_C@_0GD@DHAHOLMP@SGXRegisterHWRenderContextKM?3?5Co@ 10010590     srvkmsgx:sgxutils.obj
 0001:0000f5f4       ??_C@_0DC@MPNALANJ@SGXUnregisterHWRenderContextKM?3?5@ 100105f4     srvkmsgx:sgxutils.obj
 0001:0000f628       ??_C@_0DJ@GBMNCPMK@SGXRegisterHWTransferContextKM?3?5@ 10010628     srvkmsgx:sgxutils.obj
 0001:0000f668       ??_C@_0GH@FBHBFKDE@SGXRegisterHWTransferContextKM?3?5@ 10010668     srvkmsgx:sgxutils.obj
 0001:0000f6d0       ??_C@_0DE@OBKLFAEC@SGXUnregisterHWTransferContextKM@ 100106d0     srvkmsgx:sgxutils.obj
 0001:0000f708       ??_C@_0EJ@CKIEKOOL@SGX2DQueryBlitsCompleteKM?3?5Write@ 10010708     srvkmsgx:sgxutils.obj
 0001:0000f758       ??_C@_0EH@HOBIEGEP@SGX2DQueryBlitsCompleteKM?3?5Read?5@ 10010758     srvkmsgx:sgxutils.obj
 0001:0000f7a0       ??_C@_0DK@HHFCDJLM@SGX2DQueryBlitsCompleteKM?3?5Synci@ 100107a0     srvkmsgx:sgxutils.obj
 0001:0000f7dc       ??_C@_0DD@EFBBNBIP@SGX2DQueryBlitsCompleteKM?3?5Timed@ 100107dc     srvkmsgx:sgxutils.obj
 0001:0000f810       ??_C@_0DH@BLENFNOB@SGX2DQueryBlitsCompleteKM?3?5Wait?5@ 10010810     srvkmsgx:sgxutils.obj
 0001:0000f848       ??_C@_0DH@GBCNIELK@SGX2DQueryBlitsCompleteKM?3?5Ops?5p@ 10010848     srvkmsgx:sgxutils.obj
 0001:0000f880       ??_C@_0DB@OODPHCAH@SGX2DQueryBlitsCompleteKM?3?5No?5wa@ 10010880     srvkmsgx:sgxutils.obj
 0001:0000f8b4       ??_C@_0DE@CLGINKCO@SGX2DQueryBlitsCompleteKM?3?5No?5wa@ 100108b4     srvkmsgx:sgxutils.obj
 0001:0000f8e8       ??_C@_0CB@OLNDPPAC@SGX2DQueryBlitsCompleteKM?3?5Start@ 100108e8     srvkmsgx:sgxutils.obj
 0001:0000f90c       ??_C@_0DM@MILEDFGA@SGXContextSuspend?3?5Failed?5to?5sub@ 1001090c     srvkmsgx:sgxutils.obj
 0001:0000f948       ??_C@_0CN@IDLIIM@SGXDoKickKM?3?5SGXScheduleCCBComma@ 10010948     srvkmsgx:sgxkick.obj
 0001:0000f978       ??_C@_0FN@GEHMJBKP@c?3?2data?2jatin?2powervr_build?2ddk1@ 10010978     srvkmsgx:sgxkick.obj
 0001:0000f9d8       ??_C@_0CA@HJPIPJPI@SGXDoKickKM?3?5Invalid?5CCB?5offset?$AA@ 100109d8     srvkmsgx:sgxkick.obj
 0001:0000f9f8       ??_C@_0DF@OBBEEHIG@SGXSubmitTransferKM?3?5SGXSchedule@ 100109f8     srvkmsgx:sgxtransfer.obj
 0001:0000fa30       ??_C@_0DM@EELDBJMK@SGXSubmitTransferKM?5?3?5Same?5dst?5s@ 10010a30     srvkmsgx:sgxtransfer.obj
 0001:0000fa6c       ??_C@_0DM@CKLGPKCM@SGXSubmitTransferKM?5?3?5Same?5src?5s@ 10010a6c     srvkmsgx:sgxtransfer.obj
 0001:0000faa8       ??_C@_0GB@FKPCPOLP@c?3?2data?2jatin?2powervr_build?2ddk1@ 10010aa8     srvkmsgx:sgxtransfer.obj
 0001:0000fb0c       ??_C@_0CI@OFAAAENK@SGXSubmitTransferKM?3?5Invalid?5CCB@ 10010b0c     srvkmsgx:sgxtransfer.obj
 0001:0000fb34       ??_C@_0DA@FJHFBFAA@SGXFindSharedPBDescKM?3?5ResManReg@ 10010b34     srvkmsgx:pb.obj
 0001:0000fb64       ??_C@_0CJ@LJEBLBJL@SGXFindSharedPBDescKM?3?5OSAllocMe@ 10010b64     srvkmsgx:pb.obj
 0001:0000fb90       ??_C@_0FI@JHPNCFLA@c?3?2data?2jatin?2powervr_build?2ddk1@ 10010b90     srvkmsgx:pb.obj
 0001:0000fbe8       ??_C@_0HO@KICBBDCH@SGXFindSharedPBDescKM?3?5Shared?5PB@ 10010be8     srvkmsgx:pb.obj
 0001:0000fc68       ??_C@_0FC@LDLLKNHJ@SGXAddSharedPBDescKM?3?5Failed?5to?5@ 10010c68     srvkmsgx:pb.obj
 0001:0000fcc0       ??_C@_0EG@OLMGHIIN@SGXAddSharedPBDescKM?3?5Failed?5to?5@ 10010cc0     srvkmsgx:pb.obj
 0001:0000fd08       ??_C@_0EH@EACELHDI@SGXAddSharedPBDescKM?3?5Failed?5to?5@ 10010d08     srvkmsgx:pb.obj
 0001:0000fd50       ??_C@_0DB@GKLFNKIB@SGXAddSharedPBDescKM?3?5Failed?5to?5@ 10010d50     srvkmsgx:pb.obj
 0001:0000fd88       ??_C@_0FK@EMBMPEGD@SGXAddSharedPBDescKM?3?5Failed?5to?5@ 10010d88     srvkmsgx:pb.obj
 0001:0000fde8       ??_C@_0HN@BEICAHLG@SGXAddSharedPBDescKM?3?5Shared?5PB?5@ 10010de8     srvkmsgx:pb.obj
 0001:0000fe68       ??_C@_0BC@BJDCAHHG@Soft?5Reset?5of?5SGX?$AA@ 10010e68     srvkmsgx:sgxreset.obj
 0001:0000fe80       ??_C@_0FO@MMJNPHFH@c?3?2data?2jatin?2powervr_build?2ddk1@ 10010e80     srvkmsgx:sgxreset.obj
 0001:0000fee0       ??_C@_0BP@EDOCBKOE@SGXReset?3?5Page?5fault?50x?$CFx?10x?$CFx?$AA@ 10010ee0     srvkmsgx:sgxreset.obj
 0001:0000ff00       ??_C@_0BP@FDELADJJ@Wait?5for?5DC?5invalidate?5failed?4?$AA@ 10010f00     srvkmsgx:sgxreset.obj
 0001:0000ff20       ??_C@_0CN@NFDGBCJE@SGXPrePowerState?3?5SGXDeinitialis@ 10010f20     srvkmsgx:sgxpower.obj
 0001:0000ff50       ??_C@_0BK@HDEMMJFB@Wait?5for?5SGX?5clock?5gating?$AA@ 10010f50     srvkmsgx:sgxpower.obj
 0001:0000ff70       ??_C@_0EA@MIKIBOPF@SGXPrePowerState?3?5Wait?5for?5SGX?5u@ 10010f70     srvkmsgx:sgxpower.obj
 0001:0000ffb0       ??_C@_0DG@FDHCHOOF@SGXPrePowerState?3?5Failed?5to?5subm@ 10010fb0     srvkmsgx:sgxpower.obj
 0001:0000ffe8       ??_C@_0FO@JEDCLCKO@c?3?2data?2jatin?2powervr_build?2ddk1@ 10010fe8     srvkmsgx:sgxpower.obj
 0001:00010048       ??_C@_0CK@IDEEILGJ@SGXPrePowerState?3?5Failed?5to?5disa@ 10011048     srvkmsgx:sgxpower.obj
 0001:00010074       ??_C@_0CC@CIDIFDPO@SGXPollForClockGating?3?5?$CFs?5failed@ 10011074     srvkmsgx:sgxpower.obj
 0001:00010098       ??_C@_0DF@KBKANFMI@SGXPostPowerState?5failed?5to?5sche@ 10011098     srvkmsgx:sgxpower.obj
 0001:000100d0       ??_C@_0CI@NAFCGPFJ@SGXPostPowerState?3?5SGXInitialise@ 100110d0     srvkmsgx:sgxpower.obj
 0001:000100f8       ??_C@_0CO@FGOBKEBO@SGXPostPowerState?3?5SGXUpdateTimi@ 100110f8     srvkmsgx:sgxpower.obj
 0001:00010128       ??_C@_0CM@IICBIMND@SGXUpdateTimingInfo?3?5Failed?5to?5r@ 10011128     srvkmsgx:sgxpower.obj
 0001:00010154       ??_C@_0DJ@PKEFPAHN@SGXAddTimer?5?3?5Failed?5to?5register@ 10011154     srvkmsgx:sgxpower.obj
 0001:00010190       ??_C@_0CM@MKNFHIAJ@SGXStartTimer?5?3?5Failed?5to?5enable@ 10011190     srvkmsgx:sgxpower.obj
 0001:000101bc       ??_C@_0DB@CCLKAKGD@SGXPreClockSpeedChange?3?5SGX?5cloc@ 100111bc     srvkmsgx:sgxpower.obj
 0001:000101f0       ??_C@_0ED@CGGHKAAM@SGXPostClockSpeedChange?3?5SGX?5clo@ 100111f0     srvkmsgx:sgxpower.obj
 0001:00010238       ??_C@_0FJ@NMHAGGGJ@c?3?2data?2jatin?2powervr_build?2ddk1@ 10011238     srvkmsgx:mmu.obj
 0001:00010294       ??_C@_0CK@MOGMIOEB@MMU_IsHeapShared?3?5ERROR?5invalid?5@ 10011294     srvkmsgx:mmu.obj
 0001:000102c0       ??_C@_0CF@BJHKLINN@MMU_Initialise?3?5pvPDCpuVAddr?5inv@ 100112c0     srvkmsgx:mmu.obj
 0001:000102e8       ??_C@_0DA@LCCFCPC@MMU_Initialise?3?5ERROR?5failed?5to?5@ 100112e8     srvkmsgx:mmu.obj
 0001:00010318       ??_C@_0CO@HENJOJOF@MMU_Initialise?3?5ERROR?5call?5to?5RA@ 10011318     srvkmsgx:mmu.obj
 0001:00010348       ??_C@_0DC@BEMMEOEA@MMU_Initialise?3?5ERROR?5call?5to?5OS@ 10011348     srvkmsgx:mmu.obj
 0001:0001037c       ??_C@_0DA@CABACDCH@MMU_Initialise?3?5ERROR?5call?5to?5OS@ 1001137c     srvkmsgx:mmu.obj
 0001:000103ac       ??_C@_0P@IBHGDGAH@MMU_Initialise?$AA@ 100113ac     srvkmsgx:mmu.obj
 0001:000103bc       ??_C@_0N@MLMMBDGB@MMU_Finalise?$AA@ 100113bc     srvkmsgx:mmu.obj
 0001:000103cc       ??_C@_0CL@GCPLCFH@MMU_Create?3?5ERROR?5call?5to?5RA_Cre@ 100113cc     srvkmsgx:mmu.obj
 0001:000103f8       ??_C@_0CD@CMENGGME@MMU_Create?3?5invalid?5data?5page?5si@ 100113f8     srvkmsgx:mmu.obj
 0001:0001041c       ??_C@_0CM@IFIODHOB@MMU_Create?3?5ERROR?5call?5to?5OSAllo@ 1001141c     srvkmsgx:mmu.obj
 0001:00010448       ??_C@_0BO@BMGNNAJL@MMU_Create?3?5invalid?5parameter?$AA@ 10011448     srvkmsgx:mmu.obj
 0001:00010468       ??_C@_0DA@JEBFFJLE@_DeferredFreePagetable?3?5ERROR?5in@ 10011468     srvkmsgx:mmu.obj
 0001:00010498       ??_C@_0HN@NFFHFPDI@MMU_UnmapPagesAndFreePTs?3?5Page?5i@ 10011498     srvkmsgx:mmu.obj
 0001:00010518       ??_C@_0HA@OJGMFGHM@MMU_UnmapPagesAndFreePTs?3?5Invali@ 10011518     srvkmsgx:mmu.obj
 0001:00010588       ??_C@_0L@KFBGHOCI@MMU_Delete?$AA@ 10011588     srvkmsgx:mmu.obj
 0001:00010598       ??_C@_0EP@KFMLKKHE@MMU_Alloc?3?5Failed?5to?5alloc?5paget@ 10011598     srvkmsgx:mmu.obj
 0001:000105e8       ??_C@_0CL@NDGMNNJB@MMU_Alloc?3?5_DeferredAllocPagetab@ 100115e8     srvkmsgx:mmu.obj
 0001:00010614       ??_C@_0DG@JGGKPFFC@MMU_Alloc?3?5Alloc?5of?5DevVAddr?5fai@ 10011614     srvkmsgx:mmu.obj
 0001:0001064c       ??_C@_0CG@DEKBEIME@MMU_Alloc?3?5RA_Alloc?5of?5VMArena?5f@ 1001164c     srvkmsgx:mmu.obj
 0001:00010674       ??_C@_0CO@OGOGOHAG@MMU_Alloc?3?5uSize?$DN0x?$CFx?0?5flags?$DN0x?$CF@ 10011674     srvkmsgx:mmu.obj
 0001:000106a4       ??_C@_0DC@LJIHDGI@_DeferredAllocPagetables?3?5ERROR?5@ 100116a4     srvkmsgx:mmu.obj
 0001:000106d8       ??_C@_0EF@GFJHOGCD@_DeferredAllocPagetables?3?5ERROR?5@ 100116d8     srvkmsgx:mmu.obj
 0001:00010720       ??_C@_0DK@DHONAPOC@_DeferredAllocPagetables?3?5ERROR?5@ 10011720     srvkmsgx:mmu.obj
 0001:0001075c       ??_C@_0DH@DHMCJMHA@_AllocPageTableMemory?3?5ERROR?5fai@ 1001175c     srvkmsgx:mmu.obj
 0001:00010794       ??_C@_0DF@DNIBNPGN@_AllocPageTableMemory?3?5ERROR?5cal@ 10011794     srvkmsgx:mmu.obj
 0001:000107cc       ??_C@_0DJ@GBKFGHNO@_AllocPageTableMemory?3?5ERROR?5cal@ 100117cc     srvkmsgx:mmu.obj
 0001:00010808       ??_C@_0FA@NDDNNEKC@MMU_Free?3?5Couldn?8t?5free?5DevVAddr@ 10011808     srvkmsgx:mmu.obj
 0001:00010858       ??_C@_0DE@MLGBJEBG@MMU_Free?3?5Freeing?5DevVAddr?50x?$CF08@ 10011858     srvkmsgx:mmu.obj
 0001:0001088c       ??_C@_0BM@DAMKLNDN@MMU_Free?3?5invalid?5parameter?$AA@ 1001188c     srvkmsgx:mmu.obj
 0001:000108a8       ??_C@_0DM@LOIJJOEK@MMU_MapScatter?3?5devVAddr?$DN?$CF08X?0?5S@ 100118a8     srvkmsgx:mmu.obj
 0001:000108e4       ??_C@_0CK@HMPEJFK@MMU_MapPage?3?5Physical?5page?5to?5ma@ 100118e4     srvkmsgx:mmu.obj
 0001:00010910       ??_C@_0CM@HFMMJHDK@MMU_MapPage?3?5Page?5table?5entry?5va@ 10011910     srvkmsgx:mmu.obj
 0001:00010940       ??_C@_0EP@BANAMDAB@MMU_MapPage?3?5Page?5is?5already?5val@ 10011940     srvkmsgx:mmu.obj
 0001:00010990       ??_C@_0EK@DONAOHAB@MMU_MapPages?3?5heap?3?$CFs?0?5heap_id?3?$CF@ 10011990     srvkmsgx:mmu.obj
 0001:000109e0       ??_C@_0EI@CCKPGGFA@Offset?$DN0x?$CFx?3?5CpuVAddr?$DN?$CF08X?0?5CpuP@ 100119e0     srvkmsgx:mmu.obj
 0001:00010a28       ??_C@_0DI@JOKJOFDN@MMU_MapShadow?3?5DevVAddr?3?$CF08X?0?5By@ 10011a28     srvkmsgx:mmu.obj
 0001:00010a60       ??_C@_0CP@FMBBIJEP@MMU_UnmapPages?3?5Page?5table?5entry@ 10011a60     srvkmsgx:mmu.obj
 0001:00010a90       ??_C@_0HD@NLHHILAN@MMU_UnmapPages?3?5Page?5is?5already?5@ 10011a90     srvkmsgx:mmu.obj
 0001:00010b08       ??_C@_0GM@DCGLFIGC@MMU_UnmapPages?3?5ERROR?5Invalid?5PT@ 10011b08     srvkmsgx:mmu.obj
 0001:00010b74       ??_C@_0CN@JOFKGHLE@MMU_GetPhysPageAddr?3?5Not?5mapped?5@ 10011b74     srvkmsgx:mmu.obj
 0001:00010ba4       ??_C@_0DF@HAMOGDOG@MMU_BIFResetPDAlloc?3?5ERROR?5faile@ 10011ba4     srvkmsgx:mmu.obj
 0001:00010bdc       ??_C@_0DD@GHICBBP@MMU_BIFResetPDAlloc?3?5ERROR?5call?5@ 10011bdc     srvkmsgx:mmu.obj
 0001:00010c10       ??_C@_0DH@GLLMOCMD@MMU_BIFResetPDAlloc?3?5ERROR?5call?5@ 10011c10     srvkmsgx:mmu.obj
 0001:00010ff0       ??_C@_0CF@EKNFCAFO@SGXInit?3?5SGXDeinitialise?5failed?5@ 10011ff0     srvinitsgx:sgxinit.obj
 0001:00011018       ??_C@_0CI@OGCAAOLK@SGXInit?3?5SGXInitialisePart2?5fail@ 10012018     srvinitsgx:sgxinit.obj
 0001:00011040       ??_C@_0CI@JKEBCLGB@SGXInit?3?5SGXInitialisePart1?5fail@ 10012040     srvinitsgx:sgxinit.obj
 0001:00011068       ??_C@_0CK@FEJCECBC@SGXInit?3?5SGXGetInfoForSrvInit?5fa@ 10012068     srvinitsgx:sgxinit.obj
 0001:00011094       ??_C@_0BH@IDDPOKKD@SGXInit?3?5Out?5of?5memory?$AA@ 10012094     srvinitsgx:sgxinit.obj
 0001:000110ac       ??_C@_0CN@JLHCGJFP@SGXInit?3?5PVRSRVAcquireDeviceData@ 100120ac     srvinitsgx:sgxinit.obj
 0001:000110e0       ??_C@_0FP@PLELIMPP@c?3?2data?2jatin?2powervr_build?2ddk1@ 100120e0     srvinitsgx:sgxinit.obj
 0001:00011140       ??_C@_0CP@JCBPEOCE@SetupuKernel?5?3?5Failed?5to?5load?5uK@ 10012140     srvinitsgx:sgxinit.obj
 0001:00011170       ??_C@_0BE@GLHMEAFI@3D?5signature?5buffer?$AA@ 10012170     srvinitsgx:sgxinit.obj
 0001:00011184       ??_C@_0BE@JLLGJLGM@TA?5signature?5buffer?$AA@ 10012184     srvinitsgx:sgxinit.obj
 0001:00011198       ??_C@_0M@FOAIJGD@HWPerfFlags?$AA@ 10012198     srvinitsgx:sgxinit.obj
 0001:000111a4       ??_C@_0BI@IFCGPNDB@HW?5Perf?5Circular?5Buffer?$AA@ 100121a4     srvinitsgx:sgxinit.obj
 0001:000111bc       ??_C@_0DM@FJBINEPI@SetupuKernel?5?3?5Failed?5to?5allocat@ 100121bc     srvinitsgx:sgxinit.obj
 0001:000111f8       ??_C@_0DJ@FBLHOJEP@SetupuKernel?5?3?5Failed?5to?5allocat@ 100121f8     srvinitsgx:sgxinit.obj
 0001:00011234       ??_C@_0DA@MELJIONF@SetupuKernel?5?3?5Failed?5to?5allocat@ 10012234     srvinitsgx:sgxinit.obj
 0001:00011264       ??_C@_0DJ@HKAMPMMK@SetupuKernel?3?5Failed?5to?5allocate@ 10012264     srvinitsgx:sgxinit.obj
 0001:000112a0       ??_C@_0DE@MIPDLGJJ@SetupuKernel?3?5Failed?5to?5allocate@ 100122a0     srvinitsgx:sgxinit.obj
 0001:000112d4       ??_C@_0CM@GJAKLHAB@SetupuKernel?3?5Failed?5to?5allocate@ 100122d4     srvinitsgx:sgxinit.obj
 0001:00011300       ??_C@_0CD@IEDMBANE@PowerVREurasia?2HWSettings?2PVRSRV@ 10012300     srvinitsgx:sgxinit.obj
 0001:00011324       ??_C@_0BB@JJLPEHAI@EDMTACodeProfile?$AA@ 10012324     srvinitsgx:sgxinit.obj
 0001:00011338       ??_C@_0EI@GMFIALGD@LoaduKernel?5?3?5uKernel?5loopback?5P@ 10012338     srvinitsgx:sgxinit.obj
 0001:00011380       ??_C@_0FA@FMBEFEGP@LoaduKernelPrograms?3?5Failed?5to?5a@ 10012380     srvinitsgx:sgxinit.obj
 0001:000113d0       ??_C@_0EN@JJLCCOPO@LoaduKernel?5?3?5uKernel?5PDS?5Event?5@ 100123d0     srvinitsgx:sgxinit.obj
 0001:00011420       ??_C@_0EK@LDHEOIMF@LoaduKernelPrograms?5?3?5Failed?5to?5@ 10012420     srvinitsgx:sgxinit.obj
 0001:0001146c       ??_C@_06HIJKBDID@SGX?53D?$AA@ 1001246c     srvinitsgx:sgxinit.obj
 0001:00011474       ??_C@_07BBBHIFGO@SGX?5SPM?$AA@ 10012474     srvinitsgx:sgxinit.obj
 0001:0001147c       ??_C@_06EIHFDKGD@SGX?5TA?$AA@ 1001247c     srvinitsgx:sgxinit.obj
 0001:00011484       ??_C@_0M@PCAJPOOC@SGX?5ukernel?$AA@ 10012484     srvinitsgx:sgxinit.obj
 0001:00011490       ??_C@_0EL@HAKEABCF@c?3?2data?2jatin?2powervr_build?2ddk1@ 10012490     srvinitsgx:sgxinit.obj
 0001:000114e0       ??_C@_0FN@DDEJDHNM@LoaduKernelPDSInitPrograms?5?3?5uKe@ 100124e0     srvinitsgx:sgxinit.obj
 0001:00011540       ??_C@_0GB@NFFGMMBN@LoaduKernelPDSInitPrograms?5?3?5Fai@ 10012540     srvinitsgx:sgxinit.obj
 0001:000115a8       ??_C@_0FN@NOCJCIOK@LoaduKernelPDSInitPrograms?5?3?5uKe@ 100125a8     srvinitsgx:sgxinit.obj
 0001:00011608       ??_C@_0GB@GOOOPFCF@LoaduKernelPDSInitPrograms?5?3?5Fai@ 10012608     srvinitsgx:sgxinit.obj
 0001:00011670       ??_C@_0FN@CAGBAOKP@LoaduKernelPDSInitPrograms?5?3?5uKe@ 10012670     srvinitsgx:sgxinit.obj
 0001:000116d0       ??_C@_0GB@HAFOKHHB@LoaduKernelPDSInitPrograms?5?3?5Fai@ 100126d0     srvinitsgx:sgxinit.obj
 0001:00011734       ??_C@_0DN@MIJEGCDC@LoaduKernelProgram?5?3?5?$CFs?5program?5@ 10012734     srvinitsgx:sgxinit.obj
 0001:00011778       ??_C@_0EA@PACECMGN@SetupuKernel?5?3?5Failed?5to?5allocat@ 10012778     srvinitsgx:sgxinit.obj
 0001:000117b8       ??_C@_0CG@JIMDOGH@SetupuKernel?5?3?5Failed?5to?5allocat@ 100127b8     srvinitsgx:sgxinit.obj
 0001:000117e0       ??_C@_0GH@MMJKKHIG@SGXInitialisePart1?3?5Not?5enough?5s@ 100127e0     srvinitsgx:sgxinit.obj
 0001:00011848       ??_C@_0FM@GCGNKMHP@SGXInit?3?5Not?5enough?5space?5for?5SG@ 10012848     srvinitsgx:sgxinit.obj
 0001:000118a4       ??_C@_0BD@INALHODO@RegBoundReturnZero?$AA@ 100128a4     srvinitsgx:sgxinit.obj
 0001:000118b8       ??_C@_09PJNHAIDJ@CacheCtrl?$AA@ 100128b8     srvinitsgx:sgxinit.obj
 0001:000118c8       ??_C@_0GA@HKJMBKGJ@SGXInit?3?5Not?5enough?5space?5for?5SG@ 100128c8     srvinitsgx:sgxinit.obj
 0001:00011928       ??_C@_0BD@NECJEAHH@DisableClockGating?$AA@ 10012928     srvinitsgx:sgxinit.obj
 0001:0001193c       ??_C@_0M@EIHLIIGG@MaxEDMTasks?$AA@ 1001293c     srvinitsgx:sgxinit.obj
 0001:00011948       ??_C@_0DB@BDKIIFPJ@Failed?5to?5allocate?5a?5Dummy?5Stenc@ 10012948     srvinitsgx:sgxinit.obj
 0001:0001197c       ??_C@_0DA@GKEIEBBJ@Failed?5to?5allocate?5a?5Dummy?5Stenc@ 1001297c     srvinitsgx:sgxinit.obj
 0001:000119ac       ??_C@_0DP@LBGEJEAL@PVRSRVAllocSharedSysMemoryKM?3?5Fa@ 100129ac     srvkmcmn:mem.obj
 0001:000119f0       ??_C@_0FE@HPKBAPLF@c?3?2data?2jatin?2powervr_build?2ddk1@ 100129f0     srvkmcmn:mem.obj
 0001:00011a48       ??_C@_0EB@MGLHOBOP@PVRSRVAllocSharedSysMemoryKM?3?5Fa@ 10012a48     srvkmcmn:mem.obj
 0001:00011a8c       ??_C@_0DM@MBDAABFC@PVRSRVDissociateMemFromResmanKM?3@ 10012a8c     srvkmcmn:mem.obj
 0001:00011aec       LockDisplayMutex           10012aec f   pvr_kernel.obj
 0001:00011b08       UnlockDisplayMutex         10012b08 f   pvr_kernel.obj
 0001:00011b20       LockBridgeMutex            10012b20 f   pvr_kernel.obj
 0001:00011b3c       UnlockBridgeMutex          10012b3c f   pvr_kernel.obj
 0001:00011b54       PKM_Deinit                 10012b54 f   pvr_kernel.obj
 0001:00011bfc       PKM_Open                   10012bfc f   pvr_kernel.obj
 0001:00011c3c       PKM_Close                  10012c3c f   pvr_kernel.obj
 0001:00011c78       IOCTLRequiresDisplayLock   10012c78 f   pvr_kernel.obj
 0001:00011cb8       PKM_IOControl              10012cb8 f   pvr_kernel.obj
 0001:00011e90       PKM_Init                   10012e90 f   pvr_kernel.obj
 0001:00011fe4       PKM_PowerDown              10012fe4 f   pvr_kernel.obj
 0001:00011ff4       PKM_PowerUp                10012ff4 f   pvr_kernel.obj
 0001:00012004       PVRSRV_BridgeDispatchKM    10013004 f   pvr_bridge_k.obj
 0001:0001210c       PVRSRV_BridgeDispatch      1001310c f   pvr_bridge_k.obj
 0001:00013cc8       GetCurrentProcessId        10014cc8 f i pvr_bridge_k.obj
 0001:00013cf0       IsKModeAddr                10014cf0 f i pvr_bridge_k.obj
 0001:00013d34       MatchBlockMappingPID_AnyVaCb 10014d34 f   osfunc_srvkm.obj
 0001:00013d98       MatchContigMappingPID_AnyVaCb 10014d98 f   osfunc_srvkm.obj
 0001:00013e00       OSAllocMem_Impl            10014e00 f   osfunc_srvkm.obj
 0001:0001405c       OSFreeMem_Impl             1001505c f   osfunc_srvkm.obj
 0001:00014188       QueryUMA                   10015188 f   osfunc_srvkm.obj
 0001:000141dc       OSAllocPages_Impl          100151dc f   osfunc_srvkm.obj
 0001:000149cc       OSFreePages                100159cc f   osfunc_srvkm.obj
 0001:00014f7c       MapFromUMAddr              10015f7c f   osfunc_srvkm.obj
 0001:00015534       UnMapFromUMAddr            10016534 f   osfunc_srvkm.obj
 0001:0001576c       MapUserFromKernel          1001676c f   osfunc_srvkm.obj
 0001:00015c64       UnmapUserFromKernel        10016c64 f   osfunc_srvkm.obj
 0001:00015e2c       DeviceISRWrapper           10016e2c f   osfunc_srvkm.obj
 0001:00015f98       SystemISRWrapper           10016f98 f   osfunc_srvkm.obj
 0001:00016078       OSInstallDeviceLISR        10017078 f   osfunc_srvkm.obj
 0001:000162ac       OSUninstallDeviceLISR      100172ac f   osfunc_srvkm.obj
 0001:00016444       OSInstallSystemLISR        10017444 f   osfunc_srvkm.obj
 0001:00016938       OSUninstallSystemLISR      10017938 f   osfunc_srvkm.obj
 0001:00016aa4       MISRWrapper                10017aa4 f   osfunc_srvkm.obj
 0001:00016b10       OSInstallMISR              10017b10 f   osfunc_srvkm.obj
 0001:00016c30       OSUninstallMISR            10017c30 f   osfunc_srvkm.obj
 0001:00016cf0       OSScheduleMISR             10017cf0 f   osfunc_srvkm.obj
 0001:00016d4c       OSPanic                    10017d4c f   osfunc_srvkm.obj
 0001:00016d50       OSMemCopy                  10017d50 f   osfunc_srvkm.obj
 0001:00016d70       OSGetPageSize              10017d70 f   osfunc_srvkm.obj
 0001:00016d88       OSCreateResource           10017d88 f   osfunc_srvkm.obj
 0001:00016dc8       OSDestroyResource          10017dc8 f   osfunc_srvkm.obj
 0001:00016e00       OSLockResource             10017e00 f   osfunc_srvkm.obj
 0001:00016e84       OSUnlockResource           10017e84 f   osfunc_srvkm.obj
 0001:00016f78       OSBreakResourceLock        10017f78 f   osfunc_srvkm.obj
 0001:00017018       OSIsResourceLocked         10018018 f   osfunc_srvkm.obj
 0001:00017080       OSPowerLockWrap            10018080 f   osfunc_srvkm.obj
 0001:00017098       OSPowerLockUnwrap          10018098 f   osfunc_srvkm.obj
 0001:0001709c       OSMapLinToCPUPhys          1001809c f   osfunc_srvkm.obj
 0001:00017190       OSGetCurrentProcessIDKM    10018190 f   osfunc_srvkm.obj
 0001:000171b4       OSMemSet                   100181b4 f   osfunc_srvkm.obj
 0001:000171d8       OSMapPhysToLin             100181d8 f   osfunc_srvkm.obj
 0001:00017314       OSUnMapPhysToLin           10018314 f   osfunc_srvkm.obj
 0001:00017354       OSReservePhys              10018354 f   osfunc_srvkm.obj
 0001:000174a0       OSUnReservePhys            100184a0 f   osfunc_srvkm.obj
 0001:0001750c       OSReleaseThreadQuanta      1001850c f   osfunc_srvkm.obj
 0001:00017518       OSClockus                  10018518 f   osfunc_srvkm.obj
 0001:00017544       OSWaitus                   10018544 f   osfunc_srvkm.obj
 0001:0001755c       OSSleepms                  1001855c f   osfunc_srvkm.obj
 0001:00017574       OSFuncHighResTimerCreate   10018574 f   osfunc_srvkm.obj
 0001:0001758c       OSFuncHighResTimerGetus    1001858c f   osfunc_srvkm.obj
 0001:000175b8       OSFuncHighResTimerDestroy  100185b8 f   osfunc_srvkm.obj
 0001:000175d0       OSInitEnvData              100185d0 f   osfunc_srvkm.obj
 0001:00017628       OSDeInitEnvData            10018628 f   osfunc_srvkm.obj
 0001:00017654       OSPCIReadDword             10018654 f   osfunc_srvkm.obj
 0001:000176cc       OSPCIWriteDword            100186cc f   osfunc_srvkm.obj
 0001:00017730       OSReadHWReg                10018730 f   osfunc_srvkm.obj
 0001:00017760       OSWriteHWReg               10018760 f   osfunc_srvkm.obj
 0001:00017784       OSStringCopy               10018784 f   osfunc_srvkm.obj
 0001:000177b8       OSSNPrintf                 100187b8 f   osfunc_srvkm.obj
 0001:00017824       OSAddTimer                 10018824 f   osfunc_srvkm.obj
 0001:00017b70       OSRemoveTimer              10018b70 f   osfunc_srvkm.obj
 0001:00017c34       OSEnableTimer              10018c34 f   osfunc_srvkm.obj
 0001:00017c70       OSDisableTimer             10018c70 f   osfunc_srvkm.obj
 0001:00017cb4       OSEventObjectCreateKM      10018cb4 f   osfunc_srvkm.obj
 0001:00017e04       OSEventObjectDestroyKM     10018e04 f   osfunc_srvkm.obj
 0001:00017edc       OSEventObjectWaitKM        10018edc f   osfunc_srvkm.obj
 0001:00017fa0       OSEventObjectOpenKM        10018fa0 f   osfunc_srvkm.obj
 0001:00017fd4       OSEventObjectCloseKM       10018fd4 f   osfunc_srvkm.obj
 0001:00018008       OSEventObjectSignalKM      10019008 f   osfunc_srvkm.obj
 0001:00018098       OSPowerManagerConnect      10019098 f   osfunc_srvkm.obj
 0001:000180b0       OSPowerManagerDisconnect   100190b0 f   osfunc_srvkm.obj
 0001:000180c8       OSGetCurrentThreadID       100190c8 f   osfunc_srvkm.obj
 0001:000180ec       OSBaseAllocContigMemory    100190ec f   osfunc_srvkm.obj
 0001:00018178       OSBaseFreeContigMemory     10019178 f   osfunc_srvkm.obj
 0001:000181bc       WinCEFormatError           100191bc f   osfunc_srvkm.obj
 0001:00018210       OSMapPhysToUserSpace       10019210 f   osfunc_srvkm.obj
 0001:000186b0       OSUnmapPhysToUserSpace     100196b0 f   osfunc_srvkm.obj
 0001:00018848       OSAccessOK                 10019848 f   osfunc_srvkm.obj
 0001:000188e0       OSProcHasPrivSrvInit       100198e0 f   osfunc_srvkm.obj
 0001:000188f8       OSCopyToUser               100198f8 f   osfunc_srvkm.obj
 0001:00018934       OSCopyFromUser             10019934 f   osfunc_srvkm.obj
 0001:00018970       OSRegisterMem              10019970 f   osfunc_srvkm.obj
 0001:00018a88       OSUnRegisterMem            10019a88 f   osfunc_srvkm.obj
 0001:00018ad4       OSRegisterDiscontigMem     10019ad4 f   osfunc_srvkm.obj
 0001:00018bd8       OSUnRegisterDiscontigMem   10019bd8 f   osfunc_srvkm.obj
 0001:00018c24       OSReserveDiscontigPhys     10019c24 f   osfunc_srvkm.obj
 0001:00018e54       OSUnReserveDiscontigPhys   10019e54 f   osfunc_srvkm.obj
 0001:00018ed0       OSAcquirePhysPageAddr      10019ed0 f   osfunc_srvkm.obj
 0001:00019070       OSReleasePhysPageAddr      1001a070 f   osfunc_srvkm.obj
 0001:000190bc       CeSetMemoryAttributes      1001a0bc f i osfunc_srvkm.obj
 0001:00019110       GetCurrentProcess          1001a110 f i osfunc_srvkm.obj
 0001:00019128       SetEvent                   1001a128 f i osfunc_srvkm.obj
 0001:0001915c       PulseEvent                 1001a15c f i osfunc_srvkm.obj
 0001:00019190       GetCurrentThreadId         1001a190 f i osfunc_srvkm.obj
 0001:000191b8       AtoL                       1001a1b8 f   registry.obj
 0001:000193f8       OSReadRegistryBinData      1001a3f8 f   registry.obj
 0001:00019908       OSWriteRegistryBinData     1001a908 f   registry.obj
 0001:00019d30       OSReadRegistryDWORDFromString 1001ad30 f   registry.obj
 0001:00019e7c       MapDevMemIntoUserSpace     1001ae7c f   osfnex_srvkm.obj
 0001:0001a06c       UnmapDevMemFromUserSpace   1001b06c f   osfnex_srvkm.obj
 0001:0001a0d8       OSGetSysMemSize            1001b0d8 f   osfnex_srvkm.obj
 0001:0001a118       PVRSRVReleasePrintf        1001b118 f   pvr_debug.obj
 0001:0001a27c       PVRSRVDebugPrintf          1001b27c f   pvr_debug.obj
 0001:0001a630       PVRSRVDebugAssertFail      1001b630 f   pvr_debug.obj
 0001:0001a664       PVRSRVTrace                1001b664 f   pvr_debug.obj
 0001:0001a790       PVRMMapKVIndexAddressToMMapData 1001b790 f   mmap.obj
 0001:0001a7dc       AllocateDeviceID           1001b7dc f   srvkmcmn:pvrsrv.obj
 0001:0001a8c0       FreeDeviceID               1001b8c0 f   srvkmcmn:pvrsrv.obj
 0001:0001a9a8       ReadHWReg                  1001b9a8 f   srvkmcmn:pvrsrv.obj
 0001:0001a9d8       WriteHWReg                 1001b9d8 f   srvkmcmn:pvrsrv.obj
 0001:0001aa38       WriteHWRegs                1001ba38 f   srvkmcmn:pvrsrv.obj
 0001:0001aa8c       PVRSRVEnumerateDevicesKM   1001ba8c f   srvkmcmn:pvrsrv.obj
 0001:0001ac48       PVRSRVInit                 1001bc48 f   srvkmcmn:pvrsrv.obj
 0001:0001add4       PVRSRVDeInit               1001bdd4 f   srvkmcmn:pvrsrv.obj
 0001:0001aedc       PVRSRVRegisterDevice       1001bedc f   srvkmcmn:pvrsrv.obj
 0001:0001b01c       PVRSRVInitialiseDevice     1001c01c f   srvkmcmn:pvrsrv.obj
 0001:0001b190       PVRSRVFinaliseSystem       1001c190 f   srvkmcmn:pvrsrv.obj
 0001:0001b398       PVRSRVDevInitCompatCheck   1001c398 f   srvkmcmn:pvrsrv.obj
 0001:0001b3f8       PVRSRVAcquireDeviceDataKM  1001c3f8 f   srvkmcmn:pvrsrv.obj
 0001:0001b584       PVRSRVDeinitialiseDevice   1001c584 f   srvkmcmn:pvrsrv.obj
 0001:0001b778       PollForValueKM             1001c778 f   srvkmcmn:pvrsrv.obj
 0001:0001b93c       PVRSRVGetMiscInfoKM        1001c93c f   srvkmcmn:pvrsrv.obj
 0001:0001c6e8       PVRSRVDeviceLISR           1001d6e8 f   srvkmcmn:pvrsrv.obj
 0001:0001c7d0       PVRSRVSystemLISR           1001d7d0 f   srvkmcmn:pvrsrv.obj
 0001:0001c984       PVRSRVMISR                 1001d984 f   srvkmcmn:pvrsrv.obj
 0001:0001ca88       PVRSRVProcessConnect       1001da88 f   srvkmcmn:pvrsrv.obj
 0001:0001cabc       PVRSRVProcessDisconnect    1001dabc f   srvkmcmn:pvrsrv.obj
 0001:0001cad4       PVRSRVSaveRestoreLiveSegments 1001dad4 f   srvkmcmn:pvrsrv.obj
 0001:0001cd10       PVRSRVGetErrorStringKM     1001dd10 f   srvkmcmn:pvrsrv.obj
 0001:0001db94       PVRSRVScheduleDeviceCallbacks 1001eb94 f   srvkmcmn:pvrsrv.obj
 0001:0001dbfc       PVRSRVScheduleDevicesKM    1001ebfc f   srvkmcmn:pvrsrv.obj
 0001:0001dc08       PVRSRVPerProcessData       1001ec08 f   srvkmcmn:perproc.obj
 0001:0001dc6c       PVRSRVPerProcessDataConnect 1001ec6c f   srvkmcmn:perproc.obj
 0001:0001e2dc       PVRSRVPerProcessDataDisconnect 1001f2dc f   srvkmcmn:perproc.obj
 0001:0001e448       PVRSRVPerProcessDataInit   1001f448 f   srvkmcmn:perproc.obj
 0001:0001e4d4       PVRSRVPerProcessDataDeInit 1001f4d4 f   srvkmcmn:perproc.obj
 0001:0001e51c       PVRSRVSetInitServerState   1001f51c f   srvkmcmn:power.obj
 0001:0001e5dc       PVRSRVGetInitServerState   1001f5dc f   srvkmcmn:power.obj
 0001:0001e698       PVRSRVPowerLock            1001f698 f   srvkmcmn:power.obj
 0001:0001e840       PVRSRVPowerUnlock          1001f840 f   srvkmcmn:power.obj
 0001:0001e86c       PVRSRVSetDevicePowerStateKM 1001f86c f   srvkmcmn:power.obj
 0001:0001ed48       PVRSRVSystemPrePowerStateKM 1001fd48 f   srvkmcmn:power.obj
 0001:0001eec8       PVRSRVSystemPostPowerStateKM 1001fec8 f   srvkmcmn:power.obj
 0001:0001f040       PVRSRVSetPowerStateKM      10020040 f   srvkmcmn:power.obj
 0001:0001f11c       PVRSRVRegisterPowerDevice  1002011c f   srvkmcmn:power.obj
 0001:0001f258       PVRSRVRemovePowerDevice    10020258 f   srvkmcmn:power.obj
 0001:0001f2d4       PVRSRVIsDevicePowered      100202d4 f   srvkmcmn:power.obj
 0001:0001f3a8       PVRSRVDevicePreClockSpeedChange 100203a8 f   srvkmcmn:power.obj
 0001:0001f518       PVRSRVDevicePostClockSpeedChange 10020518 f   srvkmcmn:power.obj
 0001:0001f60c       PVRSRVAllocHandle          1002060c f   srvkmcmn:handle.obj
 0001:00020ee4       PVRSRVAllocSubHandle       10021ee4 f   srvkmcmn:handle.obj
 0001:00021534       PVRSRVFindHandle           10022534 f   srvkmcmn:handle.obj
 0001:000215b8       PVRSRVLookupHandleAnyType  100225b8 f   srvkmcmn:handle.obj
 0001:0002165c       PVRSRVLookupHandle         1002265c f   srvkmcmn:handle.obj
 0001:00021708       PVRSRVLookupSubHandle      10022708 f   srvkmcmn:handle.obj
 0001:00021838       PVRSRVGetParentHandle      10022838 f   srvkmcmn:handle.obj
 0001:000218e8       PVRSRVLookupAndReleaseHandle 100228e8 f   srvkmcmn:handle.obj
 0001:000222ec       PVRSRVReleaseHandle        100232ec f   srvkmcmn:handle.obj
 0001:0002239c       PVRSRVNewHandleBatch       1002339c f   srvkmcmn:handle.obj
 0001:0002251c       PVRSRVCommitHandleBatch    1002351c f   srvkmcmn:handle.obj
 0001:00022934       PVRSRVReleaseHandleBatch   10023934 f   srvkmcmn:handle.obj
 0001:00022950       PVRSRVSetMaxHandle         10023950 f   srvkmcmn:handle.obj
 0001:00022ae8       PVRSRVGetMaxHandle         10023ae8 f   srvkmcmn:handle.obj
 0001:00022b14       PVRSRVEnableHandlePurging  10023b14 f   srvkmcmn:handle.obj
 0001:00022bbc       PVRSRVPurgeHandles         10023bbc f   srvkmcmn:handle.obj
 0001:00022d54       PVRSRVAllocHandleBase      10023d54 f   srvkmcmn:handle.obj
 0001:00022e7c       PVRSRVFreeHandleBase       10023e7c f   srvkmcmn:handle.obj
 0001:000231f8       PVRSRVHandleInit           100241f8 f   srvkmcmn:handle.obj
 0001:000232d4       PVRSRVHandleDeInit         100242d4 f   srvkmcmn:handle.obj
 0001:00023364       ResManPrintContextResources_ForEachCb 10024364 f   srvkmcmn:resman.obj
 0001:000235e0       ResManInit                 100245e0 f   srvkmcmn:resman.obj
 0001:0002365c       ResManDeInit               1002465c f   srvkmcmn:resman.obj
 0001:0002369c       PVRSRVResManConnect        1002469c f   srvkmcmn:resman.obj
 0001:000237f8       PVRSRVResManDisconnect     100247f8 f   srvkmcmn:resman.obj
 0001:00023cc0       ResManRegisterRes          10024cc0 f   srvkmcmn:resman.obj
 0001:00023ecc       ResManFreeResByPtr         10024ecc f   srvkmcmn:resman.obj
 0001:00023f94       ResManFreeResByCriteria    10024f94 f   srvkmcmn:resman.obj
 0001:00024060       ResManDissociateRes        10025060 f   srvkmcmn:resman.obj
 0001:000241d4       ResManFindResourceByPtr    100251d4 f   srvkmcmn:resman.obj
 0001:00024f9c       PVRSRVEnumerateDCKM        10025f9c f   srvkmcmn:deviceclass.obj
 0001:00025170       PVRSRVCloseDCDeviceKM      10026170 f   srvkmcmn:deviceclass.obj
 0001:000251c4       PVRSRVOpenDCDeviceKM       100261c4 f   srvkmcmn:deviceclass.obj
 0001:00025648       PVRSRVEnumDCFormatsKM      10026648 f   srvkmcmn:deviceclass.obj
 0001:0002572c       PVRSRVEnumDCDimsKM         1002672c f   srvkmcmn:deviceclass.obj
 0001:000257e4       PVRSRVGetDCSystemBufferKM  100267e4 f   srvkmcmn:deviceclass.obj
 0001:00025940       PVRSRVGetDCInfoKM          10026940 f   srvkmcmn:deviceclass.obj
 0001:00025a28       PVRSRVDestroyDCSwapChainKM 10026a28 f   srvkmcmn:deviceclass.obj
 0001:00025ab0       PVRSRVCreateDCSwapChainKM  10026ab0 f   srvkmcmn:deviceclass.obj
 0001:00026834       PVRSRVSetDCDstRectKM       10027834 f   srvkmcmn:deviceclass.obj
 0001:000268ec       PVRSRVSetDCSrcRectKM       100278ec f   srvkmcmn:deviceclass.obj
 0001:000269a4       PVRSRVSetDCDstColourKeyKM  100279a4 f   srvkmcmn:deviceclass.obj
 0001:00026a5c       PVRSRVSetDCSrcColourKeyKM  10027a5c f   srvkmcmn:deviceclass.obj
 0001:00026b14       PVRSRVGetDCBuffersKM       10027b14 f   srvkmcmn:deviceclass.obj
 0001:00026c98       PVRSRVSwapToDCBufferKM     10027c98 f   srvkmcmn:deviceclass.obj
 0001:000270ac       PVRSRVSwapToDCSystemKM     100280ac f   srvkmcmn:deviceclass.obj
 0001:00027380       PVRSRVSetDCState           10028380 f   srvkmcmn:deviceclass.obj
 0001:0002746c       PVRGetDisplayClassJTable   1002846c f   srvkmcmn:deviceclass.obj
 0001:00027a0c       PVRSRVCloseBCDeviceKM      10028a0c f   srvkmcmn:deviceclass.obj
 0001:00027a68       PVRSRVOpenBCDeviceKM       10028a68 f   srvkmcmn:deviceclass.obj
 0001:0002848c       PVRSRVGetBCInfoKM          1002948c f   srvkmcmn:deviceclass.obj
 0001:00028598       PVRSRVGetBCBufferKM        10029598 f   srvkmcmn:deviceclass.obj
 0001:0002868c       PVRGetBufferClassJTable    1002968c f   srvkmcmn:deviceclass.obj
 0001:00028ae4       List_BM_HEAP_Any_va        10029ae4 f   srvkmcmn:lists.obj
 0001:00028b74       List_BM_HEAP_PVRSRV_ERROR_Any 10029b74 f   srvkmcmn:lists.obj
 0001:00028bf4       List_BM_HEAP_PVRSRV_ERROR_Any_va 10029bf4 f   srvkmcmn:lists.obj
 0001:00028c84       List_BM_HEAP_ForEach_va    10029c84 f   srvkmcmn:lists.obj
 0001:00028ce0       List_BM_HEAP_Remove        10029ce0 f   srvkmcmn:lists.obj
 0001:00028d40       List_BM_HEAP_Insert        10029d40 f   srvkmcmn:lists.obj
 0001:00028db0       List_BM_CONTEXT_Any_va     10029db0 f   srvkmcmn:lists.obj
 0001:00028e40       List_BM_CONTEXT_IMG_HANDLE_Any_va 10029e40 f   srvkmcmn:lists.obj
 0001:00028ed0       List_BM_CONTEXT_PVRSRV_ERROR_Any_va 10029ed0 f   srvkmcmn:lists.obj
 0001:00028f60       List_BM_CONTEXT_ForEach    10029f60 f   srvkmcmn:lists.obj
 0001:00028f9c       List_BM_CONTEXT_Remove     10029f9c f   srvkmcmn:lists.obj
 0001:00028ffc       List_BM_CONTEXT_Insert     10029ffc f   srvkmcmn:lists.obj
 0001:0002906c       List_PVRSRV_DEVICE_NODE_PVRSRV_ERROR_Any 1002a06c f   srvkmcmn:lists.obj
 0001:000290ec       List_PVRSRV_DEVICE_NODE_Any_va 1002a0ec f   srvkmcmn:lists.obj
 0001:0002917c       List_PVRSRV_DEVICE_NODE_PVRSRV_ERROR_Any_va 1002a17c f   srvkmcmn:lists.obj
 0001:0002920c       List_PVRSRV_DEVICE_NODE_ForEach 1002a20c f   srvkmcmn:lists.obj
 0001:00029248       List_PVRSRV_DEVICE_NODE_ForEach_va 1002a248 f   srvkmcmn:lists.obj
 0001:000292a4       List_PVRSRV_DEVICE_NODE_Insert 1002a2a4 f   srvkmcmn:lists.obj
 0001:00029314       List_PVRSRV_DEVICE_NODE_Remove 1002a314 f   srvkmcmn:lists.obj
 0001:00029374       List_PVRSRV_POWER_DEV_Any_va 1002a374 f   srvkmcmn:lists.obj
 0001:00029404       List_PVRSRV_POWER_DEV_PVRSRV_ERROR_Any_va 1002a404 f   srvkmcmn:lists.obj
 0001:00029494       List_PVRSRV_POWER_DEV_Insert 1002a494 f   srvkmcmn:lists.obj
 0001:00029504       List_PVRSRV_POWER_DEV_Remove 1002a504 f   srvkmcmn:lists.obj
 0001:00029564       MatchDeviceKM_AnyVaCb      1002a564 f   srvkmcmn:lists.obj
 0001:0002963c       MatchPowerDeviceIndex_AnyVaCb 1002a63c f   srvkmcmn:lists.obj
 0001:000296a4       RA_Create                  1002a6a4 f   srvkmcmn:ra.obj
 0001:00029f8c       RA_Delete                  1002af8c f   srvkmcmn:ra.obj
 0001:0002a204       RA_TestDelete              1002b204 f   srvkmcmn:ra.obj
 0001:0002a2e4       RA_Add                     1002b2e4 f   srvkmcmn:ra.obj
 0001:0002a404       RA_Alloc                   1002b404 f   srvkmcmn:ra.obj
 0001:0002b804       RA_Free                    1002c804 f   srvkmcmn:ra.obj
 0001:0002b920       RA_GetNextLiveSegment      1002c920 f   srvkmcmn:ra.obj
 0001:0002ba30       RA_GetStats                1002ca30 f   srvkmcmn:ra.obj
 0001:0002c2f0       RA_GetStatsFreeMem         1002d2f0 f   srvkmcmn:ra.obj
 0001:0002c3e0       QueueDumpDebugInfo         1002d3e0 f   srvkmcmn:queue.obj
 0001:0002c778       PVRSRVCreateCommandQueueKM 1002d778 f   srvkmcmn:queue.obj
 0001:0002cab4       PVRSRVDestroyCommandQueueKM 1002dab4 f   srvkmcmn:queue.obj
 0001:0002ce48       PVRSRVGetQueueSpaceKM      1002de48 f   srvkmcmn:queue.obj
 0001:0002d050       PVRSRVInsertCommandKM      1002e050 f   srvkmcmn:queue.obj
 0001:0002d63c       PVRSRVSubmitCommandKM      1002e63c f   srvkmcmn:queue.obj
 0001:0002d780       PVRSRVProcessQueues        1002e780 f   srvkmcmn:queue.obj
 0001:0002e044       PVRSRVCommandCompleteKM    1002f044 f   srvkmcmn:queue.obj
 0001:0002e344       PVRSRVRegisterCmdProcListKM 1002f344 f   srvkmcmn:queue.obj
 0001:0002e648       PVRSRVRemoveCmdProcListKM  1002f648 f   srvkmcmn:queue.obj
 0001:0002e7fc       HASH_Func_Default          1002f7fc f   srvkmcmn:hash.obj
 0001:0002e974       HASH_Key_Comp_Default      1002f974 f   srvkmcmn:hash.obj
 0001:0002ea58       HASH_Create_Extended       1002fa58 f   srvkmcmn:hash.obj
 0001:0002ebd8       HASH_Create                1002fbd8 f   srvkmcmn:hash.obj
 0001:0002ec1c       HASH_Delete                1002fc1c f   srvkmcmn:hash.obj
 0001:0002ed00       HASH_Insert_Extended       1002fd00 f   srvkmcmn:hash.obj
 0001:0002f260       HASH_Insert                10030260 f   srvkmcmn:hash.obj
 0001:0002f2cc       HASH_Remove_Extended       100302cc f   srvkmcmn:hash.obj
 0001:0002f59c       HASH_Remove                1003059c f   srvkmcmn:hash.obj
 0001:0002f5fc       HASH_Retrieve_Extended     100305fc f   srvkmcmn:hash.obj
 0001:0002f7e4       HASH_Retrieve              100307e4 f   srvkmcmn:hash.obj
 0001:0002f844       HASH_Iterate               10030844 f   srvkmcmn:hash.obj
 0001:0002f924       PVRSRVGetDeviceMemHeapsKM  10030924 f   srvkmcmn:devicemem.obj
 0001:0002fb5c       PVRSRVCreateDeviceMemContextKM 10030b5c f   srvkmcmn:devicemem.obj
 0001:0002ffb0       PVRSRVDestroyDeviceMemContextKM 10030fb0 f   srvkmcmn:devicemem.obj
 0001:0002ffec       PVRSRVGetDeviceMemHeapInfoKM 10030fec f   srvkmcmn:devicemem.obj
 0001:000303d8       PVRSRVAllocSyncInfoKM      100313d8 f   srvkmcmn:devicemem.obj
 0001:00030808       PVRSRVFreeSyncInfoKM       10031808 f   srvkmcmn:devicemem.obj
 0001:00030954       PVRSRVFreeDeviceMemKM      10031954 f   srvkmcmn:devicemem.obj
 0001:00030de8       _PVRSRVAllocDeviceMemKM    10031de8 f   srvkmcmn:devicemem.obj
 0001:00031038       PVRSRVDissociateDeviceMemKM 10032038 f   srvkmcmn:devicemem.obj
 0001:000310c8       PVRSRVGetFreeDeviceMemKM   100320c8 f   srvkmcmn:devicemem.obj
 0001:0003110c       PVRSRVUnwrapExtMemoryKM    1003210c f   srvkmcmn:devicemem.obj
 0001:00031160       PVRSRVWrapExtMemoryKM      10032160 f   srvkmcmn:devicemem.obj
 0001:000317ec       PVRSRVUnmapDeviceMemoryKM  100327ec f   srvkmcmn:devicemem.obj
 0001:00031840       PVRSRVMapDeviceMemoryKM    10032840 f   srvkmcmn:devicemem.obj
 0001:00031fc0       PVRSRVUnmapDeviceClassMemoryKM 10032fc0 f   srvkmcmn:devicemem.obj
 0001:00032014       PVRSRVMapDeviceClassMemoryKM 10033014 f   srvkmcmn:devicemem.obj
 0001:0003264c       PVRSRVChangeDeviceMemoryAttributesKM 1003364c f   srvkmcmn:devicemem.obj
 0001:000326dc       BM_DestroyContext          100336dc f   srvkmcmn:buffer_manager.obj
 0001:00032908       BM_CreateContext           10033908 f   srvkmcmn:buffer_manager.obj
 0001:00032fe0       BM_CreateHeap              10033fe0 f   srvkmcmn:buffer_manager.obj
 0001:00033490       BM_DestroyHeap             10034490 f   srvkmcmn:buffer_manager.obj
 0001:00033598       BM_Reinitialise            10034598 f   srvkmcmn:buffer_manager.obj
 0001:000335e0       BM_Alloc                   100345e0 f   srvkmcmn:buffer_manager.obj
 0001:000341ac       BM_Wrap                    100351ac f   srvkmcmn:buffer_manager.obj
 0001:00035284       BM_Export                  10036284 f   srvkmcmn:buffer_manager.obj
 0001:000352c0       BM_FreeExport              100362c0 f   srvkmcmn:buffer_manager.obj
 0001:0003530c       BM_Free                    1003630c f   srvkmcmn:buffer_manager.obj
 0001:00035464       BM_HandleToCpuVaddr        10036464 f   srvkmcmn:buffer_manager.obj
 0001:0003550c       BM_HandleToDevVaddr        1003650c f   srvkmcmn:buffer_manager.obj
 0001:000355e0       BM_HandleToSysPaddr        100365e0 f   srvkmcmn:buffer_manager.obj
 0001:000356d0       BM_HandleToOSMemHandle     100366d0 f   srvkmcmn:buffer_manager.obj
 0001:00035b40       BM_XProcWorkaroundSetShareIndex 10036b40 f   srvkmcmn:buffer_manager.obj
 0001:00035bb4       BM_XProcWorkaroundUnsetShareIndex 10036bb4 f   srvkmcmn:buffer_manager.obj
 0001:00035c78       BM_XProcWorkaroundFindNewBufferAndSetShareIndex 10036c78 f   srvkmcmn:buffer_manager.obj
 0001:0003730c       BM_GetPhysPageAddr         1003830c f   srvkmcmn:buffer_manager.obj
 0001:00037400       BM_GetMMUContext           10038400 f   srvkmcmn:buffer_manager.obj
 0001:00037454       BM_GetMMUContextFromMemContext 10038454 f   srvkmcmn:buffer_manager.obj
 0001:000374a0       BM_GetMMUHeap              100384a0 f   srvkmcmn:buffer_manager.obj
 0001:000374e8       BM_GetDeviceNode           100384e8 f   srvkmcmn:buffer_manager.obj
 0001:00037530       BM_GetMappingHandle        10038530 f   srvkmcmn:buffer_manager.obj
 0001:00037588       SrvInit                    10038588 f   srvinitcommon:srvinit.obj
 0001:000378b4       PVRPMapKMem                100388b4 f   srvclkm:srvclient_wince.obj
 0001:00037900       PVRUnMapKMem               10038900 f   srvclkm:srvclient_wince.obj
 0001:00037944       OSEventObjectOpen          10038944 f   srvclkm:srvclient_wince.obj
 0001:00037a00       OSEventObjectClose         10038a00 f   srvclkm:srvclient_wince.obj
 0001:00037a3c       OSEventObjectWait          10038a3c f   srvclkm:srvclient_wince.obj
 0001:00037b00       PVRSRVLockResource         10038b00 f   srvclkm:srvclient_wince.obj
 0001:00037c00       PVRSRVUnlockResource       10038c00 f   srvclkm:srvclient_wince.obj
 0001:00037cf8       PVRSRVCallocUserModeMem    10038cf8 f   srvclkm:srvclient_wince.obj
 0001:00037d2c       PVRSRVReallocUserModeMem   10038d2c f   srvclkm:srvclient_wince.obj
 0001:00037d60       PVRSRVClockus              10038d60 f   srvclkm:srvclient_wince.obj
 0001:00037d8c       PVRSRVWaitus               10038d8c f   srvclkm:srvclient_wince.obj
 0001:00037df8       PVRSRVMemCopy              10038df8 f   srvclkm:srvclient_wince.obj
 0001:00037e18       PVRSRVMemSet               10038e18 f   srvclkm:srvclient_wince.obj
 0001:00037e3c       PVRSRVCreateMutex          10038e3c f   srvclkm:srvclient_wince.obj
 0001:00037e98       PVRSRVDestroyMutex         10038e98 f   srvclkm:srvclient_wince.obj
 0001:00037ec4       PVRSRVLockMutex            10038ec4 f   srvclkm:srvclient_wince.obj
 0001:00037f00       PVRSRVUnlockMutex          10038f00 f   srvclkm:srvclient_wince.obj
 0001:00037f38       OSFlushCPUCacheRange       10038f38 f   srvclkm:srvclient_wince.obj
 0001:00037f6c       dassert                    10038f6c f   srvclkm:srvclient_wince.obj
 0001:00037fcc       dprintf                    10038fcc f   srvclkm:srvclient_wince.obj
 0001:00038000       OpenServices               10039000 f   srvclkm:pvr_bridge_clientkm.obj
 0001:000380d0       CloseServices              100390d0 f   srvclkm:pvr_bridge_clientkm.obj
 0001:00038158       PVRSRVBridgeCall           10039158 f   srvclkm:pvr_bridge_clientkm.obj
 0001:00038314       SetJTable                  10039314 f   srvclkm:pvr_bridge_clientkm.obj
 0001:00038368       PVRSRVInitSrvConnect       10039368 f   srvclkm:pvr_glue.obj
 0001:00038478       PVRSRVInitSrvDisconnect    10039478 f   srvclkm:pvr_glue.obj
 0001:00038514       PVRSRVAllocDeviceMem       10039514 f   srvclkm:pvr_glue.obj
 0001:000386e0       PVRSRVFreeDeviceMem        100396e0 f   srvclkm:pvr_glue.obj
 0001:0003889c       PVRSRVMapDeviceMemory      1003989c f   srvclkm:pvr_glue.obj
 0001:00038b6c       PVRSRVCreateCommandQueue   10039b6c f   srvclkm:pvr_glue.obj
 0001:00038c7c       PVRSRVDestroyCommandQueue  10039c7c f   srvclkm:pvr_glue.obj
 0001:00038d00       PVRSRVFreeSharedSysMem     10039d00 f   srvclkm:pvr_glue.obj
 0001:00038dc4       PVRSRVUnrefSharedSysMem    10039dc4 f   srvclkm:pvr_glue.obj
 0001:00038df8       PVRSRVUnrefDeviceMem       10039df8 f   srvclkm:pvr_glue.obj
 0001:00038e6c       PVRSRVAllocSharedSysMem    10039e6c f   srvclkm:pvr_glue.obj
 0001:00038ff0       PVRSRVMapMemInfoMem        10039ff0 f   srvclkm:pvr_glue.obj
 0001:000391cc       PVRSRVEnumerateDeviceClass 1003a1cc f   srvclkm:bridged_pvr_glue.obj
 0001:00039398       PVRSRVConnect              1003a398 f   srvclkm:bridged_pvr_glue.obj
 0001:00039808       PVRSRVDisconnect           1003a808 f   srvclkm:bridged_pvr_glue.obj
 0001:00039870       PVRSRVEnumerateDevices     1003a870 f   srvclkm:bridged_pvr_glue.obj
 0001:000399d4       PVRSRVAcquireDeviceData    1003a9d4 f   srvclkm:bridged_pvr_glue.obj
 0001:00039abc       PVRSRVCreateDeviceMemContext 1003aabc f   srvclkm:bridged_pvr_glue.obj
 0001:00039c60       PVRSRVDestroyDeviceMemContext 1003ac60 f   srvclkm:bridged_pvr_glue.obj
 0001:00039d78       PVRSRVGetDeviceMemHeapInfo 1003ad78 f   srvclkm:bridged_pvr_glue.obj
 0001:00039f18       PVRSRVExportDeviceMem      1003af18 f   srvclkm:bridged_pvr_glue.obj
 0001:0003a020       PVRSRVWrapExtMemory        1003b020 f   srvclkm:bridged_pvr_glue.obj
 0001:0003a43c       PVRSRVUnwrapExtMemory      1003b43c f   srvclkm:bridged_pvr_glue.obj
 0001:0003a768       PVRSRVMapDeviceClassMemory 1003b768 f   srvclkm:bridged_pvr_glue.obj
 0001:0003aaa0       PVRSRVUnmapDeviceClassMemory 1003baa0 f   srvclkm:bridged_pvr_glue.obj
 0001:0003ac9c       PVRSRVGetMiscInfo          1003bc9c f   srvclkm:bridged_pvr_glue.obj
 0001:0003afac       PVRSRVReleaseMiscInfo      1003bfac f   srvclkm:bridged_pvr_glue.obj
 0001:0003b0f8       PVRSRVEventObjectWait      1003c0f8 f   srvclkm:bridged_pvr_glue.obj
 0001:0003b12c       PVRSRVMapPhysToUserSpace   1003c12c f   srvclkm:bridged_pvr_glue.obj
 0001:0003b200       PVRSRVUnmapPhysToUserSpace 1003c200 f   srvclkm:bridged_pvr_glue.obj
 0001:0003b2a8       PVRSRVGetMMUContextPDDevPAddr 1003c2a8 f   srvclkm:bridged_pvr_glue.obj
 0001:0003b344       PVRSRVUnmapDeviceMemory    1003c344 f   srvclkm:bridged_pvr_glue.obj
 0001:0003b520       PVRSRVCreateSyncInfoModObj 1003c520 f   srvclkm:bridged_pvr_glue.obj
 0001:0003b670       PVRSRVDestroySyncInfoModObj 1003c670 f   srvclkm:bridged_pvr_glue.obj
 0001:0003b78c       PVRSRVModifyPendingSyncOps 1003c78c f   srvclkm:bridged_pvr_glue.obj
 0001:0003b8fc       PVRSRVModifyCompleteSyncOps 1003c8fc f   srvclkm:bridged_pvr_glue.obj
 0001:0003ba3c       PVRSRVSyncOpsTakeToken     1003ca3c f   srvclkm:bridged_pvr_glue.obj
 0001:0003bbb8       PVRSRVSyncOpsFlushToToken  1003cbb8 f   srvclkm:bridged_pvr_glue.obj
 0001:0003bd98       PVRSRVSyncOpsFlushToModObj 1003cd98 f   srvclkm:bridged_pvr_glue.obj
 0001:0003bed8       PVRSRVSyncOpsFlushToDelta  1003ced8 f   srvclkm:bridged_pvr_glue.obj
 0001:0003c028       PVRSRVAllocSyncInfo        1003d028 f   srvclkm:bridged_pvr_glue.obj
 0001:0003c1f4       PVRSRVFreeSyncInfo         1003d1f4 f   srvclkm:bridged_pvr_glue.obj
 0001:0003c320       HostGetCurrentThreadID     1003d320 f   srvclkm:osfnex_clientkm.obj
 0001:0003c344       PVRSRVGetCurrentProcessID  1003d344 f   srvclkm:osfnex_clientkm.obj
 0001:0003c368       HostGetCurrentProcessPtr   1003d368 f   srvclkm:osfnex_clientkm.obj
 0001:0003c38c       PVRSRVLoadLibrary          1003d38c f   srvclkm:osfnex_clientkm.obj
 0001:0003c3b4       PVRSRVUnloadLibrary        1003d3b4 f   srvclkm:osfnex_clientkm.obj
 0001:0003c3dc       PVRSRVGetLibFuncAddr       1003d3dc f   srvclkm:osfnex_clientkm.obj
 0001:0003c404       PVRSRVAllocUserModeMem     1003d404 f   srvclkm:osfnex_clientkm.obj
 0001:0003c438       PVRSRVFreeUserModeMem      1003d438 f   srvclkm:osfnex_clientkm.obj
 0001:0003c450       SGXFindSharedPBDesc        1003d450 f   srvclkm:bridged_sgx_glue.obj
 0001:0003c688       SGXUnrefSharedPBDesc       1003d688 f   srvclkm:bridged_sgx_glue.obj
 0001:0003c76c       SGXAddSharedPBDesc         1003d76c f   srvclkm:bridged_sgx_glue.obj
 0001:0003c8dc       SGXSubmitTransferBridge    1003d8dc f   srvclkm:bridged_sgx_glue.obj
 0001:0003c9e4       SGXRegisterHWRenderContext 1003d9e4 f   srvclkm:bridged_sgx_glue.obj
 0001:0003cb28       SGXUnregisterHWRenderContext 1003db28 f   srvclkm:bridged_sgx_glue.obj
 0001:0003cc24       SGXRegisterHWTransferContext 1003dc24 f   srvclkm:bridged_sgx_glue.obj
 0001:0003cd68       SGXUnregisterHWTransferContext 1003dd68 f   srvclkm:bridged_sgx_glue.obj
 0001:0003ce64       SGXFlushHWRenderTarget     1003de64 f   srvclkm:bridged_sgx_glue.obj
 0001:0003cf74       SGXDoKick                  1003df74 f   srvclkm:bridged_sgx_glue.obj
 0001:0003d07c       SGXScheduleProcessQueues   1003e07c f   srvclkm:bridged_sgx_glue.obj
 0001:0003d15c       SGXGetInfoForSrvInit       1003e15c f   srvclkm:bridged_sgx_glue.obj
 0001:0003d258       SGXDevInitPart2            1003e258 f   srvclkm:bridged_sgx_glue.obj
 0001:0003da84       SGXGetClientInfo           1003ea84 f   srvclkm:bridged_sgx_glue.obj
 0001:0003dc80       SGXReleaseClientInfo       1003ec80 f   srvclkm:bridged_sgx_glue.obj
 0001:0003ddc4       SGXGetInternalDevInfo      1003edc4 f   srvclkm:bridged_sgx_glue.obj
 0001:0003df24       SGXConnectionCheck         1003ef24 f   srvclkm:bridged_sgx_glue.obj
 0001:0003e0a4       SGXDumpMKTrace             1003f0a4 f   srvclkm:bridged_sgx_glue.obj
 0001:0003e0f0       SGXGetMiscInfo             1003f0f0 f   srvclkm:bridged_sgx_glue.obj
 0001:0003e274       SGXReadHWPerfCB            1003f274 f   srvclkm:bridged_sgx_glue.obj
 0001:0003e390       SGX2DQueryBlitsComplete    1003f390 f   srvclkm:bridged_sgx_glue.obj
 0001:0003e494       SysCreateVersionString     1003f494 f   system:sysconfig.obj
 0001:0003e5cc       SysInitialise              1003f5cc f   system:sysconfig.obj
 0001:0003f02c       SysFinalise                1004002c f   system:sysconfig.obj
 0001:0003f1a8       SysDeinitialise            100401a8 f   system:sysconfig.obj
 0001:0003f52c       SysGetDeviceMemoryMap      1004052c f   system:sysconfig.obj
 0001:0003f590       SysCpuPAddrToDevPAddr      10040590 f   system:sysconfig.obj
 0001:0003f5d4       SysSysPAddrToCpuPAddr      100405d4 f   system:sysconfig.obj
 0001:0003f610       SysCpuPAddrToSysPAddr      10040610 f   system:sysconfig.obj
 0001:0003f64c       SysSysPAddrToDevPAddr      1004064c f   system:sysconfig.obj
 0001:0003f690       SysDevPAddrToSysPAddr      10040690 f   system:sysconfig.obj
 0001:0003f6d4       SysRegisterExternalDevice  100406d4 f   system:sysconfig.obj
 0001:0003f6ec       SysRemoveExternalDevice    100406ec f   system:sysconfig.obj
 0001:0003f704       SysGetInterruptSource      10040704 f   system:sysconfig.obj
 0001:0003f738       SysClearInterrupts         10040738 f   system:sysconfig.obj
 0001:0003f77c       SysSystemPrePowerState     1004077c f   system:sysconfig.obj
 0001:0003f898       SysSystemPostPowerState    10040898 f   system:sysconfig.obj
 0001:0003fa18       SysDevicePrePowerState     10040a18 f   system:sysconfig.obj
 0001:0003faa0       SysDevicePostPowerState    10040aa0 f   system:sysconfig.obj
 0001:0003fb3c       SysOEMFunction             10040b3c f   system:sysconfig.obj
 0001:0003fbc4       DisableSGXClocks           10040bc4 f   system:sysutils.obj
 0001:0003fd1c       EnableSGXClocks            10040d1c f   system:sysutils.obj
 0001:00040080       EnableSystemClocks         10041080 f   system:sysutils.obj
 0001:000400ac       DisableSystemClocks        100410ac f   system:sysutils.obj
 0001:000400c4       getCpuFamily               100410c4 f   system:sysutils.obj
 0001:00040178       DummyBW                    10041178 f   srvkmbridged:bridged_pvr_bridge.obj
 0001:000401e4       _SetDispatchTableEntry     100411e4 f   srvkmbridged:bridged_pvr_bridge.obj
 0001:00040330       CommonBridgeInit           10041330 f   srvkmbridged:bridged_pvr_bridge.obj
 0001:00046d9c       BridgedDispatchKM          10047d9c f   srvkmbridged:bridged_pvr_bridge.obj
 0001:00046ff0       SetSGXDispatchTableEntry   10047ff0 f   srvkmbridged:bridged_sgx_bridge.obj
 0001:0004a4c8       WaitForSingleObject        1004b4c8 f   coredll:COREDLL.dll
 0001:0004a4d8       ReleaseMutex               1004b4d8 f   coredll:COREDLL.dll
 0001:0004a4e8       CloseHandle                1004b4e8 f   coredll:COREDLL.dll
 0001:0004a4f8       CreateMutexW               1004b4f8 f   coredll:COREDLL.dll
 0001:0004a508       __GetUserKData             1004b508 f   coredll:COREDLL.dll
 0001:0004a518       NKDbgPrintfW               1004b518 f   coredll:COREDLL.dll
 0001:0004a528       GetDirectCallerProcessId   1004b528 f   coredll:COREDLL.dll
 0001:0004a538       LockPages                  1004b538 f   coredll:COREDLL.dll
 0001:0004a548       UnlockPages                1004b548 f   coredll:COREDLL.dll
 0001:0004a558       VirtualFree                1004b558 f   coredll:COREDLL.dll
 0001:0004a568       VirtualAlloc               1004b568 f   coredll:COREDLL.dll
 0001:0004a578       GetLastError               1004b578 f   coredll:COREDLL.dll
 0001:0004a588       VirtualFreeEx              1004b588 f   coredll:COREDLL.dll
 0001:0004a598       VirtualAllocEx             1004b598 f   coredll:COREDLL.dll
 0001:0004a5a8       KernelLibIoControl         1004b5a8 f   coredll:COREDLL.dll
 0001:0004a5b8       VirtualCopyEx              1004b5b8 f   coredll:COREDLL.dll
 0001:0004a5c8       VirtualAllocCopyEx         1004b5c8 f   coredll:COREDLL.dll
 0001:0004a5d8       InterruptDone              1004b5d8 f   coredll:COREDLL.dll
 0001:0004a5e8       EventModify                1004b5e8 f   coredll:COREDLL.dll
 0001:0004a5f8       InterruptDisable           1004b5f8 f   coredll:COREDLL.dll
 0001:0004a608       CeSetThreadPriority        1004b608 f   coredll:COREDLL.dll
 0001:0004a618       CreateThread               1004b618 f   coredll:COREDLL.dll
 0001:0004a628       InterruptInitialize        1004b628 f   coredll:COREDLL.dll
 0001:0004a638       CreateEventW               1004b638 f   coredll:COREDLL.dll
 0001:0004a648       KernelIoControl            1004b648 f   coredll:COREDLL.dll
 0001:0004a658       TerminateThread            1004b658 f   coredll:COREDLL.dll
 0001:0004a668       LoadIntChainHandler        1004b668 f   coredll:COREDLL.dll
 0001:0004a678       RegCloseKey                1004b678 f   coredll:COREDLL.dll
 0001:0004a688       RegQueryValueExW           1004b688 f   coredll:COREDLL.dll
 0001:0004a698       FreeIntChainHandler        1004b698 f   coredll:COREDLL.dll
 0001:0004a6a8       InterlockedCompareExchange 1004b6a8 f   coredll:COREDLL.dll
 0001:0004a6b8       GetCallerVMProcessId       1004b6b8 f   coredll:COREDLL.dll
 0001:0004a6c8       SleepTillTick              1004b6c8 f   coredll:COREDLL.dll
 0001:0004a6d8       GetTickCount               1004b6d8 f   coredll:COREDLL.dll
 0001:0004a6e8       Sleep                      1004b6e8 f   coredll:COREDLL.dll
 0001:0004a6f8       WaitForMultipleObjects     1004b6f8 f   coredll:COREDLL.dll
 0001:0004a708       AllocPhysMem               1004b708 f   coredll:COREDLL.dll
 0001:0004a718       FreePhysMem                1004b718 f   coredll:COREDLL.dll
 0001:0004a728       IsBadWritePtr              1004b728 f   coredll:COREDLL.dll
 0001:0004a738       IsBadReadPtr               1004b738 f   coredll:COREDLL.dll
 0001:0004a748       VirtualCopy                1004b748 f   coredll:COREDLL.dll
 0001:0004a758       RegOpenKeyExW              1004b758 f   coredll:COREDLL.dll
 0001:0004a768       RegSetValueExW             1004b768 f   coredll:COREDLL.dll
 0001:0004a778       RegCreateKeyExW            1004b778 f   coredll:COREDLL.dll
 0001:0004a788       WideCharToMultiByte        1004b788 f   coredll:COREDLL.dll
 0001:0004a798       GlobalMemoryStatus         1004b798 f   coredll:COREDLL.dll
 0001:0004a7a8       OutputDebugStringW         1004b7a8 f   coredll:COREDLL.dll
 0001:0004a7b8       GetModuleFileNameW         1004b7b8 f   coredll:COREDLL.dll
 0001:0004a7c8       CreateFileW                1004b7c8 f   coredll:COREDLL.dll
 0001:0004a7d8       DeviceIoControl            1004b7d8 f   coredll:COREDLL.dll
 0001:0004a7e8       LocalAlloc                 1004b7e8 f   coredll:COREDLL.dll
 0001:0004a7f8       LocalFree                  1004b7f8 f   coredll:COREDLL.dll
 0001:0004a808       CalibrateStallCounter      1004b808 f   ceddk:CEDDK.dll
 0001:0004a818       MmMapIoSpace               1004b818 f   ceddk:CEDDK.dll
 0001:0004a828       MmUnmapIoSpace             1004b828 f   ceddk:CEDDK.dll
 0001:0004a838       StallExecution             1004b838 f   ceddk:CEDDK.dll
 0001:0004a848       HalGetBusDataByOffset      1004b848 f   ceddk:CEDDK.dll
 0001:0004a858       HalSetBusDataByOffset      1004b858 f   ceddk:CEDDK.dll
 0001:0004a868       EnableDeviceClocks         1004b868 f   ceddk:CEDDK.dll
 0001:0004a878       GetDeviceByAddress         1004b878 f   ceddk:CEDDK.dll
 0001:0004a888       DllMain                    1004b888 f   corelib0:dllmain.obj
 0001:0004a8c0       _DllMainCRTStartup         1004b8c0 f   corelib0:pegdmain.obj
 0001:0004aa58       __security_init_cookie     1004ba58 f   corelib0:seccinit.obj
 0001:0004aaf4       __GSHandlerCheck           1004baf4 f   corelib0:gshandler.obj
 0001:0004ab38       __GSHandlerCheckCommon     1004bb38 f   corelib0:gshandler.obj
 0001:0004abd8       __security_check_cookie    1004bbd8 f   corelib0:armsecgs.obj
 0001:0004abe8       __gsfailure                1004bbe8     corelib0:armsecgs.obj
 0001:0004ac2c       exit                       1004bc2c f   corelib0:cexit.obj
 0001:0004ad4c       _exit                      1004bd4c f   corelib0:cexit.obj
 0001:0004ad6c       _cexit                     1004bd6c f   corelib0:cexit.obj
 0001:0004ad84       _c_exit                    1004bd84 f   corelib0:cexit.obj
 0001:0004ad9c       _initterm                  1004bd9c f   corelib0:crt0dat.obj
 0001:0004ade8       _cinit                     1004bde8 f   corelib0:crt0dat.obj
 0001:0004ae18       __crt_ExitProcess          1004be18 f   corelib0:exitproc_proxy.obj
 0001:0004ae44       _onexit                    1004be44 f   corelib0:onexit.obj
 0001:0004b020       atexit                     1004c020 f   corelib0:onexit.obj
 0001:0004b070       memset                     1004c070 f   corelib1:COREDLL.dll
 0001:0004b080       free                       1004c080 f   corelib1:COREDLL.dll
 0001:0004b090       malloc                     1004c090 f   corelib1:COREDLL.dll
 0001:0004b0a0       memcpy                     1004c0a0 f   corelib1:COREDLL.dll
 0001:0004b0b0       strcpy                     1004c0b0 f   corelib1:COREDLL.dll
 0001:0004b0c0       vsprintf                   1004c0c0 f   corelib1:COREDLL.dll
 0001:0004b0d0       swprintf                   1004c0d0 f   corelib1:COREDLL.dll
 0001:0004b0e0       _snprintf                  1004c0e0 f   corelib1:COREDLL.dll
 0001:0004b0f0       strncpy                    1004c0f0 f   corelib1:COREDLL.dll
 0001:0004b100       __C_specific_handler       1004c100 f   corelib1:COREDLL.dll
 0001:0004b110       strcat                     1004c110 f   corelib1:COREDLL.dll
 0001:0004b120       strlen                     1004c120 f   corelib1:COREDLL.dll
 0001:0004b130       sprintf                    1004c130 f   corelib1:COREDLL.dll
 0001:0004b140       _vsnprintf                 1004c140 f   corelib1:COREDLL.dll
 0001:0004b150       calloc                     1004c150 f   corelib1:COREDLL.dll
 0001:0004b160       realloc                    1004c160 f   corelib1:COREDLL.dll
 0001:0004b170       printf                     1004c170 f   corelib1:COREDLL.dll
 0001:0004b180       strrchr                    1004c180 f   corelib1:COREDLL.dll
 0001:0004b190       _XcptFilter                1004c190 f   corelib1:COREDLL.dll
 0001:0004b1a0       __security_gen_cookie2     1004c1a0 f   corelib1:COREDLL.dll
 0001:0004b1b0       __report_gsfailure         1004c1b0 f   corelib1:COREDLL.dll
 0001:0004b1c0       _msize                     1004c1c0 f   corelib1:COREDLL.dll
 0001:0004b1d0       SGXInitialise              1004c1d0 f   srvkmsgx:sgxinit.obj
 0001:0004b560       SGXDeinitialise            1004c560 f   srvkmsgx:sgxinit.obj
 0001:0004b608       SGXGetInfoForSrvinitKM     1004c608 f   srvkmsgx:sgxinit.obj
 0001:0004b6b0       DevInitSGXPart2KM          1004c6b0 f   srvkmsgx:sgxinit.obj
 0001:0004bde4       SGXOSTimer                 1004cde4 f   srvkmsgx:sgxinit.obj
 0001:0004c578       SGX_ISRHandler             1004d578 f   srvkmsgx:sgxinit.obj
 0001:0004c6c4       SGXRegisterDevice          1004d6c4 f   srvkmsgx:sgxinit.obj
 0001:0004d72c       SGXGetClientInfoKM         1004e72c f   srvkmsgx:sgxinit.obj
 0001:0004d7ac       SGXPanic                   1004e7ac f   srvkmsgx:sgxinit.obj
 0001:0004d7d8       SGXDevInitCompatCheck      1004e7d8 f   srvkmsgx:sgxinit.obj
 0001:0004e468       SGXGetMiscInfoKM           1004f468 f   srvkmsgx:sgxinit.obj
 0001:0004e858       SGXReadHWPerfCBKM          1004f858 f   srvkmsgx:sgxinit.obj
 0001:0004eaec       SGXTestActivePowerEvent    1004faec f   srvkmsgx:sgxutils.obj
 0001:0004ecac       SGXScheduleCCBCommand      1004fcac f   srvkmsgx:sgxutils.obj
 0001:0004f1b0       SGXScheduleCCBCommandKM    100501b0 f   srvkmsgx:sgxutils.obj
 0001:0004f2c8       SGXScheduleProcessQueuesKM 100502c8 f   srvkmsgx:sgxutils.obj
 0001:0004f3c8       SGXIsDevicePowered         100503c8 f   srvkmsgx:sgxutils.obj
 0001:0004f400       SGXGetInternalDevInfoKM    10050400 f   srvkmsgx:sgxutils.obj
 0001:0004f47c       SGXCleanupRequest          1005047c f   srvkmsgx:sgxutils.obj
 0001:0004f654       SGXRegisterHWRenderContextKM 10050654 f   srvkmsgx:sgxutils.obj
 0001:0004f804       SGXUnregisterHWRenderContextKM 10050804 f   srvkmsgx:sgxutils.obj
 0001:0004f89c       SGXRegisterHWTransferContextKM 1005089c f   srvkmsgx:sgxutils.obj
 0001:0004fa4c       SGXUnregisterHWTransferContextKM 10050a4c f   srvkmsgx:sgxutils.obj
 0001:0004fae4       SGX2DQueryBlitsCompleteKM  10050ae4 f   srvkmsgx:sgxutils.obj
 0001:0004fe00       SGXFlushHWRenderTargetKM   10050e00 f   srvkmsgx:sgxutils.obj
 0001:0004fe58       SGXConvertTimeStamp        10050e58 f   srvkmsgx:sgxutils.obj
 0001:0004fef0       PVRSRVGetSGXRevDataKM      10050ef0 f   srvkmsgx:sgxutils.obj
 0001:0004ff64       SGXContextSuspend          10050f64 f   srvkmsgx:sgxutils.obj
 0001:00050040       SGXDoKickKM                10051040 f   srvkmsgx:sgxkick.obj
 0001:00050970       SGXSubmitTransferKM        10051970 f   srvkmsgx:sgxtransfer.obj
 0001:00051570       SGXFindSharedPBDescKM      10052570 f   srvkmsgx:pb.obj
 0001:00051b8c       SGXUnrefSharedPBDescKM     10052b8c f   srvkmsgx:pb.obj
 0001:00051bdc       SGXAddSharedPBDescKM       10052bdc f   srvkmsgx:pb.obj
 0001:000521bc       SGXInitClocks              100531bc f   srvkmsgx:sgxreset.obj
 0001:00052204       SGXReset                   10053204 f   srvkmsgx:sgxreset.obj
 0001:000527a8       SGXPrePowerState           100537a8 f   srvkmsgx:sgxpower.obj
 0001:00052af0       SGXPostPowerState          10053af0 f   srvkmsgx:sgxpower.obj
 0001:00053028       SGXPreClockSpeedChange     10054028 f   srvkmsgx:sgxpower.obj
 0001:000530e4       SGXPostClockSpeedChange    100540e4 f   srvkmsgx:sgxpower.obj
 0001:00053208       MMU_IsHeapShared           10054208 f   srvkmsgx:mmu.obj
 0001:000532a8       MMU_InvalidateDirectoryCache 100542a8 f   srvkmsgx:mmu.obj
 0001:000532d4       MMU_Initialise             100542d4 f   srvkmsgx:mmu.obj
 0001:0005370c       MMU_Finalise               1005470c f   srvkmsgx:mmu.obj
 0001:000538e8       MMU_InsertHeap             100548e8 f   srvkmsgx:mmu.obj
 0001:00053a74       MMU_Create                 10054a74 f   srvkmsgx:mmu.obj
 0001:00054834       MMU_Delete                 10055834 f   srvkmsgx:mmu.obj
 0001:000548ac       MMU_Alloc                  100558ac f   srvkmsgx:mmu.obj
 0001:000551b0       MMU_Free                   100561b0 f   srvkmsgx:mmu.obj
 0001:00055320       MMU_Enable                 10056320 f   srvkmsgx:mmu.obj
 0001:00055338       MMU_Disable                10056338 f   srvkmsgx:mmu.obj
 0001:00055350       MMU_MapScatter             10056350 f   srvkmsgx:mmu.obj
 0001:00055718       MMU_MapPages               10056718 f   srvkmsgx:mmu.obj
 0001:00055890       MMU_MapShadow              10056890 f   srvkmsgx:mmu.obj
 0001:00055ad0       MMU_UnmapPages             10056ad0 f   srvkmsgx:mmu.obj
 0001:00055d50       MMU_GetPhysPageAddr        10056d50 f   srvkmsgx:mmu.obj
 0001:00055e90       MMU_GetPDDevPAddr          10056e90 f   srvkmsgx:mmu.obj
 0001:00055ec8       SGXGetPhysPageAddrKM       10056ec8 f   srvkmsgx:mmu.obj
 0001:00055f60       SGXGetMMUPDAddrKM          10056f60 f   srvkmsgx:mmu.obj
 0001:00055fcc       MMU_BIFResetPDAlloc        10056fcc f   srvkmsgx:mmu.obj
 0001:000562a8       MMU_BIFResetPDFree         100572a8 f   srvkmsgx:mmu.obj
 0001:00056378       SGXInit                    10057378 f   srvinitsgx:sgxinit.obj
 0001:0005a040       SetUSEExecutionAddress     1005b040 f i srvinitsgx:sgxinit.obj
 0001:0005a214       PDSUKERNEL_EVENTSSetINPUT_IR0_PA_DEST 1005b214 f i srvinitsgx:sgxinit.obj
 0001:0005a234       PDSUKERNEL_EVENTSSetINPUT_IR1_PA_DEST 1005b234 f i srvinitsgx:sgxinit.obj
 0001:0005a254       PDSUKERNEL_EVENTSSetINPUT_TIMESTAMP_PA_DEST 1005b254 f i srvinitsgx:sgxinit.obj
 0001:0005a274       PDSUKERNEL_EVENTSSetINPUT_DOUTU1 1005b274 f i srvinitsgx:sgxinit.obj
 0001:0005a290       PDSUKERNEL_EVENTSSetINPUT_DOUTU2 1005b290 f i srvinitsgx:sgxinit.obj
 0001:0005a2b0       PDSUKERNEL_EVENTSSetINPUT_GENERIC_DOUTU0 1005b2b0 f i srvinitsgx:sgxinit.obj
 0001:0005a2d0       PDSUKERNEL_EVENTSSetINPUT_3D_DOUTU0 1005b2d0 f i srvinitsgx:sgxinit.obj
 0001:0005a2f0       PDSUKERNEL_EVENTSSetINPUT_TA_DOUTU0 1005b2f0 f i srvinitsgx:sgxinit.obj
 0001:0005a310       PDSUKERNEL_EVENTSSetINPUT_SPM_DOUTU0 1005b310 f i srvinitsgx:sgxinit.obj
 0001:0005a330       PDSUKERNEL_LBSetINPUT_IR0_PA_DEST 1005b330 f i srvinitsgx:sgxinit.obj
 0001:0005a350       PDSUKERNEL_LBSetINPUT_3DEVENTS 1005b350 f i srvinitsgx:sgxinit.obj
 0001:0005a370       PDSUKERNEL_LBSetINPUT_TAEVENTS 1005b370 f i srvinitsgx:sgxinit.obj
 0001:0005a390       PDSUKERNEL_LBSetINPUT_3D_DOUTU0 1005b390 f i srvinitsgx:sgxinit.obj
 0001:0005a3ac       PDSUKERNEL_LBSetINPUT_TA_DOUTU0 1005b3ac f i srvinitsgx:sgxinit.obj
 0001:0005a3cc       PDSUKERNEL_LBSetINPUT_SPM_DOUTU0 1005b3cc f i srvinitsgx:sgxinit.obj
 0001:0005a3ec       PDSUKERNEL_LBSetINPUT_DOUTU1 1005b3ec f i srvinitsgx:sgxinit.obj
 0001:0005a42c       PDSUKERNEL_LBSetINPUT_DOUTU2 1005b42c f i srvinitsgx:sgxinit.obj
 0001:0005a44c       PDSUKERNEL_LBSetINPUT_TIMESTAMP_PA_DEST 1005b44c f i srvinitsgx:sgxinit.obj
 0001:0005a46c       PDSUKERNEL_INIT_PRIM1SetINPUT_DOUTU0 1005b46c f i srvinitsgx:sgxinit.obj
 0001:0005a488       PDSUKERNEL_INIT_PRIM1SetINPUT_DOUTU1 1005b488 f i srvinitsgx:sgxinit.obj
 0001:0005a4a8       PDSUKERNEL_INIT_PRIM1SetINPUT_DOUTU2 1005b4a8 f i srvinitsgx:sgxinit.obj
 0001:0005a4c8       PDSUKERNEL_INIT_SECSetINPUT_DOUTD0 1005b4c8 f i srvinitsgx:sgxinit.obj
 0001:0005a4e4       PDSUKERNEL_INIT_SECSetINPUT_DOUTD1 1005b4e4 f i srvinitsgx:sgxinit.obj
 0001:0005a504       PDSUKERNEL_INIT_SECSetINPUT_DOUTU0 1005b504 f i srvinitsgx:sgxinit.obj
 0001:0005a524       PDSUKERNEL_INIT_SECSetINPUT_DOUTU1 1005b524 f i srvinitsgx:sgxinit.obj
 0001:0005a544       PDSUKERNEL_INIT_SECSetINPUT_DOUTU2 1005b544 f i srvinitsgx:sgxinit.obj
 0001:0005a564       PDSUKERNEL_INIT_PRIM2SetINPUT_DOUTU0 1005b564 f i srvinitsgx:sgxinit.obj
 0001:0005a580       PDSUKERNEL_INIT_PRIM2SetINPUT_DOUTU1 1005b580 f i srvinitsgx:sgxinit.obj
 0001:0005a5a0       PDSUKERNEL_INIT_PRIM2SetINPUT_DOUTU2 1005b5a0 f i srvinitsgx:sgxinit.obj
 0001:0005a5c0       PVRSRVAllocSharedSysMemoryKM 1005b5c0 f   srvkmcmn:mem.obj
 0001:0005a7c0       PVRSRVFreeSharedSysMemoryKM 1005b7c0 f   srvkmcmn:mem.obj
 0001:0005a838       PVRSRVDissociateMemFromResmanKM 1005b838 f   srvkmcmn:mem.obj
 0001:0005a8f8       DisableThreadLibraryCalls  1005b8f8 f   coredll:COREDLL.dll
 0001:0005a908       TerminateProcess           1005b908 f   coredll:COREDLL.dll
 0001:0005a984       __IMPORT_DESCRIPTOR_COREDLL 1005b984     coredll:COREDLL.dll
 0001:0005a998       __IMPORT_DESCRIPTOR_CEDDK  1005b998     ceddk:CEDDK.dll
 0001:0005a9ac       __NULL_IMPORT_DESCRIPTOR   1005b9ac     coredll:COREDLL.dll
 0002:00000000       __imp_EnableDeviceClocks   1005c000     ceddk:CEDDK.dll
 0002:00000004       __imp_HalSetBusDataByOffset 1005c004     ceddk:CEDDK.dll
 0002:00000008       __imp_HalGetBusDataByOffset 1005c008     ceddk:CEDDK.dll
 0002:0000000c       __imp_StallExecution       1005c00c     ceddk:CEDDK.dll
 0002:00000010       __imp_MmUnmapIoSpace       1005c010     ceddk:CEDDK.dll
 0002:00000014       __imp_MmMapIoSpace         1005c014     ceddk:CEDDK.dll
 0002:00000018       __imp_CalibrateStallCounter 1005c018     ceddk:CEDDK.dll
 0002:0000001c       __imp_GetDeviceByAddress   1005c01c     ceddk:CEDDK.dll
 0002:00000020       \177CEDDK_NULL_THUNK_DATA  1005c020     ceddk:CEDDK.dll
 0002:00000024       __imp_VirtualFree          1005c024     coredll:COREDLL.dll
 0002:00000028       __imp_VirtualAlloc         1005c028     coredll:COREDLL.dll
 0002:0000002c       __imp_GetLastError         1005c02c     coredll:COREDLL.dll
 0002:00000030       __imp_VirtualFreeEx        1005c030     coredll:COREDLL.dll
 0002:00000034       __imp_VirtualAllocEx       1005c034     coredll:COREDLL.dll
 0002:00000038       __imp_KernelLibIoControl   1005c038     coredll:COREDLL.dll
 0002:0000003c       __imp_VirtualCopyEx        1005c03c     coredll:COREDLL.dll
 0002:00000040       __imp_VirtualAllocCopyEx   1005c040     coredll:COREDLL.dll
 0002:00000044       __imp_InterruptDone        1005c044     coredll:COREDLL.dll
 0002:00000048       __imp_EventModify          1005c048     coredll:COREDLL.dll
 0002:0000004c       __imp_InterruptDisable     1005c04c     coredll:COREDLL.dll
 0002:00000050       __imp_CeSetThreadPriority  1005c050     coredll:COREDLL.dll
 0002:00000054       __imp_CreateThread         1005c054     coredll:COREDLL.dll
 0002:00000058       __imp_InterruptInitialize  1005c058     coredll:COREDLL.dll
 0002:0000005c       __imp_CreateEventW         1005c05c     coredll:COREDLL.dll
 0002:00000060       __imp_KernelIoControl      1005c060     coredll:COREDLL.dll
 0002:00000064       __imp_TerminateThread      1005c064     coredll:COREDLL.dll
 0002:00000068       __imp_LoadIntChainHandler  1005c068     coredll:COREDLL.dll
 0002:0000006c       __imp_RegCloseKey          1005c06c     coredll:COREDLL.dll
 0002:00000070       __imp_RegQueryValueExW     1005c070     coredll:COREDLL.dll
 0002:00000074       __imp_FreeIntChainHandler  1005c074     coredll:COREDLL.dll
 0002:00000078       __imp_UnlockPages          1005c078     coredll:COREDLL.dll
 0002:0000007c       __imp_GetCallerVMProcessId 1005c07c     coredll:COREDLL.dll
 0002:00000080       __imp_SleepTillTick        1005c080     coredll:COREDLL.dll
 0002:00000084       __imp_GetTickCount         1005c084     coredll:COREDLL.dll
 0002:00000088       __imp_Sleep                1005c088     coredll:COREDLL.dll
 0002:0000008c       __imp_WaitForMultipleObjects 1005c08c     coredll:COREDLL.dll
 0002:00000090       __imp_AllocPhysMem         1005c090     coredll:COREDLL.dll
 0002:00000094       __imp_FreePhysMem          1005c094     coredll:COREDLL.dll
 0002:00000098       __imp_IsBadWritePtr        1005c098     coredll:COREDLL.dll
 0002:0000009c       __imp_IsBadReadPtr         1005c09c     coredll:COREDLL.dll
 0002:000000a0       __imp_VirtualCopy          1005c0a0     coredll:COREDLL.dll
 0002:000000a4       __imp_RegOpenKeyExW        1005c0a4     coredll:COREDLL.dll
 0002:000000a8       __imp_RegSetValueExW       1005c0a8     coredll:COREDLL.dll
 0002:000000ac       __imp_RegCreateKeyExW      1005c0ac     coredll:COREDLL.dll
 0002:000000b0       __imp_WideCharToMultiByte  1005c0b0     coredll:COREDLL.dll
 0002:000000b4       __imp_GlobalMemoryStatus   1005c0b4     coredll:COREDLL.dll
 0002:000000b8       __imp_OutputDebugStringW   1005c0b8     coredll:COREDLL.dll
 0002:000000bc       __imp_GetModuleFileNameW   1005c0bc     coredll:COREDLL.dll
 0002:000000c0       __imp_CreateFileW          1005c0c0     coredll:COREDLL.dll
 0002:000000c4       __imp_DeviceIoControl      1005c0c4     coredll:COREDLL.dll
 0002:000000c8       __imp_LocalAlloc           1005c0c8     coredll:COREDLL.dll
 0002:000000cc       __imp_LocalFree            1005c0cc     coredll:COREDLL.dll
 0002:000000d0       __imp_LockPages            1005c0d0     coredll:COREDLL.dll
 0002:000000d4       __imp_GetDirectCallerProcessId 1005c0d4     coredll:COREDLL.dll
 0002:000000d8       __imp_NKDbgPrintfW         1005c0d8     coredll:COREDLL.dll
 0002:000000dc       __imp___GetUserKData       1005c0dc     coredll:COREDLL.dll
 0002:000000e0       __imp_CreateMutexW         1005c0e0     coredll:COREDLL.dll
 0002:000000e4       __imp_CloseHandle          1005c0e4     coredll:COREDLL.dll
 0002:000000e8       __imp_ReleaseMutex         1005c0e8     coredll:COREDLL.dll
 0002:000000ec       __imp_InterlockedCompareExchange 1005c0ec     coredll:COREDLL.dll
 0002:000000f0       __imp_WaitForSingleObject  1005c0f0     coredll:COREDLL.dll
 0002:000000f4       __imp_memset               1005c0f4     corelib1:COREDLL.dll
 0002:000000f8       __imp_free                 1005c0f8     corelib1:COREDLL.dll
 0002:000000fc       __imp_malloc               1005c0fc     corelib1:COREDLL.dll
 0002:00000100       __imp___rt_udiv            1005c100     corelib1:COREDLL.dll
 0002:00000104       __imp_memcpy               1005c104     corelib1:COREDLL.dll
 0002:00000108       __imp_strcpy               1005c108     corelib1:COREDLL.dll
 0002:0000010c       __imp_vsprintf             1005c10c     corelib1:COREDLL.dll
 0002:00000110       __imp_swprintf             1005c110     corelib1:COREDLL.dll
 0002:00000114       __imp__snprintf            1005c114     corelib1:COREDLL.dll
 0002:00000118       __imp_strncpy              1005c118     corelib1:COREDLL.dll
 0002:0000011c       __imp___C_specific_handler 1005c11c     corelib1:COREDLL.dll
 0002:00000120       __imp_strcat               1005c120     corelib1:COREDLL.dll
 0002:00000124       __imp_strlen               1005c124     corelib1:COREDLL.dll
 0002:00000128       __imp_sprintf              1005c128     corelib1:COREDLL.dll
 0002:0000012c       __imp__vsnprintf           1005c12c     corelib1:COREDLL.dll
 0002:00000130       __imp_calloc               1005c130     corelib1:COREDLL.dll
 0002:00000134       __imp_realloc              1005c134     corelib1:COREDLL.dll
 0002:00000138       __imp_printf               1005c138     corelib1:COREDLL.dll
 0002:0000013c       __imp_strrchr              1005c13c     corelib1:COREDLL.dll
 0002:00000140       __imp__XcptFilter          1005c140     corelib1:COREDLL.dll
 0002:00000144       __imp___security_gen_cookie2 1005c144     corelib1:COREDLL.dll
 0002:00000148       __imp___report_gsfailure   1005c148     corelib1:COREDLL.dll
 0002:0000014c       __imp__msize               1005c14c     corelib1:COREDLL.dll
 0002:00000150       __imp_DisableThreadLibraryCalls 1005c150     coredll:COREDLL.dll
 0002:00000154       __imp_TerminateProcess     1005c154     coredll:COREDLL.dll
 0002:00000158       __imp___rt_sdiv            1005c158     corelib1:COREDLL.dll
 0002:0000015c       __imp___rt_udiv64by64      1005c15c     corelib1:COREDLL.dll
 0002:00000160       \177COREDLL_NULL_THUNK_DATA 1005c160     coredll:COREDLL.dll
 0002:00000168       gui32ClientInKernelMode    1005c168     pvr_kernel.obj
 0002:0000016c       gPVRDebugLevel             1005c16c     pvr_debug.obj
 0002:0000017c       __security_cookie          1005c17c     corelib0:seccinit.obj
 0002:00000180       __security_cookie_complement 1005c180     corelib0:seccinit.obj
 0002:00000188       pbuKernelProgram           1005c188     srvinitsgx:sgxinit.obj
 0002:00005928       pbuKernelTAProgram         10061928     srvinitsgx:sgxinit.obj
 0002:0000b148       pbuKernelSPMProgram        10067148     srvinitsgx:sgxinit.obj
 0002:0000fc68       pbuKernel3DProgram         1006bc68     srvinitsgx:sgxinit.obj
 0002:000164ac       hPowerLock                 100724ac     pvr_bridge_k.obj
 0002:00016adc       gpsKernelHandleBase        10072adc     srvkmcmn:handle.obj
 0002:00016b00       gpsResList                 10072b00     srvkmcmn:resman.obj
 0002:000184e4       gpsSysData                 100744e4     system:sysconfig.obj
 0002:00018570       _exitflag                  10074570     corelib0:cexit.obj
 0002:00018590       hDisplayMutex              10074590     <common>
 0002:000185a0       sEnvData                   100745a0     <common>
 0002:000185d8       hBridgeMutex               100745d8     <common>
 0002:000185dc       g_ui32InitFlags            100745dc     <common>
 0002:000185e0       gpsSysSpecificData         100745e0     <common>
 0002:00018600       gsSysData                  10074600     <common>
 0002:000186a0       g_BridgeDispatchTable      100746a0     <common>
 0002:00018884       __onexitend                10074884     <common>
 0002:00018888       __onexitbegin              10074888     <common>
 0002:0001888c       _pRawDllMain               1007488c     <common>

 entry point at        0001:0004a8c0

 Static symbols

 0001:00011bb8       SysAcquireData             10012bb8 f   pvr_kernel.obj
 0001:000130c0       SysAcquireData             100140c0 f   pvr_bridge_k.obj
 0001:00013104       OSMapPowerState            10014104 f   pvr_bridge_k.obj
 0001:000131a8       RemapClientMemInfoFromUMAddr 100141a8 f   pvr_bridge_k.obj
 0001:00013460       FreeSingleProcessUserModeMappingCallback 10014460 f   pvr_bridge_k.obj
 0001:00013540       FreeClientMemInfoFromUMAddr 10014540 f   pvr_bridge_k.obj
 0001:00013678       RemapClientMemInfo         10014678 f   pvr_bridge_k.obj
 0001:00013a00       FreeUserModeMappingCallback 10014a00 f   pvr_bridge_k.obj
 0001:00013adc       FreeMappedClientMemInfo    10014adc f   pvr_bridge_k.obj
 0001:00013ee0       OSAllocMem_Impl2           10014ee0 f   osfunc_srvkm.obj
 0001:00014138       OSFreeMem_Impl2            10015138 f   osfunc_srvkm.obj
 0001:00015434       List_ALLOC_BLOCK_MAPPING_Any_va 10016434 f   osfunc_srvkm.obj
 0001:000154c4       List_ALLOC_BLOCK_MAPPING_Insert 100164c4 f   osfunc_srvkm.obj
 0001:0001570c       List_ALLOC_BLOCK_MAPPING_Remove 1001670c f   osfunc_srvkm.obj
 0001:00015f54       SysAcquireData             10016f54 f   osfunc_srvkm.obj
 0001:00017a98       OSTimerCallbackWrapper     10018a98 f   osfunc_srvkm.obj
 0001:000185b0       List_CONTIG_BLOCK_MAPPING_Any_va 100195b0 f   osfunc_srvkm.obj
 0001:00018640       List_CONTIG_BLOCK_MAPPING_Insert 10019640 f   osfunc_srvkm.obj
 0001:000187e0       List_CONTIG_BLOCK_MAPPING_Remove 100197e0 f   osfunc_srvkm.obj
 0001:0001ab68       SysAcquireData             1001bb68 f   srvkmcmn:pvrsrv.obj
 0001:0001abac       PVRSRVEnumerateDevicesKM_ForEachVaCb 1001bbac f   srvkmcmn:pvrsrv.obj
 0001:0001b2a4       PVRSRVFinaliseSystem_SetPowerState_AnyCb 1001c2a4 f   srvkmcmn:pvrsrv.obj
 0001:0001b328       PVRSRVFinaliseSystem_CompatCheck_AnyCb 1001c328 f   srvkmcmn:pvrsrv.obj
 0001:0001b4d4       PVRSRVAcquireDeviceDataKM_Match_AnyVaCb 1001c4d4 f   srvkmcmn:pvrsrv.obj
 0001:0001c184       OSFlushCPUCacheRangeKM     1001d184 f   srvkmcmn:pvrsrv.obj
 0001:0001c1c0       OSCleanCPUCacheRangeKM     1001d1c0 f   srvkmcmn:pvrsrv.obj
 0001:0001c1fc       PVRSRVFindPerProcessData   1001d1fc f   srvkmcmn:pvrsrv.obj
 0001:0001c22c       PVRSRVGetMiscInfoKM_Device_AnyVaCb 1001d22c f   srvkmcmn:pvrsrv.obj
 0001:0001c478       PVRSRVGetMiscInfoKM_RA_GetStats_ForEachVaCb 1001d478 f   srvkmcmn:pvrsrv.obj
 0001:0001c58c       PVRSRVGetMiscInfoKM_BMContext_AnyVaCb 1001d58c f   srvkmcmn:pvrsrv.obj
 0001:0001c890       PVRSRVSystemLISR_ForEachVaCb 1001d890 f   srvkmcmn:pvrsrv.obj
 0001:0001ca48       PVRSRVMISR_ForEachCb       1001da48 f   srvkmcmn:pvrsrv.obj
 0001:0001dbc4       PVRSRVCommandCompleteCallbacks_ForEachCb 1001ebc4 f   srvkmcmn:pvrsrv.obj
 0001:0001dfac       OSPerProcessPrivateDataInit 1001efac f   srvkmcmn:perproc.obj
 0001:0001dfd8       OSPerProcessSetHandleOptions 1001efd8 f   srvkmcmn:perproc.obj
 0001:0001e004       FreePerProcessData         1001f004 f   srvkmcmn:perproc.obj
 0001:0001e2b0       OSPerProcessPrivateDataDeInit 1001f2b0 f   srvkmcmn:perproc.obj
 0001:0001e7b8       SysAcquireData             1001f7b8 f   srvkmcmn:power.obj
 0001:0001e7fc       _IsSystemStatePowered      1001f7fc f   srvkmcmn:power.obj
 0001:0001e968       PVRSRVDevicePrePowerStateKM 1001f968 f   srvkmcmn:power.obj
 0001:0001e9c8       PVRSRVDevicePrePowerStateKM_AnyVaCb 1001f9c8 f   srvkmcmn:power.obj
 0001:0001eb4c       PVRSRVDevicePostPowerStateKM 1001fb4c f   srvkmcmn:power.obj
 0001:0001ebac       PVRSRVDevicePostPowerStateKM_AnyVaCb 1001fbac f   srvkmcmn:power.obj
 0001:0001f7fc       GetHandleStructure         100207fc f   srvkmcmn:handle.obj
 0001:0001f960       FindHandle                 10020960 f   srvkmcmn:handle.obj
 0001:0001f9d4       InitKey                    100209d4 f   srvkmcmn:handle.obj
 0001:0001fa18       AllocHandle                10020a18 f   srvkmcmn:handle.obj
 0001:0002014c       InitParentList             1002114c f   srvkmcmn:handle.obj
 0001:0002018c       HandleListInit             1002118c f   srvkmcmn:handle.obj
 0001:000201c8       InitChildEntry             100211c8 f   srvkmcmn:handle.obj
 0001:000201f4       NoChildren                 100211f4 f   srvkmcmn:handle.obj
 0001:00020268       HandleListIsEmpty          10021268 f   srvkmcmn:handle.obj
 0001:00020310       NoParent                   10021310 f   srvkmcmn:handle.obj
 0001:000203b0       EnsureFreeHandles          100213b0 f   srvkmcmn:handle.obj
 0001:00020468       IncreaseHandleArraySize    10021468 f   srvkmcmn:handle.obj
 0001:000205dc       ReallocHandleArray         100215dc f   srvkmcmn:handle.obj
 0001:000212c4       ParentHandle               100222c4 f   srvkmcmn:handle.obj
 0001:000212f0       AdoptChild                 100222f0 f   srvkmcmn:handle.obj
 0001:00021388       HandleListInsertBefore     10022388 f   srvkmcmn:handle.obj
 0001:000219ac       FreeHandle                 100229ac f   srvkmcmn:handle.obj
 0001:00021ebc       UnlinkFromParent           10022ebc f   srvkmcmn:handle.obj
 0001:00021efc       HandleListRemove           10022efc f   srvkmcmn:handle.obj
 0001:00022098       IterateOverChildren        10023098 f   srvkmcmn:handle.obj
 0001:000220e0       HandleListIterate          100230e0 f   srvkmcmn:handle.obj
 0001:00022274       ParentIfPrivate            10023274 f   srvkmcmn:handle.obj
 0001:00022550       PVRSRVHandleBatchCommitOrRelease 10023550 f   srvkmcmn:handle.obj
 0001:00022f08       FreeHandleBase             10023f08 f   srvkmcmn:handle.obj
 0001:0002307c       FreeHandleArray            1002407c f   srvkmcmn:handle.obj
 0001:000230b0       FreeAllHandles             100240b0 f   srvkmcmn:handle.obj
 0001:00023404       resourceType               10024404 f   srvkmcmn:resman.obj
 0001:00023788       List_RESMAN_CONTEXT_Insert 10024788 f   srvkmcmn:resman.obj
 0001:00023bb4       List_RESMAN_ITEM_Reverse   10024bb4 f   srvkmcmn:resman.obj
 0001:00023c60       List_RESMAN_CONTEXT_Remove 10024c60 f   srvkmcmn:resman.obj
 0001:00023e5c       List_RESMAN_ITEM_Insert    10024e5c f   srvkmcmn:resman.obj
 0001:00024174       List_RESMAN_ITEM_Remove    10025174 f   srvkmcmn:resman.obj
 0001:00024370       List_RESMAN_ITEM_IMG_BOOL_Any_va 10025370 f   srvkmcmn:resman.obj
 0001:00024400       ResManFindResourceByPtr_AnyVaCb 10025400 f   srvkmcmn:resman.obj
 0001:00024464       FreeResourceByPtr          10025464 f   srvkmcmn:resman.obj
 0001:0002461c       FreeResourceByCriteria     1002561c f   srvkmcmn:resman.obj
 0001:000246bc       List_RESMAN_ITEM_Any_va    100256bc f   srvkmcmn:resman.obj
 0001:0002474c       FreeResourceByCriteria_AnyVaCb 1002574c f   srvkmcmn:resman.obj
 0001:0002485c       ValidateResList            1002585c f   srvkmcmn:resman.obj
 0001:00024a80       PrintAndValidateResList    10025a80 f   srvkmcmn:resman.obj
 0001:00024e40       ResManPrintContextResources 10025e40 f   srvkmcmn:resman.obj
 0001:00024f40       List_RESMAN_ITEM_ForEach_va 10025f40 f   srvkmcmn:resman.obj
 0001:00025048       SysAcquireData             10026048 f   srvkmcmn:deviceclass.obj
 0001:0002508c       PVRSRVEnumerateDCKM_ForEachVaCb 1002608c f   srvkmcmn:deviceclass.obj
 0001:000254e0       CloseDCDeviceCallBack      100264e0 f   srvkmcmn:deviceclass.obj
 0001:000256fc       DCDeviceHandleToDCInfo     100266fc f   srvkmcmn:deviceclass.obj
 0001:000262cc       PVRSRVFindSharedDCSwapChainKM 100272cc f   srvkmcmn:deviceclass.obj
 0001:00026348       PVRSRVCreateDCSwapChainRefKM 10027348 f   srvkmcmn:deviceclass.obj
 0001:00026440       DestroyDCSwapChainRefCallBack 10027440 f   srvkmcmn:deviceclass.obj
 0001:000265b4       DestroyDCSwapChain         100275b4 f   srvkmcmn:deviceclass.obj
 0001:000273bc       PVRSRVSetDCState_ForEachVaCb 100283bc f   srvkmcmn:deviceclass.obj
 0001:0002753c       PVRSRVRegisterDCDeviceKM   1002853c f   srvkmcmn:deviceclass.obj
 0001:000277d8       PVRSRVRemoveDCDeviceKM     100287d8 f   srvkmcmn:deviceclass.obj
 0001:00027954       PVRSRVRegisterSystemISRHandler 10028954 f   srvkmcmn:deviceclass.obj
 0001:0002819c       CloseBCDeviceCallBack      1002919c f   srvkmcmn:deviceclass.obj
 0001:00028568       BCDeviceHandleToBCInfo     10029568 f   srvkmcmn:deviceclass.obj
 0001:000286f8       PVRSRVRegisterBCDeviceKM   100296f8 f   srvkmcmn:deviceclass.obj
 0001:0002898c       PVRSRVRemoveBCDeviceKM     1002998c f   srvkmcmn:deviceclass.obj
 0001:00029988       _RequestAllocFail          1002a988 f   srvkmcmn:ra.obj
 0001:000299dc       _InsertResource            1002a9dc f   srvkmcmn:ra.obj
 0001:00029b18       _SegmentListInsert         1002ab18 f   srvkmcmn:ra.obj
 0001:00029cac       _SegmentListInsertAfter    1002acac f   srvkmcmn:ra.obj
 0001:00029db8       _FreeListInsert            1002adb8 f   srvkmcmn:ra.obj
 0001:00029e9c       pvr_log2                   1002ae9c f   srvkmcmn:ra.obj
 0001:00029efc       _BuildBT                   1002aefc f   srvkmcmn:ra.obj
 0001:0002a154       _SegmentListRemove         1002b154 f   srvkmcmn:ra.obj
 0001:0002a7c0       _InsertResourceSpan        1002b7c0 f   srvkmcmn:ra.obj
 0001:0002a9d8       _BuildSpanMarker           1002b9d8 f   srvkmcmn:ra.obj
 0001:0002aa78       _AttemptAllocAligned       1002ba78 f   srvkmcmn:ra.obj
 0001:0002afe8       _SegmentSplit              1002bfe8 f   srvkmcmn:ra.obj
 0001:0002b184       _FreeListRemove            1002c184 f   srvkmcmn:ra.obj
 0001:0002b24c       _FreeBT                    1002c24c f   srvkmcmn:ra.obj
 0001:0002c268       _BTType                    1002d268 f   srvkmcmn:ra.obj
 0001:0002c410       SysAcquireData             1002d410 f   srvkmcmn:queue.obj
 0001:0002c454       QueueDumpDebugInfo_ForEachCb 1002d454 f   srvkmcmn:queue.obj
 0001:0002c5c4       QueueDumpCmdComplete       1002d5c4 f   srvkmcmn:queue.obj
 0001:0002ca3c       NearestPower2              1002da3c f   srvkmcmn:queue.obj
 0001:0002d54c       PVRSRVGetWriteOpsPending   1002e54c f   srvkmcmn:queue.obj
 0001:0002d5bc       PVRSRVGetReadOpsPending    1002e5bc f   srvkmcmn:queue.obj
 0001:0002d920       PVRSRVProcessCommand       1002e920 f   srvkmcmn:queue.obj
 0001:0002dff8       PVRSRVProcessQueues_ForEachCb 1002eff8 f   srvkmcmn:queue.obj
 0001:0002eebc       _ChainInsert               1002febc f   srvkmcmn:hash.obj
 0001:0002eff8       _Resize                    1002fff8 f   srvkmcmn:hash.obj
 0001:0002f17c       _Rehash                    1003017c f   srvkmcmn:hash.obj
 0001:00030638       AllocDeviceMem             10031638 f   srvkmcmn:devicemem.obj
 0001:00030898       FreeDeviceMem              10031898 f   srvkmcmn:devicemem.obj
 0001:000309ec       FreeDeviceMemCallBack      100319ec f   srvkmcmn:devicemem.obj
 0001:00030a34       FreeMemCallBackCommon      10031a34 f   srvkmcmn:devicemem.obj
 0001:00030c6c       FreeDeviceMem2             10031c6c f   srvkmcmn:devicemem.obj
 0001:00030d6c       freeWrapped                10031d6c f   srvkmcmn:devicemem.obj
 0001:000317a4       UnwrapExtMemoryCallBack    100327a4 f   srvkmcmn:devicemem.obj
 0001:00031df8       UnmapDeviceMemoryCallBack  10032df8 f   srvkmcmn:devicemem.obj
 0001:000325b0       UnmapDeviceClassMemoryCallBack 100335b0 f   srvkmcmn:devicemem.obj
 0001:00032870       BM_DestroyContext_AnyCb    10033870 f   srvkmcmn:buffer_manager.obj
 0001:00032cb0       BM_DestroyContextCallBack  10033cb0 f   srvkmcmn:buffer_manager.obj
 0001:00032de4       BM_DestroyContextCallBack_AnyVaCb 10033de4 f   srvkmcmn:buffer_manager.obj
 0001:00032eb4       BM_CreateContext_IncRefCount_AnyVaCb 10033eb4 f   srvkmcmn:buffer_manager.obj
 0001:00032f40       BM_CreateContext_InsertHeap_ForEachVaCb 10033f40 f   srvkmcmn:buffer_manager.obj
 0001:00033424       BM_CreateHeap_AnyVaCb      10034424 f   srvkmcmn:buffer_manager.obj
 0001:00033810       SysAcquireData             10034810 f   srvkmcmn:buffer_manager.obj
 0001:00033854       AllocMemory                10034854 f   srvkmcmn:buffer_manager.obj
 0001:00033e14       OSGetSubMemHandle          10034e14 f   srvkmcmn:buffer_manager.obj
 0001:00033e5c       ZeroBuf                    10034e5c f   srvkmcmn:buffer_manager.obj
 0001:00034160       OSMemHandleToCpuPAddr      10035160 f   srvkmcmn:buffer_manager.obj
 0001:00034600       WrapMemory                 10035600 f   srvkmcmn:buffer_manager.obj
 0001:00034e68       OSReleaseSubMemHandle      10035e68 f   srvkmcmn:buffer_manager.obj
 0001:00034e9c       FreeBuf                    10035e9c f   srvkmcmn:buffer_manager.obj
 0001:00035780       DevMemoryAlloc             10036780 f   srvkmcmn:buffer_manager.obj
 0001:00035a74       DevMemoryFree              10036a74 f   srvkmcmn:buffer_manager.obj
 0001:00035d5c       BM_ImportMemory            10036d5c f   srvkmcmn:buffer_manager.obj
 0001:00036760       XProcWorkaroundAllocShareable 10037760 f   srvkmcmn:buffer_manager.obj
 0001:00036d00       XProcWorkaroundFreeShareable 10037d00 f   srvkmcmn:buffer_manager.obj
 0001:00036fb4       XProcWorkaroundHandleToSI  10037fb4 f   srvkmcmn:buffer_manager.obj
 0001:000370ac       BM_FreeMemory              100380ac f   srvkmcmn:buffer_manager.obj
 0001:00039700       PVRSRVConnectServices      1003a700 f   srvclkm:bridged_pvr_glue.obj
 0001:0003a3f0       PVRPMapKMem                1003b3f0 f   srvclkm:bridged_pvr_glue.obj
 0001:0003a5fc       PVRUnMapKMem               1003b5fc f   srvclkm:bridged_pvr_glue.obj
 0001:0003a638       FlushClientOps             1003b638 f   srvclkm:bridged_pvr_glue.obj
 0001:0003e588       SysAcquireData             1003f588 f   system:sysconfig.obj
 0001:0003ee4c       SysInitialiseCommon        1003fe4c f   system:sysconfig.obj
 0001:0003ee84       SysPMRuntimeRegister       1003fe84 f   system:sysconfig.obj
 0001:0003ee9c       EnableSGXClocksWrap        1003fe9c f   system:sysconfig.obj
 0001:0003eef8       EnableSystemClocksWrap     1003fef8 f   system:sysconfig.obj
 0001:0003ef30       SysLocateDevices           1003ff30 f   system:sysconfig.obj
 0001:0003f4f0       SysDeinitialiseCommon      100404f0 f   system:sysconfig.obj
 0001:0003f514       SysPMRuntimeUnregister     10040514 f   system:sysconfig.obj
 0001:0003fee0       InitClockDivisor           10040ee0 f   system:sysutils.obj
 0001:00040d50       PVRSRVEnumerateDevicesBW   10041d50 f   srvkmbridged:bridged_pvr_bridge.obj
 0001:00040dc4       PVRSRVAcquireDeviceDataBW  10041dc4 f   srvkmbridged:bridged_pvr_bridge.obj
 0001:00040e88       PVRSRVCreateDeviceMemContextBW 10041e88 f   srvkmbridged:bridged_pvr_bridge.obj
 0001:00041214       NewHandleBatch             10042214 f   srvkmbridged:bridged_pvr_bridge.obj
 0001:00041298       CommitHandleBatch          10042298 f   srvkmbridged:bridged_pvr_bridge.obj
 0001:00041304       PVRSRVDestroyDeviceMemContextBW 10042304 f   srvkmbridged:bridged_pvr_bridge.obj
 0001:0004145c       PVRSRVGetDeviceMemHeapInfoBW 1004245c f   srvkmbridged:bridged_pvr_bridge.obj
 0001:00041744       PVRSRVAllocDeviceMemBW     10042744 f   srvkmbridged:bridged_pvr_bridge.obj
 0001:00041c4c       PVRSRVFreeDeviceMemBW      10042c4c f   srvkmbridged:bridged_pvr_bridge.obj
 0001:00041d94       PVRSRVExportDeviceMemBW    10042d94 f   srvkmbridged:bridged_pvr_bridge.obj
 0001:00041fa0       PVRSRVMapDeviceMemoryBW    10042fa0 f   srvkmbridged:bridged_pvr_bridge.obj
 0001:000424e0       PVRSRVUnmapDeviceMemoryBW  100434e0 f   srvkmbridged:bridged_pvr_bridge.obj
 0001:0004264c       PVRSRVMapDeviceClassMemoryBW 1004364c f   srvkmbridged:bridged_pvr_bridge.obj
 0001:00042a20       PVRSRVUnmapDeviceClassMemoryBW 10043a20 f   srvkmbridged:bridged_pvr_bridge.obj
 0001:00042b14       PVRSRVWrapExtMemoryBW      10043b14 f   srvkmbridged:bridged_pvr_bridge.obj
 0001:00042f9c       PVRSRVUnwrapExtMemoryBW    10043f9c f   srvkmbridged:bridged_pvr_bridge.obj
 0001:00043090       PVRSRVGetFreeDeviceMemBW   10044090 f   srvkmbridged:bridged_pvr_bridge.obj
 0001:00043110       PVRMMapOSMemHandleToMMapDataBW 10044110 f   srvkmbridged:bridged_pvr_bridge.obj
 0001:0004316c       PVRMMapReleaseMMapDataBW   1004416c f   srvkmbridged:bridged_pvr_bridge.obj
 0001:000431c8       PVRSRVChangeDeviceMemoryAttributesBW 100441c8 f   srvkmbridged:bridged_pvr_bridge.obj
 0001:0004320c       PVRSRVGetMiscInfoBW        1004420c f   srvkmbridged:bridged_pvr_bridge.obj
 0001:0004352c       PVRSRVConnectBW            1004452c f   srvkmbridged:bridged_pvr_bridge.obj
 0001:00043598       PVRSRVDisconnectBW         10044598 f   srvkmbridged:bridged_pvr_bridge.obj
 0001:000435f4       PVRSRVEnumerateDCBW        100445f4 f   srvkmbridged:bridged_pvr_bridge.obj
 0001:0004366c       PVRSRVOpenDCDeviceBW       1004466c f   srvkmbridged:bridged_pvr_bridge.obj
 0001:000437f8       PVRSRVCloseDCDeviceBW      100447f8 f   srvkmbridged:bridged_pvr_bridge.obj
 0001:000438f0       PVRSRVEnumDCFormatsBW      100448f0 f   srvkmbridged:bridged_pvr_bridge.obj
 0001:000439a8       PVRSRVEnumDCDimsBW         100449a8 f   srvkmbridged:bridged_pvr_bridge.obj
 0001:00043a68       PVRSRVGetDCSystemBufferBW  10044a68 f   srvkmbridged:bridged_pvr_bridge.obj
 0001:00043bf4       PVRSRVGetDCInfoBW          10044bf4 f   srvkmbridged:bridged_pvr_bridge.obj
 0001:00043ca4       PVRSRVCreateDCSwapChainBW  10044ca4 f   srvkmbridged:bridged_pvr_bridge.obj
 0001:00043ea0       PVRSRVDestroyDCSwapChainBW 10044ea0 f   srvkmbridged:bridged_pvr_bridge.obj
 0001:00043f94       PVRSRVSetDCDstRectBW       10044f94 f   srvkmbridged:bridged_pvr_bridge.obj
 0001:00044098       PVRSRVSetDCSrcRectBW       10045098 f   srvkmbridged:bridged_pvr_bridge.obj
 0001:0004419c       PVRSRVSetDCDstColourKeyBW  1004519c f   srvkmbridged:bridged_pvr_bridge.obj
 0001:000442a4       PVRSRVSetDCSrcColourKeyBW  100452a4 f   srvkmbridged:bridged_pvr_bridge.obj
 0001:000443ac       PVRSRVGetDCBuffersBW       100453ac f   srvkmbridged:bridged_pvr_bridge.obj
 0001:00044620       PVRSRVSwapToDCBufferBW     10045620 f   srvkmbridged:bridged_pvr_bridge.obj
 0001:00044760       PVRSRVSwapToDCSystemBW     10045760 f   srvkmbridged:bridged_pvr_bridge.obj
 0001:0004486c       PVRSRVOpenBCDeviceBW       1004586c f   srvkmbridged:bridged_pvr_bridge.obj
 0001:000449f8       PVRSRVCloseBCDeviceBW      100459f8 f   srvkmbridged:bridged_pvr_bridge.obj
 0001:00044af0       PVRSRVGetBCInfoBW          10045af0 f   srvkmbridged:bridged_pvr_bridge.obj
 0001:00044ba0       PVRSRVGetBCBufferBW        10045ba0 f   srvkmbridged:bridged_pvr_bridge.obj
 0001:00044d38       PVRSRVAllocSharedSysMemoryBW 10045d38 f   srvkmbridged:bridged_pvr_bridge.obj
 0001:00044efc       PVRSRVFreeSharedSysMemoryBW 10045efc f   srvkmbridged:bridged_pvr_bridge.obj
 0001:00044ff0       PVRSRVMapMemInfoMemBW      10045ff0 f   srvkmbridged:bridged_pvr_bridge.obj
 0001:000453b4       MMU_GetPDDevPAddrBW        100463b4 f   srvkmbridged:bridged_pvr_bridge.obj
 0001:000454c4       PVRSRVInitSrvConnectBW     100464c4 f   srvkmbridged:bridged_pvr_bridge.obj
 0001:0004558c       PVRSRVInitSrvDisconnectBW  1004658c f   srvkmbridged:bridged_pvr_bridge.obj
 0001:00045684       PVRSRVEventObjectWaitBW    10046684 f   srvkmbridged:bridged_pvr_bridge.obj
 0001:0004572c       PVRSRVEventObjectOpenBW    1004672c f   srvkmbridged:bridged_pvr_bridge.obj
 0001:000458d4       PVRSRVEventObjectCloseBW   100468d4 f   srvkmbridged:bridged_pvr_bridge.obj
 0001:000459d4       PVRSRVCreateSyncInfoModObjBW 100469d4 f   srvkmbridged:bridged_pvr_bridge.obj
 0001:00045b94       ModifyCompleteSyncOpsCallBack 10046b94 f   srvkmbridged:bridged_pvr_bridge.obj
 0001:00045e20       DoQuerySyncOpsSatisfied    10046e20 f   srvkmbridged:bridged_pvr_bridge.obj
 0001:00045ee8       DoModifyCompleteSyncOps    10046ee8 f   srvkmbridged:bridged_pvr_bridge.obj
 0001:00045ff8       PVRSRVDestroySyncInfoModObjBW 10046ff8 f   srvkmbridged:bridged_pvr_bridge.obj
 0001:00046184       PVRSRVModifyPendingSyncOpsBW 10047184 f   srvkmbridged:bridged_pvr_bridge.obj
 0001:00046424       PVRSRVModifyCompleteSyncOpsBW 10047424 f   srvkmbridged:bridged_pvr_bridge.obj
 0001:00046558       PVRSRVSyncOpsTakeTokenBW   10047558 f   srvkmbridged:bridged_pvr_bridge.obj
 0001:00046634       PVRSRVSyncOpsFlushToTokenBW 10047634 f   srvkmbridged:bridged_pvr_bridge.obj
 0001:00046760       PVRSRVSyncOpsFlushToModObjBW 10047760 f   srvkmbridged:bridged_pvr_bridge.obj
 0001:000468b0       PVRSRVSyncOpsFlushToDeltaBW 100478b0 f   srvkmbridged:bridged_pvr_bridge.obj
 0001:000469f0       PVRSRVAllocSyncInfoBW      100479f0 f   srvkmbridged:bridged_pvr_bridge.obj
 0001:00046bc4       FreeSyncInfoCallback       10047bc4 f   srvkmbridged:bridged_pvr_bridge.obj
 0001:00046c2c       PVRSRVFreeSyncInfoBW       10047c2c f   srvkmbridged:bridged_pvr_bridge.obj
 0001:00046fac       ReleaseHandleBatch         10047fac f   srvkmbridged:bridged_pvr_bridge.obj
 0001:000472a8       SGXGetClientInfoBW         100482a8 f   srvkmbridged:bridged_sgx_bridge.obj
 0001:00047360       SGXReleaseClientInfoBW     10048360 f   srvkmbridged:bridged_sgx_bridge.obj
 0001:0004745c       SGXGetInternalDevInfoBW    1004845c f   srvkmbridged:bridged_sgx_bridge.obj
 0001:00047558       SGXDoKickBW                10048558 f   srvkmbridged:bridged_sgx_bridge.obj
 0001:00047c58       SGXScheduleProcessQueuesBW 10048c58 f   srvkmbridged:bridged_sgx_bridge.obj
 0001:00047d00       SGXSubmitTransferBW        10048d00 f   srvkmbridged:bridged_sgx_bridge.obj
 0001:00048084       SGXGetMiscInfoBW           10049084 f   srvkmbridged:bridged_sgx_bridge.obj
 0001:00048234       SGXReadHWPerfCBBW          10049234 f   srvkmbridged:bridged_sgx_bridge.obj
 0001:000483c4       SGXDevInitPart2BW          100493c4 f   srvkmbridged:bridged_sgx_bridge.obj
 0001:00048f04       SGXRegisterHWRenderContextBW 10049f04 f   srvkmbridged:bridged_sgx_bridge.obj
 0001:0004908c       NewHandleBatch             1004a08c f   srvkmbridged:bridged_sgx_bridge.obj
 0001:00049110       CommitHandleBatch          1004a110 f   srvkmbridged:bridged_sgx_bridge.obj
 0001:0004917c       SGXUnregisterHWRenderContextBW 1004a17c f   srvkmbridged:bridged_sgx_bridge.obj
 0001:0004927c       SGXRegisterHWTransferContextBW 1004a27c f   srvkmbridged:bridged_sgx_bridge.obj
 0001:00049404       SGXUnregisterHWTransferContextBW 1004a404 f   srvkmbridged:bridged_sgx_bridge.obj
 0001:00049504       SGXFlushHWRenderTargetBW   1004a504 f   srvkmbridged:bridged_sgx_bridge.obj
 0001:000495c4       SGX2DQueryBlitsCompleteBW  1004a5c4 f   srvkmbridged:bridged_sgx_bridge.obj
 0001:000496dc       SGXFindSharedPBDescBW      1004a6dc f   srvkmbridged:bridged_sgx_bridge.obj
 0001:00049af4       SGXUnrefSharedPBDescBW     1004aaf4 f   srvkmbridged:bridged_sgx_bridge.obj
 0001:00049be8       SGXAddSharedPBDescBW       1004abe8 f   srvkmbridged:bridged_sgx_bridge.obj
 0001:0004a2a0       SGXGetInfoForSrvinitBW     1004b2a0 f   srvkmbridged:bridged_sgx_bridge.obj
 0001:0004a910       _DllMainCRTStartupHelper   1004b910 f   corelib0:pegdmain.obj
 0001:0004ac4c       doexit                     1004bc4c f   corelib0:cexit.obj
 0001:0004b458       OSWriteMemoryBarrier       1004c458 f   srvkmsgx:sgxinit.obj
 0001:0004b45c       OSMemoryBarrier            1004c45c f   srvkmsgx:sgxinit.obj
 0001:0004b460       SGXRunScript               1004c460 f   srvkmsgx:sgxinit.obj
 0001:0004b9a4       InitDevInfo                1004c9a4 f   srvkmsgx:sgxinit.obj
 0001:0004bd90       DeinitDevInfo              1004cd90 f   srvkmsgx:sgxinit.obj
 0001:0004c014       HWRecoveryResetSGX         1004d014 f   srvkmsgx:sgxinit.obj
 0001:0004c134       SGXDumpDebugInfo           1004d134 f   srvkmsgx:sgxinit.obj
 0001:0004c528       SGXDumpDebugReg            1004d528 f   srvkmsgx:sgxinit.obj
 0001:0004d0e0       SGXCommandComplete         1004e0e0 f   srvkmsgx:sgxinit.obj
 0001:0004d0f8       DevInitSGXPart1            1004e0f8 f   srvkmsgx:sgxinit.obj
 0001:0004d358       DevDeInitSGX               1004e358 f   srvkmsgx:sgxinit.obj
 0001:0004d674       SGX_MISRHandler            1004e674 f   srvkmsgx:sgxinit.obj
 0001:0004d6fc       SGXCacheInvalidate         1004e6fc f   srvkmsgx:sgxinit.obj
 0001:0004e1f8       SGXGetMiscInfoUkernel      1004f1f8 f   srvkmsgx:sgxinit.obj
 0001:0004ec18       SGXPostActivePowerEvent    1004fc18 f   srvkmsgx:sgxutils.obj
 0001:0004eff0       OSFlushCPUCacheKM          1004fff0 f   srvkmsgx:sgxutils.obj
 0001:0004eff4       OSCleanCPUCacheKM          1004fff4 f   srvkmsgx:sgxutils.obj
 0001:0004eff8       OSWriteMemoryBarrier       1004fff8 f   srvkmsgx:sgxutils.obj
 0001:0004effc       OSMemoryBarrier            1004fffc f   srvkmsgx:sgxutils.obj
 0001:0004f000       SysAcquireData             10050000 f   srvkmsgx:sgxutils.obj
 0001:0004f044       SGXAcquireKernelCCBSlot    10050044 f   srvkmsgx:sgxutils.obj
 0001:0004f78c       SGXCleanupHWRenderContextCallback 1005078c f   srvkmsgx:sgxutils.obj
 0001:0004f9d4       SGXCleanupHWTransferContextCallback 100509d4 f   srvkmsgx:sgxutils.obj
 0001:0004fd8c       SGX2DQuerySyncOpsComplete  10050d8c f   srvkmsgx:sgxutils.obj
 0001:000518d0       SGXCleanupSharedPBDescCallback 100528d0 f   srvkmsgx:pb.obj
 0001:00051918       SGXCleanupSharedPBDescKM   10052918 f   srvkmsgx:pb.obj
 0001:00051aac       List_PVRSRV_STUB_PBDESC_Remove 10052aac f   srvkmsgx:pb.obj
 0001:00051b0c       SGXCleanupSharedPBDescCreateLockCallback 10052b0c f   srvkmsgx:pb.obj
 0001:0005214c       List_PVRSRV_STUB_PBDESC_Insert 1005314c f   srvkmsgx:pb.obj
 0001:0005258c       SGXResetInitBIFContexts    1005358c f   srvkmsgx:sgxreset.obj
 0001:000525e4       SGXResetSetupBIFContexts   100535e4 f   srvkmsgx:sgxreset.obj
 0001:00052634       SGXResetSleep              10053634 f   srvkmsgx:sgxreset.obj
 0001:00052674       SGXResetSoftReset          10053674 f   srvkmsgx:sgxreset.obj
 0001:000526d8       SGXResetInvalDC            100536d8 f   srvkmsgx:sgxreset.obj
 0001:00052a24       SGXPollForClockGating      10053a24 f   srvkmsgx:sgxpower.obj
 0001:00052ca4       SGXUpdateTimingInfo        10053ca4 f   srvkmsgx:sgxpower.obj
 0001:00052f28       SGXAddTimer                10053f28 f   srvkmsgx:sgxpower.obj
 0001:00052fc8       SGXStartTimer              10053fc8 f   srvkmsgx:sgxpower.obj
 0001:0005367c       OSMemHandleToCpuPAddr      1005467c f   srvkmsgx:mmu.obj
 0001:000536c8       SysAcquireData             100546c8 f   srvkmsgx:mmu.obj
 0001:00053f80       _DeferredFreePageTables    10054f80 f   srvkmsgx:mmu.obj
 0001:00053ff0       _DeferredFreePageTable     10054ff0 f   srvkmsgx:mmu.obj
 0001:000543c4       _FreePageTableMemory       100553c4 f   srvkmsgx:mmu.obj
 0001:000544c4       MMU_FreePageTables         100554c4 f   srvkmsgx:mmu.obj
 0001:00054518       MMU_UnmapPagesAndFreePTs   10055518 f   srvkmsgx:mmu.obj
 0001:000547f0       CheckPT                    100557f0 f   srvkmsgx:mmu.obj
 0001:00054808       MMU_InvalidatePageTableCache 10055808 f   srvkmsgx:mmu.obj
 0001:00054a9c       _DeferredAllocPagetables   10055a9c f   srvkmsgx:mmu.obj
 0001:00054f1c       _AllocPageTableMemory      10055f1c f   srvkmsgx:mmu.obj
 0001:000554a4       MMU_MapPage                100564a4 f   srvkmsgx:mmu.obj
 0001:000568c4       SetupuKernel               100578c4 f   srvinitsgx:sgxinit.obj
 0001:000570a4       GetuKernelProgramHOSTKICKPOWEROffset 100580a4 f   srvinitsgx:sgxinit.obj
 0001:00057110       GetuKernelProgramHOSTKICKCONTEXTSUSPENDOffset 10058110 f   srvinitsgx:sgxinit.obj
 0001:0005717c       GetuKernelProgramHOSTKICKTRANSFEROffset 1005817c f   srvinitsgx:sgxinit.obj
 0001:000571e8       GetuKernelProgramHOSTKICKTAOffset 100581e8 f   srvinitsgx:sgxinit.obj
 0001:00057254       GetuKernelProgramHOSTKICKCLEANUPOffset 10058254 f   srvinitsgx:sgxinit.obj
 0001:000572c0       GetuKernelProgramHOSTKICKPROCESS_QUEUESOffset 100582c0 f   srvinitsgx:sgxinit.obj
 0001:0005732c       GetuKernelProgramHOSTKICKGETMISCINFOOffset 1005832c f   srvinitsgx:sgxinit.obj
 0001:00057398       GetuKernelProgramHOSTKICKSETHWPERFSTATUSOffset 10058398 f   srvinitsgx:sgxinit.obj
 0001:00057404       SGXInitGetAppHint          10058404 f   srvinitsgx:sgxinit.obj
 0001:00057428       InitSignatureBuffers       10058428 f   srvinitsgx:sgxinit.obj
 0001:00057548       LoaduKernel                10058548 f   srvinitsgx:sgxinit.obj
 0001:00057ffc       GetuKernelProgramIUKP1_PDSCONSTSIZESECOffset 10058ffc f   srvinitsgx:sgxinit.obj
 0001:00058068       GetuKernelProgramIUKP1_PDSDEVADDRSECOffset 10059068 f   srvinitsgx:sgxinit.obj
 0001:000580d4       GetuKernelProgramIUKP1_TA3DCTLOffset 100590d4 f   srvinitsgx:sgxinit.obj
 0001:00058140       GetuKernelProgramIUKP1_PDSCONSTSIZEPRIM2Offset 10059140 f   srvinitsgx:sgxinit.obj
 0001:000581ac       GetuKernelProgramIUKP1_PDSDEVADDRPRIM2Offset 100591ac f   srvinitsgx:sgxinit.obj
 0001:00058218       GetuKernelProgramIUKP2_PDSEXECOffset 10059218 f   srvinitsgx:sgxinit.obj
 0001:00058284       GetuKernelProgramIUKP2_PDSDATAOffset 10059284 f   srvinitsgx:sgxinit.obj
 0001:000582f0       GetuKernelProgramEVENTHANDLEROffset 100592f0 f   srvinitsgx:sgxinit.obj
 0001:0005835c       GetuKernelProgramELB_PDSCONSTSIZEOffset 1005935c f   srvinitsgx:sgxinit.obj
 0001:000583c8       GetuKernelProgramELB_PDSDEVADDROffset 100593c8 f   srvinitsgx:sgxinit.obj
 0001:00058434       GetuKernelProgramTA_TAHANDLEROffset 10059434 f   srvinitsgx:sgxinit.obj
 0001:000584a0       GetuKernelProgramTA_TAEVENTHANDLEROffset 100594a0 f   srvinitsgx:sgxinit.obj
 0001:0005850c       GetuKernelProgramTA_ELB_PDSCONSTSIZEOffset 1005950c f   srvinitsgx:sgxinit.obj
 0001:00058578       GetuKernelProgramTA_ELB_PDSDEVADDROffset 10059578 f   srvinitsgx:sgxinit.obj
 0001:000585e4       GetuKernelProgram3D_THREEDHANDLEROffset 100595e4 f   srvinitsgx:sgxinit.obj
 0001:00058650       GetuKernelProgram3D_THREEDEVENTHANDLEROffset 10059650 f   srvinitsgx:sgxinit.obj
 0001:000586bc       GetuKernelProgram3D_ELB_PDSCONSTSIZEOffset 100596bc f   srvinitsgx:sgxinit.obj
 0001:00058728       GetuKernelProgram3D_ELB_PDSDEVADDROffset 10059728 f   srvinitsgx:sgxinit.obj
 0001:00058794       GetuKernelProgramSize      10059794 f   srvinitsgx:sgxinit.obj
 0001:00058818       GetuKernelProgramBuffer    10059818 f   srvinitsgx:sgxinit.obj
 0001:00058884       GetuKernelTAProgramSize    10059884 f   srvinitsgx:sgxinit.obj
 0001:00058908       GetuKernelTAProgramBuffer  10059908 f   srvinitsgx:sgxinit.obj
 0001:00058974       GetuKernelSPMProgramSize   10059974 f   srvinitsgx:sgxinit.obj
 0001:000589a4       GetuKernelSPMProgramBuffer 100599a4 f   srvinitsgx:sgxinit.obj
 0001:000589c0       GetuKernel3DProgramSize    100599c0 f   srvinitsgx:sgxinit.obj
 0001:00058a44       GetuKernel3DProgramBuffer  10059a44 f   srvinitsgx:sgxinit.obj
 0001:00058ab0       PatchLIMM                  10059ab0 f   srvinitsgx:sgxinit.obj
 0001:00058b54       LoaduKernelPDSInitPrograms 10059b54 f   srvinitsgx:sgxinit.obj
 0001:00059104       GetuKernelProgramINITUKERNELPRIMARY1Offset 1005a104 f   srvinitsgx:sgxinit.obj
 0001:00059170       GetuKernelProgramINITUKERNELSECONDARYOffset 1005a170 f   srvinitsgx:sgxinit.obj
 0001:000591dc       GetuKernelProgramINITUKERNELPRIMARY2Offset 1005a1dc f   srvinitsgx:sgxinit.obj
 0001:00059248       LoaduKernelProgram         1005a248 f   srvinitsgx:sgxinit.obj
 0001:00059354       AllocateuKernelBuffer      1005a354 f   srvinitsgx:sgxinit.obj
 0001:00059410       SGXInitialisePart1         1005a410 f   srvinitsgx:sgxinit.obj
 0001:00059494       ScriptWriteSGXReg          1005a494 f   srvinitsgx:sgxinit.obj
 0001:000594f8       NextScriptCommand          1005a4f8 f   srvinitsgx:sgxinit.obj
 0001:00059584       OutOfScriptSpace           1005a584 f   srvinitsgx:sgxinit.obj
 0001:000595dc       ScriptHalt                 1005a5dc f   srvinitsgx:sgxinit.obj
 0001:00059638       SGXInitialisePart2         1005a638 f   srvinitsgx:sgxinit.obj
 0001:00059a38       SGXDeinitialise            1005aa38 f   srvinitsgx:sgxinit.obj
 0001:00059b24       SGXMiscInit                1005ab24 f   srvinitsgx:sgxinit.obj
 0001:00059e10       AllocateDumyStencilBuffers 1005ae10 f   srvinitsgx:sgxinit.obj
 0001:0005a740       FreeSharedSysMemCallBack   1005b740 f   srvkmcmn:mem.obj
