 usc

 Timestamp is 4f20d48e (Wed Jan 25 23:20:30 2012)

 Preferred load address is 10000000

 Start         Length     Name                   Class
 0001:00000000 00000004H .CRT$XCA                CODE
 0001:00000004 00000004H .CRT$XCZ                CODE
 0001:00000008 00000004H .CRT$XIA                CODE
 0001:0000000c 00000004H .CRT$XIZ                CODE
 0001:00000010 00000004H .CRT$XPA                CODE
 0001:00000014 00000004H .CRT$XPZ                CODE
 0001:00000018 00000004H .CRT$XTA                CODE
 0001:0000001c 00000004H .CRT$XTZ                CODE
 0001:00000020 0001a108H .rdata                  CODE
 0001:0001a128 00000020H .rdata$debug            CODE
 0001:0001a148 001651ccH .text                   CODE
 0001:0017f314 00000040H .xdata                  CODE
 0001:0017f354 00000014H .idata$2                CODE
 0001:0017f368 00000014H .idata$3                CODE
 0001:0017f37c 00000070H .idata$4                CODE
 0001:0017f3ec 0000000cH .idata$6                CODE
 0001:0017f400 00000189H .edata                  CODE
 0002:00000000 00000070H .idata$5                DATA
 0002:00000070 00000008H .data                   DATA
 0002:00000078 00000010H .bss                    DATA
 0003:00000000 00005068H .pdata                  DATA

  Address         Publics by Value              Rva+Base       Lib:Object

 0000:00000000       ___safe_se_handler_count   00000000     <absolute>
 0000:00000000       ___safe_se_handler_table   00000000     <absolute>
 0001:00000000       __xc_a                     10001000     corelib0:crt0init.obj
 0001:00000004       __xc_z                     10001004     corelib0:crt0init.obj
 0001:00000008       __xi_a                     10001008     corelib0:crt0init.obj
 0001:0000000c       __xi_z                     1000100c     corelib0:crt0init.obj
 0001:00000010       __xp_a                     10001010     corelib0:crt0init.obj
 0001:00000014       __xp_z                     10001014     corelib0:crt0init.obj
 0001:00000018       __xt_a                     10001018     corelib0:crt0init.obj
 0001:0000001c       __xt_z                     1000101c     corelib0:crt0init.obj
 0001:00000048       ??_C@_1FK@FNONLNGN@?$AA?$CF?$AAs?$AA?3?$AA?5?$AAD?$AAE?$AAB?$AAU?$AAG?$AAC?$AAH?$AAK?$AA?5?$AAf?$AAa?$AAi?$AAl?$AAe?$AAd?$AA?5?$AAi?$AAn?$AA?5?$AAf?$AAi?$AAl?$AAe?$AA?5?$AA?$CF?$AAs?$AA?5?$AAa@ 10001048     asm.obj
 0001:000000a4       ??_C@_1BA@LEPJIIOK@?$AAU?$AAn?$AAk?$AAn?$AAo?$AAw?$AAn?$AA?$AA@ 100010a4     asm.obj
 0001:000000b8       ??_C@_1JO@OGKCGACG@?$AAc?$AA?3?$AA?2?$AAd?$AAa?$AAt?$AAa?$AA?2?$AAj?$AAa?$AAt?$AAi?$AAn?$AA?2?$AAp?$AAo?$AAw?$AAe?$AAr?$AAv?$AAr?$AA_?$AAb?$AAu?$AAi?$AAl?$AAd?$AA?2?$AAd?$AAd?$AAk?$AA1@ 100010b8     asm.obj
 0001:00000158       ??_C@_0EP@HHJAHHD@c?3?2data?2jatin?2powervr_build?2ddk1@ 10001158     asm.obj
 0001:000001b0       ??_C@_0FA@ENDIEONJ@c?3?2data?2jatin?2powervr_build?2ddk1@ 100011b0     data.obj
 0001:00000200       ??_C@_1KA@FLLPCCOM@?$AAc?$AA?3?$AA?2?$AAd?$AAa?$AAt?$AAa?$AA?2?$AAj?$AAa?$AAt?$AAi?$AAn?$AA?2?$AAp?$AAo?$AAw?$AAe?$AAr?$AAv?$AAr?$AA_?$AAb?$AAu?$AAi?$AAl?$AAd?$AA?2?$AAd?$AAd?$AAk?$AA1@ 10001200     data.obj
 0001:000002a0       ??_C@_0FG@BEBGHBME@c?3?2data?2jatin?2powervr_build?2ddk1@ 100012a0     data.obj
 0001:000002f8       ??_C@_1KM@CAMHAIAH@?$AAc?$AA?3?$AA?2?$AAd?$AAa?$AAt?$AAa?$AA?2?$AAj?$AAa?$AAt?$AAi?$AAn?$AA?2?$AAp?$AAo?$AAw?$AAe?$AAr?$AAv?$AAr?$AA_?$AAb?$AAu?$AAi?$AAl?$AAd?$AA?2?$AAd?$AAd?$AAk?$AA1@ 100012f8     data.obj
 0001:000003a8       ??_C@_0EP@PCOACJKN@c?3?2data?2jatin?2powervr_build?2ddk1@ 100013a8     dce.obj
 0001:000003f8       ??_C@_1JO@IKEKINGL@?$AAc?$AA?3?$AA?2?$AAd?$AAa?$AAt?$AAa?$AA?2?$AAj?$AAa?$AAt?$AAi?$AAn?$AA?2?$AAp?$AAo?$AAw?$AAe?$AAr?$AAv?$AAr?$AA_?$AAb?$AAu?$AAi?$AAl?$AAd?$AA?2?$AAd?$AAd?$AAk?$AA1@ 100013f8     dce.obj
 0001:00000498       ??_C@_0FC@EIAAMGGB@c?3?2data?2jatin?2powervr_build?2ddk1@ 10001498     dgraph.obj
 0001:000004f0       ??_C@_1KE@HNFFOCFB@?$AAc?$AA?3?$AA?2?$AAd?$AAa?$AAt?$AAa?$AA?2?$AAj?$AAa?$AAt?$AAi?$AAn?$AA?2?$AAp?$AAo?$AAw?$AAe?$AAr?$AAv?$AAr?$AA_?$AAb?$AAu?$AAi?$AAl?$AAd?$AA?2?$AAd?$AAd?$AAk?$AA1@ 100014f0     dgraph.obj
 0001:00000598       ??_C@_1KG@MFMNDGJL@?$AAc?$AA?3?$AA?2?$AAd?$AAa?$AAt?$AAa?$AA?2?$AAj?$AAa?$AAt?$AAi?$AAn?$AA?2?$AAp?$AAo?$AAw?$AAe?$AAr?$AAv?$AAr?$AA_?$AAb?$AAu?$AAi?$AAl?$AAd?$AA?2?$AAd?$AAd?$AAk?$AA1@ 10001598     domcalc.obj
 0001:00000640       ??_C@_0FD@NBMHBAFH@c?3?2data?2jatin?2powervr_build?2ddk1@ 10001640     domcalc.obj
 0001:00000694       ??_C@_04GHFGAMGM@BEEF?$AA@ 10001694     efo.obj
 0001:0000069c       ??_C@_04CAPGHGLM@AEEF?$AA@ 1000169c     efo.obj
 0001:000006a4       ??_C@_04BMCBJMBE@AFBE?$AA@ 100016a4     efo.obj
 0001:000006ac       ??_C@_04CFLJGADJ@AEBF?$AA@ 100016ac     efo.obj
 0001:000006b4       ??_C@_03MIIOGCGK@FBC?$AA@  100016b4     efo.obj
 0001:000006b8       ??_C@_03MKMINMDD@FAC?$AA@  100016b8     efo.obj
 0001:000006bc       ??_C@_03NKDLMNIE@EBC?$AA@  100016bc     efo.obj
 0001:000006c0       ??_C@_03NIHNHDNN@EAC?$AA@  100016c0     efo.obj
 0001:000006c4       ??_C@_04GDNLHANO@BECF?$AA@ 100016c4     efo.obj
 0001:000006cc       ??_C@_04CEHLAKAO@AECF?$AA@ 100016cc     efo.obj
 0001:000006d4       ??_C@_03EFKKELGE@BAC?$AA@  100016d4     efo.obj
 0001:000006d8       ??_C@_03FFFJFKND@ABC?$AA@  100016d8     efo.obj
 0001:000006dc       ??_C@_02MJNHLAAE@EG?$AA@   100016dc     efo.obj
 0001:000006e0       ??_C@_03BGNCNGMO@A?9C?$AA@ 100016e0     efo.obj
 0001:000006e4       ??_C@_03EGHHJCA@B?9C?$AA@  100016e4     efo.obj
 0001:000006e8       ??_C@_02MLJBAOFN@FG?$AA@   100016e8     efo.obj
 0001:000006ec       ??_C@_03PNNMIEJN@E?9G?$AA@ 100016ec     efo.obj
 0001:000006f0       ??_C@_02KKLCNNNM@AC?$AA@   100016f0     efo.obj
 0001:000006f4       ??_C@_03OPGJCLHD@F?9G?$AA@ 100016f4     efo.obj
 0001:000006f8       ??_C@_02KIPEGDIF@BC?$AA@   100016f8     efo.obj
 0001:000006fc       ??_C@_03HAJFIBDK@BEA?$AA@  100016fc     efo.obj
 0001:00000700       ??_C@_03HCNDDPGD@BFA?$AA@  10001700     efo.obj
 0001:00000704       ??_C@_03EJANHNBH@AEB?$AA@  10001704     efo.obj
 0001:00000708       ??_C@_03ELELMDEO@AFB?$AA@  10001708     efo.obj
 0001:0000070c       ??_C@_02IPBDCKJM@?9G?$AA@  1000170c     efo.obj
 0001:00000710       ??_C@_01GFHCPBMG@C?$AA@    10001710     efo.obj
 0001:00000714       ??_C@_02OLHPOPJI@?9C?$AA@  10001714     efo.obj
 0001:00000718       ??_C@_01BBODEMC@G?$AA@     10001718     efo.obj
 0001:0000071c       ??_C@_03JNKHJILP@_EF?$AA@  1000171c     efo.obj
 0001:00000720       ??_C@_02NJEJINBK@?9A?$AA@  10001720     efo.obj
 0001:00000724       ??_C@_03MIGDBDOF@F1E?$AA@  10001724     efo.obj
 0001:00000728       ??_C@_02PCGENONJ@?9B?$AA@  10001728     efo.obj
 0001:0000072c       ??_C@_03PBPLOPMI@E1F?$AA@  1000172c     efo.obj
 0001:00000730       ??_C@_02LNCFEIBO@?9E?$AA@  10001730     efo.obj
 0001:00000734       ??_C@_03CDGNEBLG@B1A?$AA@  10001734     efo.obj
 0001:00000738       ??_C@_02JGAIBLNN@?9F?$AA@  10001738     efo.obj
 0001:0000073c       ??_C@_03BKPFLNJL@A1B?$AA@  1000173c     efo.obj
 0001:00000740       ??_C@_03MBGGECJM@EAB?$AA@  10001740     efo.obj
 0001:00000744       ??_C@_02NAMMIBEF@EF?$AA@   10001744     efo.obj
 0001:00000748       ??_C@_03CNGBLIBD@AEF?$AA@  10001748     efo.obj
 0001:0000074c       ??_C@_02LDKJOMJN@AB?$AA@   1000174c     efo.obj
 0001:00000750       ??_C@_03BDPAOMOC@BAE?$AA@  10001750     efo.obj
 0001:00000754       ??_C@_02NFIDJHMA@BF?$AA@   10001754     efo.obj
 0001:00000758       ??_C@_03DINNLPCB@BAF?$AA@  10001758     efo.obj
 0001:0000075c       ??_C@_02POKOMEAD@BE?$AA@   1000175c     efo.obj
 0001:00000760       ??_C@_03DADPNFF@ABE?$AA@   10001760     efo.obj
 0001:00000764       ??_C@_02NHMFCJJJ@AF?$AA@   10001764     efo.obj
 0001:00000768       ??_C@_03CICOKOJG@ABF?$AA@  10001768     efo.obj
 0001:0000076c       ??_C@_02PMOIHKFK@AE?$AA@   1000176c     efo.obj
 0001:00000770       ??_C@_03KGJCAALM@BF_?$AA@  10001770     efo.obj
 0001:00000774       ??_C@_03KENELOOF@BE_?$AA@  10001774     efo.obj
 0001:00000778       ??_C@_03LECHKPFC@AF_?$AA@  10001778     efo.obj
 0001:0000077c       ??_C@_03LGGBBBAL@AE_?$AA@  1000177c     efo.obj
 0001:00000780       ??_C@_03COPJDPDH@FB_?$AA@  10001780     efo.obj
 0001:00000784       ??_C@_01FHEEJDEE@A?$AA@    10001784     efo.obj
 0001:00000788       ??_C@_03DMEMJANJ@EB_?$AA@  10001788     efo.obj
 0001:0000078c       ??_C@_01DDCIFGEA@E?$AA@    1000178c     efo.obj
 0001:00000790       ??_C@_03CMLPIBGO@FA_?$AA@  10001790     efo.obj
 0001:00000794       ??_C@_01BIAFAFID@F?$AA@    10001794     efo.obj
 0001:00000798       ??_C@_01HMGJMAIH@B?$AA@    10001798     efo.obj
 0001:0000079c       ??_C@_03DOAKCOIA@EA_?$AA@  1000179c     efo.obj
 0001:000007a0       ??_C@_00CNPNBAHC@?$AA@     100017a0     efo.obj
 0001:00001470       ??_C@_1JO@GGAGBGII@?$AAc?$AA?3?$AA?2?$AAd?$AAa?$AAt?$AAa?$AA?2?$AAj?$AAa?$AAt?$AAi?$AAn?$AA?2?$AAp?$AAo?$AAw?$AAe?$AAr?$AAv?$AAr?$AA_?$AAb?$AAu?$AAi?$AAl?$AAd?$AA?2?$AAd?$AAd?$AAk?$AA1@ 10002470     efo.obj
 0001:00001510       ??_C@_0EP@JOOBJFBM@c?3?2data?2jatin?2powervr_build?2ddk1@ 10002510     efo.obj
 0001:00001560       ??_C@_1KI@MBDCFFCA@?$AAc?$AA?3?$AA?2?$AAd?$AAa?$AAt?$AAa?$AA?2?$AAj?$AAa?$AAt?$AAi?$AAn?$AA?2?$AAp?$AAo?$AAw?$AAe?$AAr?$AAv?$AAr?$AA_?$AAb?$AAu?$AAi?$AAl?$AAd?$AA?2?$AAd?$AAd?$AAk?$AA1@ 10002560     regalloc.obj
 0001:00001608       ??_C@_0FE@IIHPDKDD@c?3?2data?2jatin?2powervr_build?2ddk1@ 10002608     regalloc.obj
 0001:00001660       ??_C@_1JO@FBCOAGAK@?$AAc?$AA?3?$AA?2?$AAd?$AAa?$AAt?$AAa?$AA?2?$AAj?$AAa?$AAt?$AAi?$AAn?$AA?2?$AAp?$AAo?$AAw?$AAe?$AAr?$AAv?$AAr?$AA_?$AAb?$AAu?$AAi?$AAl?$AAd?$AA?2?$AAd?$AAd?$AAk?$AA1@ 10002660     ssa.obj
 0001:00001700       ??_C@_0EP@DLBBLFL@c?3?2data?2jatin?2powervr_build?2ddk1@ 10002700     ssa.obj
 0001:00001820       ??_C@_1KK@EKCNANOO@?$AAc?$AA?3?$AA?2?$AAd?$AAa?$AAt?$AAa?$AA?2?$AAj?$AAa?$AAt?$AAi?$AAn?$AA?2?$AAp?$AAo?$AAw?$AAe?$AAr?$AAv?$AAr?$AA_?$AAb?$AAu?$AAi?$AAl?$AAd?$AA?2?$AAd?$AAd?$AAk?$AA1@ 10002820     groupinst.obj
 0001:000018d0       ??_C@_0FF@OGHIANE@c?3?2data?2jatin?2powervr_build?2ddk1@ 100028d0     groupinst.obj
 0001:00001928       ??_C@_0FE@LBBALMHK@c?3?2data?2jatin?2powervr_build?2ddk1@ 10002928     icvt_c10.obj
 0001:00001980       ??_C@_1KI@OIAFLMEF@?$AAc?$AA?3?$AA?2?$AAd?$AAa?$AAt?$AAa?$AA?2?$AAj?$AAa?$AAt?$AAi?$AAn?$AA?2?$AAp?$AAo?$AAw?$AAe?$AAr?$AAv?$AAr?$AA_?$AAb?$AAu?$AAi?$AAl?$AAd?$AA?2?$AAd?$AAd?$AAk?$AA1@ 10002980     icvt_c10.obj
 0001:00001a28       __real@3f800000            10002a28     icvt_c10.obj
 0001:00001a2c       __real@00000000            10002a2c     icvt_c10.obj
 0001:00001a30       ??_C@_1KI@EEOCIDGE@?$AAc?$AA?3?$AA?2?$AAd?$AAa?$AAt?$AAa?$AA?2?$AAj?$AAa?$AAt?$AAi?$AAn?$AA?2?$AAp?$AAo?$AAw?$AAe?$AAr?$AAv?$AAr?$AA_?$AAb?$AAu?$AAi?$AAl?$AAd?$AA?2?$AAd?$AAd?$AAk?$AA1@ 10002a30     icvt_i32.obj
 0001:00001ad8       __real@47800000            10002ad8     icvt_i32.obj
 0001:00001adc       __real@4f000000            10002adc     icvt_i32.obj
 0001:00001ae0       __real@4f800000            10002ae0     icvt_i32.obj
 0001:00001ae4       __real@cf000000            10002ae4     icvt_i32.obj
 0001:00001ae8       ??_C@_0FE@MAECAEPH@c?3?2data?2jatin?2powervr_build?2ddk1@ 10002ae8     icvt_i32.obj
 0001:00001b40       ??_C@_1KI@DGHGBMBF@?$AAc?$AA?3?$AA?2?$AAd?$AAa?$AAt?$AAa?$AA?2?$AAj?$AAa?$AAt?$AAi?$AAn?$AA?2?$AAp?$AAo?$AAw?$AAe?$AAr?$AAv?$AAr?$AA_?$AAb?$AAu?$AAi?$AAl?$AAd?$AA?2?$AAd?$AAd?$AAk?$AA1@ 10002b40     icvt_f32.obj
 0001:00001be8       ??_C@_0FE@DBBELGCC@c?3?2data?2jatin?2powervr_build?2ddk1@ 10002be8     icvt_f32.obj
 0001:00001c3c       ??_C@_0DB@KKEGBLC@MSAA?5sample?5index?5isn?8t?5supporte@ 10002c3c     icvt_f32.obj
 0001:00001c70       ??_C@_0CM@FKMLGAIF@LDBUF?5not?5supported?5for?5USP?5Bina@ 10002c70     icvt_f32.obj
 0001:00001e08       ??_C@_1KK@OOHOGNIJ@?$AAc?$AA?3?$AA?2?$AAd?$AAa?$AAt?$AAa?$AA?2?$AAj?$AAa?$AAt?$AAi?$AAn?$AA?2?$AAp?$AAo?$AAw?$AAe?$AAr?$AAv?$AAr?$AA_?$AAb?$AAu?$AAi?$AAl?$AAd?$AA?2?$AAd?$AAd?$AAk?$AA1@ 10002e08     icvt_core.obj
 0001:00001eb8       ??_C@_0FF@NOFBBDPL@c?3?2data?2jatin?2powervr_build?2ddk1@ 10002eb8     icvt_core.obj
 0001:00001f10       __real@34000001            10002f10     icvt_core.obj
 0001:00001f18       ??_C@_0EM@HMAHOPEC@A?5texture?5sample?5returning?5prefi@ 10002f18     icvt_core.obj
 0001:00001f64       ??_C@_0DH@JILFFLJA@The?5LDGATHER4?5instruction?5isn?8t?5@ 10002f64     icvt_core.obj
 0001:00001f9c       ??_C@_0DD@MAPGFBOK@The?5LDLOD?5instruction?5isn?8t?5supp@ 10002f9c     icvt_core.obj
 0001:00001fd0       ??_C@_0CK@IIKBJMGF@Texture?5dimensionality?5must?5be?51@ 10002fd0     icvt_core.obj
 0001:00001ffc       ??_C@_0CG@CMJKHJNK@PCF?5isn?8t?5supported?5on?5this?5proc@ 10002ffc     icvt_core.obj
 0001:00002024       ??_C@_0DH@IDGMMIIA@Texture?5array?5of?5arrays?0?5dimensi@ 10003024     icvt_core.obj
 0001:0000205c       ??_C@_0DF@BEHGFGAJ@Pixelflex?5only?5supports?5texture?5@ 1000305c     icvt_core.obj
 0001:00002094       ??_C@_0O@MNLANCOH@MAIN?5FUNCTION?$AA@ 10003094     icvt_core.obj
 0001:000020a4       ??_C@_0BM@FOPGMAHE@Destination?5label?5not?5found?$AA@ 100030a4     icvt_core.obj
 0001:000020c0       ??_C@_0CI@BNIJLCI@?$HLIF?1BREAK?1CALL?$HNP?5with?5invalid?5sw@ 100030c0     icvt_core.obj
 0001:000020e8       ??_C@_0CM@FBJPAGGL@if?5source?5argument?5must?5be?5a?5boo@ 100030e8     icvt_core.obj
 0001:00002114       ??_C@_0DI@IPLDEMFP@if?5source?5argument?5must?5be?5eithe@ 10003114     icvt_core.obj
 0001:0000214c       ??_C@_0BF@MFMPPLG@No?5loop?5terminator?4?6?$AA@ 1000314c     icvt_core.obj
 0001:00002164       ??_C@_0DB@ONLOLBAJ@Geometry?5shaders?5aren?8t?5supporte@ 10003164     icvt_core.obj
 0001:00002198       ??_C@_0CG@MEIODFBA@More?5than?5one?5split?5points?5in?5pr@ 10003198     icvt_core.obj
 0001:000021c0       ??_C@_0CM@GKBCMCOM@Using?5register?5with?5inconsistent@ 100031c0     icvt_core.obj
 0001:000021f0       ??_C@_0EJ@IDABGGOD@At?5least?52?5Output?5Partitions?5are@ 100031f0     icvt_core.obj
 0001:0000223c       ??_C@_0DE@JNBKGFAH@Output?5Vertex?5size?5is?5more?5than?5@ 1000323c     icvt_core.obj
 0001:00002280       ??_C@_1KI@LGMJMCNC@?$AAc?$AA?3?$AA?2?$AAd?$AAa?$AAt?$AAa?$AA?2?$AAj?$AAa?$AAt?$AAi?$AAn?$AA?2?$AAp?$AAo?$AAw?$AAe?$AAr?$AAv?$AAr?$AA_?$AAb?$AAu?$AAi?$AAl?$AAd?$AA?2?$AAd?$AAd?$AAk?$AA1@ 10003280     icvt_f16.obj
 0001:00002328       __real@bf800000            10003328     icvt_f16.obj
 0001:00002330       ??_C@_0FE@MELGHCBF@c?3?2data?2jatin?2powervr_build?2ddk1@ 10003330     icvt_f16.obj
 0001:00002388       ??_C@_1KI@ONGEINBK@?$AAc?$AA?3?$AA?2?$AAd?$AAa?$AAt?$AAa?$AA?2?$AAj?$AAa?$AAt?$AAi?$AAn?$AA?2?$AAp?$AAo?$AAw?$AAe?$AAr?$AAv?$AAr?$AA_?$AAb?$AAu?$AAi?$AAl?$AAd?$AA?2?$AAd?$AAd?$AAk?$AA1@ 10003388     indexreg.obj
 0001:00002430       ??_C@_0FE@CPBAOELE@c?3?2data?2jatin?2powervr_build?2ddk1@ 10003430     indexreg.obj
 0001:00002688       g_psInstDesc               10003688     inst.obj
 0001:00006420       ??_C@_1KA@EIFGOJPA@?$AAc?$AA?3?$AA?2?$AAd?$AAa?$AAt?$AAa?$AA?2?$AAj?$AAa?$AAt?$AAi?$AAn?$AA?2?$AAp?$AAo?$AAw?$AAe?$AAr?$AAv?$AAr?$AA_?$AAb?$AAu?$AAi?$AAl?$AAd?$AA?2?$AAd?$AAd?$AAk?$AA1@ 10007420     inst.obj
 0001:000064c0       ??_C@_0FA@IFOOGHB@c?3?2data?2jatin?2powervr_build?2ddk1@ 100074c0     inst.obj
 0001:00006520       ??_C@_0FC@BNJHLDKL@c?3?2data?2jatin?2powervr_build?2ddk1@ 10007520     intcvt.obj
 0001:00006578       ??_C@_1KE@GBHGKCGO@?$AAc?$AA?3?$AA?2?$AAd?$AAa?$AAt?$AAa?$AA?2?$AAj?$AAa?$AAt?$AAi?$AAn?$AA?2?$AAp?$AAo?$AAw?$AAe?$AAr?$AAv?$AAr?$AA_?$AAb?$AAu?$AAi?$AAl?$AAd?$AA?2?$AAd?$AAd?$AAk?$AA1@ 10007578     intcvt.obj
 0001:00006650       ??_C@_0FF@LFHNADEI@c?3?2data?2jatin?2powervr_build?2ddk1@ 10007650     iregalloc.obj
 0001:000066a8       ??_C@_1KK@DPEEPCAM@?$AAc?$AA?3?$AA?2?$AAd?$AAa?$AAt?$AAa?$AA?2?$AAj?$AAa?$AAt?$AAi?$AAn?$AA?2?$AAp?$AAo?$AAw?$AAe?$AAr?$AAv?$AAr?$AA_?$AAb?$AAu?$AAi?$AAl?$AAd?$AA?2?$AAd?$AAd?$AAk?$AA1@ 100076a8     iregalloc.obj
 0001:00006808       ??_C@_0FD@JPGPPLDP@c?3?2data?2jatin?2powervr_build?2ddk1@ 10007808     iselect.obj
 0001:00006860       ??_C@_1KG@OADCGGFN@?$AAc?$AA?3?$AA?2?$AAd?$AAa?$AAt?$AAa?$AA?2?$AAj?$AAa?$AAt?$AAi?$AAn?$AA?2?$AAp?$AAo?$AAw?$AAe?$AAr?$AAv?$AAr?$AA_?$AAb?$AAu?$AAi?$AAl?$AAd?$AA?2?$AAd?$AAd?$AAk?$AA1@ 10007860     iselect.obj
 0001:00006908       ??_C@_0FD@KHPHFMEB@c?3?2data?2jatin?2powervr_build?2ddk1@ 10007908     iselect.obj
 0001:00006960       ??_C@_1KE@FCKBCCGK@?$AAc?$AA?3?$AA?2?$AAd?$AAa?$AAt?$AAa?$AA?2?$AAj?$AAa?$AAt?$AAi?$AAn?$AA?2?$AAp?$AAo?$AAw?$AAe?$AAr?$AAv?$AAr?$AA_?$AAb?$AAu?$AAi?$AAl?$AAd?$AA?2?$AAd?$AAd?$AAk?$AA1@ 10007960     layout.obj
 0001:00006a08       ??_C@_0FC@NPJFDPCD@c?3?2data?2jatin?2powervr_build?2ddk1@ 10007a08     layout.obj
 0001:00006a5c       ??_C@_0CF@PJEBCOKN@Error?5generating?5SA?9update?5USSE?5@ 10007a5c     layout.obj
 0001:00006a84       ??_C@_0CA@BIADDCMB@Error?5generating?5main?5USSE?5code?$AA@ 10007a84     layout.obj
 0001:00006aa4       ??_C@_0CG@HHEEPOEO@Error?5generating?5subroutine?5USSE@ 10007aa4     layout.obj
 0001:00006acc       g_aeOtherAlignment         10007acc     reggroup.obj
 0001:00006adc       g_auRequiredAlignment      10007adc     reggroup.obj
 0001:00006af0       ??_C@_1KI@IKKMKADB@?$AAc?$AA?3?$AA?2?$AAd?$AAa?$AAt?$AAa?$AA?2?$AAj?$AAa?$AAt?$AAi?$AAn?$AA?2?$AAp?$AAo?$AAw?$AAe?$AAr?$AAv?$AAr?$AA_?$AAb?$AAu?$AAi?$AAl?$AAd?$AA?2?$AAd?$AAd?$AAk?$AA1@ 10007af0     reggroup.obj
 0001:00006b98       ??_C@_0FE@JHJJNBNL@c?3?2data?2jatin?2powervr_build?2ddk1@ 10007b98     reggroup.obj
 0001:00006bf0       ??_C@_1KG@BLBHFAPC@?$AAc?$AA?3?$AA?2?$AAd?$AAa?$AAt?$AAa?$AA?2?$AAj?$AAa?$AAt?$AAi?$AAn?$AA?2?$AAp?$AAo?$AAw?$AAe?$AAr?$AAv?$AAr?$AA_?$AAb?$AAu?$AAi?$AAl?$AAd?$AA?2?$AAd?$AAd?$AAk?$AA1@ 10007bf0     reorder.obj
 0001:00006c98       ??_C@_0FD@FIKNDIFJ@c?3?2data?2jatin?2powervr_build?2ddk1@ 10007c98     reorder.obj
 0001:00006de0       ??_C@_1KG@HPCDCGEH@?$AAc?$AA?3?$AA?2?$AAd?$AAa?$AAt?$AAa?$AA?2?$AAj?$AAa?$AAt?$AAi?$AAn?$AA?2?$AAp?$AAo?$AAw?$AAe?$AAr?$AAv?$AAr?$AA_?$AAb?$AAu?$AAi?$AAl?$AAd?$AA?2?$AAd?$AAd?$AAk?$AA1@ 10007de0     regpack.obj
 0001:00006e88       ??_C@_0FD@OOELEOMD@c?3?2data?2jatin?2powervr_build?2ddk1@ 10007e88     regpack.obj
 0001:00006edc       ??_C@_0BB@FLLMPGAP@SECONDARY?5UPDATE?$AA@ 10007edc     regpack.obj
 0001:00006ef0       ??_C@_0FD@IJBHFBPP@c?3?2data?2jatin?2powervr_build?2ddk1@ 10007ef0     precovr.obj
 0001:00006f48       ??_C@_1KG@KMFBIJNB@?$AAc?$AA?3?$AA?2?$AAd?$AAa?$AAt?$AAa?$AA?2?$AAj?$AAa?$AAt?$AAi?$AAn?$AA?2?$AAp?$AAo?$AAw?$AAe?$AAr?$AAv?$AAr?$AA_?$AAb?$AAu?$AAi?$AAl?$AAd?$AA?2?$AAd?$AAd?$AAk?$AA1@ 10007f48     precovr.obj
 0001:00006ff0       ??_C@_0BK@FGDIKLKK@Invalid?5program?5structure?$AA@ 10007ff0     precovr.obj
 0001:00007038       ??_C@_1KK@BDAHNEKI@?$AAc?$AA?3?$AA?2?$AAd?$AAa?$AAt?$AAa?$AA?2?$AAj?$AAa?$AAt?$AAi?$AAn?$AA?2?$AAp?$AAo?$AAw?$AAe?$AAr?$AAv?$AAr?$AA_?$AAb?$AAu?$AAi?$AAl?$AAd?$AA?2?$AAd?$AAd?$AAk?$AA1@ 10008038     pregalloc.obj
 0001:000070e8       ??_C@_0FF@CEMMNECF@c?3?2data?2jatin?2powervr_build?2ddk1@ 100080e8     pregalloc.obj
 0001:00007168       ??_C@_1KI@HMAPLGJG@?$AAc?$AA?3?$AA?2?$AAd?$AAa?$AAt?$AAa?$AA?2?$AAj?$AAa?$AAt?$AAi?$AAn?$AA?2?$AAp?$AAo?$AAw?$AAe?$AAr?$AAv?$AAr?$AA_?$AAb?$AAu?$AAi?$AAl?$AAd?$AA?2?$AAd?$AAd?$AAk?$AA1@ 10008168     finalise.obj
 0001:00007210       ??_C@_0FE@PAHJGPED@c?3?2data?2jatin?2powervr_build?2ddk1@ 10008210     finalise.obj
 0001:00007268       ??_C@_0FC@GFDOMMJL@c?3?2data?2jatin?2powervr_build?2ddk1@ 10008268     f16opt.obj
 0001:000072c0       ??_C@_1KE@HJHJKHMC@?$AAc?$AA?3?$AA?2?$AAd?$AAa?$AAt?$AAa?$AA?2?$AAj?$AAa?$AAt?$AAi?$AAn?$AA?2?$AAp?$AAo?$AAw?$AAe?$AAr?$AAv?$AAr?$AA_?$AAb?$AAu?$AAi?$AAl?$AAd?$AA?2?$AAd?$AAd?$AAk?$AA1@ 100082c0     f16opt.obj
 0001:00007368       g_auSetBitCount            10008368     usc.obj
 0001:000073a8       g_auMaxBitCount            100083a8     usc.obj
 0001:000073e8       g_abSingleBitSet           100083e8     usc.obj
 0001:00007428       g_puSwapRedAndBlueChan     10008428     usc.obj
 0001:00007448       g_puSwapRedAndBlueMask     10008448     usc.obj
 0001:00007488       g_aiSingleComponent        10008488     usc.obj
 0001:000074c8       g_auSetBitMask             100084c8     usc.obj
 0001:000075c8       g_puInvertCompOp           100085c8     usc.obj
 0001:000075e4       g_puNegateCompOp           100085e4     usc.obj
 0001:00007600       ??_C@_0CE@PIEPAKK@?6?$CK?$CK?$CK?5USC_ABORT?3?5?$CFs?$CI?$CFu?$CJ?3?5?$CFs?3?5?$CFs?5?$CK@ 10008600     usc.obj
 0001:00007624       ??_C@_0O@NPFKCNOE@Unknown?5Error?$AA@ 10008624     usc.obj
 0001:00007634       ??_C@_0BB@KINPANLI@UF_ERR_NO_MEMORY?$AA@ 10008634     usc.obj
 0001:00007648       ??_C@_0BA@PCFAEJJE@UF_ERR_INTERNAL?$AA@ 10008648     usc.obj
 0001:00007658       ??_C@_0P@MPJKMENK@UF_ERR_GENERIC?$AA@ 10008658     usc.obj
 0001:00007668       ??_C@_0BG@CAKOEBNL@UF_ERR_TOO_MANY_INSTS?$AA@ 10008668     usc.obj
 0001:00007680       ??_C@_0BH@GDMMMELJ@UF_ERR_INVALID_SRC_MOD?$AA@ 10008680     usc.obj
 0001:00007698       ??_C@_0BH@KNBGMFBM@UF_ERR_INVALID_DST_MOD?$AA@ 10008698     usc.obj
 0001:000076b0       ??_C@_0BH@ENAMFFGF@UF_ERR_INVALID_SRC_REG?$AA@ 100086b0     usc.obj
 0001:000076c8       ??_C@_0BH@IDNGFEMA@UF_ERR_INVALID_DST_REG?$AA@ 100086c8     usc.obj
 0001:000076e0       ??_C@_0BG@PDIIDGLP@UF_ERR_INVALID_OPCODE?$AA@ 100086e0     usc.obj
 0001:000076f8       ??_C@_05DOOICJDG@UF_OK?$AA@ 100086f8     usc.obj
 0001:00007700       ??_C@_0P@EIELDDJN@?$CF5u?5?$HM?5?$CF?970?470s?$AA@ 10008700     usc.obj
 0001:00007710       ??_C@_1JO@PMDGKEJH@?$AAc?$AA?3?$AA?2?$AAd?$AAa?$AAt?$AAa?$AA?2?$AAj?$AAa?$AAt?$AAi?$AAn?$AA?2?$AAp?$AAo?$AAw?$AAe?$AAr?$AAv?$AAr?$AA_?$AAb?$AAu?$AAi?$AAl?$AAd?$AA?2?$AAd?$AAd?$AAk?$AA1@ 10008710     usc.obj
 0001:000077b0       ??_C@_0EP@HPOBDAMN@c?3?2data?2jatin?2powervr_build?2ddk1@ 100087b0     usc.obj
 0001:00007800       ??_C@_0CN@EOPOBDCC@Can?5not?5split?5program?5at?5the?5spe@ 10008800     usc.obj
 0001:00007830       ??_C@_0DE@EBFLOKEM@?5?9?9?9?9?9?9?9?5After?5Alternate?5Results@ 10008830     usc.obj
 0001:00007864       ??_C@_0CD@KEJJKGN@?5?9?9?9?9?9?9?9?5Fix?5for?5BRN21752?5?9?9?9?9?9?9@ 10008864     usc.obj
 0001:00007888       ??_C@_0CP@EDBHGKJE@?5?9?9?9?9?9?9?9?5Internal?5Register?5Alloc@ 10008888     usc.obj
 0001:000078b8       ??_C@_0DA@CHDKFOFB@?5?9?9?9?9?9?9?9?5Extract?5constant?5calcul@ 100088b8     usc.obj
 0001:000078e8       ??_C@_0DB@BLPGLPDH@?5?9?9?9?9?9?9?9?5Remove?5Unnecessary?5Satu@ 100088e8     usc.obj
 0001:0000791c       ??_C@_0CK@JNOLFNDB@?5?9?9?9?9?9?9?9?5USP?9sample?5optimisation@ 1000891c     usc.obj
 0001:00007948       ??_C@_0CM@JCJJHLCB@?5?9?9?9?9?9?9?9?5Constant?5Register?5Packi@ 10008948     usc.obj
 0001:00007974       ??_C@_0CC@BNLGDEKO@?5?9?9?9?9?9?9?9?5Eliminate?5moves?5?9?9?9?9?9?9?9@ 10008974     usc.obj
 0001:00007998       ??_C@_0CE@IDADDLMG@?5?9?9?9?9?9?9?9?5Dead?5code?5removal?5?9?9?9?9?9@ 10008998     usc.obj
 0001:000079bc       ??_C@_0DG@HMONFOFG@?5?9?9?9?9?9?9?9?5Expand?5Array?5Load?1Store@ 100089bc     usc.obj
 0001:000079f4       ??_C@_0DD@MMCGADFJ@?5?9?9?9?9?9?9?9?5Expand?5Array?5Load?1Store@ 100089f4     usc.obj
 0001:00007a28       ??_C@_0BM@HLJHAANA@?$DL?9?9?9?9?9?9?5Raw?5Input?5?9?9?9?9?9?9?9?$AN?6?$AA@ 10008a28     usc.obj
 0001:00007a44       ??_C@_0BN@OGDAFALI@?$DL?9?9?9?9?9?9?5End?5Raw?5Input?5?9?9?9?9?$AN?6?$AA@ 10008a44     usc.obj
 0001:00007a64       ??_C@_02DKCKIIND@?$CFs?$AA@ 10008a64     usc.obj
 0001:00007a68       ??_C@_0BJ@BLBCKNL@Unfreed?5allocs?5detected?3?$AA@ 10008a68     usc.obj
 0001:00007a84       ??_C@_0CH@ILECDFEC@PCONVERT?3?5?$CI?$CFs?$CJ?5No?5redundant?5path@ 10008a84     usc.obj
 0001:00007aac       ??_C@_0CJ@EFINIMCG@PCONVERT?3?5?$CI?$CFs?$CJ?5Nothing?5found?5to?5@ 10008aac     usc.obj
 0001:00007ad8       ??_C@_0GA@FEEGLJJP@PCONVERT?5?$CFs?5?9?5Discarding?5tempora@ 10008ad8     usc.obj
 0001:00007b38       ??_C@_0FC@IMIANPLM@PCONVERT?5?$CFs?5?9?5Precision?5conversi@ 10008b38     usc.obj
 0001:00007b8c       ??_C@_0DF@FGDMDNIJ@?$DL?9?9?9?9?9?9?5Raw?5Input?5after?5precisio@ 10008b8c     usc.obj
 0001:00007bc4       ??_C@_0DG@HEINEBGK@?$DL?9?9?9?9?9?9?5End?5Raw?5Input?5after?5prec@ 10008bc4     usc.obj
 0001:00007bfc       ??_C@_0BM@FEBILKIF@PCONVERT_INSTCOUNT?3?$CFs?0?$CFf?0?$CFf?$AA@ 10008bfc     usc.obj
 0001:00007c18       ??_C@_0EA@NLIDLMKP@PCONVERT?5?$CFs?5?9?5Precision?5conversi@ 10008c18     usc.obj
 0001:00007c58       ??_C@_09EOJKPICK@usc?9input?$AA@ 10008c58     usc.obj
 0001:00007c64       ??_C@_0DK@GNLFECDG@Precision?5convertion?5disabled?0?5f@ 10008c64     usc.obj
 0001:00007ca0       ??_C@_0CI@GAPNDNKB@USC_OPT_GROUP?3?5SAME?5FLAGS?5?$CI?$CF08x?$CJ@ 10008ca0     usc.obj
 0001:00007cc8       ??_C@_02EFBLDAKN@u8?$AA@   10008cc8     usc_utils.obj
 0001:00007ccc       ??_C@_03NMHMBFK@c10?$AA@   10008ccc     usc_utils.obj
 0001:00007cd0       ??_C@_03GMEDJGOO@f16?$AA@  10008cd0     usc_utils.obj
 0001:00007cd4       ??_C@_03LKLIHIE@f32?$AA@   10008cd4     usc_utils.obj
 0001:00007cd8       ??_C@_04FLFPPCOG@uvst?$AA@ 10008cd8     usc_utils.obj
 0001:00007ce0       ??_C@_03NGDEEOJK@uvs?$AA@  10008ce0     usc_utils.obj
 0001:00007ce4       ??_C@_02CLOBFCCG@uv?$AA@   10008ce4     usc_utils.obj
 0001:00007ce8       ??_C@_01OMGOGALD@u?$AA@    10008ce8     usc_utils.obj
 0001:00007cec       ??_C@_05GMBPGNKL@?4none?$AA@ 10008cec     usc_utils.obj
 0001:00007cf4       ??_C@_05LMIFJDA@CMPLT?$AA@ 10008cf4     usc_utils.obj
 0001:00007cfc       ??_C@_08BEPABOAN@TEXWRITE?$AA@ 10008cfc     usc_utils.obj
 0001:00007d08       ??_C@_05LELLBIIO@MEMST?$AA@ 10008d08     usc_utils.obj
 0001:00007d10       ??_C@_05OJADOOJC@MEMLD?$AA@ 10008d10     usc_utils.obj
 0001:00007d18       ??_C@_05DDIIKNEP@BLOCK?$AA@ 10008d18     usc_utils.obj
 0001:00007d20       ??_C@_04BFLEPEFN@JUMP?$AA@ 10008d20     usc_utils.obj
 0001:00007d28       ??_C@_04PAHMADEP@FTOI?$AA@ 10008d28     usc_utils.obj
 0001:00007d30       ??_C@_05IMGKCCFE@SPLIT?$AA@ 10008d30     usc_utils.obj
 0001:00007d38       ??_C@_07GLJEJNB@EMITCUT?$AA@ 10008d38     usc_utils.obj
 0001:00007d40       ??_C@_03ODLKKDDL@CUT?$AA@  10008d40     usc_utils.obj
 0001:00007d44       ??_C@_04GBCMHBCE@EMIT?$AA@ 10008d44     usc_utils.obj
 0001:00007d4c       ??_C@_05IALEHOEG@MOVVI?$AA@ 10008d4c     usc_utils.obj
 0001:00007d54       ??_C@_04PHPDOHKP@DIV2?$AA@ 10008d54     usc_utils.obj
 0001:00007d5c       ??_C@_04PBJNELFP@MUL2?$AA@ 10008d5c     usc_utils.obj
 0001:00007d64       ??_C@_05BFJLGMF@MOVCP?$AA@ 10008d64     usc_utils.obj
 0001:00007d6c       ??_C@_06FGGEKBGC@DOT4CP?$AA@ 10008d6c     usc_utils.obj
 0001:00007d74       ??_C@_04KIMHDDNA@LOGP?$AA@ 10008d74     usc_utils.obj
 0001:00007d7c       ??_C@_04HBHAILHC@EXPP?$AA@ 10008d7c     usc_utils.obj
 0001:00007d84       ??_C@_08LKBLKNDD@MOVA_INT?$AA@ 10008d84     usc_utils.obj
 0001:00007d90       ??_C@_08GONKFOLN@MOVA_RNE?$AA@ 10008d90     usc_utils.obj
 0001:00007d9c       ??_C@_08INHPMPD@MOVA_TRC?$AA@ 10008d9c     usc_utils.obj
 0001:00007da8       ??_C@_03CAOCJACM@MOV?$AA@  10008da8     usc_utils.obj
 0001:00007dac       ??_C@_03GEANJIEE@NOP?$AA@  10008dac     usc_utils.obj
 0001:00007db0       ??_C@_09IHCHNAND@ENDSWITCH?$AA@ 10008db0     usc_utils.obj
 0001:00007dbc       ??_C@_07MGCPDNLD@DEFAULT?$AA@ 10008dbc     usc_utils.obj
 0001:00007dc4       ??_C@_04OGNCDOIK@CASE?$AA@ 10008dc4     usc_utils.obj
 0001:00007dcc       ??_C@_06DKNFLPLN@SWITCH?$AA@ 10008dcc     usc_utils.obj
 0001:00007dd4       ??_C@_07FMKELLMM@IFNZBIT?$AA@ 10008dd4     usc_utils.obj
 0001:00007ddc       ??_C@_0O@DACOILJI@CONTINUENZBIT?$AA@ 10008ddc     usc_utils.obj
 0001:00007dec       ??_C@_08CEMFIBFD@RETNZBIT?$AA@ 10008dec     usc_utils.obj
 0001:00007df8       ??_C@_09IKPIPGBO@CALLNZBIT?$AA@ 10008df8     usc_utils.obj
 0001:00007e04       ??_C@_0L@EHPDBPCP@BREAKNZBIT?$AA@ 10008e04     usc_utils.obj
 0001:00007e10       ??_C@_0N@NLKMEFNE@GLSLLOOPTAIL?$AA@ 10008e10     usc_utils.obj
 0001:00007e20       ??_C@_0N@DNBOGBJP@GLSLCONTINUE?$AA@ 10008e20     usc_utils.obj
 0001:00007e30       ??_C@_0M@IIPMBMC@GLSLENDLOOP?$AA@ 10008e30     usc_utils.obj
 0001:00007e3c       ??_C@_0P@BNMDBKOA@GLSLSTATICLOOP?$AA@ 10008e3c     usc_utils.obj
 0001:00007e4c       ??_C@_08CIJJABIK@GLSLLOOP?$AA@ 10008e4c     usc_utils.obj
 0001:00007e58       ??_C@_05LAJLJJBC@CALLP?$AA@ 10008e58     usc_utils.obj
 0001:00007e60       ??_C@_06IFIODKDJ@BREAKP?$AA@ 10008e60     usc_utils.obj
 0001:00007e68       ??_C@_03PGALJLHC@IFP?$AA@  10008e68     usc_utils.obj
 0001:00007e6c       ??_C@_05EILEDKCG@LABEL?$AA@ 10008e6c     usc_utils.obj
 0001:00007e74       ??_C@_04DLKKMOMO@SETP?$AA@ 10008e74     usc_utils.obj
 0001:00007e7c       ??_C@_06OEGBHLKL@BREAKC?$AA@ 10008e7c     usc_utils.obj
 0001:00007e84       ??_C@_05IAGBLAKG@BREAK?$AA@ 10008e84     usc_utils.obj
 0001:00007e8c       ??_C@_03JHOENKOA@IFC?$AA@  10008e8c     usc_utils.obj
 0001:00007e90       ??_C@_06EBGPDKJM@ENDREP?$AA@ 10008e90     usc_utils.obj
 0001:00007e98       ??_C@_03HDFFPFLF@REP?$AA@  10008e98     usc_utils.obj
 0001:00007e9c       ??_C@_07OEFEMAML@ENDLOOP?$AA@ 10008e9c     usc_utils.obj
 0001:00007ea4       ??_C@_04KGNEGCGI@LOOP?$AA@ 10008ea4     usc_utils.obj
 0001:00007eac       ??_C@_03BHDJDALB@RET?$AA@  10008eac     usc_utils.obj
 0001:00007eb0       ??_C@_06KFOFNBHF@CALLNZ?$AA@ 10008eb0     usc_utils.obj
 0001:00007eb8       ??_C@_04CAGKGBIO@CALL?$AA@ 10008eb8     usc_utils.obj
 0001:00007ec0       ??_C@_05DLHFLCAN@ENDIF?$AA@ 10008ec0     usc_utils.obj
 0001:00007ec8       ??_C@_04JLPIBDPH@ELSE?$AA@ 10008ec8     usc_utils.obj
 0001:00007ed0       ??_C@_02NJNGHICB@IF?$AA@   10008ed0     usc_utils.obj
 0001:00007ed4       ??_C@_07BKIPBFEF@KPNZBIT?$AA@ 10008ed4     usc_utils.obj
 0001:00007edc       ??_C@_04CJHNKBPM@KPLE?$AA@ 10008edc     usc_utils.obj
 0001:00007ee4       ??_C@_04HKKEICOM@KPLT?$AA@ 10008ee4     usc_utils.obj
 0001:00007eec       ??_C@_05GGJNPOKM@LDBUF?$AA@ 10008eec     usc_utils.obj
 0001:00007ef4       ??_C@_06FDLCEDHO@LD2DMS?$AA@ 10008ef4     usc_utils.obj
 0001:00007efc       ??_C@_09FNONGPNK@LDGATHER4?$AA@ 10008efc     usc_utils.obj
 0001:00007f08       ??_C@_05KFMFMNLL@LDLOD?$AA@ 10008f08     usc_utils.obj
 0001:00007f10       ??_C@_05CLKBFMGL@LDCLZ?$AA@ 10008f10     usc_utils.obj
 0001:00007f18       ??_C@_03KDLOPOLM@LDC?$AA@  10008f18     usc_utils.obj
 0001:00007f1c       ??_C@_03OMPPGIHL@LDD?$AA@  10008f1c     usc_utils.obj
 0001:00007f20       ??_C@_07DFIAJNK@LDPIFTC?$AA@ 10008f20     usc_utils.obj
 0001:00007f28       ??_C@_03MCFBLPCO@LDP?$AA@  10008f28     usc_utils.obj
 0001:00007f2c       ??_C@_03CECGOCHD@LDL?$AA@  10008f2c     usc_utils.obj
 0001:00007f30       ??_C@_03LKKFMPPN@LDB?$AA@  10008f30     usc_utils.obj
 0001:00007f34       ??_C@_02ONCLNIEI@LD?$AA@   10008f34     usc_utils.obj
 0001:00007f38       ??_C@_03CDEJPCIF@XOR?$AA@  10008f38     usc_utils.obj
 0001:00007f3c       ??_C@_03PBAHGDAB@SHR?$AA@  10008f3c     usc_utils.obj
 0001:00007f40       ??_C@_02PDPFNDMG@OR?$AA@   10008f40     usc_utils.obj
 0001:00007f44       ??_C@_03GBFNEA@NOT?$AA@    10008f44     usc_utils.obj
 0001:00007f48       ??_C@_03BLGELAIE@ASR?$AA@  10008f48     usc_utils.obj
 0001:00007f4c       ??_C@_03CFEGFMNO@SHL?$AA@  10008f4c     usc_utils.obj
 0001:00007f50       ??_C@_03BDACDFHA@AND?$AA@  10008f50     usc_utils.obj
 0001:00007f54       ??_C@_04IEDALHLA@SQRT?$AA@ 10008f54     usc_utils.obj
 0001:00007f5c       ??_C@_03FJGHKDBE@DIV?$AA@  10008f5c     usc_utils.obj
 0001:00007f60       ??_C@_07MPADIFOA@MOVCBIT?$AA@ 10008f60     usc_utils.obj
 0001:00007f68       ??_C@_06CELPKKED@SETBNE?$AA@ 10008f68     usc_utils.obj
 0001:00007f70       ??_C@_06HEOCFNDN@SETBLT?$AA@ 10008f70     usc_utils.obj
 0001:00007f78       ??_C@_06CLGOJBMM@SETBGE?$AA@ 10008f78     usc_utils.obj
 0001:00007f80       ??_C@_06GEEJCPH@SETBEQ?$AA@ 10008f80     usc_utils.obj
 0001:00007f88       ??_C@_03BMCMHJGB@SGN?$AA@  10008f88     usc_utils.obj
 0001:00007f8c       ??_C@_03PPNIKAKK@SGE?$AA@  10008f8c     usc_utils.obj
 0001:00007f90       ??_C@_03KAFEGMFL@SLT?$AA@  10008f90     usc_utils.obj
 0001:00007f94       ??_C@_06CPNAGDBH@OGLLIT?$AA@ 10008f94     usc_utils.obj
 0001:00007f9c       ??_C@_03KOOFOJHJ@LIT?$AA@  10008f9c     usc_utils.obj
 0001:00007fa0       ??_C@_03HKOAOHDA@DST?$AA@  10008fa0     usc_utils.obj
 0001:00007fa4       ??_C@_03MPEOJJHN@DSY?$AA@  10008fa4     usc_utils.obj
 0001:00007fa8       ??_C@_03NGFFKIDM@DSX?$AA@  10008fa8     usc_utils.obj
 0001:00007fac       ??_C@_04PEPPOICM@M3X2?$AA@ 10008fac     usc_utils.obj
 0001:00007fb4       ??_C@_04ONOENJGN@M3X3?$AA@ 10008fb4     usc_utils.obj
 0001:00007fbc       ??_C@_04KCKFEPKK@M3X4?$AA@ 10008fbc     usc_utils.obj
 0001:00007fc4       ??_C@_04HADDOBNE@M4X3?$AA@ 10008fc4     usc_utils.obj
 0001:00007fcc       ??_C@_04DPHCHHBD@M4X4?$AA@ 10008fcc     usc_utils.obj
 0001:00007fd4       ??_C@_07PKBLCBGP@SINCOS2?$AA@ 10008fd4     usc_utils.obj
 0001:00007fdc       ??_C@_06NMMLFNJO@SINCOS?$AA@ 10008fdc     usc_utils.obj
 0001:00007fe4       ??_C@_03BPJLEIIC@ABS?$AA@  10008fe4     usc_utils.obj
 0001:00007fe8       ??_C@_03IPJPMEHL@NRM?$AA@  10008fe8     usc_utils.obj
 0001:00007fec       ??_C@_03KJLECDHJ@CRS?$AA@  10008fec     usc_utils.obj
 0001:00007ff0       ??_C@_03LEPPJAKI@MAX?$AA@  10008ff0     usc_utils.obj
 0001:00007ff4       ??_C@_03KGHEHEMH@MIN?$AA@  10008ff4     usc_utils.obj
 0001:00007ff8       ??_C@_03JLIKCOCP@POW?$AA@  10008ff8     usc_utils.obj
 0001:00007ffc       ??_C@_03NKPKGAOM@LRP?$AA@  10008ffc     usc_utils.obj
 0001:00008000       ??_C@_04KJMDDEDC@CEIL?$AA@ 10009000     usc_utils.obj
 0001:00008008       ??_C@_03FBKOMNAB@RND?$AA@  10009008     usc_utils.obj
 0001:0000800c       ??_C@_03EILFPMEA@RNE?$AA@  1000900c     usc_utils.obj
 0001:00008010       ??_C@_03COLIFOAO@TRC?$AA@  10009010     usc_utils.obj
 0001:00008014       ??_C@_03JBMJGMHA@FLR?$AA@  10009014     usc_utils.obj
 0001:00008018       ??_C@_03NEKIMBBK@FRC?$AA@  10009018     usc_utils.obj
 0001:0000801c       ??_C@_03LJALPNPL@CND?$AA@  1000901c     usc_utils.obj
 0001:00008020       ??_C@_03JFODJEPH@CMP?$AA@  10009020     usc_utils.obj
 0001:00008024       ??_C@_03MLIHNEFJ@LOG?$AA@  10009024     usc_utils.obj
 0001:00008028       ??_C@_03KKGFKKLA@EXP?$AA@  10009028     usc_utils.obj
 0001:0000802c       ??_C@_05LCJGEIPC@RSQRT?$AA@ 1000902c     usc_utils.obj
 0001:00008034       ??_C@_05NDDJDMFB@RECIP?$AA@ 10009034     usc_utils.obj
 0001:0000803c       ??_C@_04IHEGMLJL@DOT4?$AA@ 1000903c     usc_utils.obj
 0001:00008044       ??_C@_04MIAHFNFM@DOT3?$AA@ 10009044     usc_utils.obj
 0001:0000804c       ??_C@_07JJJNIFD@DOT2ADD?$AA@ 1000904c     usc_utils.obj
 0001:00008054       ??_C@_03FCIIMNPF@MAD?$AA@  10009054     usc_utils.obj
 0001:00008058       ??_C@_03IBHOEMFB@MUL?$AA@  10009058     usc_utils.obj
 0001:0000805c       ??_C@_03KPDLEBHD@SUB?$AA@  1000905c     usc_utils.obj
 0001:00008060       ??_C@_03BOJFLAKG@ADD?$AA@  10009060     usc_utils.obj
 0001:00008068       g_asInputInstDesc          10009068     usc_utils.obj
 0001:0000865c       g_pszChannels              1000965c     usc_utils.obj
 0001:00008688       ??_C@_06GAMDLPO@?$CFs?$CI?$CFs?$CJ?$AA@ 10009688     usc_utils.obj
 0001:00008690       ??_C@_05DPJCNGPF@orall?$AA@ 10009690     usc_utils.obj
 0001:00008698       ??_C@_06BKABFOPO@andall?$AA@ 10009698     usc_utils.obj
 0001:000086a0       ??_C@_06KHDOHNKC@always?$AA@ 100096a0     usc_utils.obj
 0001:000086a8       ??_C@_05DAFACFLE@never?$AA@ 100096a8     usc_utils.obj
 0001:000086b0       ??_C@_02EHCHHCKH@?$DM?$DN?$AA@ 100096b0     usc_utils.obj
 0001:000086b4       ??_C@_02FDNJECIE@?$CB?$DN?$AA@ 100096b4     usc_utils.obj
 0001:000086b8       ??_C@_01MNNFJEPP@?$DM?$AA@ 100096b8     usc_utils.obj
 0001:000086bc       ??_C@_02EEKDKGMJ@?$DO?$DN?$AA@ 100096bc     usc_utils.obj
 0001:000086c0       ??_C@_02EGOFBIJA@?$DN?$DN?$AA@ 100096c0     usc_utils.obj
 0001:000086c4       ??_C@_01PPODPGHN@?$DO?$AA@ 100096c4     usc_utils.obj
 0001:000086c8       ??_C@_07MALOAKCI@invalid?$AA@ 100096c8     usc_utils.obj
 0001:000086d0       ??_C@_04FGKDHNNF@?$CF?45s?$AA@ 100096d0     usc_utils.obj
 0001:000086d8       ??_C@_04EPEFPFOF@_abs?$AA@ 100096d8     usc_utils.obj
 0001:000086e0       ??_C@_04DMMHCEGD@_neg?$AA@ 100096e0     usc_utils.obj
 0001:000086e8       ??_C@_04KLKHHPIG@MAIN?$AA@ 100096e8     usc_utils.obj
 0001:000086f0       ??_C@_02HHFHKOHM@?$DP?$DP?$AA@ 100096f0     usc_utils.obj
 0001:000086f4       ??_C@_01CPLAODJH@S?$AA@    100096f4     usc_utils.obj
 0001:000086f8       ??_C@_01DGKLNCNG@R?$AA@    100096f8     usc_utils.obj
 0001:000086fc       ??_C@_01GAPBHFFA@T?$AA@    100096fc     usc_utils.obj
 0001:00008700       ??_C@_01EJNLAFE@P?$AA@     10009700     usc_utils.obj
 0001:00008704       ??_C@_02KEGNLNML@?0?5?$AA@ 10009704     usc_utils.obj
 0001:00008708       ??_C@_06GLBEMCJK@null?0?5?$AA@ 10009708     usc_utils.obj
 0001:00008710       ??_C@_01MIFGBAGJ@?$CL?$AA@ 10009710     usc_utils.obj
 0001:00008714       ??_C@_04BBMCIGKM@_h?$CFu?$AA@ 10009714     usc_utils.obj
 0001:0000871c       ??_C@_03HHEBJBCJ@_?$CFs?$AA@ 1000971c     usc_utils.obj
 0001:00008720       ??_C@_04LANGOIL@_t?$CFu?$AA@ 10009720     usc_utils.obj
 0001:00008728       ??_C@_06JOLAELPB@_r?$CFu?$CFs?$AA@ 10009728     usc_utils.obj
 0001:00008730       ??_C@_04HDOCAJNK@?$CFs?$CFs?$AA@ 10009730     usc_utils.obj
 0001:00008738       ??_C@_04CFLIKOFM@?$CFs?$CFu?$AA@ 10009738     usc_utils.obj
 0001:00008740       ??_C@_02GOCJLLI@oM?$AA@    10009740     usc_utils.obj
 0001:00008744       ??_C@_01POHCFINO@Z?$AA@    10009744     usc_utils.obj
 0001:00008748       ??_C@_05LLMNIFP@null?$CL?$AA@ 10009748     usc_utils.obj
 0001:00008750       ??_C@_03MOCCBCKP@?$CFs?7?$AA@ 10009750     usc_utils.obj
 0001:00008754       ??_C@_02DPKJAMEF@?$CFd?$AA@ 10009754     usc_utils.obj
 0001:00008758       ??_C@_01DCLJPIOD@?$CB?$AA@ 10009758     usc_utils.obj
 0001:0000875c       ??_C@_01GPOEFGEJ@?7?$AA@   1000975c     usc_utils.obj
 0001:00008760       ??_C@_07OFCHECEH@untyped?$AA@ 10009760     usc_utils.obj
 0001:00008768       ??_C@_03COOPGOJP@u16?$AA@  10009768     usc_utils.obj
 0001:0000876c       ??_C@_03DECAIGLI@i16?$AA@  1000976c     usc_utils.obj
 0001:00008770       ??_C@_03EJAHHPPF@u32?$AA@  10009770     usc_utils.obj
 0001:00008774       ??_C@_03FDMIJHNC@i32?$AA@  10009774     usc_utils.obj
 0001:00008778       ??_C@_01NOFIACDB@w?$AA@    10009778     usc_utils.obj
 0001:0000877c       ??_C@_01GLPGHMHM@z?$AA@    1000977c     usc_utils.obj
 0001:00008780       ??_C@_01EANLCPLP@y?$AA@    10009780     usc_utils.obj
 0001:00008784       ??_C@_03MNIILKKL@_al?$AA@  10009784     usc_utils.obj
 0001:00008788       ??_C@_04EEBBMKDP@_a0w?$AA@ 10009788     usc_utils.obj
 0001:00008790       ??_C@_04PBLPLEHC@_a0z?$AA@ 10009790     usc_utils.obj
 0001:00008798       ??_C@_04NKJCOHLB@_a0y?$AA@ 10009798     usc_utils.obj
 0001:000087a0       ??_C@_04MDIJNGPA@_a0x?$AA@ 100097a0     usc_utils.obj
 0001:000087a8       ??_C@_02FCBDKCDG@?4w?$AA@  100097a8     usc_utils.obj
 0001:000087ac       ??_C@_02OHLNNMHL@?4z?$AA@  100097ac     usc_utils.obj
 0001:000087b0       ??_C@_02MMJAIPLI@?4y?$AA@  100097b0     usc_utils.obj
 0001:000087b4       ??_C@_02NFILLOPJ@?4x?$AA@  100097b4     usc_utils.obj
 0001:000087b8       ??_C@_08FINKBBAF@reserved?$AA@ 100097b8     usc_utils.obj
 0001:000087c4       ??_C@_04CGFJFPFD@none?$AA@ 100097c4     usc_utils.obj
 0001:000087cc       ??_C@_09GNCNHEKA@_timestwo?$AA@ 100097cc     usc_utils.obj
 0001:000087d8       ??_C@_05FLDOPDPI@_bias?$AA@ 100097d8     usc_utils.obj
 0001:000087e0       ??_C@_07FLMGNJNN@_signed?$AA@ 100097e0     usc_utils.obj
 0001:000087e8       ??_C@_05GBACCPDD@_comp?$AA@ 100097e8     usc_utils.obj
 0001:000087f0       ??_C@_04NGGIBDJF@?4gba?$AA@ 100097f0     usc_utils.obj
 0001:000087f8       ??_C@_04LBKPLEDI@?4rba?$AA@ 100097f8     usc_utils.obj
 0001:00008800       ??_C@_03KJODLNEG@?4ba?$AA@ 10009800     usc_utils.obj
 0001:00008804       ??_C@_04LHGEHGND@?4rga?$AA@ 10009804     usc_utils.obj
 0001:0000880c       ??_C@_03KPCIHPKN@?4ga?$AA@ 1000980c     usc_utils.obj
 0001:00008810       ??_C@_03LFMFBODG@?4ra?$AA@ 10009810     usc_utils.obj
 0001:00008814       ??_C@_02EOILBHOB@?4a?$AA@  10009814     usc_utils.obj
 0001:00008818       ??_C@_04JMEJCFBA@?4rgb?$AA@ 10009818     usc_utils.obj
 0001:00008820       ??_C@_03IEAFCMGO@?4gb?$AA@ 10009820     usc_utils.obj
 0001:00008824       ??_C@_03JOOIENPF@?4rb?$AA@ 10009824     usc_utils.obj
 0001:00008828       ??_C@_02GFKGEECC@?4b?$AA@  10009828     usc_utils.obj
 0001:0000882c       ??_C@_03ODJPLJLA@?4rg?$AA@ 1000982c     usc_utils.obj
 0001:00008830       ??_C@_02BINBLAGH@?4g?$AA@  10009830     usc_utils.obj
 0001:00008834       ??_C@_02CPGEFGHD@?4r?$AA@  10009834     usc_utils.obj
 0001:00008838       ??_C@_02PEOAMJM@?4_?$AA@   10009838     usc_utils.obj
 0001:0000883c       ??_C@_01JPJNBJEM@I?$AA@    1000983c     usc_utils.obj
 0001:00008840       ??_C@_02GFBACKGC@cp?$AA@   10009840     usc_utils.obj
 0001:00008844       ??_C@_01FJMABOPO@x?$AA@    10009844     usc_utils.obj
 0001:00008848       ??_C@_02BHMOPGG@ct?$AA@    10009848     usc_utils.obj
 0001:0000884c       ??_C@_01MCMALHOG@a?$AA@    1000984c     usc_utils.obj
 0001:00008850       ??_C@_02LCKHEFGH@vo?$AA@   10009850     usc_utils.obj
 0001:00008854       ??_C@_02OEPNOCOB@vi?$AA@   10009854     usc_utils.obj
 0001:00008858       ??_C@_07JEPMKBEO@tcpiftc?$AA@ 10009858     usc_utils.obj
 0001:00008860       ??_C@_03FPEIBLKH@tcp?$AA@  10009860     usc_utils.obj
 0001:00008864       ??_C@_01JBBJJEPG@p?$AA@    10009864     usc_utils.obj
 0001:00008868       ??_C@_01OCOKONAJ@L?$AA@    10009868     usc_utils.obj
 0001:0000886c       ??_C@_03JLJMINOF@cop?$AA@  1000986c     usc_utils.obj
 0001:00008870       ??_C@_01GOHFPIOK@m?$AA@    10009870     usc_utils.obj
 0001:00008874       ??_C@_01OJONOECF@b?$AA@    10009874     usc_utils.obj
 0001:00008878       ??_C@_01KBJDNOO@i?$AA@     10009878     usc_utils.obj
 0001:0000887c       ??_C@_02KDKICELI@MC?$AA@   1000987c     usc_utils.obj
 0001:00008880       ??_C@_01BDACAMKP@h?$AA@    10009880     usc_utils.obj
 0001:00008884       ??_C@_01PFHFFBPC@t?$AA@    10009884     usc_utils.obj
 0001:00008888       ??_C@_01PAPGNFGE@c?$AA@    10009888     usc_utils.obj
 0001:0000888c       ??_C@_02BNJGNOAF@tc?$AA@   1000988c     usc_utils.obj
 0001:00008890       ??_C@_01MHEDDDHA@v?$AA@    10009890     usc_utils.obj
 0001:00008894       ??_C@_01KDCPPGHE@r?$AA@    10009894     usc_utils.obj
 0001:00008898       ??_C@_02NONPHDEB@?12?$AA@  10009898     usc_utils.obj
 0001:0000889c       ??_C@_02IIIFNEMH@?14?$AA@  1000989c     usc_utils.obj
 0001:000088a0       ??_C@_02CEDAJLML@?18?$AA@  100098a0     usc_utils.obj
 0001:000088a4       ??_C@_03IKFPIBFJ@?116?$AA@ 100098a4     usc_utils.obj
 0001:000088a8       ??_C@_03KILKAE@_x8?$AA@    100098a8     usc_utils.obj
 0001:000088ac       ??_C@_03KMBNPFAI@_x4?$AA@  100098ac     usc_utils.obj
 0001:000088b0       ??_C@_03PKEHFCIO@_x2?$AA@  100098b0     usc_utils.obj
 0001:000088b4       ??_C@_08ONCODOLC@_sat0max?$AA@ 100098b4     usc_utils.obj
 0001:000088c0       ??_C@_06JJEDCHJD@_sat11?$AA@ 100098c0     usc_utils.obj
 0001:000088c8       ??_C@_06JIIBENKE@_sat01?$AA@ 100098c8     usc_utils.obj
 0001:000088d0       ??_C@_0P@PLOGANBH@?0?5t?$CFd?4chunk?$CFd?$CJ?$AA@ 100098d0     usc_utils.obj
 0001:000088e0       ??_C@_08HMLHHABI@texld?$CFs?$CI?$AA@ 100098e0     usc_utils.obj
 0001:000088ec       ??_C@_01PKGAHCOL@?$CJ?$AA@ 100098ec     usc_utils.obj
 0001:000088f0       ??_C@_03ECLNAHEM@?$CFs?$CI?$AA@ 100098f0     usc_utils.obj
 0001:000088f4       ??_C@_08HJMIJKMB@vprim?4?$CFs?$AA@ 100098f4     usc_utils.obj
 0001:00008900       ??_C@_06LDFCKBAJ@pos?4?$CFs?$AA@ 10009900     usc_utils.obj
 0001:00008908       ??_C@_06CCDMDJLP@fog?4?$CFs?$AA@ 10009908     usc_utils.obj
 0001:00008910       ??_C@_03KPPIPFAL@v?$CFd?$AA@ 10009910     usc_utils.obj
 0001:00008914       ??_C@_07EJDDNKLP@tc?$CFd?4?$CFs?$AA@ 10009914     usc_utils.obj
 0001:00008920       ??_C@_0FC@LBCBPDLA@c?3?2data?2jatin?2powervr_build?2ddk1@ 10009920     usedef.obj
 0001:00008978       ??_C@_1KE@MBGDMDJD@?$AAc?$AA?3?$AA?2?$AAd?$AAa?$AAt?$AAa?$AA?2?$AAj?$AAa?$AAt?$AAi?$AAn?$AA?2?$AAp?$AAo?$AAw?$AAe?$AAr?$AAv?$AAr?$AA_?$AAb?$AAu?$AAi?$AAl?$AAd?$AA?2?$AAd?$AAd?$AAk?$AA1@ 10009978     usedef.obj
 0001:00008a1c       ??_C@_0CG@LIDLNJGF@sNode_IPCKF16F32_ANY_IUNPCKF32F1@ 10009a1c     pconvert.obj
 0001:00008a44       ??_C@_0CE@HBCJDKIG@sNode_IPCKF16F32_ANY_IPCKF16F16_@ 10009a44     pconvert.obj
 0001:00008a68       ??_C@_0CE@HDGEOPEO@sNode_IPCKF16F32_ANY_IPCKC10F16_@ 10009a68     pconvert.obj
 0001:00008a8c       ??_C@_0CD@FIJDNDBC@sNode_IPCKF16F32_ANY_IPCKU8F16_A@ 10009a8c     pconvert.obj
 0001:00008ab0       ??_C@_0CG@BODOOAME@sNode_IPCKC10F32_ANY_IUNPCKF32C1@ 10009ab0     pconvert.obj
 0001:00008ad8       ??_C@_0CG@EHCHGBPF@sNode_IPCKC10F32_ANY_IUNPCKF16C1@ 10009ad8     pconvert.obj
 0001:00008b00       ??_C@_0CE@JAGJGACO@sNode_IPCKC10F32_ANY_IPCKC10C10_@ 10009b00     pconvert.obj
 0001:00008b24       ??_C@_0CE@HKMBINDO@sNode_IPCKU8F32_ANY_IUNPCKF32U8_@ 10009b24     pconvert.obj
 0001:00008b48       ??_C@_0CE@NAHNKLEC@sNode_IPCKU8F32_ANY_IUNPCKF16U8_@ 10009b48     pconvert.obj
 0001:00008b6c       ??_C@_0CB@OJMOEDEN@sNode_IPCKU8F32_ANY_IPCKU8U8_ANY@ 10009b6c     pconvert.obj
 0001:00008b90       ??_C@_0CG@HNFJBPNE@sNode_IUNPCKF32F16_ANY_IPCKF16F3@ 10009b90     pconvert.obj
 0001:00008bb8       ??_C@_0CG@HPBEMKBM@sNode_IUNPCKF32F16_ANY_IPCKC10F3@ 10009bb8     pconvert.obj
 0001:00008be0       ??_C@_0CF@CKOLONCN@sNode_IUNPCKF32F16_ANY_IPCKU8F32@ 10009be0     pconvert.obj
 0001:00008c08       ??_C@_0CG@GBFMLEPJ@sNode_IPCKF16F16_ANY_IUNPCKF32F1@ 10009c08     pconvert.obj
 0001:00008c30       ??_C@_0CE@ENIAPHLN@sNode_IPCKF16F16_ANY_IPCKF16F16_@ 10009c30     pconvert.obj
 0001:00008c54       ??_C@_0CE@EPMNCCHF@sNode_IPCKF16F16_ANY_IPCKC10F16_@ 10009c54     pconvert.obj
 0001:00008c78       ??_C@_0CD@PCLKDJDG@sNode_IPCKF16F16_ANY_IPCKU8F16_A@ 10009c78     pconvert.obj
 0001:00008c9c       ??_C@_0CG@MHFJINFI@sNode_IPCKC10F16_ANY_IUNPCKF32C1@ 10009c9c     pconvert.obj
 0001:00008cc4       ??_C@_0CG@JOEAAMGJ@sNode_IPCKC10F16_ANY_IUNPCKF16C1@ 10009cc4     pconvert.obj
 0001:00008cec       ??_C@_0CE@KMMAKNBF@sNode_IPCKC10F16_ANY_IPCKC10C10_@ 10009cec     pconvert.obj
 0001:00008d10       ??_C@_0CE@MLPGMNNH@sNode_IPCKU8F16_ANY_IUNPCKF32U8_@ 10009d10     pconvert.obj
 0001:00008d34       ??_C@_0CE@GBEKOLKL@sNode_IPCKU8F16_ANY_IUNPCKF16U8_@ 10009d34     pconvert.obj
 0001:00008d58       ??_C@_0CB@MKGIDICD@sNode_IPCKU8F16_ANY_IPCKU8U8_ANY@ 10009d58     pconvert.obj
 0001:00008d7c       ??_C@_0CG@BAELFBFF@sNode_IUNPCKF32C10_ANY_IPCKF16F3@ 10009d7c     pconvert.obj
 0001:00008da4       ??_C@_0CG@BCAGIEJN@sNode_IUNPCKF32C10_ANY_IPCKC10F3@ 10009da4     pconvert.obj
 0001:00008dcc       ??_C@_0CF@OFEBIHDI@sNode_IUNPCKF32C10_ANY_IPCKU8F32@ 10009dcc     pconvert.obj
 0001:00008df4       ??_C@_0CI@JFHOBACL@sNode_IUNPCKF16C10_ANY_IUNPCKF32@ 10009df4     pconvert.obj
 0001:00008e1c       ??_C@_0CG@OFCFLKGI@sNode_IUNPCKF16C10_ANY_IPCKF16F1@ 10009e1c     pconvert.obj
 0001:00008e44       ??_C@_0CG@OHGIGPKA@sNode_IUNPCKF16C10_ANY_IPCKC10F1@ 10009e44     pconvert.obj
 0001:00008e6c       ??_C@_0CF@DACILJJL@sNode_IUNPCKF16C10_ANY_IPCKU8F16@ 10009e6c     pconvert.obj
 0001:00008e94       ??_C@_0CG@HEKFCFNH@sNode_IPCKC10C10_ANY_IUNPCKF32C1@ 10009e94     pconvert.obj
 0001:00008ebc       ??_C@_0CG@CNLMKEOG@sNode_IPCKC10C10_ANY_IUNPCKF16C1@ 10009ebc     pconvert.obj
 0001:00008ee4       ??_C@_0CE@MBNCODJE@sNode_IPCKC10C10_ANY_IPCKC10C10_@ 10009ee4     pconvert.obj
 0001:00008f08       ??_C@_0CH@JJPEIALK@sNode_IUNPCKF16U8_ANY_IUNPCKF32F@ 10009f08     pconvert.obj
 0001:00008f30       ??_C@_0CF@GNGIKAEM@sNode_IUNPCKF16U8_ANY_IPCKF16F16@ 10009f30     pconvert.obj
 0001:00008f58       ??_C@_0CF@GPCFHFIE@sNode_IUNPCKF16U8_ANY_IPCKC10F16@ 10009f58     pconvert.obj
 0001:00008f80       ??_C@_0CE@HFGIHLED@sNode_IUNPCKF16U8_ANY_IPCKU8F16_@ 10009f80     pconvert.obj
 0001:00008fa4       ??_C@_0CD@KJDDADBK@sNode_IPCKU8U8_ANY_IUNPCKF32U8_A@ 10009fa4     pconvert.obj
 0001:00008fc8       ??_C@_0CD@DIPCFGG@sNode_IPCKU8U8_ANY_IUNPCKF16U8_A@ 10009fc8     pconvert.obj
 0001:00008fec       ??_C@_0CA@PEOLCPDK@sNode_IPCKU8U8_ANY_IPCKU8U8_ANY?$AA@ 10009fec     pconvert.obj
 0001:0000900c       ??_C@_0BH@EMPBFNMP@sNode_IUNPCKF32F16_ANY?$AA@ 1000a00c     pconvert.obj
 0001:00009024       ??_C@_0BH@NCEILALG@sNode_IUNPCKF32C10_ANY?$AA@ 1000a024     pconvert.obj
 0001:0000903c       ??_C@_0BH@ILFBDBIH@sNode_IUNPCKF16C10_ANY?$AA@ 1000a03c     pconvert.obj
 0001:00009054       ??_C@_0BG@NBPIFJNB@sNode_IUNPCKF32U8_ANY?$AA@ 1000a054     pconvert.obj
 0001:0000906c       ??_C@_0BG@HLEEHPKN@sNode_IUNPCKF16U8_ANY?$AA@ 1000a06c     pconvert.obj
 0001:00009084       ??_C@_0BF@ENCOBHCL@sNode_IPCKF16F32_ANY?$AA@ 1000a084     pconvert.obj
 0001:0000909c       ??_C@_0BF@EBCAEEBE@sNode_IPCKF16F16_ANY?$AA@ 1000a09c     pconvert.obj
 0001:000090b4       ??_C@_0BF@EPGDMCOD@sNode_IPCKC10F32_ANY?$AA@ 1000a0b4     pconvert.obj
 0001:000090cc       ??_C@_0BF@EDGNJBNM@sNode_IPCKC10F16_ANY?$AA@ 1000a0cc     pconvert.obj
 0001:000090e4       ??_C@_0BF@NNNEHMKF@sNode_IPCKC10C10_ANY?$AA@ 1000a0e4     pconvert.obj
 0001:000090fc       ??_C@_0BE@OIBMPLMC@sNode_IPCKU8F32_ANY?$AA@ 1000a0fc     pconvert.obj
 0001:00009110       ??_C@_0BE@OEBCKIPN@sNode_IPCKU8F16_ANY?$AA@ 1000a110     pconvert.obj
 0001:00009124       ??_C@_0BD@FFNCDOHM@sNode_IPCKU8U8_ANY?$AA@ 1000a124     pconvert.obj
 0001:00009138       ??_C@_0BD@FJOCHGCM@sNode_IUNPCKF32F16?$AA@ 1000a138     pconvert.obj
 0001:0000914c       ??_C@_0BD@DIGGCBJI@sNode_IUNPCKF32C10?$AA@ 1000a14c     pconvert.obj
 0001:00009160       ??_C@_0BC@FBFDAIIF@sNode_IUNPCKF32U8?$AA@ 1000a160     pconvert.obj
 0001:00009174       ??_C@_0BD@IACOCGFD@sNode_IUNPCKF16C10?$AA@ 1000a174     pconvert.obj
 0001:00009188       ??_C@_0BC@KEPBMMLC@sNode_IUNPCKF16U8?$AA@ 1000a188     pconvert.obj
 0001:0000919c       ??_C@_0BB@MIIAKFLD@sNode_IUNPCKU8U8?$AA@ 1000a19c     pconvert.obj
 0001:000091b0       ??_C@_0BB@OFHBCAPH@sNode_IPCKF16F32?$AA@ 1000a1b0     pconvert.obj
 0001:000091c4       ??_C@_0BB@ICJJDBJN@sNode_IPCKF16F16?$AA@ 1000a1c4     pconvert.obj
 0001:000091d8       ??_C@_0BB@DIAJPKPA@sNode_IPCKC10F32?$AA@ 1000a1d8     pconvert.obj
 0001:000091ec       ??_C@_0BB@FPOBOLJK@sNode_IPCKC10F16?$AA@ 1000a1ec     pconvert.obj
 0001:00009200       ??_C@_0BB@DOGFLMCO@sNode_IPCKC10C10?$AA@ 1000a200     pconvert.obj
 0001:00009214       ??_C@_0BA@MEAFICGP@sNode_IPCKU8F32?$AA@ 1000a214     pconvert.obj
 0001:00009224       ??_C@_0BA@KDONJDAF@sNode_IPCKU8F16?$AA@ 1000a224     pconvert.obj
 0001:00009234       ??_C@_0P@FBILECJL@sNode_IPCKU8U8?$AA@ 1000a234     pconvert.obj
 0001:00009244       ??_C@_0N@MJDGKNBI@sNode_ISOPWM?$AA@ 1000a244     pconvert.obj
 0001:00009254       ??_C@_0M@DDHBANPN@sNode_ISOP3?$AA@ 1000a254     pconvert.obj
 0001:0000f308       ??_C@_0FE@OOKONFM@c?3?2data?2jatin?2powervr_build?2ddk1@ 10010308     pconvert.obj
 0001:0000f35c       ??_C@_0DC@FJCHOJJ@PCONVERT?3?5uPrecisionConversionPa@ 1001035c     pconvert.obj
 0001:0000f390       ??_C@_0BN@KGKCGK@Sanity?5check?5for?5hash?5failed?$AA@ 10010390     pconvert.obj
 0001:0000f3b0       ??_C@_1KI@HPPICGEP@?$AAc?$AA?3?$AA?2?$AAd?$AAa?$AAt?$AAa?$AA?2?$AAj?$AAa?$AAt?$AAi?$AAn?$AA?2?$AAp?$AAo?$AAw?$AAe?$AAr?$AAv?$AAr?$AA_?$AAb?$AAu?$AAi?$AAl?$AAd?$AA?2?$AAd?$AAd?$AAk?$AA1@ 100103b0     pconvert.obj
 0001:0000f498       ??_C@_1KE@FJGMPEJ@?$AAc?$AA?3?$AA?2?$AAd?$AAa?$AAt?$AAa?$AA?2?$AAj?$AAa?$AAt?$AAi?$AAn?$AA?2?$AAp?$AAo?$AAw?$AAe?$AAr?$AAv?$AAr?$AA_?$AAb?$AAu?$AAi?$AAl?$AAd?$AA?2?$AAd?$AAd?$AAk?$AA1@ 10010498     uspbin.obj
 0001:0000f53c       ??_C@_0CI@HIPBGDKP@Failed?5to?5alloc?5space?5for?5USP?5PC@ 1001053c     uspbin.obj
 0001:0000f568       ??_C@_0FC@FCNKGGCK@c?3?2data?2jatin?2powervr_build?2ddk1@ 10010568     uspbin.obj
 0001:0000f5bc       ??_C@_0CJ@IKPLOJNL@Error?5creating?5texture?5unpacking@ 100105bc     hw.obj
 0001:0000f5e8       ??_C@_0CD@FIHIACJI@Error?5creating?5auNonAnisoTexStag@ 100105e8     hw.obj
 0001:0000f610       ??_C@_1JM@ILAHABEI@?$AAc?$AA?3?$AA?2?$AAd?$AAa?$AAt?$AAa?$AA?2?$AAj?$AAa?$AAt?$AAi?$AAn?$AA?2?$AAp?$AAo?$AAw?$AAe?$AAr?$AAv?$AAr?$AA_?$AAb?$AAu?$AAi?$AAl?$AAd?$AA?2?$AAd?$AAd?$AAk?$AA1@ 10010610     hw.obj
 0001:0000f6ac       ??_C@_0CP@CEGPEEME@Error?5creating?5register?5constant@ 100106ac     hw.obj
 0001:0000f6dc       ??_C@_0CN@PJAHODBO@Error?5creating?5memory?5constant?5m@ 100106dc     hw.obj
 0001:0000f70c       ??_C@_0CP@NOOABCCM@Error?5creating?5non?9dependent?5tex@ 1001070c     hw.obj
 0001:0000f73c       ??_C@_0CO@LKDIJLBA@Failed?5to?5alloc?5space?5for?5SA?9upd@ 1001073c     hw.obj
 0001:0000f76c       ??_C@_0CE@DLDEOCO@Failed?5to?5alloc?5space?5for?5USSE?5c@ 1001076c     hw.obj
 0001:0000f790       ??_C@_0DG@CLPKGDCJ@Too?5many?5instructions?5in?5the?5sec@ 10010790     hw.obj
 0001:0000f7c8       ??_C@_0CK@FNGDFELB@Too?5many?5instructions?5in?5the?5mai@ 100107c8     hw.obj
 0001:0000f7f8       ??_C@_0EO@HFABKNBB@c?3?2data?2jatin?2powervr_build?2ddk1@ 100107f8     hw.obj
 0001:0000f848       ??_C@_04OIHHNFHN@cube?$AA@ 10010848     debug.obj
 0001:0000f850       ??_C@_01EKENIIDA@3?$AA@    10010850     debug.obj
 0001:0000f854       ??_C@_01FDFGLJHB@2?$AA@    10010854     debug.obj
 0001:0000f858       ??_C@_01HIHLOKLC@1?$AA@    10010858     debug.obj
 0001:0000f85c       ??_C@_0BA@PDDPCAJO@?0?5TRILINEAR?$DNOFF?$AA@ 1001085c     debug.obj
 0001:0000f86c       ??_C@_0P@NBDHLILP@?0?5TRILINEAR?$DNON?$AA@ 1001086c     debug.obj
 0001:0000f87c       ??_C@_04OBIMPODC@DF32?$AA@ 1001087c     debug.obj
 0001:0000f884       ??_C@_0M@FEEAIJGL@UINT16UINT2?$AA@ 10010884     debug.obj
 0001:0000f890       ??_C@_0N@HDEHAPD@UINT16UINT10?$AA@ 10010890     debug.obj
 0001:0000f8a0       ??_C@_06DAAIPJGK@SINT32?$AA@ 100108a0     debug.obj
 0001:0000f8a8       ??_C@_06FHOAOIAA@SINT16?$AA@ 100108a8     debug.obj
 0001:0000f8b0       ??_C@_05JGCFALKE@SINT8?$AA@ 100108b0     debug.obj
 0001:0000f8b8       ??_C@_06FDNIMMFA@UINT32?$AA@ 100108b8     debug.obj
 0001:0000f8c0       ??_C@_06DEDANNDK@UINT16?$AA@ 100108c0     debug.obj
 0001:0000f8c8       ??_C@_05EAHMOILJ@UINT8?$AA@ 100108c8     debug.obj
 0001:0000f8d0       ??_C@_03KNPFGOGE@C10?$AA@  100108d0     debug.obj
 0001:0000f8d4       ??_C@_04PIDMBGMH@U8UN?$AA@ 100108d4     debug.obj
 0001:0000f8dc       ??_C@_03LOKNBNHK@U24?$AA@  100108dc     debug.obj
 0001:0000f8e0       ??_C@_03OKMGHDAC@ONE?$AA@  100108e0     debug.obj
 0001:0000f8e4       ??_C@_04PPGNNOJD@ZERO?$AA@ 100108e4     debug.obj
 0001:0000f8ec       ??_C@_03KLJJCILK@F32?$AA@  100108ec     debug.obj
 0001:0000f8f0       ??_C@_03MMHBDJNA@F16?$AA@  100108f0     debug.obj
 0001:0000f8f4       ??_C@_03KLLGJOHN@S16?$AA@  100108f4     debug.obj
 0001:0000f8f8       ??_C@_03IONNMBKB@U16?$AA@  100108f8     debug.obj
 0001:0000f8fc       ??_C@_02HJNLAKPP@S8?$AA@   100108fc     debug.obj
 0001:0000f900       ??_C@_02HNFGHGEN@U8?$AA@   10010900     debug.obj
 0001:0000f904       ??_C@_03KOECGNEM@INV?$AA@  10010904     debug.obj
 0001:0000f908       ??_C@_05JCPNLFCJ@ANISO?$AA@ 10010908     debug.obj
 0001:0000f910       ??_C@_06HLLDPCCO@LINEAR?$AA@ 10010910     debug.obj
 0001:0000f918       ??_C@_05NKNPLGBO@POINT?$AA@ 10010918     debug.obj
 0001:0000f920       ??_C@_0M@GLJPNNOF@UNSPECIFIED?$AA@ 10010920     debug.obj
 0001:0000f9d8       ??_C@_0FB@JLGMJHKJ@c?3?2data?2jatin?2powervr_build?2ddk1@ 100109d8     debug.obj
 0001:0000fa2c       ??_C@_09CKCJCCOK@Warning?3?5?$AA@ 10010a2c     debug.obj
 0001:0000fa38       ??_C@_07KAJBENLI@Error?3?5?$AA@ 10010a38     debug.obj
 0001:0000fa40       ??_C@_0L@JJHNMFFM@?0?5PCFCOMP?$DN?$AA@ 10010a40     debug.obj
 0001:0000fa4c       ??_C@_0M@BCNDIPAK@?0?5MINFILTER?$AA@ 10010a4c     debug.obj
 0001:0000fa58       ??_C@_0M@LGEEDGDJ@?0?5MAGFILTER?$AA@ 10010a58     debug.obj
 0001:0000fa64       ??_C@_03EJMFEHMN@?0?5M?$AA@ 10010a64     debug.obj
 0001:0000fa68       ??_C@_09BIODNKFJ@?0?5SWAPF16?$AA@ 10010a68     debug.obj
 0001:0000fa74       ??_C@_07KCGDCOFB@?0?5YUV?$CFu?$AA@ 10010a74     debug.obj
 0001:0000fa7c       ??_C@_05EJCEGJGO@?0?5C?$CFd?$AA@ 10010a7c     debug.obj
 0001:0000fa84       ??_C@_05OAGAGAKN@?0?5PCF?$AA@ 10010a84     debug.obj
 0001:0000fa8c       ??_C@_07HECJMFAJ@?0?5GAMMA?$AA@ 10010a8c     debug.obj
 0001:0000fa94       ??_C@_06OLOCAAIO@?0?5MINP?$AA@ 10010a94     debug.obj
 0001:0000fa9c       ??_C@_05KFOPEHBP@?0?5TWO?$AA@ 10010a9c     debug.obj
 0001:0000faa4       ??_C@_06DJOGJFP@?0?5?$CF?44s?$AA@ 10010aa4     debug.obj
 0001:0000faac       ??_C@_02GPECMEKF@?$FL?$FN?$AA@ 10010aac     debug.obj
 0001:0000fab0       ??_C@_04KHEKMLOH@?0?5?$CFs?$AA@ 10010ab0     debug.obj
 0001:0000fab8       ??_C@_06KAOAJHNC@TEX?7?$CFd?$AA@ 10010ab8     debug.obj
 0001:0000fac0       ??_C@_0BE@NMDBHLOJ@CONSTF?7c?$CFd?4?$CFc?0?50x?$CFX?$AA@ 10010ac0     debug.obj
 0001:0000fad4       ??_C@_0P@MOELMGD@MAXOPTLEVEL?5?$CFu?$AA@ 10010ad4     debug.obj
 0001:0000fae4       ??_C@_0BE@DNGIHADD@PREDICATIONLEVEL?5?$CFu?$AA@ 10010ae4     debug.obj
 0001:0000faf8       ??_C@_0N@PCHKONOL@MAXBBSIZE?5?$CFu?$AA@ 10010af8     debug.obj
 0001:0000fb08       ??_C@_0BC@NEJAAPEF@SPECULAROUTPUT?5?$CFu?$AA@ 10010b08     debug.obj
 0001:0000fb1c       ??_C@_0BB@LKJPAEPA@DIFFUSEOUTPUT?5?$CFu?$AA@ 10010b1c     debug.obj
 0001:0000fb30       ??_C@_0BD@OJGGDNAA@POINTSIZEOUTPUT?5?$CFu?$AA@ 10010b30     debug.obj
 0001:0000fb44       ??_C@_0BB@ICAHMDHD@TEMPARRAY?5?$CFu?0?5?$CFu?$AA@ 10010b44     debug.obj
 0001:0000fb58       ??_C@_0M@OLALHDCI@NUMTEMPS?5?$CFu?$AA@ 10010b58     debug.obj
 0001:0000fb64       ??_C@_0BD@PLHOFMEA@TEMPARRAYSABASE?5?$CFu?$AA@ 10010b64     debug.obj
 0001:0000fb78       ??_C@_0CJ@JNLDLGKL@SAOFFSETS?5?$CFu?0?5?$CFu?0?5?$CFu?0?5?$CFu?0?5?$CFu?0?5?$CFu@ 10010b78     debug.obj
 0001:0000fba4       ??_C@_0BF@NJBOHFA@VSOUTPUTSALWAYSVALID?$AA@ 10010ba4     debug.obj
 0001:0000fbbc       ??_C@_0BG@MDNHOKGI@ENABLEVECTORDUALISSUE?$AA@ 10010bbc     debug.obj
 0001:0000fbd4       ??_C@_0BI@BCKHEPEG@CONSTEXPLICTADDRESSMODE?$AA@ 10010bd4     debug.obj
 0001:0000fbec       ??_C@_0BD@PGMLICMJ@SMPIMMCOORDOFFSETS?$AA@ 10010bec     debug.obj
 0001:0000fc00       ??_C@_0BJ@LFAAILGK@MULTIPLECONSTANTSBUFFERS?$AA@ 10010c00     debug.obj
 0001:0000fc1c       ??_C@_0BL@LJGABCNP@TEXTURESTATECONSTOFFSET?5?$CFu?$AA@ 10010c1c     debug.obj
 0001:0000fc38       ??_C@_0BF@KDNAGLDG@EXTRACTCONSTANTCALCS?$AA@ 10010c38     debug.obj
 0001:0000fc50       ??_C@_0N@BLNDCDOB@TARGETREV?5?$CFu?$AA@ 10010c50     debug.obj
 0001:0000fc60       ??_C@_09PLGMOKGH@TARGET?5?$CFs?$AA@ 10010c60     debug.obj
 0001:0000fc6c       ??_C@_0BJ@CGFNMHMF@OUTPUTSAT?5?$CFu?0?5?$CFu?0?5?$CFu?0?5?$CFu?$AA@ 10010c6c     debug.obj
 0001:0000fc88       ??_C@_0M@OLILJAFC@PACKPREC?5?$CFu?$AA@ 10010c88     debug.obj
 0001:0000fc94       ??_C@_0BC@INMHLLAP@PACKDESTFORMAT?5?$CFs?$AA@ 10010c94     debug.obj
 0001:0000fca8       ??_C@_1KC@FPOANILH@?$AAc?$AA?3?$AA?2?$AAd?$AAa?$AAt?$AAa?$AA?2?$AAj?$AAa?$AAt?$AAi?$AAn?$AA?2?$AAp?$AAo?$AAw?$AAe?$AAr?$AAv?$AAr?$AA_?$AAb?$AAu?$AAi?$AAl?$AAd?$AA?2?$AAd?$AAd?$AAk?$AA1@ 10010ca8     debug.obj
 0001:0000fd4c       ??_C@_0BF@FJMGCOOE@RESERVEDPDSCONSTS?5?$CFu?$AA@ 10010d4c     debug.obj
 0001:0000fd64       ??_C@_09ICDGANKJ@PROJCOORD?$AA@ 10010d64     debug.obj
 0001:0000fd70       ??_C@_0BE@HPLGEIAM@FLATSHADEDTEXCOORDS?$AA@ 10010d70     debug.obj
 0001:0000fd84       ??_C@_0L@LKMIJFFH@PACKDEST?5?$DP?$AA@ 10010d84     debug.obj
 0001:0000fd90       ??_C@_0L@JFPHOMKB@PACKDEST?5O?$AA@ 10010d90     debug.obj
 0001:0000fd9c       ??_C@_0L@FIKNOCDP@PACKDEST?5P?$AA@ 10010d9c     debug.obj
 0001:0000fda8       ??_C@_0L@GKJLIALN@PACKDEST?5R?$AA@ 10010da8     debug.obj
 0001:0000fdb4       ??_C@_0M@CPFIAIMG@EXTRAITR?5?$CFu?$AA@ 10010db4     debug.obj
 0001:0000fdc0       ??_C@_0BK@JNAJMHBJ@POSTSPLITPREAMBLECOUNT?5?$CFu?$AA@ 10010dc0     debug.obj
 0001:0000fddc       ??_C@_0BH@FPBIGOIH@POSTFBPREAMBLECOUNT?5?$CFu?$AA@ 10010ddc     debug.obj
 0001:0000fdf4       ??_C@_0BB@MGHONOMJ@PREAMBLECOUNT?5?$CFu?$AA@ 10010df4     debug.obj
 0001:0000fe08       ??_C@_0L@BGMPEHOK@NOMOERESET?$AA@ 10010e08     debug.obj
 0001:0000fe14       ??_C@_0N@LMKHIKLG@NOCONSTREMAP?$AA@ 10010e14     debug.obj
 0001:0000fe24       ??_C@_04DAPKPLNO@GLSL?$AA@ 10010e24     debug.obj
 0001:0000fe2c       ??_C@_09CGFDJNNL@MSAATRANS?$AA@ 10010e2c     debug.obj
 0001:0000fe38       ??_C@_0BB@BLLKEIKJ@SHADERINPUTRANGE?$AA@ 10010e38     debug.obj
 0001:0000fe4c       ??_C@_0BC@NFGNFALK@SHADEROUTPUTRANGE?$AA@ 10010e4c     debug.obj
 0001:0000fe60       ??_C@_0BG@MAOIPFAN@GEOMETRYSHADER?5?$CFu?0?5?$CFu?$AA@ 10010e60     debug.obj
 0001:0000fe78       ??_C@_0BC@NIBEKBNM@REDIRECTVSOUTPUTS?$AA@ 10010e78     debug.obj
 0001:0000fe8c       ??_C@_0N@NMAMIJI@VERTEXSHADER?$AA@ 10010e8c     debug.obj
 0001:0000fe9c       ??_C@_0M@GGKEPEHG@NOALPHATEST?$AA@ 10010e9c     debug.obj
 0001:0000fea8       ??_C@_0L@CCBANDNB@SPLITFB?5?$CFu?$AA@ 10010ea8     debug.obj
 0001:0000feb4       ??_C@_05OIIBGAML@?5?$CF08X?$AA@ 10010eb4     debug.obj
 0001:0000febc       ??_C@_0BE@DDMPILOG@VALIDSHADEROUTPUTS?7?$AA@ 10010ebc     debug.obj
 0001:0000fed0       ??_C@_0BI@KLHNHIA@INVARIANTSHADEROUTPUTS?7?$AA@ 10010ed0     debug.obj
 0001:0000fee8       ??_C@_05JPPLNOIE@?$CFs?$DN?$CFs?$AA@ 10010ee8     debug.obj
 0001:0000fef0       ??_C@_09ILPOCMJB@?$CFs?5?$CFu?0?5?$CFu?$AA@ 10010ef0     debug.obj
 0001:0000fefc       ??_C@_0BC@GEOBAHH@RANGECHECK?5?$CFu?0?5?$CFu?$AA@ 10010efc     debug.obj
 0001:0000ff10       ??_C@_0O@LHMPGOBI@RANGECHECK?5?$CFu?$AA@ 10010f10     debug.obj
 0001:0000ff20       ??_C@_0P@JGIKCMMG@CONSTRANGE?5?$CFd?0?$AA@ 10010f20     debug.obj
 0001:0000ff30       ??_C@_0L@JMFFLMK@CONSTRANGE?$AA@ 10010f30     debug.obj
 0001:0000ff3c       ??_C@_0CB@FJDBHKKA@CONSTBUFFDESC?5?$CFd?0?5?$CFc?0?5?$CFd?0?5?$CFd?0?5?$CFd@ 10010f3c     debug.obj
 0001:0000ff60       ??_C@_05FIEHEAGH@?5?$CF?48X?$AA@ 10010f60     debug.obj
 0001:0000ff68       ??_C@_08CGPOONCN@source?52?$AA@ 10010f68     useasm:useasm.obj
 0001:0000ff74       ??_C@_08NNDLOOO@source?51?$AA@ 10010f74     useasm:useasm.obj
 0001:0000ff80       ??_C@_08BEMIIPKP@source?50?$AA@ 10010f80     useasm:useasm.obj
 0001:0000ff8c       ??_C@_0M@BLMAJMLK@destination?$AA@ 10010f8c     useasm:useasm.obj
 0001:0000ffd0       ??_C@_0BE@CMNIOOMH@Unknown?5instruction?$AA@ 10010fd0     useasm:useasm.obj
 0001:0000ffe4       ??_C@_0BN@FNBEMNH@?$CFs?5should?5have?5been?5coissued?$AA@ 10010fe4     useasm:useasm.obj
 0001:00010008       ??_C@_0EL@CEJMDIFD@Branch?5destination?5is?5out?5of?5ran@ 10011008     useasm:useasm.obj
 0001:00010058       ??_C@_0EM@IGAKCAGC@Branch?5destination?5is?5out?5of?5ran@ 10011058     useasm:useasm.obj
 0001:000100a8       ??_C@_0JC@CGJAIGHK@The?5destination?5label?5for?5a?5bran@ 100110a8     useasm:useasm.obj
 0001:0001013c       ??_C@_0DN@GHBJDHKE@The?5third?5argument?5to?5dot3?1dot4?5@ 1001113c     useasm:useasm.obj
 0001:0001017c       ??_C@_0DH@BBGJEJBC@No?5flags?5are?5valid?5for?5the?5third@ 1001117c     useasm:useasm.obj
 0001:000101b8       ??_C@_0EE@JPJEDBPB@The?5third?5argument?5to?5dot3?1dot4?5@ 100111b8     useasm:useasm.obj
 0001:000101fc       ??_C@_0DP@MPNPCIOH@The?5second?5argument?5to?5dot3?1dot4@ 100111fc     useasm:useasm.obj
 0001:0001023c       ??_C@_0DI@NLNHCCFG@No?5flags?5are?5valid?5for?5the?5secon@ 1001123c     useasm:useasm.obj
 0001:00010278       ??_C@_0EF@EFCBABKE@The?5second?5argument?5to?5dot3?1dot4@ 10011278     useasm:useasm.obj
 0001:000102c0       ??_C@_0CM@NAFINKIH@The?5fifth?5argument?5to?5aadd?1asub?5@ 100112c0     useasm:useasm.obj
 0001:000102ec       ??_C@_0DH@LBMFOABC@No?5flags?5are?5valid?5for?5the?5fifth@ 100112ec     useasm:useasm.obj
 0001:00010328       ??_C@_0EE@NHDHBHPH@The?5fifth?5argument?5to?5aadd?1asub?5@ 10011328     useasm:useasm.obj
 0001:00010370       ??_C@_0EH@BNLGGDIJ@Only?5the?5complement?5flag?5is?5vali@ 10011370     useasm:useasm.obj
 0001:000103b8       ??_C@_0EF@BHNJGLAO@The?5fourth?5argument?5to?5aadd?1asub@ 100113b8     useasm:useasm.obj
 0001:00010400       ??_C@_0CM@LAIDNOIF@The?5third?5argument?5to?5aadd?1asub?5@ 10011400     useasm:useasm.obj
 0001:00010430       ??_C@_0EG@KPNPAEGJ@Only?5the?5complement?5flag?5is?5vali@ 10011430     useasm:useasm.obj
 0001:00010478       ??_C@_0EE@HCICJMII@The?5third?5argument?5to?5aadd?1asub?5@ 10011478     useasm:useasm.obj
 0001:000104c0       ??_C@_0FM@FCNEOKCI@Invalid?5choice?5for?5the?5second?5ar@ 100114c0     useasm:useasm.obj
 0001:00010520       ??_C@_0EH@COHNMHNB@Only?5the?5complement?5flag?5is?5vali@ 10011520     useasm:useasm.obj
 0001:00010568       ??_C@_0EF@KIDHKMNN@The?5second?5argument?5to?5aadd?1asub@ 10011568     useasm:useasm.obj
 0001:000105b0       ??_C@_0DO@NPGGCMGL@The?5first?5argument?5to?5aadd?1asub?5@ 100115b0     useasm:useasm.obj
 0001:000105f0       ??_C@_0DH@DLDDAMMA@No?5flags?5are?5valid?5for?5the?5first@ 100115f0     useasm:useasm.obj
 0001:00010628       ??_C@_0EE@BEBPNCHP@The?5first?5argument?5to?5aadd?1asub?5@ 10011628     useasm:useasm.obj
 0001:0001066c       ??_C@_0DJ@JGDEEONP@Invalid?5integer?5source?5for?5the?5t@ 1001166c     useasm:useasm.obj
 0001:000106a8       ??_C@_0EE@ELFDABMP@Only?5the?5complement?5flag?5is?5vali@ 100116a8     useasm:useasm.obj
 0001:000106f0       ??_C@_0EC@DANPAEGJ@The?5third?5argument?5to?5aintrp1?5mu@ 100116f0     useasm:useasm.obj
 0001:00010734       ??_C@_0DK@OPCNMALF@Invalid?5integer?5source?5for?5the?5s@ 10011734     useasm:useasm.obj
 0001:00010770       ??_C@_0CN@JFFLIFPF@An?5integer?5source?5selection?5is?5n@ 10011770     useasm:useasm.obj
 0001:000107a0       ??_C@_0DG@NPKDEALG@No?5flags?5are?5valid?5for?5the?5secon@ 100117a0     useasm:useasm.obj
 0001:000107d8       ??_C@_0ED@NIBLILEL@The?5second?5argument?5to?5aintrp1?5m@ 100117d8     useasm:useasm.obj
 0001:0001081c       ??_C@_0CN@IACABJMC@Coissued?5instruction?5with?5no?5alp@ 1001181c     useasm:useasm.obj
 0001:0001084c       ??_C@_0BP@IIAMCHDC@Integer?5dot4?5can?8t?5be?5coissued?$AA@ 1001184c     useasm:useasm.obj
 0001:0001086c       ??_C@_0DF@OBCJJOLL@Maximum?5repeat?5count?5on?5an?5integ@ 1001186c     useasm:useasm.obj
 0001:000108a4       ??_C@_0DK@NIFCHDCD@A?5swizzle?5is?5invalid?5for?5argumen@ 100118a4     useasm:useasm.obj
 0001:000108e0       ??_C@_0EC@FENPMIAM@The?5modifiers?5?4flt32?0?5?4flt16?0?5?4c@ 100118e0     useasm:useasm.obj
 0001:00010924       ??_C@_0DC@LCFHLKAM@?$HO?5is?5invalid?5for?5argument?5?$CFd?5for@ 10011924     useasm:useasm.obj
 0001:00010958       ??_C@_0DM@PBIINBBE@?4requiremoe?5is?5invalid?5for?5argum@ 10011958     useasm:useasm.obj
 0001:00010994       ??_C@_0DE@EJENDBGB@?4u8?5is?5invalid?5for?5argument?5?$CFd?5f@ 10011994     useasm:useasm.obj
 0001:000109c8       ??_C@_0DF@KNCENLBB@?4c10?5is?5invalid?5for?5argument?5?$CFd?5@ 100119c8     useasm:useasm.obj
 0001:00010a00       ??_C@_0DH@LCLAOIMP@?4flt16?5is?5invalid?5for?5argument?5?$CF@ 10011a00     useasm:useasm.obj
 0001:00010a38       ??_C@_0DH@IAOLGEKP@?4flt32?5is?5invalid?5for?5argument?5?$CF@ 10011a38     useasm:useasm.obj
 0001:00010a70       ??_C@_0EC@LIBCAICE@Disable?5writeback?5is?5invalid?5for@ 10011a70     useasm:useasm.obj
 0001:00010ab4       ??_C@_0DG@MICEFMNE@?4comp?5is?5invalid?5for?5argument?5?$CFd@ 10011ab4     useasm:useasm.obj
 0001:00010aec       ??_C@_0DH@BJDJAOJN@?4alpha?5is?5invalid?5for?5argument?5?$CF@ 10011aec     useasm:useasm.obj
 0001:00010b24       ??_C@_0DG@NIHNAGBL@?4high?5is?5invalid?5for?5argument?5?$CFd@ 10011b24     useasm:useasm.obj
 0001:00010b5c       ??_C@_0DF@HFACOLNL@?4low?5is?5invalid?5for?5argument?5?$CFd?5@ 10011b5c     useasm:useasm.obj
 0001:00010b94       ??_C@_0DI@BMAPILCJ@?4invert?5is?5invalid?5for?5argument?5@ 10011b94     useasm:useasm.obj
 0001:00010bcc       ??_C@_0DK@PJAHFLKI@A?5bytemask?5is?5invalid?5for?5argume@ 10011bcc     useasm:useasm.obj
 0001:00010c08       ??_C@_0EC@IJJBJBBP@A?5component?5select?5is?5invalid?5fo@ 10011c08     useasm:useasm.obj
 0001:00010c4c       ??_C@_0DE@NBGIMLFH@?4abs?5is?5invalid?5for?5argument?5?$CFd?5@ 10011c4c     useasm:useasm.obj
 0001:00010c80       ??_C@_0DE@MPDILDBH@?4neg?5is?5invalid?5for?5argument?5?$CFd?5@ 10011c80     useasm:useasm.obj
 0001:00010cb4       ??_C@_0CJ@EOFBMGJB@?4anyinst?5is?5invalid?5for?5this?5ins@ 10011cb4     useasm:useasm.obj
 0001:00010ce0       ??_C@_0CJ@LAMJCCAH@?4allinst?5is?5invalid?5for?5this?5ins@ 10011ce0     useasm:useasm.obj
 0001:00010d0c       ??_C@_0CH@OGBNJBLO@?4freep?5is?5invalid?5for?5this?5instr@ 10011d0c     useasm:useasm.obj
 0001:00010d34       ??_C@_0CG@DEPAAINN@?4smsk?5is?5invalid?5for?5this?5instru@ 10011d34     useasm:useasm.obj
 0001:00010d5c       ??_C@_0CG@HDBABLGF@?4minp?5is?5invalid?5for?5this?5instru@ 10011d5c     useasm:useasm.obj
 0001:00010d84       ??_C@_0CG@JNEGBJAJ@?4irsd?5is?5invalid?5for?5this?5instru@ 10011d84     useasm:useasm.obj
 0001:00010dac       ??_C@_0CH@MOFKMNFF@?4pwait?5is?5invalid?5for?5this?5instr@ 10011dac     useasm:useasm.obj
 0001:00010dd4       ??_C@_0CI@FJKAAMII@?4noread?5is?5invalid?5for?5this?5inst@ 10011dd4     useasm:useasm.obj
 0001:00010dfc       ??_C@_0CM@BKAEHGEJ@?4dm_nomatch?5is?5invalid?5for?5this?5@ 10011dfc     useasm:useasm.obj
 0001:00010e28       ??_C@_0CI@LAPAEMDG@?4global?5is?5invalid?5for?5this?5inst@ 10011e28     useasm:useasm.obj
 0001:00010e50       ??_C@_0CI@JBBFIBPL@?4gpiext?5is?5invalid?5for?5this?5inst@ 10011e50     useasm:useasm.obj
 0001:00010e78       ??_C@_0CK@DEEAJLON@?4bypassl1?5is?5invalid?5for?5this?5in@ 10011e78     useasm:useasm.obj
 0001:00010ea4       ??_C@_0CF@EHCJCPGO@?4cut?5is?5invalid?5for?5this?5instruc@ 10011ea4     useasm:useasm.obj
 0001:00010ecc       ??_C@_0CL@OGDOHFNH@?4threepart?5is?5invalid?5for?5this?5i@ 10011ecc     useasm:useasm.obj
 0001:00010ef8       ??_C@_0CJ@FCBBHHDD@?4twopart?5is?5invalid?5for?5this?5ins@ 10011ef8     useasm:useasm.obj
 0001:00010f24       ??_C@_0CJ@GOGNFJGL@?4trigger?5is?5invalid?5for?5this?5ins@ 10011f24     useasm:useasm.obj
 0001:00010f50       ??_C@_0CJ@GIKGIFLP@?4syncend?5is?5invalid?5for?5this?5ins@ 10011f50     useasm:useasm.obj
 0001:00010f7c       ??_C@_0CG@IHPDGLHB@?4sinf?5is?5invalid?5for?5this?5instru@ 10011f7c     useasm:useasm.obj
 0001:00010fa4       ??_C@_0CF@NKHJPKHH@?4rsd?5is?5invalid?5for?5this?5instruc@ 10011fa4     useasm:useasm.obj
 0001:00010fcc       ??_C@_0CI@NKNMDDOG@?4pcff16?5is?5invalid?5for?5this?5inst@ 10011fcc     useasm:useasm.obj
 0001:00010ff4       ??_C@_0CF@CNBHLDDL@?4pcf?5is?5invalid?5for?5this?5instruc@ 10011ff4     useasm:useasm.obj
 0001:0001101c       ??_C@_0CG@KBDEHIIG@?4incs?5is?5invalid?5for?5this?5instru@ 1001201c     useasm:useasm.obj
 0001:00011044       ??_C@_0CF@HDBKEIDN@?4tog?5is?5invalid?5for?5this?5instruc@ 10012044     useasm:useasm.obj
 0001:0001106c       ??_C@_0CF@CPPKEJPF@?4c10?5is?5invalid?5for?5this?5instruc@ 1001206c     useasm:useasm.obj
 0001:00011094       ??_C@_0CH@JJCJAFEG@?4tpres?5is?5invalid?5for?5this?5instr@ 10012094     useasm:useasm.obj
 0001:000110bc       ??_C@_0CF@KOMKFHLA@?4i10?5is?5invalid?5for?5this?5instruc@ 100120bc     useasm:useasm.obj
 0001:000110e4       ??_C@_0CF@KACIFBOK@?4flt?5is?5invalid?5for?5this?5instruc@ 100120e4     useasm:useasm.obj
 0001:0001110c       ??_C@_0CF@KDIDNMAN@?4i32?5is?5invalid?5for?5this?5instruc@ 1001210c     useasm:useasm.obj
 0001:00011134       ??_C@_0CF@HFMHLBAE@?4i16?5is?5invalid?5for?5this?5instruc@ 10012134     useasm:useasm.obj
 0001:0001115c       ??_C@_0CF@GBAIFKNL@?4sat?5is?5invalid?5for?5this?5instruc@ 1001215c     useasm:useasm.obj
 0001:00011184       ??_C@_0DE@KONNOGII@pre?9?1post?9increment?5is?5invalid?5f@ 10012184     useasm:useasm.obj
 0001:000111b8       ??_C@_0CH@MJONMLMP@?4scale?5is?5invalid?5for?5this?5instr@ 100121b8     useasm:useasm.obj
 0001:000111e0       ??_C@_0CH@BGLMLOBA@?4taske?5is?5invalid?5for?5this?5instr@ 100121e0     useasm:useasm.obj
 0001:00011208       ??_C@_0CH@OIAHEBAH@?4tasks?5is?5invalid?5for?5this?5instr@ 10012208     useasm:useasm.obj
 0001:00011230       ??_C@_0CI@JKBHNFPL@?4fcfill?5is?5invalid?5for?5this?5inst@ 10012230     useasm:useasm.obj
 0001:00011258       ??_C@_0CJ@POAKEGNN@?4bpcache?5is?5invalid?5for?5this?5ins@ 10012258     useasm:useasm.obj
 0001:00011284       ??_C@_0CK@NHGHHGDI@?4onceonly?5is?5invalid?5for?5this?5in@ 10012284     useasm:useasm.obj
 0001:000112b0       ??_C@_0CH@NCCAPODE@?4fetch?5is?5invalid?5for?5this?5instr@ 100122b0     useasm:useasm.obj
 0001:000112d8       ??_C@_0CL@BFLFDPDE@testenable?5is?5invalid?5for?5this?5i@ 100122d8     useasm:useasm.obj
 0001:00011304       ??_C@_0CM@GBLJGDF@rangeneable?5is?5invalid?5for?5this?5@ 10012304     useasm:useasm.obj
 0001:00011330       ??_C@_0CO@LDDPCEIK@postincrement?5is?5invalid?5for?5thi@ 10012330     useasm:useasm.obj
 0001:00011360       ??_C@_0CN@ILKEEOL@preincrement?5is?5invalid?5for?5this@ 10012360     useasm:useasm.obj
 0001:00011390       ??_C@_0CH@PGFJCIMI@?4flt16?5is?5invalid?5for?5this?5instr@ 10012390     useasm:useasm.obj
 0001:000113b8       ??_C@_0DD@MCGMIGNN@This?5instruction?5can?8t?5be?5part?5o@ 100123b8     useasm:useasm.obj
 0001:000113ec       ??_C@_0CJ@OKDELEHB@?4renable?5is?5invalid?5for?5this?5ins@ 100123ec     useasm:useasm.obj
 0001:00011418       ??_C@_0CF@FIFBOHH@?4abs?5is?5invalid?5for?5this?5instruc@ 10012418     useasm:useasm.obj
 0001:00011440       ??_C@_0CF@KMGKJBBN@?4mon?5is?5invalid?5for?5this?5instruc@ 10012440     useasm:useasm.obj
 0001:00011468       ??_C@_0CG@HGFIGOGH@?4mask?5is?5invalid?5for?5this?5instru@ 10012468     useasm:useasm.obj
 0001:00011490       ??_C@_0CJ@BJIFKGIO@?4partial?5is?5invalid?5for?5this?5ins@ 10012490     useasm:useasm.obj
 0001:000114bc       ??_C@_0CK@IEFIOMMP@?4savelink?5is?5invalid?5for?5this?5in@ 100124bc     useasm:useasm.obj
 0001:000114e8       ??_C@_0CH@EIPKEMIK@?4synce?5is?5invalid?5for?5this?5instr@ 100124e8     useasm:useasm.obj
 0001:00011510       ??_C@_0CF@KFDDBKGG@?4end?5is?5invalid?5for?5this?5instruc@ 10012510     useasm:useasm.obj
 0001:00011538       ??_C@_0CM@ONJAAFFM@A?5predicate?5is?5invalid?5for?5this?5@ 10012538     useasm:useasm.obj
 0001:00011564       ??_C@_0CO@HKFMBEAO@A?5repeat?5mask?5is?5invalid?5for?5thi@ 10012564     useasm:useasm.obj
 0001:00011594       ??_C@_0CI@BKLOOKDP@?4repeat?5is?5invalid?5for?5this?5inst@ 10012594     useasm:useasm.obj
 0001:000115bc       ??_C@_0CJ@JOPLONOF@?4nosched?5is?5invalid?5for?5this?5ins@ 100125bc     useasm:useasm.obj
 0001:000115e8       ??_C@_0CH@LGEBLDJN@?4syncs?5is?5invalid?5for?5this?5instr@ 100125e8     useasm:useasm.obj
 0001:00011610       ??_C@_0CE@LNKCCLIM@?4i8?5is?5invalid?5for?5this?5instruct@ 10012610     useasm:useasm.obj
 0001:00011634       ??_C@_0CJ@MMEFPBHM@?4skipinv?5is?5invalid?5for?5this?5ins@ 10012634     useasm:useasm.obj
 0001:00011660       ??_C@_0CK@BPJMEOGN@?$CFs?5is?5not?5a?5valid?5destination?5ty@ 10012660     useasm:useasm.obj
 0001:0001168c       ??_C@_0CK@FBILJLCJ@Destination?5must?5be?5a?5modifiable@ 1001268c     useasm:useasm.obj
 0001:000116b8       ??_C@_0DJ@BHIIGCLJ@Indexed?5registers?5aren?8t?5a?5valid@ 100126b8     useasm:useasm.obj
 0001:000116f4       ??_C@_0DC@JLMEGCKC@Argument?5?$CFd?5type?5can?8t?5be?5?$CFs?5for@ 100126f4     useasm:useasm.obj
 0001:00011728       ??_C@_0BN@HHKHJGCN@Argument?5?$CFd?5can?8t?5be?5indexed?$AA@ 10012728     useasm:useasm.obj
 0001:00011748       ??_C@_0BN@JEIEJKM@Argument?5?$CFd?5type?5can?8t?5be?5?$CFs?$AA@ 10012748     useasm:useasm.obj
 0001:00011768       ??_C@_0BK@NIKBIDKC@Argument?5?$CFd?5can?8t?5indexed?$AA@ 10012768     useasm:useasm.obj
 0001:00011784       ??_C@_0CK@INEOLDIC@Invalid?5constant?5register?5specif@ 10012784     useasm:useasm.obj
 0001:000117b0       ??_C@_0CO@LBPJMKJE@Invalid?5fp?5internal?5register?5spe@ 100127b0     useasm:useasm.obj
 0001:000117e0       ??_C@_0CK@JGFFOFI@Invalid?5internal?5register?5specif@ 100127e0     useasm:useasm.obj
 0001:0001180c       ??_C@_0CH@OHEKEBML@Invalid?5index?5mask?5specified?5?$CIwa@ 1001280c     useasm:useasm.obj
 0001:00011834       ??_C@_0DG@PBPNOJGF@Invalid?5secondary?5attribute?5regi@ 10012834     useasm:useasm.obj
 0001:0001186c       ??_C@_0DE@LFLBECCD@Invalid?5primary?5attribute?5regist@ 1001286c     useasm:useasm.obj
 0001:000118a0       ??_C@_0CI@JCGMLMHK@Invalid?5output?5register?5specifie@ 100128a0     useasm:useasm.obj
 0001:000118c8       ??_C@_0CL@BINLLFEH@Invalid?5temporary?5register?5speci@ 100128c8     useasm:useasm.obj
 0001:000118f8       ??_C@_1BGE@EAOOIHGO@?$AA?$AN?$AA?6?$AA?$CK?$AA?$CK?$AA?$CK?$AA?5?$AAA?$AAS?$AAS?$AAE?$AAR?$AAT?$AAI?$AAO?$AAN?$AA?5?$AAF?$AAA?$AAI?$AAL?$AAE?$AAD?$AA?5?$AAi?$AAn?$AA?5?$AAc?$AA?3?$AA?2?$AAd?$AAa?$AAt@ 100128f8     useasm:useasm.obj
 0001:00011a5c       ??_C@_0DP@KIFGKPIF@Offset?5into?5indexed?5register?5ban@ 10012a5c     useasm:useasm.obj
 0001:00011a9c       ??_C@_0CC@LJGIDMA@Register?5type?5?$CFs?5is?5not?5indexabl@ 10012a9c     useasm:useasm.obj
 0001:00011ac0       ??_C@_0DA@DBENONDM@g?$CFd?5can?5only?5be?5accessed?5in?5bitw@ 10012ac0     useasm:useasm.obj
 0001:00011af0       ??_C@_0DK@LCPGEMNK@Task?5queue?5data?5?$CIg?$CFd?5to?5g?$CFd?$CJ?5can@ 10012af0     useasm:useasm.obj
 0001:00011b2c       ??_C@_0CI@BLCMIAIL@Invalid?5global?5register?5specifie@ 10012b2c     useasm:useasm.obj
 0001:00011b54       ??_C@_0CN@LAECMJLC@?$CFs?5type?5can?8t?5be?5global?5for?5this@ 10012b54     useasm:useasm.obj
 0001:00011b84       ??_C@_0DL@PKMEEOIP@Source?51?5immediate?5value?5is?5too?5@ 10012b84     useasm:useasm.obj
 0001:00011bc0       ??_C@_08IPCCDMEN@Source?51?$AA@ 10012bc0     useasm:useasm.obj
 0001:00011bcc       ??_C@_0DG@NFHFDDMG@?$CFs?5immediate?5value?5is?5too?5small?5@ 10012bcc     useasm:useasm.obj
 0001:00011c04       ??_C@_0DF@HLDFHJJG@?$CFs?5immediate?5value?5is?5too?5large?5@ 10012c04     useasm:useasm.obj
 0001:00011c3c       ??_C@_0CM@IBHBOODC@Invalid?5predicate?5type?5for?5this?5@ 10012c3c     useasm:useasm.obj
 0001:00011c68       ??_C@_0FD@DCBOAODI@A?5C10?5format?5destination?5isn?8t?5s@ 10012c68     useasm:useasm.obj
 0001:00011cbc       ??_C@_0CM@JIFBLGFL@The?5maximum?5predicate?5register?5n@ 10012cbc     useasm:useasm.obj
 0001:00011ce8       ??_C@_0CG@GNGAJDLD@Predicate?5registers?5are?5not?5inde@ 10012ce8     useasm:useasm.obj
 0001:00011d10       ??_C@_0EL@MGFIGPBH@The?5second?5destination?5for?5a?5tes@ 10012d10     useasm:useasm.obj
 0001:00011d5c       ??_C@_0DM@JKJAHMJO@No?5flags?5are?5valid?5for?5the?5predi@ 10012d5c     useasm:useasm.obj
 0001:00011d98       ??_C@_0BH@CFEGILC@Unknown?5test?5mask?5type?$AA@ 10012d98     useasm:useasm.obj
 0001:00011db0       ??_C@_0BP@LBJMFOHM@Unknown?5channel?5combine?5option?$AA@ 10012db0     useasm:useasm.obj
 0001:00011dd0       ??_C@_0CO@KFAIKBA@?4cperchan?5isn?8t?5supported?5on?5thi@ 10012dd0     useasm:useasm.obj
 0001:00011e00       ??_C@_0DL@CIAFLBE@Partial?5modifier?5is?5only?5availab@ 10012e00     useasm:useasm.obj
 0001:00011e40       ??_C@_0EP@HBANCFBC@Saturation?5modifier?5is?5only?5avai@ 10012e40     useasm:useasm.obj
 0001:00011e90       ??_C@_1BBO@MEKGBGKH@?$AA?$AN?$AA?6?$AA?$CK?$AA?$CK?$AA?$CK?$AA?5?$AAA?$AAS?$AAS?$AAE?$AAR?$AAT?$AAI?$AAO?$AAN?$AA?5?$AAF?$AAA?$AAI?$AAL?$AAE?$AAD?$AA?5?$AAi?$AAn?$AA?5?$AAc?$AA?3?$AA?2?$AAd?$AAa?$AAt@ 10012e90     useasm:useasm.obj
 0001:00011fb0       ??_C@_0DM@GCKABEIE@Conditional?5code?5update?5isn?8t?5av@ 10012fb0     useasm:useasm.obj
 0001:00011ff0       ??_C@_0EP@POLKDPLI@For?5a?5test?5instruction?5with?5a?5re@ 10012ff0     useasm:useasm.obj
 0001:00012040       ??_C@_0EC@NOAGCNPB@A?5repeated?5dotproduct?5with?5test?5@ 10013040     useasm:useasm.obj
 0001:00012084       ??_C@_0DO@IKLPLKIL@A?5repeated?5test?5instruction?5isn?8@ 10013084     useasm:useasm.obj
 0001:000120c4       ??_C@_0DE@KBHBIIMG@The?5maximum?5repeat?5count?5for?5thi@ 100130c4     useasm:useasm.obj
 0001:000120f8       ??_C@_0DB@JAOCBPNH@A?5repeat?5count?5is?5not?5valid?5for?5@ 100130f8     useasm:useasm.obj
 0001:0001212c       ??_C@_0DA@INBPMMOK@A?5repeat?5mask?5is?5not?5valid?5for?5t@ 1001312c     useasm:useasm.obj
 0001:00012160       ??_C@_0GO@JJLBEPIH@For?5?$CFs?5with?5test?5the?5type?5of?5?$CFs?5@ 10013160     useasm:useasm.obj
 0001:000121d0       ??_C@_0FG@HDDPHDFM@Only?5?40?5is?5a?5valid?5component?5sel@ 100131d0     useasm:useasm.obj
 0001:00012228       ??_C@_0FM@BHACNAEE@Only?5?40?5and?5?42?5are?5valid?5compone@ 10013228     useasm:useasm.obj
 0001:00012284       ??_C@_0DD@JKMDHDLF@A?5?$CFs?5instruction?5must?5have?5at?5le@ 10013284     useasm:useasm.obj
 0001:000122b8       ??_C@_0EP@OFCLCBOD@Invalid?5choice?5for?5the?5fifth?5arg@ 100132b8     useasm:useasm.obj
 0001:00012308       ??_C@_0DC@FMNAGAJ@No?5flags?5are?5valid?5for?5the?5fifth@ 10013308     useasm:useasm.obj
 0001:00012340       ??_C@_0FK@HNEAMMLH@Invalid?5choice?5for?5the?5fourth?5ar@ 10013340     useasm:useasm.obj
 0001:0001239c       ??_C@_0DE@HFBEDGPO@No?5flags?5are?5valid?5for?5the?5fourt@ 1001339c     useasm:useasm.obj
 0001:000123d0       ??_C@_0EC@PPEKPMIP@The?5fourth?5argument?5to?5asop2?5sho@ 100133d0     useasm:useasm.obj
 0001:00012418       ??_C@_0FO@OLALHECM@Invalid?5choice?5for?5the?5third?5arg@ 10013418     useasm:useasm.obj
 0001:00012478       ??_C@_0DE@CMCBMCHC@Only?5?4comp?5is?5valid?5for?5the?5thir@ 10013478     useasm:useasm.obj
 0001:000124b0       ??_C@_0EB@OGKIIKPK@The?5third?5argument?5to?5asop2?5shou@ 100134b0     useasm:useasm.obj
 0001:000124f8       ??_C@_0GB@FOOKGLAG@Invalid?5choice?5for?5the?5second?5ar@ 100134f8     useasm:useasm.obj
 0001:0001255c       ??_C@_0DF@BKFNFPMB@Only?5?4comp?5is?5valid?5for?5the?5seco@ 1001355c     useasm:useasm.obj
 0001:00012598       ??_C@_0EC@JKPDJLLN@The?5second?5argument?5to?5asop2?5sho@ 10013598     useasm:useasm.obj
 0001:000125dc       ??_C@_0DD@KLICCPHA@No?5flags?5are?5valid?5for?5the?5first@ 100135dc     useasm:useasm.obj
 0001:00012610       ??_C@_0EB@BIMJBGCB@The?5first?5argument?5to?5asop2?5shou@ 10013610     useasm:useasm.obj
 0001:00012654       ??_C@_0CB@PNFMFKCL@sop2?5must?5be?5coissued?5with?5asop2@ 10013654     useasm:useasm.obj
 0001:00012678       ??_C@_0BG@BCKONFFM@sop2?5must?5be?5coissued?$AA@ 10013678     useasm:useasm.obj
 0001:00012690       ??_C@_0FJ@BADDHEFO@Invalid?5choice?5for?5the?5seventh?5a@ 10013690     useasm:useasm.obj
 0001:000126ec       ??_C@_0DE@KEDJMMFI@No?5flags?5are?5valid?5for?5the?5seven@ 100136ec     useasm:useasm.obj
 0001:00012720       ??_C@_0EC@HGMCGKBA@The?5seventh?5argument?5to?5sop2?5sho@ 10013720     useasm:useasm.obj
 0001:00012768       ??_C@_0HE@GKGLGGOL@Invalid?5choice?5for?5the?5sixth?5arg@ 10013768     useasm:useasm.obj
 0001:000127dc       ??_C@_0DM@OGJGMIAI@Only?5the?5?4comp?5flag?5is?5valid?5for@ 100137dc     useasm:useasm.obj
 0001:00012818       ??_C@_0EA@JBHMMHBL@The?5sixth?5argument?5to?5sop2?5shoul@ 10013818     useasm:useasm.obj
 0001:00012858       ??_C@_0HG@HJBDHCLG@Invalid?5choice?5for?5the?5fifth?5arg@ 10013858     useasm:useasm.obj
 0001:000128d0       ??_C@_0DM@OEOABLFP@Only?5the?5?4comp?5flag?5is?5valid?5for@ 100138d0     useasm:useasm.obj
 0001:00012910       ??_C@_0EA@PEDOBCNH@The?5fifth?5argument?5to?5sop2?5shoul@ 10013910     useasm:useasm.obj
 0001:00012950       ??_C@_0FB@HBOJEBLF@Invalid?5choices?5for?5the?5fourth?5a@ 10013950     useasm:useasm.obj
 0001:000129a4       ??_C@_0CK@DBEGJBPP@Integer?5source?5selectors?5aren?8t?5@ 100139a4     useasm:useasm.obj
 0001:000129d0       ??_C@_0DD@GDJINGEN@No?5flags?5are?5valid?5for?5the?5fourt@ 100139d0     useasm:useasm.obj
 0001:00012a08       ??_C@_0EB@JLEKLKIL@The?5fourth?5argument?5to?5sop2?5shou@ 10013a08     useasm:useasm.obj
 0001:00012a4c       ??_C@_0DF@CEJLKMBG@Only?5nearest?5rounding?5is?5support@ 10013a4c     useasm:useasm.obj
 0001:00012a84       ??_C@_0CM@OHMDJNLO@An?5integer?5source?5selector?5can?8t@ 10013a84     useasm:useasm.obj
 0001:00012ab0       ??_C@_0DC@PDLMCMGO@No?5flags?5are?5valid?5for?5an?5intege@ 10013ab0     useasm:useasm.obj
 0001:00012ae8       ??_C@_0EP@KFBPJKBI@The?5fourth?5argument?5to?5a?5pack?5in@ 10013ae8     useasm:useasm.obj
 0001:00012b38       ??_C@_0DM@CMGEAEEG@Invalid?5bytemask?5specified?5?$CIlega@ 10013b38     useasm:useasm.obj
 0001:00012b78       ??_C@_0FK@IMCFLHOE@Invalid?5bytemask?5specified?5?$CIlega@ 10013b78     useasm:useasm.obj
 0001:00012bd4       ??_C@_0DD@DLOGHDFD@The?5renable?5flag?5isn?8t?5supported@ 10013bd4     useasm:useasm.obj
 0001:00012c08       ??_C@_0EO@CDMEKOCM@The?5renable?5flag?5is?5only?5valid?5w@ 10013c08     useasm:useasm.obj
 0001:00012c58       ??_C@_0FI@FHLKJJEN@The?5scale?5flag?5is?5only?5valid?5whe@ 10013c58     useasm:useasm.obj
 0001:00012cb0       ??_C@_0EN@JPNNFBOP@Only?5?4bytemask1111?5is?5supported?5@ 10013cb0     useasm:useasm.obj
 0001:00012d00       ??_C@_0FG@MFNCNONI@Only?5?4bytemask1111?5is?5supported?5@ 10013d00     useasm:useasm.obj
 0001:00012d58       ??_C@_0CD@GKODKEJP@The?5maximum?5predicate?5number?5is?5@ 10013d58     useasm:useasm.obj
 0001:00012d7c       ??_C@_0CF@LNBFBGED@Predicate?5registers?5can?8t?5be?5ind@ 10013d7c     useasm:useasm.obj
 0001:00012da4       ??_C@_0DF@HMHEIKHA@No?5flags?5are?5valid?5for?5the?5predi@ 10013da4     useasm:useasm.obj
 0001:00012ddc       ??_C@_0CP@OJDGHEAF@The?5second?5argument?5to?5rlp?5must?5@ 10013ddc     useasm:useasm.obj
 0001:00012e10       ??_C@_0IC@NPHCGHMI@An?5immediate?5source?5argument?5to?5@ 10013e10     useasm:useasm.obj
 0001:00012e94       ??_C@_0DA@KAKEJMDJ@A?5mask?5is?5not?5valid?5on?5a?5dotprod@ 10013e94     useasm:useasm.obj
 0001:00012ec4       ??_C@_0DC@PDHCBKCD@A?5repeat?5is?5not?5valid?5on?5a?5dotpr@ 10013ec4     useasm:useasm.obj
 0001:00012ef8       ??_C@_0EI@JILLLJML@This?5instruction?5isn?8t?5available@ 10013ef8     useasm:useasm.obj
 0001:00012f40       ??_C@_0DC@NCLFMCHI@fpadd8?1fpsub8?5is?5only?5valid?5with@ 10013f40     useasm:useasm.obj
 0001:00012f74       ??_C@_0DB@JHGOCNIO@imul8?1imulu8?5is?5only?5valid?5with?5@ 10013f74     useasm:useasm.obj
 0001:00012fa8       ??_C@_0CE@PCBCMLOI@The?5maximum?5clip?5plane?5number?5is@ 10013fa8     useasm:useasm.obj
 0001:00012fcc       ??_C@_0CH@BBGNDHF@A?5clip?5plane?5argument?5is?5not?5ind@ 10013fcc     useasm:useasm.obj
 0001:00012ff4       ??_C@_0CM@KGNDPEIK@No?5flags?5are?5valid?5for?5a?5clippla@ 10013ff4     useasm:useasm.obj
 0001:00013020       ??_C@_0EL@OICFHNIF@The?5second?5argument?5to?5a?5fdpc?5in@ 10014020     useasm:useasm.obj
 0001:0001306c       ??_C@_0DI@HLMNAEHK@Only?5i0?5and?5i1?5may?5be?5destinatio@ 1001406c     useasm:useasm.obj
 0001:000130a4       ??_C@_0CF@KCFJPPBJ@Internal?5registers?5are?5not?5index@ 100140a4     useasm:useasm.obj
 0001:000130cc       ??_C@_0DF@KGNOHAA@No?5flags?5are?5valid?5for?5an?5intern@ 100140cc     useasm:useasm.obj
 0001:00013108       ??_C@_0FC@GFPCKLPP@The?5second?5argument?5to?5a?5fddp?5in@ 10014108     useasm:useasm.obj
 0001:00013160       ??_C@_0EL@NPBIKIOJ@The?5fourth?5argument?5to?5a?5fdpc?5in@ 10014160     useasm:useasm.obj
 0001:000131b0       ??_C@_0EL@DBBJIGNF@The?5third?5argument?5to?5a?5fddpc?5in@ 100141b0     useasm:useasm.obj
 0001:00013200       ??_C@_0FD@HOIBEICL@The?5second?5argument?5to?5a?5fddpc?5i@ 10014200     useasm:useasm.obj
 0001:00013258       ??_C@_0EG@LBAJMGGK@A?5movc?5instruction?5must?5specify?5@ 10014258     useasm:useasm.obj
 0001:000132a0       ??_C@_0GA@OJMMLLIA@On?5this?5processor?5MOVC?5on?5C10?5fo@ 100142a0     useasm:useasm.obj
 0001:00013300       ??_C@_0DP@CLFDAIAM@A?5movc?5instruction?5must?5include?5@ 10014300     useasm:useasm.obj
 0001:00013340       ??_C@_0DG@EDCHLIHP@Only?5?4tz?0?5?4t?$CBz?0?5?4tn?5or?5?4tp?$HMz?5are@ 10014340     useasm:useasm.obj
 0001:00013378       ??_C@_0FL@OJDHBDDM@The?5instruction?5is?5affected?5by?5B@ 10014378     useasm:useasm.obj
 0001:000133d8       ??_C@_0IC@ONGMFPGB@The?5instruction?5is?5affected?5by?5B@ 100143d8     useasm:useasm.obj
 0001:0001345c       ??_C@_0DP@GHIBIMHL@The?5maximum?5repeat?5count?5for?5an?5@ 1001445c     useasm:useasm.obj
 0001:000134a0       ??_C@_0EC@JJHLNPNF@The?5seventh?5argument?5to?5sop2wm?5i@ 100144a0     useasm:useasm.obj
 0001:000134e4       ??_C@_0DG@GBFNJGMB@No?5flags?5are?5valid?5for?5the?5seven@ 100144e4     useasm:useasm.obj
 0001:00013520       ??_C@_0EE@EGJILBFH@The?5seventh?5argument?5to?5sop2wm?5s@ 10014520     useasm:useasm.obj
 0001:00013568       ??_C@_0EA@HOMFHCNO@The?5sixth?5argument?5to?5sop2wm?5is?5@ 10014568     useasm:useasm.obj
 0001:000135a8       ??_C@_0DE@FDGMDKAF@No?5flags?5are?5valid?5for?5the?5sixth@ 100145a8     useasm:useasm.obj
 0001:000135e0       ??_C@_0EC@NALFAHH@The?5sixth?5argument?5to?5sop2wm?5sho@ 100145e0     useasm:useasm.obj
 0001:00013624       ??_C@_0DP@BGLACGDG@The?5fifth?5argument?5to?5sop2wm?5is?5@ 10014624     useasm:useasm.obj
 0001:00013664       ??_C@_0DM@MLIHGKIL@Only?5?4comp?5is?5a?5valid?5flag?5for?5t@ 10014664     useasm:useasm.obj
 0001:000136a0       ??_C@_0EC@JMPNILCM@The?5fifth?5argument?5to?5sop2wm?5sho@ 100146a0     useasm:useasm.obj
 0001:000136e8       ??_C@_0EA@NCGPJLOA@The?5fourth?5argument?5to?5sop2wm?5is@ 100146e8     useasm:useasm.obj
 0001:00013728       ??_C@_0DN@NLJCHBJL@Only?5?4comp?5is?5a?5valid?5flag?5for?5t@ 10014728     useasm:useasm.obj
 0001:00013768       ??_C@_0ED@FCPONNNK@The?5fourth?5argument?5to?5sop2wm?5sh@ 10014768     useasm:useasm.obj
 0001:000137b0       ??_C@_0EN@MDJOPIF@Invalid?5choice?5for?5the?5third?5arg@ 100147b0     useasm:useasm.obj
 0001:00013800       ??_C@_0DC@DCENAPP@No?5flags?5are?5valid?5for?5the?5third@ 10014800     useasm:useasm.obj
 0001:00013834       ??_C@_0DO@EELLDBBD@The?5third?5argument?5to?5asop?5must?5@ 10014834     useasm:useasm.obj
 0001:00013878       ??_C@_0HF@CBIPLOPP@Invalid?5choice?5for?5the?5second?5ar@ 10014878     useasm:useasm.obj
 0001:000138f0       ??_C@_0DL@GPHBDAAM@Only?5?4comp?5is?5a?5valid?5flag?5for?5t@ 100148f0     useasm:useasm.obj
 0001:0001392c       ??_C@_0DP@KOIBPLMG@The?5second?5argument?5to?5asop?5must@ 1001492c     useasm:useasm.obj
 0001:00013970       ??_C@_0HE@JFMMNFAC@Invalid?5choice?5for?5the?5first?5arg@ 10014970     useasm:useasm.obj
 0001:000139e4       ??_C@_0DK@OKDCCLBL@Only?5?4comp?5is?5a?5valid?5flag?5for?5t@ 100149e4     useasm:useasm.obj
 0001:00013a20       ??_C@_0DO@EOKHKJGH@The?5first?5argument?5to?5asop?5must?5@ 10014a20     useasm:useasm.obj
 0001:00013a60       ??_C@_0CA@LJJNKDND@lrp1?5must?5be?5coissued?5with?5asop?$AA@ 10014a60     useasm:useasm.obj
 0001:00013a80       ??_C@_0BH@DOCDFOCO@lrp1?5must?5be?5coisssued?$AA@ 10014a80     useasm:useasm.obj
 0001:00013a98       ??_C@_0BG@CHKAJNEL@lrp1?5must?5be?5coissued?$AA@ 10014a98     useasm:useasm.obj
 0001:00013ab0       ??_C@_0EO@FKMJCGBG@Invalid?5choice?5for?5the?5seventh?5a@ 10014ab0     useasm:useasm.obj
 0001:00013b00       ??_C@_0DE@MPNHBAIK@No?5flags?5are?5valid?5for?5the?5seven@ 10014b00     useasm:useasm.obj
 0001:00013b38       ??_C@_0EB@NCENCBNO@The?5seventh?5argument?5to?5lrp1?5mus@ 10014b38     useasm:useasm.obj
 0001:00013b80       ??_C@_0EN@NGJPOHKM@Invalid?5choice?5for?5the?5sixth?5arg@ 10014b80     useasm:useasm.obj
 0001:00013bd0       ??_C@_0DM@INHIBENK@Only?5the?5?4comp?5flag?5is?5valid?5for@ 10014bd0     useasm:useasm.obj
 0001:00013c0c       ??_C@_0DP@NEMNCNNA@The?5sixth?5argument?5to?5lrp1?5must?5@ 10014c0c     useasm:useasm.obj
 0001:00013c50       ??_C@_0FA@BCOHELNN@Invalid?5choice?5for?5the?5fifth?5arg@ 10014c50     useasm:useasm.obj
 0001:00013ca0       ??_C@_0CM@KDAMEKKC@An?5integer?5source?5selector?5is?5no@ 10014ca0     useasm:useasm.obj
 0001:00013ccc       ??_C@_0DM@IPAOMHIN@Only?5the?5?4comp?5flag?5is?5valid?5for@ 10014ccc     useasm:useasm.obj
 0001:00013d08       ??_C@_0DP@CGMBCHII@The?5fifth?5argument?5to?5lrp1?5must?5@ 10014d08     useasm:useasm.obj
 0001:00013d48       ??_C@_0EJ@KJLKFMN@Only?5zero?0?5one?5and?5s2a?5are?5valid@ 10014d48     useasm:useasm.obj
 0001:00013d94       ??_C@_0DE@FDNIJKHO@Only?5?4comp?5is?5valid?5for?5the?5seco@ 10014d94     useasm:useasm.obj
 0001:00013dc8       ??_C@_0DP@GCMJDOBH@The?5second?5argument?5to?5alrp?5must@ 10014dc8     useasm:useasm.obj
 0001:00013e08       ??_C@_0EI@POLJNHOP@Only?5zero?0?5one?5and?5s1a?5are?5valid@ 10014e08     useasm:useasm.obj
 0001:00013e50       ??_C@_0DD@LEOOHHIE@Only?5?4comp?5is?5valid?5for?5the?5firs@ 10014e50     useasm:useasm.obj
 0001:00013e84       ??_C@_0DO@ICOPGMLG@The?5first?5argument?5to?5alrp?5must?5@ 10014e84     useasm:useasm.obj
 0001:00013ec4       ??_C@_0CA@BBLPFF@lrp2?5must?5be?5coissued?5with?5alrp?$AA@ 10014ec4     useasm:useasm.obj
 0001:00013ee4       ??_C@_0BG@IEPGBLOC@lrp2?5must?5be?5coissued?$AA@ 10014ee4     useasm:useasm.obj
 0001:00013f00       ??_C@_0FD@JFBMKMNH@Invalid?5choice?5for?5the?5seventh?5a@ 10014f00     useasm:useasm.obj
 0001:00013f58       ??_C@_0EN@GMGJLELO@If?5the?5seventh?5argument?5to?5lrp2?5@ 10014f58     useasm:useasm.obj
 0001:00013fa8       ??_C@_0FB@FJHLFMAN@If?5the?5seventh?5argument?5to?5lrp2?5@ 10014fa8     useasm:useasm.obj
 0001:00014000       ??_C@_0EP@GBKEKGGN@If?5the?5seventh?5argument?5to?5lrp2?5@ 10015000     useasm:useasm.obj
 0001:00014050       ??_C@_0EK@MPPLIHCI@If?5the?5seventh?5argument?5to?5lrp2?5@ 10015050     useasm:useasm.obj
 0001:0001409c       ??_C@_0DN@BJBDMCPE@Only?5the?5?4comp?5flag?5is?5valid?5for@ 1001509c     useasm:useasm.obj
 0001:000140e0       ??_C@_0EA@MACNPBPH@The?5eighth?5argument?5to?5lrp2?5must@ 100150e0     useasm:useasm.obj
 0001:00014120       ??_C@_0DO@GLBNDEGP@Only?5the?5?4comp?5flag?5is?5valid?5for@ 10015120     useasm:useasm.obj
 0001:00014160       ??_C@_0EB@JPKFCBLJ@The?5seventh?5argument?5to?5lrp2?5mus@ 10015160     useasm:useasm.obj
 0001:000141a8       ??_C@_0HH@IBAGBKNH@Invalid?5choice?5for?5the?5sixth?5arg@ 100151a8     useasm:useasm.obj
 0001:00014220       ??_C@_0DM@KGFFEHBJ@Only?5the?5?4comp?5flag?5is?5valid?5for@ 10015220     useasm:useasm.obj
 0001:0001425c       ??_C@_0DP@JJCFCNLH@The?5sixth?5argument?5to?5lrp2?5must?5@ 1001525c     useasm:useasm.obj
 0001:000142a0       ??_C@_0HI@KGJMFIGE@Invalid?5choice?5for?5the?5fifth?5arg@ 100152a0     useasm:useasm.obj
 0001:00014318       ??_C@_0DM@PNPLCKBO@Only?5the?5?4comp?5flag?5is?5valid?5for@ 10015318     useasm:useasm.obj
 0001:00014354       ??_C@_0DP@JFIMNECE@The?5fifth?5argument?5to?5sop3?5must?5@ 10015354     useasm:useasm.obj
 0001:00014398       ??_C@_0EP@LFLPCFJM@Invalid?5choice?5for?5the?5second?5ar@ 10015398     useasm:useasm.obj
 0001:000143e8       ??_C@_0DE@GEPIHLDC@No?5flags?5are?5valid?5for?5the?5secon@ 100153e8     useasm:useasm.obj
 0001:00014420       ??_C@_0EA@CILJPHKB@The?5second?5argument?5to?5arsop?5mus@ 10015420     useasm:useasm.obj
 0001:00014460       ??_C@_0FO@BGCOGJJP@Invalid?5choice?5for?5the?5first?5arg@ 10015460     useasm:useasm.obj
 0001:000144c0       ??_C@_0DE@LFEIHKHD@Only?5?4comp?5is?5valid?5for?5the?5firs@ 100154c0     useasm:useasm.obj
 0001:000144f4       ??_C@_0DP@IJIIECIN@The?5first?5argument?5to?5arsop?5must@ 100154f4     useasm:useasm.obj
 0001:00014538       ??_C@_0EK@DIJKPKNM@SOP3?5with?5ARSOP?5and?5a?5complement@ 10015538     useasm:useasm.obj
 0001:00014588       ??_C@_0EO@BNBKMGBP@Invalid?5choice?5for?5the?5second?5ar@ 10015588     useasm:useasm.obj
 0001:000145d8       ??_C@_0DD@KDAMLAMK@No?5flags?5are?5valid?5for?5the?5secon@ 100155d8     useasm:useasm.obj
 0001:00014610       ??_C@_0FN@ONPCNNEO@Invalid?5choice?5for?5the?5first?5arg@ 10015610     useasm:useasm.obj
 0001:00014670       ??_C@_0DD@KIGKAAGO@Only?5?4comp?5is?5valid?5for?5the?5firs@ 10015670     useasm:useasm.obj
 0001:000146a8       ??_C@_0FE@LNCOBNA@Invalid?5choice?5for?5the?5first?5arg@ 100156a8     useasm:useasm.obj
 0001:00014700       ??_C@_0FE@JJEFPIJ@Invalid?5choice?5for?5the?5first?5arg@ 10015700     useasm:useasm.obj
 0001:00014758       ??_C@_0ED@PGOFNOAD@sop3?5with?5a?5negate?5destination?5m@ 10015758     useasm:useasm.obj
 0001:0001479c       ??_C@_0CE@OHCGBBLC@sop3?5without?5a?5coissued?5instruct@ 1001579c     useasm:useasm.obj
 0001:000147c0       ??_C@_0BG@MFEMFFAE@sop3?5must?5be?5coissued?$AA@ 100157c0     useasm:useasm.obj
 0001:000147d8       ??_C@_0EL@GLFHPIPJ@Invalid?5choice?5for?5eighth?5argume@ 100157d8     useasm:useasm.obj
 0001:00014828       ??_C@_0EA@DOIIACDM@The?5eighth?5argument?5to?5sop3?5must@ 10015828     useasm:useasm.obj
 0001:00014868       ??_C@_0EP@LLOJFENH@Invalid?5choice?5for?5the?5seventh?5a@ 10015868     useasm:useasm.obj
 0001:000148b8       ??_C@_0DE@LNCCPNBJ@No?5flags?5are?5valid?5for?5the?5seven@ 100158b8     useasm:useasm.obj
 0001:000148f0       ??_C@_0EB@GBAANCHC@The?5seventh?5argument?5to?5sop3?5mus@ 100158f0     useasm:useasm.obj
 0001:00014938       ??_C@_0HE@NOFOGDCI@Invalid?5choice?5for?5the?5sixth?5arg@ 10015938     useasm:useasm.obj
 0001:000149ac       ??_C@_0DK@GPFHLHKL@Only?5?4comp?5is?5a?5valid?5flag?5for?5t@ 100159ac     useasm:useasm.obj
 0001:000149e8       ??_C@_0DP@GHIANOHM@The?5sixth?5argument?5to?5sop3?5must?5@ 100159e8     useasm:useasm.obj
 0001:00014a28       ??_C@_0HE@OENIBECC@Invalid?5choice?5for?5the?5fifth?5arg@ 10015a28     useasm:useasm.obj
 0001:00014a9c       ??_C@_0DK@GNCBGEPM@Only?5?4comp?5is?5a?5valid?5flag?5for?5t@ 10015a9c     useasm:useasm.obj
 0001:00014ad8       ??_C@_0BH@NMPINIEC@sop3?5can?8t?5be?5repeated?$AA@ 10015ad8     useasm:useasm.obj
 0001:00014af0       ??_C@_0DK@OMANMEPM@Only?5s2a?5is?5a?5valid?5choice?5for?5t@ 10015af0     useasm:useasm.obj
 0001:00014b2c       ??_C@_0DK@DPJMNKAL@Only?5?4comp?5is?5a?5valid?5flag?5for?5t@ 10015b2c     useasm:useasm.obj
 0001:00014b68       ??_C@_0DP@BFGILNHD@The?5tenth?5argument?5to?5ima8?5must?5@ 10015b68     useasm:useasm.obj
 0001:00014ba8       ??_C@_0DL@FMNMANPN@Only?5s1a?5is?5a?5valid?5choice?5for?5t@ 10015ba8     useasm:useasm.obj
 0001:00014be4       ??_C@_0DL@PMLPCLJP@Only?5?4comp?5is?5a?5valid?5flag?5for?5t@ 10015be4     useasm:useasm.obj
 0001:00014c20       ??_C@_0EA@OKAGHCFL@The?5nineth?5argument?5to?5ima8?5must@ 10015c20     useasm:useasm.obj
 0001:00014c60       ??_C@_0ED@FKCOCDED@Only?5s0a?5and?5s1a?5are?5valid?5choic@ 10015c60     useasm:useasm.obj
 0001:00014ca4       ??_C@_0DL@HABGHCJK@Only?5?4comp?5is?5a?5valid?5flag?5for?5t@ 10015ca4     useasm:useasm.obj
 0001:00014ce0       ??_C@_0EA@EABBPNKK@The?5eighth?5argument?5to?5ima8?5must@ 10015ce0     useasm:useasm.obj
 0001:00014d20       ??_C@_0ED@FDKGPKDC@Only?5s2?5and?5s2a?5are?5valid?5choice@ 10015d20     useasm:useasm.obj
 0001:00014d64       ??_C@_0DM@LBKALADI@Only?5?4comp?5is?5a?5valid?5flag?5for?5t@ 10015d64     useasm:useasm.obj
 0001:00014da0       ??_C@_0EB@BPJJCNOE@The?5seventh?5argument?5to?5ima8?5mus@ 10015da0     useasm:useasm.obj
 0001:00014de8       ??_C@_0EB@CLJBDDPJ@Only?5s1?5and?5s1a?5are?5valid?5choice@ 10015de8     useasm:useasm.obj
 0001:00014e2c       ??_C@_0DK@BBBOOAIP@Only?5?4comp?5is?5a?5valid?5flag?5for?5t@ 10015e2c     useasm:useasm.obj
 0001:00014e68       ??_C@_0DP@BJBJCBOK@The?5sixth?5argument?5to?5ima8?5must?5@ 10015e68     useasm:useasm.obj
 0001:00014ea8       ??_C@_0EK@KADHKBHD@Only?5s0?0?5s1?0?5s0a?5and?5s1a?5are?5val@ 10015ea8     useasm:useasm.obj
 0001:00014ef4       ??_C@_0DK@BDGIDDNI@Only?5?4comp?5is?5a?5valid?5flag?5for?5t@ 10015ef4     useasm:useasm.obj
 0001:00014f30       ??_C@_0DP@OLBFCLLC@The?5fifth?5argument?5to?5ima8?5must?5@ 10015f30     useasm:useasm.obj
 0001:00014f70       ??_C@_0EK@HCFFGHCH@Third?5argument?5to?5ima16?5is?58?9bit@ 10015f70     useasm:useasm.obj
 0001:00014fc0       ??_C@_0EL@EFNHNPFP@Second?5argument?5to?5ima16?5is?58?9bi@ 10015fc0     useasm:useasm.obj
 0001:0001500c       ??_C@_0DD@DHKGKKGN@No?5flags?5are?5valid?5for?5the?5sixth@ 1001600c     useasm:useasm.obj
 0001:00015040       ??_C@_0CM@KFKJJGEN@The?5sixth?5argument?5to?5ima16?5isn?8@ 10016040     useasm:useasm.obj
 0001:0001506c       ??_C@_0DC@FLFMKFFD@The?5sixth?5argument?5to?5ima16?5must@ 1001606c     useasm:useasm.obj
 0001:000150a0       ??_C@_0EN@LDKLHMAN@Invalid?5source?5data?5format?5for?5i@ 100160a0     useasm:useasm.obj
 0001:000150f0       ??_C@_0DD@MCKLBIOJ@No?5flags?5are?5valid?5for?5the?5fifth@ 100160f0     useasm:useasm.obj
 0001:00015124       ??_C@_0CM@LHIIENBO@The?5fifth?5argument?5to?5ima16?5isn?8@ 10016124     useasm:useasm.obj
 0001:00015150       ??_C@_0DC@CIEPCOAH@The?5fifth?5argument?5to?5ima16?5must@ 10016150     useasm:useasm.obj
 0001:00015184       ??_C@_0DJ@KMFCNFLN@Only?5one?5of?5?4s?5and?5?4u?5can?5be?5spe@ 10016184     useasm:useasm.obj
 0001:000151c0       ??_C@_0DN@LMMEBOND@The?5maximum?5destination?5shift?5fo@ 100161c0     useasm:useasm.obj
 0001:00015200       ??_C@_0EA@BEAJFKLN@The?5maximum?5register?5number?5for?5@ 10016200     useasm:useasm.obj
 0001:00015240       ??_C@_0CL@DOOAPBOB@The?5eighth?5source?5to?5imae?5can?8t?5@ 10016240     useasm:useasm.obj
 0001:0001526c       ??_C@_0DB@PKHIFEJJ@No?5flags?5are?5valid?5for?5the?5eight@ 1001626c     useasm:useasm.obj
 0001:000152a0       ??_C@_0EI@OMIBHEJN@The?5eighth?5source?5to?5imae?5should@ 100162a0     useasm:useasm.obj
 0001:000152e8       ??_C@_0EH@DLKGLNI@Only?5cie?5or?5nothing?5are?5valid?5ch@ 100162e8     useasm:useasm.obj
 0001:00015330       ??_C@_0DE@MMHOIJCE@No?5flags?5are?5valid?5for?5the?5seven@ 10016330     useasm:useasm.obj
 0001:00015364       ??_C@_0CN@IKCGDAFI@The?5seventh?5argument?5to?5imae?5isn@ 10016364     useasm:useasm.obj
 0001:00015394       ??_C@_0DE@IAOPODPF@The?5seventh?5argument?5to?5imae?5mus@ 10016394     useasm:useasm.obj
 0001:000153c8       ??_C@_0EF@JBDPGDKG@Only?5coe?5or?5nothing?5are?5valid?5ch@ 100163c8     useasm:useasm.obj
 0001:00015410       ??_C@_0DC@GPPMJACC@No?5flags?5are?5valid?5for?5the?5sixth@ 10016410     useasm:useasm.obj
 0001:00015444       ??_C@_0CL@CDIKAGGM@The?5sixth?5argument?5to?5imae?5isn?8t@ 10016444     useasm:useasm.obj
 0001:00015470       ??_C@_0DC@HDJGOJKK@The?5sixth?5argument?5to?5imae?5must?5@ 10016470     useasm:useasm.obj
 0001:000154a4       ??_C@_0DD@DNBAOKIA@?4low?5and?5?4high?5are?5meaningless?5f@ 100164a4     useasm:useasm.obj
 0001:000154d8       ??_C@_0EG@PNOIEBGC@One?5of?5?4low?5or?5?4high?5should?5be?5s@ 100164d8     useasm:useasm.obj
 0001:00015520       ??_C@_0EH@DLDLJEEK@One?5of?5?4low?5or?5?4high?5should?5be?5s@ 10016520     useasm:useasm.obj
 0001:00015568       ??_C@_0EG@HGBJOGAP@One?5of?5?4low?5or?5?4high?5should?5be?5s@ 10016568     useasm:useasm.obj
 0001:000155b0       ??_C@_0BN@MCMCHHHO@Invalid?5data?5format?5for?5imae?$AA@ 100165b0     useasm:useasm.obj
 0001:000155d0       ??_C@_0DC@GNIKEDHF@No?5flags?5are?5valid?5for?5the?5fifth@ 100165d0     useasm:useasm.obj
 0001:00015604       ??_C@_0CL@LFLIAFDF@The?5fifth?5argument?5to?5imae?5isn?8t@ 10016604     useasm:useasm.obj
 0001:00015630       ??_C@_0DB@NOAIOELF@The?5fifth?5argument?5to?5imae?5must?5@ 10016630     useasm:useasm.obj
 0001:00015664       ??_C@_0DM@EHOELKCO@The?5maximum?5destination?5shift?5fo@ 10016664     useasm:useasm.obj
 0001:000156a0       ??_C@_0DE@JCLFGKBG@Maximum?5repeat?5count?5on?5an?5integ@ 100166a0     useasm:useasm.obj
 0001:000156d8       ??_C@_0EG@JFIEFIAN@Only?5u8?5or?5s8?5are?5valid?5as?5a?5cho@ 100166d8     useasm:useasm.obj
 0001:00015720       ??_C@_0DF@BFAJNMNE@No?5flags?5are?5valid?5for?5the?5ninet@ 10016720     useasm:useasm.obj
 0001:00015758       ??_C@_0EB@EPNJCIMP@The?5nineth?5argument?5to?5ssum16?5mu@ 10016758     useasm:useasm.obj
 0001:000157a0       ??_C@_0EM@CDDPPEDE@Only?5iadd?5or?5nothing?5is?5valid?5as@ 100167a0     useasm:useasm.obj
 0001:000157ec       ??_C@_0DF@HKMJENGI@No?5flags?5are?5valid?5for?5the?5eight@ 100167ec     useasm:useasm.obj
 0001:00015828       ??_C@_0EB@IFMJPNMK@The?5eighth?5argument?5to?5ssum16?5mu@ 10016828     useasm:useasm.obj
 0001:00015870       ??_C@_0ED@OAGGGGIH@Only?5i0?5or?5r1?5valid?5as?5a?5choice?5@ 10016870     useasm:useasm.obj
 0001:000158b4       ??_C@_0CF@BGFEHLBP@An?5internal?5register?5isn?8t?5index@ 100168b4     useasm:useasm.obj
 0001:000158dc       ??_C@_0DG@GDJPLBEI@No?5flags?5are?5valid?5for?5the?5seven@ 100168dc     useasm:useasm.obj
 0001:00015918       ??_C@_0EC@BEPCBJIN@The?5seventh?5argument?5to?5ssum16?5m@ 10016918     useasm:useasm.obj
 0001:00015960       ??_C@_0EL@BECKFGPA@Only?5iadd?5or?5nothing?5is?5valid?5as@ 10016960     useasm:useasm.obj
 0001:000159ac       ??_C@_0DE@FBKOBNIM@No?5flags?5are?5valid?5for?5the?5sixth@ 100169ac     useasm:useasm.obj
 0001:000159e0       ??_C@_0EA@PDEMLEIG@The?5sixth?5argument?5to?5ssum16?5mus@ 100169e0     useasm:useasm.obj
 0001:00015a20       ??_C@_0EL@HFHGKGHC@Only?5idst?5or?5nothing?5is?5valid?5as@ 10016a20     useasm:useasm.obj
 0001:00015a6c       ??_C@_0CL@KCGNBGBH@An?5integer?5source?5selector?5isn?8t@ 10016a6c     useasm:useasm.obj
 0001:00015a98       ??_C@_0DE@LLIOFHAH@No?5flags?5are?5valid?5for?5the?5fifth@ 10016a98     useasm:useasm.obj
 0001:00015ad0       ??_C@_0EA@JGAOGBEK@The?5fifth?5argument?5to?5ssum16?5mus@ 10016ad0     useasm:useasm.obj
 0001:00015b10       ??_C@_0DE@IJOOAFAA@Maximum?5repeat?5count?5on?5an?5SSUM1@ 10016b10     useasm:useasm.obj
 0001:00015b44       ??_C@_0CJ@EGABLJED@ssum16?5isn?8t?5available?5on?5this?5p@ 10016b44     useasm:useasm.obj
 0001:00015b70       ??_C@_0EL@LEHINHKP@Only?5scale?5or?5nothing?5is?5valid?5a@ 10016b70     useasm:useasm.obj
 0001:00015bbc       ??_C@_0DD@MBMDINHI@No?5flags?5are?5valid?5for?5the?5eight@ 10016bbc     useasm:useasm.obj
 0001:00015bf0       ??_C@_0DP@DNLIJOFH@The?5eighth?5argument?5to?5firv?5must@ 10016bf0     useasm:useasm.obj
 0001:00015c30       ??_C@_0EL@PLEHJOGF@Only?5iadd?5or?5nothing?5is?5valid?5as@ 10016c30     useasm:useasm.obj
 0001:00015c7c       ??_C@_0DE@LOMDNFBJ@No?5flags?5are?5valid?5for?5the?5seven@ 10016c7c     useasm:useasm.obj
 0001:00015cb0       ??_C@_0EA@LAOANIGO@The?5seventh?5argument?5to?5firv?5mus@ 10016cb0     useasm:useasm.obj
 0001:00015cf0       ??_C@_0EM@PPMBHMLB@Only?5?$CLsrc2?42?5or?5nothing?5is?5valid@ 10016cf0     useasm:useasm.obj
 0001:00015d3c       ??_C@_0DC@BNEBMMBP@No?5flags?5are?5valid?5for?5the?5sixth@ 10016d3c     useasm:useasm.obj
 0001:00015d70       ??_C@_0DO@IGFJMJCL@The?5sixth?5argument?5to?5firv?5must?5@ 10016d70     useasm:useasm.obj
 0001:00015db0       ??_C@_0CL@MDHBFNJL@The?5fifth?5argument?5to?5firv?5isn?8t@ 10016db0     useasm:useasm.obj
 0001:00015ddc       ??_C@_0DC@BPDHBPEI@No?5flags?5are?5valid?5for?5the?5fifth@ 10016ddc     useasm:useasm.obj
 0001:00015e10       ??_C@_0DP@LCJNOCNN@The?5fifth?5argument?5to?5firv?5must?5@ 10016e10     useasm:useasm.obj
 0001:00015e50       ??_C@_0HP@FKECLPEM@The?5register?5bank?5for?5firv?5sourc@ 10016e50     useasm:useasm.obj
 0001:00015ed0       ??_C@_0EG@NEGMNEOD@The?5register?5banks?5for?5source?50?5@ 10016ed0     useasm:useasm.obj
 0001:00015f18       ??_C@_0CD@BDBMNPHP@Maximum?5repeat?5count?5on?5firv?5is?5@ 10016f18     useasm:useasm.obj
 0001:00015f40       ??_C@_0EK@MMLIIHNN@Only?5scale?5or?5nothing?5is?5valid?5a@ 10016f40     useasm:useasm.obj
 0001:00015f90       ??_C@_0EJ@NGJACPPH@Only?5iadd?5or?5nothing?5is?5valid?5as@ 10016f90     useasm:useasm.obj
 0001:00015fdc       ??_C@_0DO@OIFDNPHI@The?5fifth?5argument?5to?5firv?5must?5@ 10016fdc     useasm:useasm.obj
 0001:00016020       ??_C@_0EN@EIOOMBFD@Only?5?$CLsrc2?42?5or?5nothing?5is?5valid@ 10017020     useasm:useasm.obj
 0001:00016070       ??_C@_0DP@FGKELBIB@The?5fourth?5argument?5to?5firv?5must@ 10017070     useasm:useasm.obj
 0001:000160b0       ??_C@_0EE@EGNLBLOB@The?5register?5bank?5for?5firvh?5sour@ 100170b0     useasm:useasm.obj
 0001:000160f4       ??_C@_0CE@HBKLLEAA@Maximum?5repeat?5count?5on?5firvh?5is@ 100170f4     useasm:useasm.obj
 0001:00016118       ??_C@_0CI@CFGKFHCM@firvh?5isn?8t?5available?5on?5this?5pr@ 10017118     useasm:useasm.obj
 0001:00016140       ??_C@_0EA@CNFLJPLE@The?5nineth?5argument?5to?5bilin?5mus@ 10017140     useasm:useasm.obj
 0001:00016180       ??_C@_0DE@OJKKKHIL@No?5flags?5are?5valid?5for?5the?5ninet@ 10017180     useasm:useasm.obj
 0001:000161b4       ??_C@_0CN@DJDNLEIC@The?5nineth?5argument?5to?5bilin?5isn@ 100171b4     useasm:useasm.obj
 0001:000161e4       ??_C@_0DH@HFBBMNAM@The?5nineth?5argument?5to?5bilin?5mus@ 100171e4     useasm:useasm.obj
 0001:00016220       ??_C@_0EA@OPFHNAEG@The?5eighth?5argument?5to?5bilin?5mus@ 10017220     useasm:useasm.obj
 0001:00016260       ??_C@_0DE@JJEMPKFN@No?5flags?5are?5valid?5for?5the?5eight@ 10017260     useasm:useasm.obj
 0001:00016294       ??_C@_0CN@MBAHDJDB@The?5eighth?5argument?5to?5bilin?5isn@ 10017294     useasm:useasm.obj
 0001:000162c8       ??_C@_0EJ@BIMEJMPB@The?5eighth?5argument?5to?5bilin?5mus@ 100172c8     useasm:useasm.obj
 0001:00016318       ??_C@_0EB@LANPAAAI@The?5seventh?5argument?5to?5bilin?5mu@ 10017318     useasm:useasm.obj
 0001:0001635c       ??_C@_0DF@KDIGKLML@No?5flags?5are?5valid?5for?5the?5seven@ 1001735c     useasm:useasm.obj
 0001:00016394       ??_C@_0CO@HELDAPEL@The?5seventh?5argument?5to?5bilin?5is@ 10017394     useasm:useasm.obj
 0001:000163c8       ??_C@_0EF@CJMNJFOI@The?5seventh?5argument?5to?5bilin?5mu@ 100173c8     useasm:useasm.obj
 0001:00016410       ??_C@_0EG@CPMAHDPO@The?5sixth?5argument?5to?5bilin?5must@ 10017410     useasm:useasm.obj
 0001:00016458       ??_C@_0DD@EKEGIMOH@No?5flags?5are?5valid?5for?5the?5sixth@ 10017458     useasm:useasm.obj
 0001:0001648c       ??_C@_0CM@FFKOFHMI@The?5sixth?5argument?5to?5bilin?5isn?8@ 1001748c     useasm:useasm.obj
 0001:000164b8       ??_C@_0EA@HDMMDEFM@The?5sixth?5argument?5to?5bilin?5must@ 100174b8     useasm:useasm.obj
 0001:000164f8       ??_C@_0EA@BGIOOBJA@The?5fifth?5argument?5to?5bilin?5must@ 100174f8     useasm:useasm.obj
 0001:00016538       ??_C@_0DD@LPELDOGD@No?5flags?5are?5valid?5for?5the?5fifth@ 10017538     useasm:useasm.obj
 0001:0001656c       ??_C@_0CM@EHIPIMJL@The?5fifth?5argument?5to?5bilin?5isn?8@ 1001756c     useasm:useasm.obj
 0001:00016598       ??_C@_0EB@ILBDCOKI@The?5fifth?5argument?5to?5bilin?5must@ 10017598     useasm:useasm.obj
 0001:000165dc       ??_C@_0CE@PONMLKAD@Maximum?5repeat?5count?5on?5bilin?5is@ 100175dc     useasm:useasm.obj
 0001:00016600       ??_C@_0DE@JHKIEKPM@The?5range?5of?5the?5nineth?5argument@ 10017600     useasm:useasm.obj
 0001:00016634       ??_C@_0DH@KHNFKIAG@The?5nineth?5argument?5to?5firh?5must@ 10017634     useasm:useasm.obj
 0001:0001666c       ??_C@_0DF@JCFPNCKH@The?5range?5of?5the?5eighth?5argument@ 1001766c     useasm:useasm.obj
 0001:000166a4       ??_C@_0DH@BGJCEECP@The?5eighth?5argument?5to?5firh?5must@ 100176a4     useasm:useasm.obj
 0001:000166dc       ??_C@_0CI@HEOOLMFP@The?5maximum?5filter?5coefficent?5se@ 100176dc     useasm:useasm.obj
 0001:00016704       ??_C@_0DC@CJJPPKOA@No?5flags?5are?5valid?5for?5a?5filter?5@ 10017704     useasm:useasm.obj
 0001:00016738       ??_C@_0CI@BPHBGDKA@Filter?5coefficent?5sets?5aren?8t?5in@ 10017738     useasm:useasm.obj
 0001:00016760       ??_C@_0DN@NIIJMAFI@The?5seventh?5argument?5to?5firh?5mus@ 10017760     useasm:useasm.obj
 0001:000167a0       ??_C@_0CK@MCCCMAME@No?5flags?5are?5valid?5for?5an?5immedi@ 100177a0     useasm:useasm.obj
 0001:000167cc       ??_C@_0CE@BOJPMEGF@An?5immediate?5value?5is?5not?5indexa@ 100177cc     useasm:useasm.obj
 0001:000167f0       ??_C@_0DK@HBKJDJHH@The?5sixth?5argument?5to?5firh?5must?5@ 100177f0     useasm:useasm.obj
 0001:0001682c       ??_C@_0DC@MLHGCAJH@No?5flags?5are?5valid?5for?5the?5fifth@ 1001782c     useasm:useasm.obj
 0001:00016860       ??_C@_0CL@PEPPBDAK@The?5fifth?5argument?5to?5firh?5isn?8t@ 10017860     useasm:useasm.obj
 0001:0001688c       ??_C@_0DN@JOJEKONN@The?5fifth?5argument?5to?5firh?5must?5@ 1001788c     useasm:useasm.obj
 0001:000168d0       ??_C@_0HP@FIJDICNA@The?5register?5bank?5for?5firh?5sourc@ 100178d0     useasm:useasm.obj
 0001:00016950       ??_C@_0EG@FDFDPJHP@The?5register?5banks?5for?5source?50?5@ 10017950     useasm:useasm.obj
 0001:00016998       ??_C@_0CD@HKCNPMGG@Maximum?5repeat?5count?5on?5firh?5is?5@ 10017998     useasm:useasm.obj
 0001:000169bc       ??_C@_0DP@DKFIGMEP@The?5destination?5argument?5to?5firh@ 100179bc     useasm:useasm.obj
 0001:000169fc       ??_C@_0DF@BDOGECIG@The?5range?5of?5the?5nineth?5argument@ 100179fc     useasm:useasm.obj
 0001:00016a34       ??_C@_0DI@PJONGPDL@The?5nineth?5argument?5to?5firhh?5mus@ 10017a34     useasm:useasm.obj
 0001:00016a6c       ??_C@_0DG@KGIDPMLA@The?5range?5of?5the?5eighth?5argument@ 10017a6c     useasm:useasm.obj
 0001:00016aa4       ??_C@_0DI@LLOOLALL@The?5eighth?5argument?5to?5firhh?5mus@ 10017aa4     useasm:useasm.obj
 0001:00016adc       ??_C@_0DO@EEFEJEHK@The?5seventh?5argument?5to?5firhh?5mu@ 10017adc     useasm:useasm.obj
 0001:00016b1c       ??_C@_0DL@OHNCDOMJ@The?5sixth?5argument?5to?5firhh?5must@ 10017b1c     useasm:useasm.obj
 0001:00016b58       ??_C@_0DD@MDIEJBGI@No?5flags?5are?5valid?5for?5the?5fifth@ 10017b58     useasm:useasm.obj
 0001:00016b8c       ??_C@_0CM@DLIOMDAE@The?5fifth?5argument?5to?5firhh?5isn?8@ 10017b8c     useasm:useasm.obj
 0001:00016bb8       ??_C@_0DO@NGNIOBOG@The?5fifth?5argument?5to?5firhh?5must@ 10017bb8     useasm:useasm.obj
 0001:00016bf8       ??_C@_0IA@FCFJDLLG@The?5register?5bank?5for?5firhh?5sour@ 10017bf8     useasm:useasm.obj
 0001:00016c78       ??_C@_0EH@HPAOOKCK@The?5register?5banks?5for?5source?50?5@ 10017c78     useasm:useasm.obj
 0001:00016cc0       ??_C@_0CE@BFKJCNOD@Maximum?5repeat?5count?5on?5firhh?5is@ 10017cc0     useasm:useasm.obj
 0001:00016ce4       ??_C@_0CI@CPDCNICP@firhh?5isn?8t?5available?5on?5this?5pr@ 10017ce4     useasm:useasm.obj
 0001:00016d0c       ??_C@_0DK@PJMBECMK@On?5this?5core?5SMP?5result?5format?5c@ 10017d0c     useasm:useasm.obj
 0001:00016d48       ??_C@_0DJ@PFEOBFIJ@Valid?5values?5for?5argument?5?$CFd?5to?5@ 10017d48     useasm:useasm.obj
 0001:00016d84       ??_C@_0CL@LOGACLKI@The?5maximum?5number?5of?5a?5drc?5regi@ 10017d84     useasm:useasm.obj
 0001:00016db0       ??_C@_0DJ@KMKOLKOO@No?5flags?5are?5valid?5for?5a?5depende@ 10017db0     useasm:useasm.obj
 0001:00016df0       ??_C@_0EE@BEFGELHF@A?5dependent?5read?5counter?5registe@ 10017df0     useasm:useasm.obj
 0001:00016e38       ??_C@_0FI@CPMJEANO@The?5fourth?5argument?5to?5a?5sampler@ 10017e38     useasm:useasm.obj
 0001:00016e90       ??_C@_0FD@LADDBKEH@The?5destination?5for?5a?5SMP?5must?5b@ 10017e90     useasm:useasm.obj
 0001:00016ee4       ??_C@_0CM@KHPAMMAK@The?5destination?5for?5an?5SMP?5can?8t@ 10017ee4     useasm:useasm.obj
 0001:00016f10       ??_C@_0DC@EEBJMIBO@A?5?$CFs?5instruction?5can?8t?5be?5predic@ 10017f10     useasm:useasm.obj
 0001:00016f44       ??_C@_0DC@OJMFLOPA@A?5repeat?5count?5isn?8t?5supported?5o@ 10017f44     useasm:useasm.obj
 0001:00016f78       ??_C@_0FD@KGBKPKPH@The?5last?5argument?5to?5a?5load?5inst@ 10017f78     useasm:useasm.obj
 0001:00016fcc       ??_C@_0CL@NHIEGIGG@The?5destination?5for?5an?5LD?5can?8t?5@ 10017fcc     useasm:useasm.obj
 0001:00016ff8       ??_C@_0FD@DHDGKGAN@The?5destination?5for?5an?5LD?5must?5b@ 10017ff8     useasm:useasm.obj
 0001:0001704c       ??_C@_0DD@ECJPHDDF@A?5load?1store?5can?8t?5be?5both?5pre?9?5@ 1001804c     useasm:useasm.obj
 0001:00017080       ??_C@_0FC@LJJNHLCE@?$CFs?5can?8t?5be?5used?5with?5non?9pre?1po@ 10018080     useasm:useasm.obj
 0001:000170d8       ??_C@_0EN@GCEEDLLB@Pre?1post?9increment?5can?8t?5be?5spec@ 100180d8     useasm:useasm.obj
 0001:00017128       ??_C@_0ED@IMFMHAAP@Source?51?5can?8t?5be?5immediate?5for?5@ 10018128     useasm:useasm.obj
 0001:0001716c       ??_C@_0CA@BFMOGGHL@?$CFs?5isn?8t?5supported?5on?5this?5core?$AA@ 1001816c     useasm:useasm.obj
 0001:0001718c       ??_C@_0DC@DNHACGFH@?4fcfill?5and?5?4bypassl1?5can?8t?5be?5s@ 1001818c     useasm:useasm.obj
 0001:000171c0       ??_C@_0DD@BEGMGHDH@?4bpcache?5and?5?4bypassl1?5can?8t?5be?5@ 100181c0     useasm:useasm.obj
 0001:000171f4       ??_C@_0DB@JCFACDNN@?4bpcache?5and?5?4fcfill?5can?8t?5be?5sp@ 100181f4     useasm:useasm.obj
 0001:00017228       ??_C@_0DD@COOIGJEM@Pn?5isn?8t?5a?5valid?5predicate?5for?5b@ 10018228     useasm:useasm.obj
 0001:0001725c       ??_C@_0DI@ONNLHFNB@The?5argument?5to?5a?5branch?5must?5be@ 1001825c     useasm:useasm.obj
 0001:00017294       ??_C@_0DI@LKENEFMD@Only?5drc0?5can?5be?5used?5with?5PBE?5d@ 10018294     useasm:useasm.obj
 0001:000172cc       ??_C@_0BL@DDAKDDCD@Invalid?5data?5path?5selector?$AA@ 100182cc     useasm:useasm.obj
 0001:000172e8       ??_C@_0CM@EIBHGDCN@No?5flags?5are?5valid?5for?5a?5data?5pa@ 100182e8     useasm:useasm.obj
 0001:00017314       ??_C@_0CG@LCIGPPNF@A?5data?5path?5selector?5is?5not?5inde@ 10018314     useasm:useasm.obj
 0001:0001733c       ??_C@_0DI@IKADLPJL@The?5second?5argument?5to?5idf?5must?5@ 1001833c     useasm:useasm.obj
 0001:00017374       ??_C@_0CG@EBPDKBAA@The?5maximum?5drc?5register?5number?5@ 10018374     useasm:useasm.obj
 0001:0001739c       ??_C@_0CG@NKPGJMIA@No?5flags?5are?5valid?5for?5a?5drc?5reg@ 1001839c     useasm:useasm.obj
 0001:000173c4       ??_C@_0CA@BNCKADBN@A?5drc?5register?5is?5not?5indexable?$AA@ 100183c4     useasm:useasm.obj
 0001:000173e4       ??_C@_0DB@EIJIPLBA@The?5first?5argument?5to?5idf?5must?5b@ 100183e4     useasm:useasm.obj
 0001:00017418       ??_C@_0CL@HOIKEHND@The?5argument?5to?5wdf?5must?5be?5a?5dr@ 10018418     useasm:useasm.obj
 0001:00017444       ??_C@_0DI@ECFOFJCH@The?5last?5argument?5to?5an?5emit?5mus@ 10018444     useasm:useasm.obj
 0001:00017480       ??_C@_0EE@FPKMHEIB@The?5maximum?5immediate?5value?5for?5@ 10018480     useasm:useasm.obj
 0001:000174c4       ??_C@_0DJ@EENABCEN@The?5first?5argument?5to?5an?5emit?5mu@ 100184c4     useasm:useasm.obj
 0001:00017500       ??_C@_0CF@OIPADGLP@?$CFs?5isn?8t?5supported?5on?5this?5proce@ 10018500     useasm:useasm.obj
 0001:00017528       ??_C@_0CL@BLKOKIML@No?5flags?5are?5valid?5for?5argument?5@ 10018528     useasm:useasm.obj
 0001:00017558       ??_C@_0FK@GPIOMEID@Argument?5?$CFd?5to?5smoa?5is?5not?5a?5leg@ 10018558     useasm:useasm.obj
 0001:000175b4       ??_C@_0CM@OICCJGCF@Argument?5?$CFd?5to?5smoa?5must?5be?5an?5a@ 100185b4     useasm:useasm.obj
 0001:000175e0       ??_C@_0CL@BPCDNEHJ@No?5flags?5are?5valid?5for?5argument?5@ 100185e0     useasm:useasm.obj
 0001:0001760c       ??_C@_0CF@KHLJFLDD@Argument?5?$CFd?5to?5smoa?5can?8t?5be?5ind@ 1001860c     useasm:useasm.obj
 0001:00017638       ??_C@_0EB@LMPOCDMD@Argument?5?$CFd?5to?5smoa?5is?5out?5of?5ra@ 10018638     useasm:useasm.obj
 0001:0001767c       ??_C@_0CP@JENPMIGB@Argument?5?$CFd?5to?5smoa?5must?5be?5an?5i@ 1001867c     useasm:useasm.obj
 0001:000176b0       ??_C@_0EI@CHCGIOOA@Loading?5the?5MOE?5state?5from?5regis@ 100186b0     useasm:useasm.obj
 0001:000176f8       ??_C@_0DA@OPFKEKGA@Argument?5?$CFd?5to?5smlsi?5should?5be?5a@ 100186f8     useasm:useasm.obj
 0001:00017728       ??_C@_0EG@BJPEDDED@Argument?5?$CFd?5to?5smlsi?5is?5out?5of?5r@ 10018728     useasm:useasm.obj
 0001:00017770       ??_C@_0DA@FCAKILOF@Argument?5?$CFd?5to?5smlsi?5must?5be?5an?5@ 10018770     useasm:useasm.obj
 0001:000177a0       ??_C@_0CM@LFIFLNIO@No?5flags?5are?5valid?5for?5argument?5@ 100187a0     useasm:useasm.obj
 0001:000177cc       ??_C@_0CG@PJFPKLPN@Argument?5?$CFd?5to?5smlsi?5can?8t?5be?5in@ 100187cc     useasm:useasm.obj
 0001:000177f4       ??_C@_0DP@NNLBIBNI@Argument?5?$CFd?5to?5smlsi?5is?5out?5of?5r@ 100187f4     useasm:useasm.obj
 0001:00017834       ??_C@_0CL@MJEEEJFH@Argument?5?$CFd?5to?5smlsi?5isn?8t?5a?5val@ 10018834     useasm:useasm.obj
 0001:00017860       ??_C@_0DM@BDMFEIMC@Argument?5?$CFd?5uses?5component?5selec@ 10018860     useasm:useasm.obj
 0001:0001789c       ??_C@_0DN@CBDPLAND@Argument?5?$CFd?5to?5smlsi?5must?5be?5an?5@ 1001889c     useasm:useasm.obj
 0001:000178e0       ??_C@_0EH@PIBJEHLO@Loading?5the?5MOE?5state?5from?5regis@ 100188e0     useasm:useasm.obj
 0001:00017928       ??_C@_0CJ@GGNGAINM@No?5flags?5are?5valid?5for?5argument?5@ 10018928     useasm:useasm.obj
 0001:00017954       ??_C@_0CD@DAICKOIL@Argument?5?$CFd?5to?5?$CFs?5can?8t?5be?5index@ 10018954     useasm:useasm.obj
 0001:00017978       ??_C@_0DL@DAGJDBAJ@Argument?5?$CFd?5to?5?$CFs?5is?5out?5of?5rang@ 10018978     useasm:useasm.obj
 0001:000179b4       ??_C@_0DN@OPLIFLFN@Argument?5?$CFd?5to?5imo?5is?5out?5of?5ran@ 100189b4     useasm:useasm.obj
 0001:000179f4       ??_C@_0DH@LBKJPHME@Argument?5?$CFd?5to?5smr?1smbo?1imo?5must@ 100189f4     useasm:useasm.obj
 0001:00017a30       ??_C@_0EC@LGDHIHKO@Loading?5the?5MOE?5state?5from?5regis@ 10018a30     useasm:useasm.obj
 0001:00017a74       ??_C@_03DKPPLHHB@imo?$AA@  10018a74     useasm:useasm.obj
 0001:00017a78       ??_C@_04OHNFNFAF@smbo?$AA@ 10018a78     useasm:useasm.obj
 0001:00017a80       ??_C@_03PKDHGMJG@smr?$AA@  10018a80     useasm:useasm.obj
 0001:00017a84       ??_C@_0CM@PAFKAACO@No?5flags?5are?5valid?5for?5argument?5@ 10018a84     useasm:useasm.obj
 0001:00017ab0       ??_C@_0CG@JIFDPGCJ@Argument?5?$CFd?5to?5setfc?5can?8t?5be?5in@ 10018ab0     useasm:useasm.obj
 0001:00017ad8       ??_C@_0DA@FIKLGADO@Argument?5?$CFd?5to?5setfc?5is?5must?5be?5@ 10018ad8     useasm:useasm.obj
 0001:00017b08       ??_C@_0DA@PNIDFAOJ@Argument?5?$CFd?5to?5setfc?5must?5be?5an?5@ 10018b08     useasm:useasm.obj
 0001:00017b38       ??_C@_0DC@IGFMAGID@Only?5?$CFd?5mutex?$CIes?$CJ?5are?5supported?5@ 10018b38     useasm:useasm.obj
 0001:00017b6c       ??_C@_0CE@FKFABDHJ@An?5immediate?5value?5can?8t?5be?5inde@ 10018b6c     useasm:useasm.obj
 0001:00017b90       ??_C@_0CK@FKJKMHCB@No?5flags?5are?5valid?5for?5the?5argum@ 10018b90     useasm:useasm.obj
 0001:00017bbc       ??_C@_0CI@GKLFIIMC@The?5argument?5to?5?$CFs?5must?5be?5an?5im@ 10018bbc     useasm:useasm.obj
 0001:00017be4       ??_C@_0DB@KGKPELKC@The?5third?5argument?5to?5ldr?5must?5b@ 10018be4     useasm:useasm.obj
 0001:00017c18       ??_C@_0EP@HFAIINHO@The?5destination?5for?5ldr?5must?5be?5@ 10018c18     useasm:useasm.obj
 0001:00017c68       ??_C@_0CJ@PBDIHBBP@The?5destination?5for?5ldr?5can?8t?5be@ 10018c68     useasm:useasm.obj
 0001:00017c98       ??_C@_0EI@IMBJAMEN@The?5maximum?5immediate?5value?5for?5@ 10018c98     useasm:useasm.obj
 0001:00017ce0       ??_C@_0DP@EOJFCBDD@The?5seventh?5argument?5to?5atst8?5mu@ 10018ce0     useasm:useasm.obj
 0001:00017d20       ??_C@_0DC@GPFGCALA@An?5integer?5source?5selector?5value@ 10018d20     useasm:useasm.obj
 0001:00017d54       ??_C@_0DM@KLBODCDM@The?5sixth?5argument?5to?5atst8?5must@ 10018d54     useasm:useasm.obj
 0001:00017d90       ??_C@_0EF@HHNKPNHB@No?5flags?5except?5disable?5writebac@ 10018d90     useasm:useasm.obj
 0001:00017dd8       ??_C@_0CG@EAILMAJF@A?5predicate?5register?5is?5not?5inde@ 10018dd8     useasm:useasm.obj
 0001:00017e00       ??_C@_0DP@IJEBNLPN@The?5destination?5argument?5to?5atst@ 10018e00     useasm:useasm.obj
 0001:00017e40       ??_C@_0DJ@CANNFGLC@The?5fifth?5argument?5to?5depthf?5mus@ 10018e40     useasm:useasm.obj
 0001:00017e7c       ??_C@_0DO@JJIFGFHO@The?5fourth?5argument?5to?5depthf?5mu@ 10018e7c     useasm:useasm.obj
 0001:00017ebc       ??_C@_0DG@DJLDOPBE@The?5maximum?5monitor?5supported?5on@ 10018ebc     useasm:useasm.obj
 0001:00017ef4       ??_C@_0CM@EANNIMNI@Monitors?5aren?8t?5supported?5on?5thi@ 10018ef4     useasm:useasm.obj
 0001:00017f20       ??_C@_0DA@NGKNOLIJ@The?5argument?5to?5setm?5must?5be?5an?5@ 10018f20     useasm:useasm.obj
 0001:00017f50       ??_C@_0CK@FLEIDBJB@The?5maximum?5immediate?5value?5for?5@ 10018f50     useasm:useasm.obj
 0001:00017f7c       ??_C@_0CP@KDAJINNH@The?5argument?5to?5wop?5must?5be?5an?5i@ 10018f7c     useasm:useasm.obj
 0001:00017fac       ??_C@_0BI@KBNBGPKO@Label?5?$CFs?5is?5not?5defined?$AA@ 10018fac     useasm:useasm.obj
 0001:00017fc4       ??_C@_09CCMBOHAD@unpcks8u8?$AA@ 10018fc4     useasm:usetab.obj
 0001:00017fd0       ??_C@_09KJAMGOBB@unpcku8s8?$AA@ 10018fd0     useasm:usetab.obj
 0001:00017fdc       ??_C@_08JOEIIECE@statomic?$AA@ 10018fdc     useasm:usetab.obj
 0001:00017fe8       ??_C@_08JBIKDIKP@ldatomic?$AA@ 10018fe8     useasm:usetab.obj
 0001:00017ff4       ??_C@_06MJKBIGOG@cndend?$AA@ 10018ff4     useasm:usetab.obj
 0001:00017ffc       ??_C@_05FIIFAEGG@cndlt?$AA@ 10018ffc     useasm:usetab.obj
 0001:00018004       ??_C@_05NEPPEJDD@cndsm?$AA@ 10019004     useasm:usetab.obj
 0001:0001800c       ??_C@_05CPKAEPDK@cndef?$AA@ 1001900c     useasm:usetab.obj
 0001:00018014       ??_C@_05EPPPOACL@cndst?$AA@ 10019014     useasm:usetab.obj
 0001:0001801c       ??_C@_07KHFILGPJ@isubu32?$AA@ 1001901c     useasm:usetab.obj
 0001:00018024       ??_C@_06JKELAJFH@isub32?$AA@ 10019024     useasm:usetab.obj
 0001:0001802c       ??_C@_05NCHGGDHJ@sprvv?$AA@ 1001902c     useasm:usetab.obj
 0001:00018034       ??_C@_06HFBPFKMP@idxscw?$AA@ 10019034     useasm:usetab.obj
 0001:0001803c       ??_C@_06IGIKOIK@idxscr?$AA@ 1001903c     useasm:usetab.obj
 0001:00018044       ??_C@_0L@JLOMIJPI@vpckc10c10?$AA@ 10019044     useasm:usetab.obj
 0001:00018050       ??_C@_0L@JNIAMPCG@vpckc10f32?$AA@ 10019050     useasm:usetab.obj
 0001:0001805c       ??_C@_0L@PKGINOEM@vpckc10f16?$AA@ 1001905c     useasm:usetab.obj
 0001:00018068       ??_C@_0L@PONMFEDE@vpckf32c10?$AA@ 10019068     useasm:usetab.obj
 0001:00018074       ??_C@_0L@PILABCOK@vpckf32f32?$AA@ 10019074     useasm:usetab.obj
 0001:00018080       ??_C@_0L@JPFIADIA@vpckf32f16?$AA@ 10019080     useasm:usetab.obj
 0001:0001808c       ??_C@_0L@PIJPKECN@vpckf32s16?$AA@ 1001908c     useasm:usetab.obj
 0001:00018098       ??_C@_0L@NNPEPLPB@vpckf32u16?$AA@ 10019098     useasm:usetab.obj
 0001:000180a4       ??_C@_09PGEODABJ@vpckf32o8?$AA@ 100190a4     useasm:usetab.obj
 0001:000180b0       ??_C@_09ODHCGKAN@vpckf32s8?$AA@ 100190b0     useasm:usetab.obj
 0001:000180bc       ??_C@_09OHPPBGLP@vpckf32u8?$AA@ 100190bc     useasm:usetab.obj
 0001:000180c8       ??_C@_0L@EGJEFDPP@vpckf16c10?$AA@ 100190c8     useasm:usetab.obj
 0001:000180d4       ??_C@_0L@EAPIBFCB@vpckf16f32?$AA@ 100190d4     useasm:usetab.obj
 0001:000180e0       ??_C@_0L@CHBAAEEL@vpckf16f16?$AA@ 100190e0     useasm:usetab.obj
 0001:000180ec       ??_C@_0L@EANHKDOG@vpckf16s16?$AA@ 100190ec     useasm:usetab.obj
 0001:000180f8       ??_C@_0L@GFLMPMDK@vpckf16u16?$AA@ 100190f8     useasm:usetab.obj
 0001:00018104       ??_C@_09DOMPECO@vpckf16o8?$AA@ 10019104     useasm:usetab.obj
 0001:00018110       ??_C@_09BGNAKODK@vpckf16s8?$AA@ 10019110     useasm:usetab.obj
 0001:0001811c       ??_C@_09BCFNNCII@vpckf16u8?$AA@ 1001911c     useasm:usetab.obj
 0001:00018128       ??_C@_0L@HFBOKGEI@vpcks16f32?$AA@ 10019128     useasm:usetab.obj
 0001:00018134       ??_C@_0L@BCPGLHCC@vpcks16f16?$AA@ 10019134     useasm:usetab.obj
 0001:00018140       ??_C@_0L@HFDBBAIP@vpcks16s16?$AA@ 10019140     useasm:usetab.obj
 0001:0001814c       ??_C@_0L@FAFKEPFD@vpcks16u16?$AA@ 1001914c     useasm:usetab.obj
 0001:00018158       ??_C@_09FAPHGHAG@vpcks16o8?$AA@ 10019158     useasm:usetab.obj
 0001:00018164       ??_C@_09EFMLDNBC@vpcks16s8?$AA@ 10019164     useasm:usetab.obj
 0001:00018170       ??_C@_09EBEGEBKA@vpcks16u8?$AA@ 10019170     useasm:usetab.obj
 0001:0001817c       ??_C@_0L@BGMOJDHC@vpcku16f32?$AA@ 1001917c     useasm:usetab.obj
 0001:00018188       ??_C@_0L@HBCGICBI@vpcku16f16?$AA@ 10019188     useasm:usetab.obj
 0001:00018194       ??_C@_0L@BGOBCFLF@vpcku16s16?$AA@ 10019194     useasm:usetab.obj
 0001:000181a0       ??_C@_0L@DDIKHKGJ@vpcku16u16?$AA@ 100191a0     useasm:usetab.obj
 0001:000181ac       ??_C@_09IGKOIEBL@vpcku16o8?$AA@ 100191ac     useasm:usetab.obj
 0001:000181b8       ??_C@_09JDJCNOAP@vpcku16s8?$AA@ 100191b8     useasm:usetab.obj
 0001:000181c4       ??_C@_09JHBPKCLN@vpcku16u8?$AA@ 100191c4     useasm:usetab.obj
 0001:000181d0       ??_C@_09HNLHPHGL@vpcko8f32?$AA@ 100191d0     useasm:usetab.obj
 0001:000181dc       ??_C@_09BKFPOGAB@vpcko8f16?$AA@ 100191dc     useasm:usetab.obj
 0001:000181e8       ??_C@_09HNJIEBKM@vpcko8s16?$AA@ 100191e8     useasm:usetab.obj
 0001:000181f4       ??_C@_09FIPDBOHA@vpcko8u16?$AA@ 100191f4     useasm:usetab.obj
 0001:00018200       ??_C@_08JEJLGJEL@vpcko8o8?$AA@ 10019200     useasm:usetab.obj
 0001:0001820c       ??_C@_08IBKHDDFP@vpcko8s8?$AA@ 1001920c     useasm:usetab.obj
 0001:00018218       ??_C@_08IFCKEPON@vpcko8u8?$AA@ 10019218     useasm:usetab.obj
 0001:00018224       ??_C@_09JKDDFIL@vpcks8f32?$AA@ 10019224     useasm:usetab.obj
 0001:00018230       ??_C@_09GOELCEOB@vpcks8f16?$AA@ 10019230     useasm:usetab.obj
 0001:0001823c       ??_C@_09JIMIDEM@vpcks8s16?$AA@ 1001923c     useasm:usetab.obj
 0001:00018248       ??_C@_09CMOHNMJA@vpcks8u16?$AA@ 10019248     useasm:usetab.obj
 0001:00018254       ??_C@_08DBILBDMI@vpcks8o8?$AA@ 10019254     useasm:usetab.obj
 0001:00018260       ??_C@_08CELHEJNM@vpcks8s8?$AA@ 10019260     useasm:usetab.obj
 0001:0001826c       ??_C@_08CADKDFGO@vpcks8u8?$AA@ 1001926c     useasm:usetab.obj
 0001:00018278       ??_C@_09NPPKNGJG@vpcku8f32?$AA@ 10019278     useasm:usetab.obj
 0001:00018284       ??_C@_09LIBCMHPM@vpcku8f16?$AA@ 10019284     useasm:usetab.obj
 0001:00018290       ??_C@_09NPNFGAFB@vpcku8s16?$AA@ 10019290     useasm:usetab.obj
 0001:0001829c       ??_C@_09PKLODPIN@vpcku8u16?$AA@ 1001929c     useasm:usetab.obj
 0001:000182a8       ??_C@_08LOMLOGGI@vpcku8o8?$AA@ 100192a8     useasm:usetab.obj
 0001:000182b4       ??_C@_08KLPHLMHM@vpcku8s8?$AA@ 100192b4     useasm:usetab.obj
 0001:000182c0       ??_C@_08KPHKMAMO@vpcku8u8?$AA@ 100192c0     useasm:usetab.obj
 0001:000182cc       ??_C@_04DGGKFKKC@vexp?$AA@ 100192cc     useasm:usetab.obj
 0001:000182d4       ??_C@_04FHIICEEL@vlog?$AA@ 100192d4     useasm:usetab.obj
 0001:000182dc       ??_C@_04OOOKOLCE@vrsq?$AA@ 100192dc     useasm:usetab.obj
 0001:000182e4       ??_C@_04OLNHHJBF@vrcp?$AA@ 100192e4     useasm:usetab.obj
 0001:000182ec       ??_C@_07IFLIPEJM@vf16sub?$AA@ 100192ec     useasm:usetab.obj
 0001:000182f4       ??_C@_06BKGGAFJG@vf16dp?$AA@ 100192f4     useasm:usetab.obj
 0001:000182fc       ??_C@_07JOHMCFEH@vf16max?$AA@ 100192fc     useasm:usetab.obj
 0001:00018304       ??_C@_07IMPHMBCI@vf16min?$AA@ 10019304     useasm:usetab.obj
 0001:0001830c       ??_C@_07OFMNCMJC@vf16dsy?$AA@ 1001930c     useasm:usetab.obj
 0001:00018314       ??_C@_07PMNGBNND@vf16dsx?$AA@ 10019314     useasm:usetab.obj
 0001:0001831c       ??_C@_07POCLHEPF@vf16frc?$AA@ 1001931c     useasm:usetab.obj
 0001:00018324       ??_C@_07DEBGAFEJ@vf16add?$AA@ 10019324     useasm:usetab.obj
 0001:0001832c       ??_C@_07KLPNPJLO@vf16mul?$AA@ 1001932c     useasm:usetab.obj
 0001:00018334       ??_C@_07HIALHIBK@vf16mad?$AA@ 10019334     useasm:usetab.obj
 0001:0001833c       ??_C@_04DDDELBGB@vsub?$AA@ 1001933c     useasm:usetab.obj
 0001:00018344       ??_C@_03PAAOMFKJ@vdp?$AA@  10019344     useasm:usetab.obj
 0001:00018348       ??_C@_04FDEBGJGP@vdsy?$AA@ 10019348     useasm:usetab.obj
 0001:00018350       ??_C@_04EKFKFICO@vdsx?$AA@ 10019350     useasm:usetab.obj
 0001:00018358       ??_C@_04CIPAGALK@vmax?$AA@ 10019358     useasm:usetab.obj
 0001:00018360       ??_C@_04DKHLIENF@vmin?$AA@ 10019360     useasm:usetab.obj
 0001:00018368       ??_C@_04EIKHDBAI@vfrc?$AA@ 10019368     useasm:usetab.obj
 0001:00018370       ??_C@_04ICJKEALE@vadd?$AA@ 10019370     useasm:usetab.obj
 0001:00018378       ??_C@_04BNHBLMED@vmul?$AA@ 10019378     useasm:usetab.obj
 0001:00018380       ??_C@_04MOIHDNOH@vmad?$AA@ 10019380     useasm:usetab.obj
 0001:00018388       ??_C@_07PJIFHDOJ@vmovcu8?$AA@ 10019388     useasm:usetab.obj
 0001:00018390       ??_C@_05IPANMIKP@vmovc?$AA@ 10019390     useasm:usetab.obj
 0001:00018398       ??_C@_04LMONGADO@vmov?$AA@ 10019398     useasm:usetab.obj
 0001:000183a0       ??_C@_05HKPHADDM@vmov4?$AA@ 100193a0     useasm:usetab.obj
 0001:000183a8       ??_C@_05DFLGJFPL@vmov3?$AA@ 100193a8     useasm:usetab.obj
 0001:000183b0       ??_C@_05LKKHNEHN@vssq4?$AA@ 100193b0     useasm:usetab.obj
 0001:000183b8       ??_C@_05PFOGECLK@vssq3?$AA@ 100193b8     useasm:usetab.obj
 0001:000183c0       ??_C@_05IBKMJGII@vsub4?$AA@ 100193c0     useasm:usetab.obj
 0001:000183c8       ??_C@_05MOONAAEP@vsub3?$AA@ 100193c8     useasm:usetab.obj
 0001:000183d0       ??_C@_05HHKEBOCC@vadd4?$AA@ 100193d0     useasm:usetab.obj
 0001:000183d8       ??_C@_05DIOFIIOF@vadd3?$AA@ 100193d8     useasm:usetab.obj
 0001:000183e0       ??_C@_05FEOCJCGB@vmul4?$AA@ 100193e0     useasm:usetab.obj
 0001:000183e8       ??_C@_05BLKDAEKG@vmul3?$AA@ 100193e8     useasm:usetab.obj
 0001:000183f0       ??_C@_05IFIKADBB@vmad4?$AA@ 100193f0     useasm:usetab.obj
 0001:000183f8       ??_C@_05MKMLJFNG@vmad3?$AA@ 100193f8     useasm:usetab.obj
 0001:00018400       ??_C@_04BENAOGHO@vdp4?$AA@ 10019400     useasm:usetab.obj
 0001:00018408       ??_C@_04FLJBHALJ@vdp3?$AA@ 10019408     useasm:usetab.obj
 0001:00018410       ??_C@_09NODGMHNE@emitvcbst?$AA@ 10019410     useasm:usetab.obj
 0001:0001841c       ??_C@_0L@FBFICDMG@emitvcbvtx?$AA@ 1001941c     useasm:usetab.obj
 0001:00018428       ??_C@_09PIDAEGKH@emitmtest?$AA@ 10019428     useasm:usetab.obj
 0001:00018434       ??_C@_0L@JIHCAFMB@emitmtevtx?$AA@ 10019434     useasm:usetab.obj
 0001:00018440       ??_C@_03PENBPHC@cfi?$AA@   10019440     useasm:usetab.obj
 0001:00018444       ??_C@_02POBAIDHK@ci?$AA@   10019444     useasm:usetab.obj
 0001:00018448       ??_C@_02HJIIJPLF@cf?$AA@   10019448     useasm:usetab.obj
 0001:0001844c       ??_C@_05PACJMPIO@moest?$AA@ 1001944c     useasm:usetab.obj
 0001:00018454       ??_C@_06FOOALFNH@fnrm16?$AA@ 10019454     useasm:usetab.obj
 0001:0001845c       ??_C@_06DJAIKELN@fnrm32?$AA@ 1001945c     useasm:usetab.obj
 0001:00018464       ??_C@_06KNGBBCNH@sablnd?$AA@ 10019464     useasm:usetab.obj
 0001:0001846c       ??_C@_06DPIIDNJL@fpsub8?$AA@ 1001946c     useasm:usetab.obj
 0001:00018474       ??_C@_06MJIALFDB@fpadd8?$AA@ 10019474     useasm:usetab.obj
 0001:0001847c       ??_C@_06OKMGDJHC@fpmul8?$AA@ 1001947c     useasm:usetab.obj
 0001:00018484       ??_C@_06BELDBAKP@isubu8?$AA@ 10019484     useasm:usetab.obj
 0001:0001848c       ??_C@_06CCEGFCNB@iaddu8?$AA@ 1001948c     useasm:usetab.obj
 0001:00018494       ??_C@_04HIHJCIAG@fpma?$AA@ 10019494     useasm:usetab.obj
 0001:0001849c       ??_C@_06BODAOOPP@movmsk?$AA@ 1001949c     useasm:usetab.obj
 0001:000184a4       ??_C@_04CFJGHAMN@movc?$AA@ 100194a4     useasm:usetab.obj
 0001:000184ac       ??_C@_07BANDBPIA@iaddu32?$AA@ 100194ac     useasm:usetab.obj
 0001:000184b4       ??_C@_06DBFEDEDN@imov16?$AA@ 100194b4     useasm:usetab.obj
 0001:000184bc       ??_C@_06MNLAAEHH@imulu8?$AA@ 100194bc     useasm:usetab.obj
 0001:000184c4       ??_C@_05KNHGNCD@imul8?$AA@ 100194c4     useasm:usetab.obj
 0001:000184cc       ??_C@_05NPJJGJMK@isub8?$AA@ 100194cc     useasm:usetab.obj
 0001:000184d4       ??_C@_05CJJBOBGA@iadd8?$AA@ 100194d4     useasm:usetab.obj
 0001:000184dc       ??_C@_06KMLOELCJ@iadd32?$AA@ 100194dc     useasm:usetab.obj
 0001:000184e4       ??_C@_07EIGBPOGB@imulu16?$AA@ 100194e4     useasm:usetab.obj
 0001:000184ec       ??_C@_07MALAKHJD@isubu16?$AA@ 100194ec     useasm:usetab.obj
 0001:000184f4       ??_C@_07HHDLAOOK@iaddu16?$AA@ 100194f4     useasm:usetab.obj
 0001:000184fc       ??_C@_06CEKAAMOF@imul16?$AA@ 100194fc     useasm:usetab.obj
 0001:00018504       ??_C@_06PNKDBIDN@isub16?$AA@ 10019504     useasm:usetab.obj
 0001:0001850c       ??_C@_06MLFGFKED@iadd16?$AA@ 1001950c     useasm:usetab.obj
 0001:00018514       ??_C@_05OJCDMDMI@asop2?$AA@ 10019514     useasm:usetab.obj
 0001:0001851c       ??_C@_04BNKIMGJI@lrp2?$AA@ 1001951c     useasm:usetab.obj
 0001:00018524       ??_C@_04DGIFJFFL@lrp1?$AA@ 10019524     useasm:usetab.obj
 0001:0001852c       ??_C@_04JEDFNLGM@alrp?$AA@ 1001952c     useasm:usetab.obj
 0001:00018534       ??_C@_05BLLJMLJF@arsop?$AA@ 10019534     useasm:usetab.obj
 0001:0001853c       ??_C@_04IILBKMIG@asop?$AA@ 1001953c     useasm:usetab.obj
 0001:00018544       ??_C@_04OBPEPKPD@asub?$AA@ 10019544     useasm:usetab.obj
 0001:0001854c       ??_C@_04FAFKALCG@aadd?$AA@ 1001954c     useasm:usetab.obj
 0001:00018554       ??_C@_07NOKJPFJG@aintrp2?$AA@ 10019554     useasm:usetab.obj
 0001:0001855c       ??_C@_07PFIEKGFF@aintrp1?$AA@ 1001955c     useasm:usetab.obj
 0001:00018564       ??_C@_04HDJKLMOD@phas?$AA@ 10019564     useasm:usetab.obj
 0001:0001856c       ??_C@_04IPMEAKK@setm?$AA@  1001956c     useasm:usetab.obj
 0001:00018574       ??_C@_03EEOHENCN@wop?$AA@  10019574     useasm:usetab.obj
 0001:00018578       ??_C@_06CNLPFHCD@depthf?$AA@ 10019578     useasm:usetab.obj
 0001:00018580       ??_C@_05LMCKLHKJ@atst8?$AA@ 10019580     useasm:usetab.obj
 0001:00018588       ??_C@_05FFPFIJHE@ptoff?$AA@ 10019588     useasm:usetab.obj
 0001:00018590       ??_C@_06GIPMBBEA@pcoeff?$AA@ 10019590     useasm:usetab.obj
 0001:00018598       ??_C@_03OJMAPEGJ@str?$AA@  10019598     useasm:usetab.obj
 0001:0001859c       ??_C@_03PNJMBANA@ldr?$AA@  1001959c     useasm:usetab.obj
 0001:000185a0       ??_C@_07KLENHKKM@fsubflr?$AA@ 100195a0     useasm:usetab.obj
 0001:000185a8       ??_C@_07EOGFDLKI@release?$AA@ 100195a8     useasm:usetab.obj
 0001:000185b0       ??_C@_04MKMCLCOO@lock?$AA@ 100195b0     useasm:usetab.obj
 0001:000185b8       ??_C@_06OPKGODIN@fddpc4?$AA@ 100195b8     useasm:usetab.obj
 0001:000185c0       ??_C@_06KAOHHFEK@fddpc3?$AA@ 100195c0     useasm:usetab.obj
 0001:000185c8       ??_C@_05FCEHFDPG@fddpc?$AA@ 100195c8     useasm:usetab.obj
 0001:000185d0       ??_C@_05KHLNJIGF@fddp4?$AA@ 100195d0     useasm:usetab.obj
 0001:000185d8       ??_C@_05OIPMAOKC@fddp3?$AA@ 100195d8     useasm:usetab.obj
 0001:000185e0       ??_C@_04PLAKPAFB@fddp?$AA@ 100195e0     useasm:usetab.obj
 0001:000185e8       ??_C@_05GGKGEFIE@fdpc4?$AA@ 100195e8     useasm:usetab.obj
 0001:000185f0       ??_C@_05CJOHNDED@fdpc3?$AA@ 100195f0     useasm:usetab.obj
 0001:000185f8       ??_C@_04IBMKLKGP@fdpc?$AA@ 100195f8     useasm:usetab.obj
 0001:00018600       ??_C@_04HEDAHBPM@fdp4?$AA@ 10019600     useasm:usetab.obj
 0001:00018608       ??_C@_04DLHBOHDL@fdp3?$AA@ 10019608     useasm:usetab.obj
 0001:00018610       ??_C@_05HEIOGBDD@setfc?$AA@ 10019610     useasm:usetab.obj
 0001:00018618       ??_C@_05DBFBNMJD@smlsi?$AA@ 10019618     useasm:usetab.obj
 0001:00018620       ??_C@_04HBIOGLNI@smoa?$AA@ 10019620     useasm:usetab.obj
 0001:00018628       ??_C@_06EOEAAGLO@u16tnz?$AA@ 10019628     useasm:usetab.obj
 0001:00018630       ??_C@_05NKPLKFJF@u16tz?$AA@ 10019630     useasm:usetab.obj
 0001:00018638       ??_C@_04FMGLMKJC@ftnz?$AA@ 10019638     useasm:usetab.obj
 0001:00018640       ??_C@_03EGNONJMM@ftz?$AA@  10019640     useasm:usetab.obj
 0001:00018644       ??_C@_03GJPGFFDI@nop?$AA@  10019644     useasm:usetab.obj
 0001:00018648       ??_C@_03FGBGECCC@dma?$AA@  10019648     useasm:usetab.obj
 0001:0001864c       ??_C@_03ODCMFNNH@sms?$AA@  1001964c     useasm:usetab.obj
 0001:00018650       ??_C@_03BJDMMCMD@ams?$AA@  10019650     useasm:usetab.obj
 0001:00018654       ??_C@_03DHGNGCAI@smm?$AA@  10019654     useasm:usetab.obj
 0001:00018658       ??_C@_03MNHNPNBM@amm?$AA@  10019658     useasm:usetab.obj
 0001:0001865c       ??_C@_03JEAJBGIL@sda?$AA@  1001965c     useasm:usetab.obj
 0001:00018660       ??_C@_03DILMFJIH@sdm?$AA@  10019660     useasm:usetab.obj
 0001:00018664       ??_C@_07KLCMLLPD@setpneq?$AA@ 10019664     useasm:usetab.obj
 0001:0001866c       ??_C@_07DCGPGNGK@setplte?$AA@ 1001966c     useasm:usetab.obj
 0001:00018674       ??_C@_06IKNJBMPL@setplt?$AA@ 10019674     useasm:usetab.obj
 0001:0001867c       ??_C@_06PIHPNDDB@setpeq?$AA@ 1001967c     useasm:usetab.obj
 0001:00018684       ??_C@_07OFGOOKGL@setpgte?$AA@ 10019684     useasm:usetab.obj
 0001:0001868c       ??_C@_06IGIMPDBK@setpgt?$AA@ 1001968c     useasm:usetab.obj
 0001:00018694       ??_C@_04FDNECGOD@fsub?$AA@ 10019694     useasm:usetab.obj
 0001:0001869c       ??_C@_04DGLGBLMD@fssq?$AA@ 1001969c     useasm:usetab.obj
 0001:000186a4       ??_C@_04OCHKNHDG@fadd?$AA@ 100196a4     useasm:usetab.obj
 0001:000186ac       ??_C@_04HNJBCLMB@fmul?$AA@ 100196ac     useasm:usetab.obj
 0001:000186b4       ??_C@_04NMANPHLM@fmov?$AA@ 100196b4     useasm:usetab.obj
 0001:000186bc       ??_C@_03CNBJFNFA@mov?$AA@  100196bc     useasm:usetab.obj
 0001:000186c0       ??_C@_07OLONFCKE@emitpds?$AA@ 100196c0     useasm:usetab.obj
 0001:000186c8       ??_C@_0O@LEENHJNO@emitprimitive?$AA@ 100196c8     useasm:usetab.obj
 0001:000186d8       ??_C@_07DBFEHHMD@emitvtx?$AA@ 100196d8     useasm:usetab.obj
 0001:000186e0       ??_C@_06GCOMBHEL@emitst?$AA@ 100196e0     useasm:usetab.obj
 0001:000186e8       ??_C@_07MBBIDM@emitpix?$AA@ 100196e8     useasm:usetab.obj
 0001:000186f0       ??_C@_08MCBPOJOO@emitpix2?$AA@ 100196f0     useasm:usetab.obj
 0001:000186fc       ??_C@_08OJDCLKCN@emitpix1?$AA@ 100196fc     useasm:usetab.obj
 0001:00018708       ??_C@_04LDGNGHLO@limm?$AA@ 10019708     useasm:usetab.obj
 0001:00018710       ??_C@_03FECKBHBL@wdf?$AA@  10019710     useasm:usetab.obj
 0001:00018714       ??_C@_03OEOMDHLH@idf?$AA@  10019714     useasm:usetab.obj
 0001:00018718       ??_C@_0L@JODEDCHK@bexception?$AA@ 10019718     useasm:usetab.obj
 0001:00018724       ??_C@_04PMKEFCPM@lapc?$AA@ 10019724     useasm:usetab.obj
 0001:0001872c       ??_C@_02FGOECCNH@br?$AA@   1001972c     useasm:usetab.obj
 0001:00018730       ??_C@_02DHALGDEF@ba?$AA@   10019730     useasm:usetab.obj
 0001:00018734       ??_C@_04GAAFJDCP@eldq?$AA@ 10019734     useasm:usetab.obj
 0001:0001873c       ??_C@_04FHLAHFDL@eldd?$AA@ 1001973c     useasm:usetab.obj
 0001:00018744       ??_C@_04GCOCNAN@sttq?$AA@  10019744     useasm:usetab.obj
 0001:0001874c       ??_C@_04DBJLMLBJ@sttd?$AA@ 1001974c     useasm:usetab.obj
 0001:00018754       ??_C@_04FAHEIKIL@sttw?$AA@ 10019754     useasm:usetab.obj
 0001:0001875c       ??_C@_04GHMBGMJP@sttb?$AA@ 1001975c     useasm:usetab.obj
 0001:00018764       ??_C@_04LEIHHKMB@ldtq?$AA@ 10019764     useasm:usetab.obj
 0001:0001876c       ??_C@_04IDDCJMNF@ldtd?$AA@ 1001976c     useasm:usetab.obj
 0001:00018774       ??_C@_04OCNNNNEH@ldtw?$AA@ 10019774     useasm:usetab.obj
 0001:0001877c       ??_C@_04NFGIDLFD@ldtb?$AA@ 1001977c     useasm:usetab.obj
 0001:00018784       ??_C@_04BEBLNPMF@stlq?$AA@ 10019784     useasm:usetab.obj
 0001:0001878c       ??_C@_04CDKODJNB@stld?$AA@ 1001978c     useasm:usetab.obj
 0001:00018794       ??_C@_04ECEBHIED@stlw?$AA@ 10019794     useasm:usetab.obj
 0001:0001879c       ??_C@_04HFPEJOFH@stlb?$AA@ 1001979c     useasm:usetab.obj
 0001:000187a4       ??_C@_04KGLCIIAJ@ldlq?$AA@ 100197a4     useasm:usetab.obj
 0001:000187ac       ??_C@_04JBAHGOBN@ldld?$AA@ 100197ac     useasm:usetab.obj
 0001:000187b4       ??_C@_04PAOICPIP@ldlw?$AA@ 100197b4     useasm:usetab.obj
 0001:000187bc       ??_C@_04MHFNMJJL@ldlb?$AA@ 100197bc     useasm:usetab.obj
 0001:000187c4       ??_C@_04BMMDEMJG@staq?$AA@ 100197c4     useasm:usetab.obj
 0001:000187cc       ??_C@_04CLHGKKIC@stad?$AA@ 100197cc     useasm:usetab.obj
 0001:000187d4       ??_C@_04EKJJOLBA@staw?$AA@ 100197d4     useasm:usetab.obj
 0001:000187dc       ??_C@_04HNCMANAE@stab?$AA@ 100197dc     useasm:usetab.obj
 0001:000187e4       ??_C@_04KOGKBLFK@ldaq?$AA@ 100197e4     useasm:usetab.obj
 0001:000187ec       ??_C@_04JJNPPNEO@ldad?$AA@ 100197ec     useasm:usetab.obj
 0001:000187f4       ??_C@_04PIDALMNM@ldaw?$AA@ 100197f4     useasm:usetab.obj
 0001:000187fc       ??_C@_04MPIFFKMI@ldab?$AA@ 100197fc     useasm:usetab.obj
 0001:00018804       ??_C@_09KIDJGAAM@smp3dgrad?$AA@ 10019804     useasm:usetab.obj
 0001:00018810       ??_C@_09OEOGLLI@smp2dgrad?$AA@ 10019810     useasm:usetab.obj
 0001:0001881c       ??_C@_09DPKGHBCF@smp1dgrad?$AA@ 1001981c     useasm:usetab.obj
 0001:00018828       ??_C@_0N@IMLLGHGO@smp3dreplace?$AA@ 10019828     useasm:usetab.obj
 0001:00018838       ??_C@_0N@GDHJAMFA@smp2dreplace?$AA@ 10019838     useasm:usetab.obj
 0001:00018848       ??_C@_0N@IIEOLHFD@smp1dreplace?$AA@ 10019848     useasm:usetab.obj
 0001:00018858       ??_C@_09OCECLLHE@smp3dbias?$AA@ 10019858     useasm:usetab.obj
 0001:00018864       ??_C@_09EEDFLAMA@smp2dbias?$AA@ 10019864     useasm:usetab.obj
 0001:00018870       ??_C@_09HFNNKKFN@smp1dbias?$AA@ 10019870     useasm:usetab.obj
 0001:0001887c       ??_C@_05OOKKMHDJ@smp3d?$AA@ 1001987c     useasm:usetab.obj
 0001:00018884       ??_C@_05OPGIKNAO@smp2d?$AA@ 10019884     useasm:usetab.obj
 0001:0001888c       ??_C@_05ONCOBDFH@smp1d?$AA@ 1001988c     useasm:usetab.obj
 0001:00018894       ??_C@_06GGGOMLOL@ssum16?$AA@ 10019894     useasm:usetab.obj
 0001:0001889c       ??_C@_05COGELEAH@firhh?$AA@ 1001989c     useasm:usetab.obj
 0001:000188a4       ??_C@_04JDNAGPBH@firh?$AA@ 100198a4     useasm:usetab.obj
 0001:000188ac       ??_C@_05FCKLBLAM@bilin?$AA@ 100198ac     useasm:usetab.obj
 0001:000188b4       ??_C@_05DINMDKHN@firvh?$AA@ 100198b4     useasm:usetab.obj
 0001:000188bc       ??_C@_04EHJBFAMI@firv?$AA@ 100198bc     useasm:usetab.obj
 0001:000188c4       ??_C@_07DLAPIEBJ@adifsum?$AA@ 100198c4     useasm:usetab.obj
 0001:000188cc       ??_C@_04FNGKAKMF@adif?$AA@ 100198cc     useasm:usetab.obj
 0001:000188d4       ??_C@_04CHNIFDFF@idiv?$AA@ 100198d4     useasm:usetab.obj
 0001:000188dc       ??_C@_05EIKDCMOM@ima32?$AA@ 100198dc     useasm:usetab.obj
 0001:000188e4       ??_C@_04DFCMAMPF@imae?$AA@ 100198e4     useasm:usetab.obj
 0001:000188ec       ??_C@_05CPELDNIG@ima16?$AA@ 100198ec     useasm:usetab.obj
 0001:000188f4       ??_C@_04DKDJCPOM@ima8?$AA@ 100198f4     useasm:usetab.obj
 0001:000188fc       ??_C@_0L@DAOCLPMG@u16dot4off?$AA@ 100198fc     useasm:usetab.obj
 0001:00018908       ??_C@_0L@ICMCGDNG@u16dot3off?$AA@ 10019908     useasm:usetab.obj
 0001:00018914       ??_C@_09GIAJOEKF@u8dot4off?$AA@ 10019914     useasm:usetab.obj
 0001:00018920       ??_C@_09NKCJDILF@u8dot3off?$AA@ 10019920     useasm:usetab.obj
 0001:0001892c       ??_C@_07EFHPPAJH@u16dot4?$AA@ 1001992c     useasm:usetab.obj
 0001:00018934       ??_C@_07KDOGGFA@u16dot3?$AA@ 10019934     useasm:usetab.obj
 0001:0001893c       ??_C@_06NDMPFPGO@u8dot4?$AA@ 1001993c     useasm:usetab.obj
 0001:00018944       ??_C@_06JMIOMJKJ@u8dot3?$AA@ 10019944     useasm:usetab.obj
 0001:0001894c       ??_C@_04EEHAHIMI@sop3?$AA@ 1001994c     useasm:usetab.obj
 0001:00018954       ??_C@_06GEKMOMGC@sop2wm?$AA@ 10019954     useasm:usetab.obj
 0001:0001895c       ??_C@_04FNGLEJIJ@sop2?$AA@ 1001995c     useasm:usetab.obj
 0001:00018964       ??_C@_03HBHPADEG@rlp?$AA@  10019964     useasm:usetab.obj
 0001:00018968       ??_C@_03JFEOOAEC@rol?$AA@  10019968     useasm:usetab.obj
 0001:0001896c       ??_C@_03BGJPHNPI@asr?$AA@  1001996c     useasm:usetab.obj
 0001:00018970       ??_C@_03PMPMKOHN@shr?$AA@  10019970     useasm:usetab.obj
 0001:00018974       ??_C@_03CILNJBKC@shl?$AA@  10019974     useasm:usetab.obj
 0001:00018978       ??_C@_03COLCDPPJ@xor?$AA@  10019978     useasm:usetab.obj
 0001:0001897c       ??_C@_02FODMLBIE@or?$AA@   1001997c     useasm:usetab.obj
 0001:00018980       ??_C@_03BOPJPIAM@and?$AA@  10019980     useasm:usetab.obj
 0001:00018984       ??_C@_0M@CDGCCNBB@unpckc10c10?$AA@ 10019984     useasm:usetab.obj
 0001:00018990       ??_C@_09KNIBBCKD@unpcku8u8?$AA@ 10019990     useasm:usetab.obj
 0001:0001899c       ??_C@_0M@MLPMEEHP@unpcks16c10?$AA@ 1001999c     useasm:usetab.obj
 0001:000189a8       ??_C@_0L@GDPGIBDB@unpcks16o8?$AA@ 100199a8     useasm:usetab.obj
 0001:000189b4       ??_C@_0L@HGMKNLCF@unpcks16s8?$AA@ 100199b4     useasm:usetab.obj
 0001:000189c0       ??_C@_0L@HCEHKHJH@unpcks16u8?$AA@ 100199c0     useasm:usetab.obj
 0001:000189cc       ??_C@_0M@MNLPLEGG@unpcks16s16?$AA@ 100199cc     useasm:usetab.obj
 0001:000189d8       ??_C@_0M@OINEOLLK@unpcks16u16?$AA@ 100199d8     useasm:usetab.obj
 0001:000189e4       ??_C@_0M@KKHIBDML@unpcks16f16?$AA@ 100199e4     useasm:usetab.obj
 0001:000189f0       ??_C@_0M@KICMHBEF@unpcku16c10?$AA@ 100199f0     useasm:usetab.obj
 0001:000189fc       ??_C@_0L@LFKPGCCM@unpcku16o8?$AA@ 100199fc     useasm:usetab.obj
 0001:00018a08       ??_C@_0L@KAJDDIDI@unpcku16s8?$AA@ 10019a08     useasm:usetab.obj
 0001:00018a14       ??_C@_0L@KEBOEEIK@unpcku16u8?$AA@ 10019a14     useasm:usetab.obj
 0001:00018a20       ??_C@_0M@KOGPIBFM@unpcku16s16?$AA@ 10019a20     useasm:usetab.obj
 0001:00018a2c       ??_C@_0M@ILAENOIA@unpcku16u16?$AA@ 10019a2c     useasm:usetab.obj
 0001:00018a38       ??_C@_0M@MJKICGPB@unpcku16f16?$AA@ 10019a38     useasm:usetab.obj
 0001:00018a44       ??_C@_0M@POBKPHBG@unpckf16c10?$AA@ 10019a44     useasm:usetab.obj
 0001:00018a50       ??_C@_0L@DAONBCBJ@unpckf16o8?$AA@ 10019a50     useasm:usetab.obj
 0001:00018a5c       ??_C@_0L@CFNBEIAN@unpckf16s8?$AA@ 10019a5c     useasm:usetab.obj
 0001:00018a68       ??_C@_0L@CBFMDELP@unpckf16u8?$AA@ 10019a68     useasm:usetab.obj
 0001:00018a74       ??_C@_0M@PIFJAHAP@unpckf16s16?$AA@ 10019a74     useasm:usetab.obj
 0001:00018a80       ??_C@_0M@NNDCFIND@unpckf16u16?$AA@ 10019a80     useasm:usetab.obj
 0001:00018a8c       ??_C@_0M@JPJOKAKC@unpckf16f16?$AA@ 10019a8c     useasm:usetab.obj
 0001:00018a98       ??_C@_0M@EGFCPANN@unpckf32c10?$AA@ 10019a98     useasm:usetab.obj
 0001:00018aa4       ??_C@_0L@MFEPNGCO@unpckf32o8?$AA@ 10019aa4     useasm:usetab.obj
 0001:00018ab0       ??_C@_0L@NAHDIMDK@unpckf32s8?$AA@ 10019ab0     useasm:usetab.obj
 0001:00018abc       ??_C@_0L@NEPOPAII@unpckf32u8?$AA@ 10019abc     useasm:usetab.obj
 0001:00018ac8       ??_C@_0M@EABBAAME@unpckf32s16?$AA@ 10019ac8     useasm:usetab.obj
 0001:00018ad4       ??_C@_0M@GFHKFPBI@unpckf32u16?$AA@ 10019ad4     useasm:usetab.obj
 0001:00018ae0       ??_C@_0M@CHNGKHGJ@unpckf32f16?$AA@ 10019ae0     useasm:usetab.obj
 0001:00018aec       ??_C@_0M@EADOLGAD@unpckf32f32?$AA@ 10019aec     useasm:usetab.obj
 0001:00018af8       ??_C@_09DDFDIML@pckc10s16?$AA@ 10019af8     useasm:usetab.obj
 0001:00018b04       ??_C@_09CGFOGHBH@pckc10u16?$AA@ 10019b04     useasm:usetab.obj
 0001:00018b10       ??_C@_09GEPCJPGG@pckc10f16?$AA@ 10019b10     useasm:usetab.obj
 0001:00018b1c       ??_C@_09DBKIOAM@pckc10f32?$AA@ 10019b1c     useasm:usetab.obj
 0001:00018b28       ??_C@_08IDEMMIKL@pcko8s16?$AA@ 10019b28     useasm:usetab.obj
 0001:00018b34       ??_C@_08KGCHJHHH@pcko8u16?$AA@ 10019b34     useasm:usetab.obj
 0001:00018b40       ??_C@_08OEILGPAG@pcko8f16?$AA@ 10019b40     useasm:usetab.obj
 0001:00018b4c       ??_C@_08IDGDHOGM@pcko8f32?$AA@ 10019b4c     useasm:usetab.obj
 0001:00018b58       ??_C@_08PHFIAKEL@pcks8s16?$AA@ 10019b58     useasm:usetab.obj
 0001:00018b64       ??_C@_08NCDDFFJH@pcks8u16?$AA@ 10019b64     useasm:usetab.obj
 0001:00018b70       ??_C@_08JAJPKNOG@pcks8f16?$AA@ 10019b70     useasm:usetab.obj
 0001:00018b7c       ??_C@_08PHHHLMIM@pcks8f32?$AA@ 10019b7c     useasm:usetab.obj
 0001:00018b88       ??_C@_08CBABOJFG@pcku8s16?$AA@ 10019b88     useasm:usetab.obj
 0001:00018b94       ??_C@_08EGKLGIK@pcku8u16?$AA@ 10019b94     useasm:usetab.obj
 0001:00018ba0       ??_C@_08EGMGEOPL@pcku8f16?$AA@ 10019ba0     useasm:usetab.obj
 0001:00018bac       ??_C@_08CBCOFPJB@pcku8f32?$AA@ 10019bac     useasm:usetab.obj
 0001:00018bb8       ??_C@_09OLKLFBKF@pcks16s16?$AA@ 10019bb8     useasm:usetab.obj
 0001:00018bc4       ??_C@_09MOMAAOHJ@pcks16u16?$AA@ 10019bc4     useasm:usetab.obj
 0001:00018bd0       ??_C@_09IMGMPGAI@pcks16f16?$AA@ 10019bd0     useasm:usetab.obj
 0001:00018bdc       ??_C@_09OLIEOHGC@pcks16f32?$AA@ 10019bdc     useasm:usetab.obj
 0001:00018be8       ??_C@_09IIHLGEJP@pcku16s16?$AA@ 10019be8     useasm:usetab.obj
 0001:00018bf4       ??_C@_09KNBADLED@pcku16u16?$AA@ 10019bf4     useasm:usetab.obj
 0001:00018c00       ??_C@_09OPLMMDDC@pcku16f16?$AA@ 10019c00     useasm:usetab.obj
 0001:00018c0c       ??_C@_09IIFENCFI@pcku16f32?$AA@ 10019c0c     useasm:usetab.obj
 0001:00018c18       ??_C@_09NOENOCMM@pckf16s16?$AA@ 10019c18     useasm:usetab.obj
 0001:00018c24       ??_C@_09PLCGLNBA@pckf16u16?$AA@ 10019c24     useasm:usetab.obj
 0001:00018c30       ??_C@_09LJIKEFGB@pckf16f16?$AA@ 10019c30     useasm:usetab.obj
 0001:00018c3c       ??_C@_09NOGCFEAL@pckf16f32?$AA@ 10019c3c     useasm:usetab.obj
 0001:00018c48       ??_C@_03HMHMOHCI@efo?$AA@  10019c48     useasm:usetab.obj
 0001:00018c4c       ??_C@_07BJAGEKCG@fmaxmin?$AA@ 10019c4c     useasm:usetab.obj
 0001:00018c54       ??_C@_07IHOEOAG@fminmax?$AA@ 10019c54     useasm:usetab.obj
 0001:00018c5c       ??_C@_06ICDMGFKB@fmad16?$AA@ 10019c5c     useasm:usetab.obj
 0001:00018c64       ??_C@_04DDKBPOON@fdsy?$AA@ 10019c64     useasm:usetab.obj
 0001:00018c6c       ??_C@_04CKLKMPKM@fdsx?$AA@ 10019c6c     useasm:usetab.obj
 0001:00018c74       ??_C@_04EIBAPHDI@fmax?$AA@ 10019c74     useasm:usetab.obj
 0001:00018c7c       ??_C@_04FKJLBDFH@fmin?$AA@ 10019c7c     useasm:usetab.obj
 0001:00018c84       ??_C@_03KABHJCDG@fdp?$AA@  10019c84     useasm:usetab.obj
 0001:00018c88       ??_C@_04EBKFHEMK@fcos?$AA@ 10019c88     useasm:usetab.obj
 0001:00018c90       ??_C@_04OKFNDDPL@fsin?$AA@ 10019c90     useasm:usetab.obj
 0001:00018c98       ??_C@_05OBEHOPDB@fsqrt?$AA@ 10019c98     useasm:usetab.obj
 0001:00018ca0       ??_C@_04FGIKMNCA@fexp?$AA@ 10019ca0     useasm:usetab.obj
 0001:00018ca8       ??_C@_04DHGILDMJ@flog?$AA@ 10019ca8     useasm:usetab.obj
 0001:00018cb0       ??_C@_04IOAKHMKG@frsq?$AA@ 10019cb0     useasm:usetab.obj
 0001:00018cb8       ??_C@_04ILDHOOJH@frcp?$AA@ 10019cb8     useasm:usetab.obj
 0001:00018cc0       ??_C@_04CIEHKGIK@ffrc?$AA@ 10019cc0     useasm:usetab.obj
 0001:00018cc8       ??_C@_04MMLCCJDO@fmsa?$AA@ 10019cc8     useasm:usetab.obj
 0001:00018cd0       ??_C@_04DDLIGMHP@fadm?$AA@ 10019cd0     useasm:usetab.obj
 0001:00018cd8       ??_C@_04KOGHKKGF@fmad?$AA@ 10019cd8     useasm:usetab.obj
 0001:00018ce0       ??_C@_0BA@LLCLJIP@float?5immediate?$AA@ 10019ce0     useasm:usetab.obj
 0001:00018cf0       ??_C@_0BA@GKADHLJN@named?5temporary?$AA@ 10019cf0     useasm:usetab.obj
 0001:00018d00       ??_C@_0BC@EOODDAGN@filter?5coefficent?$AA@ 10019d00     useasm:usetab.obj
 0001:00018d14       ??_C@_0BE@FBIDIDIB@8?9bit?5source?5select?$AA@ 10019d14     useasm:usetab.obj
 0001:00018d28       ??_C@_07FAJBBDOC@swizzle?$AA@ 10019d28     useasm:usetab.obj
 0001:00018d30       ??_C@_0N@KBLPGIGB@address?5mode?$AA@ 10019d30     useasm:usetab.obj
 0001:00018d40       ??_C@_09DBIHEPNC@clipplane?$AA@ 10019d40     useasm:usetab.obj
 0001:00018d4c       ??_C@_09OKBKKDGM@predicate?$AA@ 10019d4c     useasm:usetab.obj
 0001:00018d58       ??_C@_05IDCCNNGI@label?$AA@ 10019d58     useasm:usetab.obj
 0001:00018d60       ??_C@_03HDFKMEON@drc?$AA@  10019d60     useasm:usetab.obj
 0001:00018d64       ??_C@_04OHHBHOGB@link?$AA@ 10019d64     useasm:usetab.obj
 0001:00018d6c       ??_C@_09MBGEJPJA@immediate?$AA@ 10019d6c     useasm:usetab.obj
 0001:00018d78       ??_C@_08LEPPLCNF@internal?$AA@ 10019d78     useasm:usetab.obj
 0001:00018d84       ??_C@_08KFDOCAEB@constant?$AA@ 10019d84     useasm:usetab.obj
 0001:00018d90       ??_C@_06FJKEMHGD@global?$AA@ 10019d90     useasm:usetab.obj
 0001:00018d98       ??_C@_05FKHKFDID@index?$AA@ 10019d98     useasm:usetab.obj
 0001:00018da0       ??_C@_0BE@EDPEAKOB@secondary?5attribute?$AA@ 10019da0     useasm:usetab.obj
 0001:00018db4       ??_C@_0BC@FEBGALFK@primary?5attribute?$AA@ 10019db4     useasm:usetab.obj
 0001:00018dc8       ??_C@_06DKIGHACF@output?$AA@ 10019dc8     useasm:usetab.obj
 0001:00018dd0       ??_C@_09CAHPDAG@temporary?$AA@ 10019dd0     useasm:usetab.obj
 0001:00018de0       pszTypeToString            10019de0     useasm:usetab.obj
 0001:00018e38       g_pfHardwareConstants      10019e38     useasm:usetab.obj
 0001:00018f18       g_asUseInstDesc            10019f18     useasm:usetab.obj
 0001:0001a070       ??_C@_06FEAOAINM@SGX530?$AA@ 1001b070     useasm:utils.obj
 0001:0001a118       g_auNonVecSpecialRegistersInvalidForNonBitwise 1001b118     useasm:specialregs.obj
 0001:0001a124       g_uNonVecSpecialRegistersInvalidForNonBitwiseCount 1001b124     useasm:specialregs.obj
 0001:0001a148       EncodeInst                 1001b148 f   asm.obj
 0001:000205f4       EncodeNop                  100215f4 f   asm.obj
 0001:00020624       EncodeJump                 10021624 f   asm.obj
 0001:00020820       EncodeLabel                10021820 f   asm.obj
 0001:000208b4       GetBit                     100218b4 f i asm.obj
 0001:00020930       ResizeArray                10021930 f   data.obj
 0001:00020a00       IncreaseArraySizeInPlace   10021a00 f   data.obj
 0001:00020aa8       ClearArray                 10021aa8 f   data.obj
 0001:00020cec       FreeArray                  10021cec f   data.obj
 0001:00020d60       InitArray                  10021d60 f   data.obj
 0001:00020ddc       NewArray                   10021ddc f   data.obj
 0001:00020e40       ArrayGet                   10021e40 f   data.obj
 0001:0002158c       ArraySet                   1002258c f   data.obj
 0001:000218fc       ClearVector                100228fc f   data.obj
 0001:00021a00       FreeVector                 10022a00 f   data.obj
 0001:00021a70       InitVector                 10022a70 f   data.obj
 0001:00021b5c       NewVector                  10022b5c f   data.obj
 0001:00021bbc       VectorGet                  10022bbc f   data.obj
 0001:00021e04       VectorLength               10022e04 f   data.obj
 0001:00021f4c       ArrayElemOp                10022f4c f   data.obj
 0001:00022128       VectorOp                   10023128 f   data.obj
 0001:00022ac4       VectorCopy                 10023ac4 f   data.obj
 0001:00022d3c       VectorSet                  10023d3c f   data.obj
 0001:00023028       VectorGetRange             10024028 f   data.obj
 0001:0002359c       VectorSetRange             1002459c f   data.obj
 0001:00023a04       VectorOrRange              10024a04 f   data.obj
 0001:00023c20       VectorAndRange             10024c20 f   data.obj
 0001:00023e74       NewGraph                   10024e74 f   data.obj
 0001:00023f28       ClearGraph                 10024f28 f   data.obj
 0001:00023f98       FreeGraph                  10024f98 f   data.obj
 0001:00024008       GraphGet                   10025008 f   data.obj
 0001:00024128       GraphSet                   10025128 f   data.obj
 0001:00024304       GraphColRef                10025304 f   data.obj
 0001:00024368       GraphDupCol                10025368 f   data.obj
 0001:00024518       GraphClearRow              10025518 f   data.obj
 0001:00024678       GraphClearCol              10025678 f   data.obj
 0001:000246fc       GraphOrCol                 100256fc f   data.obj
 0001:000248c0       GraphCopy                  100258c0 f   data.obj
 0001:00024c1c       VectorMatch                10025c1c f   data.obj
 0001:00024d80       GraphMatch                 10025d80 f   data.obj
 0001:00025074       NewMatrix                  10026074 f   data.obj
 0001:00025128       ClearMatrixCol             10026128 f   data.obj
 0001:000251b8       ClearMatrix                100261b8 f   data.obj
 0001:00025228       FreeMatrix                 10026228 f   data.obj
 0001:00025298       MatrixGet                  10026298 f   data.obj
 0001:00025374       MatrixSet                  10026374 f   data.obj
 0001:000254d8       InsertInListSorted         100264d8 f   data.obj
 0001:00025570       InsertSortList             10026570 f   data.obj
 0001:000255d4       InsertSort                 100265d4 f   data.obj
 0001:000257e4       InitialiseAdjacencyList    100267e4 f   data.obj
 0001:00025820       DeleteAdjacencyList        10026820 f   data.obj
 0001:00025880       DeleteAdjacencyListIndirect 10026880 f   data.obj
 0001:000258dc       ReplaceInAdjacencyList     100268dc f   data.obj
 0001:000259f4       RemoveFromAdjacencyList    100269f4 f   data.obj
 0001:00025c7c       AddToAdjacencyList         10026c7c f   data.obj
 0001:00025d98       CloneAdjacencyList         10026d98 f   data.obj
 0001:00025ef0       GetAdjacencyListLength     10026ef0 f   data.obj
 0001:00025f98       UscStackEmpty              10026f98 f   data.obj
 0001:00025fe4       UscStackMake               10026fe4 f   data.obj
 0001:00026090       UscStackDelete             10027090 f   data.obj
 0001:00026108       UscStackPush               10027108 f   data.obj
 0001:00026300       UscStackTop                10027300 f   data.obj
 0001:00026378       UscStackPop                10027378 f   data.obj
 0001:000264c4       UscTreeMake                100274c4 f   data.obj
 0001:0002657c       UscTreeDelete              1002757c f   data.obj
 0001:00026760       UscTreeDeleteAll           10027760 f   data.obj
 0001:000267b4       UscTreeGetPtr              100277b4 f   data.obj
 0001:00026928       UscTreeValid               10027928 f   data.obj
 0001:00026db4       UscTreeRemove              10027db4 f   data.obj
 0001:0002787c       UscTreeAdd                 1002887c f   data.obj
 0001:00027dcc       UscTreeIterInOrder         10028dcc f   data.obj
 0001:0002801c       UscTreeIterPreOrder        1002901c f   data.obj
 0001:00028050       IntermediateRegisterVectorMapCreate 10029050 f   data.obj
 0001:0002817c       IntermediateRegisterVectorMapDestroy 1002917c f   data.obj
 0001:00028198       IntermediateRegisterVectorMapSet 10029198 f   data.obj
 0001:000281e8       IntermediateRegisterVectorMapGet 100291e8 f   data.obj
 0001:00028268       IntermediateRegisterMapCreate 10029268 f   data.obj
 0001:000282e8       IntermediateRegisterMapDestroy 100292e8 f   data.obj
 0001:00028304       IntermediateRegisterMapSet 10029304 f   data.obj
 0001:0002833c       IntermediateRegisterMapGet 1002933c f   data.obj
 0001:000283a4       IntermediateRegisterMapRemove 100293a4 f   data.obj
 0001:000283e0       RegSubstAlloc              100293e0 f   data.obj
 0001:0002855c       RegSubstDelete             1002955c f   data.obj
 0001:00028610       BaseRegSubstAdd            10029610 f   data.obj
 0001:000286f4       RegSubstAdd                100296f4 f   data.obj
 0001:000287c0       RegSubstBaseFind           100297c0 f   data.obj
 0001:00028880       RegSubstFind               10029880 f   data.obj
 0001:00028934       SetBit                     10029934 f i data.obj
 0001:00028a0c       GetRange                   10029a0c f i data.obj
 0001:00028b30       AppendToList               10029b30 f i data.obj
 0001:00028bb0       InsertInList               10029bb0 f i data.obj
 0001:00028c3c       InitializeList             10029c3c f i data.obj
 0001:00028c68       RemoveListHead             10029c68 f i data.obj
 0001:00028d20       IsListEmpty                10029d20 f i data.obj
 0001:00028d68       BaseTreeGetPtr             10029d68 f i data.obj
 0001:00028db0       BaseTreeSet                10029db0 f i data.obj
 0001:00028dd4       ClearRegLiveSet            10029dd4 f   dce.obj
 0001:00028e54       InitRegLiveSet             10029e54 f   dce.obj
 0001:00028ef8       FreeRegLiveSet             10029ef8 f   dce.obj
 0001:00028f80       AllocRegLiveSet            10029f80 f   dce.obj
 0001:00028fd0       CopyRegLiveSet             10029fd0 f   dce.obj
 0001:0002909c       GetLiveChansInSOP3Argument 1002a09c f   dce.obj
 0001:00029478       GetLiveChansInIMA8Arg      1002a478 f   dce.obj
 0001:00029778       GetLiveChansInC10Arg       1002a778 f   dce.obj
 0001:0002a178       GetLiveChansInTESTArgument 1002b178 f   dce.obj
 0001:0002a6f4       GetLiveChansInCOMBC10Argument 1002b6f4 f   dce.obj
 0001:0002a844       GetLiveChansInMOVArgument  1002b844 f   dce.obj
 0001:0002a898       GetLiveChansInMOVC_I32Argument 1002b898 f   dce.obj
 0001:0002a924       GetLiveChansInFPDOTArgument 1002b924 f   dce.obj
 0001:0002a9cc       GetLiveChansInFARITH16Argument 1002b9cc f   dce.obj
 0001:0002aadc       GetLiveChansInEFOArgument  1002badc f   dce.obj
 0001:0002abcc       GetLiveChansInIMAEArgument 1002bbcc f   dce.obj
 0001:0002acdc       GetLiveChansInIMA16Argument 1002bcdc f   dce.obj
 0001:0002ad58       GetLiveChansInSMPUSPNDRArgument 1002bd58 f   dce.obj
 0001:0002ade4       GetLiveChansInSMPUNPACKArgument 1002bde4 f   dce.obj
 0001:0002ae6c       GetLiveChansInSHLArgument  1002be6c f   dce.obj
 0001:0002af48       GetLiveChansInSHRArgument  1002bf48 f   dce.obj
 0001:0002b030       GetLiveChansInStoreArgument 1002c030 f   dce.obj
 0001:0002b148       GetLiveChansInSPILLWRITEArgument 1002c148 f   dce.obj
 0001:0002b1d0       GetLiveChansInMOVC_U8_C10_Argument 1002c1d0 f   dce.obj
 0001:0002b258       GetLiveChansInSMPArgument  1002c258 f   dce.obj
 0001:0002b458       GetLiveChansInPCKArgument  1002c458 f   dce.obj
 0001:0002b794       GetLiveChansInFloatArgument 1002c794 f   dce.obj
 0001:0002b8b4       GetLiveChansInFPTESTArgument 1002c8b4 f   dce.obj
 0001:0002b93c       GetLiveChansInSaveRestoreIRegArgument 1002c93c f   dce.obj
 0001:0002b9c4       GetLiveChansInArgumentDefault 1002c9c4 f   dce.obj
 0001:0002ba08       GetLiveChansInArgument     1002ca08 f   dce.obj
 0001:0002bab4       GetLiveChansInDest         1002cab4 f   dce.obj
 0001:0002bba4       GetLiveChansInArg          1002cba4 f   dce.obj
 0001:0002bcd0       GetRegisterLiveMask        1002ccd0 f   dce.obj
 0001:0002c140       SetRegisterLiveMask        1002d140 f   dce.obj
 0001:0002c394       IncreaseRegisterLiveMask   1002d394 f   dce.obj
 0001:0002c6c0       GetTestChans               1002d6c0 f   dce.obj
 0001:0002c7b4       IncreaseIndexLiveMask      1002d7b4 f   dce.obj
 0001:0002c814       GetPreservedChansInPartialDest 1002d814 f   dce.obj
 0001:0002c914       DeadCodeEliminationBP      1002d914 f   dce.obj
 0001:0002e748       DoSALiveness               1002f748 f   dce.obj
 0001:0002f5f8       DeadCodeElimination        100305f8 f   dce.obj
 0001:0002fca4       InitRegUseDef              10030ca4 f   dce.obj
 0001:0002fd48       ClearRegUseDef             10030d48 f   dce.obj
 0001:0002fdd4       InitUseDef                 10030dd4 f   dce.obj
 0001:0002fdf8       ClearUseDef                10030df8 f   dce.obj
 0001:0002fe24       GetRegUseDef               10030e24 f   dce.obj
 0001:000301e8       IncreaseRegUseDef          100311e8 f   dce.obj
 0001:0003054c       ReduceRegUseDef            1003154c f   dce.obj
 0001:000308d0       InstUseSubset              100318d0 f   dce.obj
 0001:000310e8       InstUse                    100320e8 f   dce.obj
 0001:0003110c       InstDef                    1003210c f   dce.obj
 0001:00031488       ComputeInstUseDef          10032488 f   dce.obj
 0001:0003153c       GetAvailableInternalRegsBetweenInterval 1003253c f   dce.obj
 0001:0003163c       SelectInternalReg          1003263c f   dce.obj
 0001:00031720       InstUseDefined             10032720 f   dce.obj
 0001:000318d0       InstDefReferenced          100328d0 f   dce.obj
 0001:000319bc       DisjointUseDef             100329bc f   dce.obj
 0001:00031b9c       RegUseInstSeq              10032b9c f   dce.obj
 0001:00031fac       RegUseBlock                10032fac f   dce.obj
 0001:00032268       TestInstructionGroup       10033268 f i dce.obj
 0001:000322b0       GetDestMaskIdx             100332b0 f i dce.obj
 0001:000322f0       SetRange                   100332f0 f i dce.obj
 0001:000324a8       SetInstCallData            100334a8 f i dce.obj
 0001:00032544       SetBlockCallData           10033544 f i dce.obj
 0001:000325c0       NewDGraphState             100335c0 f   dgraph.obj
 0001:00032920       FreeDGraphState            10033920 f   dgraph.obj
 0001:00032bdc       AddNewInstToDGraph         10033bdc f   dgraph.obj
 0001:00032d18       GetNextAvailable           10033d18 f   dgraph.obj
 0001:00032d88       AddDependency              10033d88 f   dgraph.obj
 0001:000330b0       AddClosedDependency        100340b0 f   dgraph.obj
 0001:000331dc       RemoveDependency           100341dc f   dgraph.obj
 0001:000333c0       SplitInstructions          100343c0 f   dgraph.obj
 0001:000339d0       MergeInstructions          100349d0 f   dgraph.obj
 0001:00033e9c       RemoveInstruction          10034e9c f   dgraph.obj
 0001:0003411c       ComputeClosedDependencyGraph 1003511c f   dgraph.obj
 0001:000343ac       UpdateClosedDependencyGraph 100353ac f   dgraph.obj
 0001:000344d4       ComputeDependencyGraph     100354d4 f   dgraph.obj
 0001:000356e0       GenerateInstructionDAG     100366e0 f   dgraph.obj
 0001:00035a78       FreeInstructionDAG         10036a78 f   dgraph.obj
 0001:00035bc4       ClearDAGSearchCache        10036bc4 f   dgraph.obj
 0001:00035c54       SearchInstPatternInDAG     10036c54 f   dgraph.obj
 0001:000360f0       GetLivenessSpanForArgumentDAG 100370f0 f   dgraph.obj
 0001:00036244       GetLivenessSpanForDestDAG  10037244 f   dgraph.obj
 0001:0003634c       ApplyConstraintDestinationReplacementDAG 1003734c f   dgraph.obj
 0001:000366ec       ApplyConstraintArgumentReplacementDAG 100376ec f   dgraph.obj
 0001:00036ae8       RemoveFromList             10037ae8 f i dgraph.obj
 0001:00036b80       NextAdjacent               10037b80 f i dgraph.obj
 0001:00036c3c       MoveToNextChunk            10037c3c f i dgraph.obj
 0001:00036cbc       FirstAdjacent              10037cbc f i dgraph.obj
 0001:00036d78       IsLastAdjacent             10037d78 f i dgraph.obj
 0001:00036dc0       CalcDoms                   10037dc0 f   domcalc.obj
 0001:00037c20       Dominates                  10038c20 f   domcalc.obj
 0001:00037d0c       PostDominated              10038d0c f   domcalc.obj
 0001:00037df8       ComputeLoopNestingTree     10038df8 f   domcalc.obj
 0001:00038004       IsLoopHeader               10039004 f   domcalc.obj
 0001:000380b4       LoopDepth                  100390b4 f   domcalc.obj
 0001:0003aa5c       SetupEfoUsage              1003ba5c f   efo.obj
 0001:0003b43c       GenerateEfoInstructionsBP  1003c43c f   efo.obj
 0001:0004d7b8       GetIRegsWrittenMask        1004e7b8 f   regalloc.obj
 0001:0004d8e0       GetIRegsReadMask           1004e8e0 f   regalloc.obj
 0001:0004da08       CmpNodeActivity            1004ea08 f   regalloc.obj
 0001:0004dc1c       NodeActivity               1004ec1c f   regalloc.obj
 0001:0004dc88       InitRegInterval            1004ec88 f   regalloc.obj
 0001:0004dd04       DeleteRegInterval          1004ed04 f   regalloc.obj
 0001:0004dd30       FreeRegIntervalList        1004ed30 f   regalloc.obj
 0001:0004ddf8       MergeIntervals             1004edf8 f   regalloc.obj
 0001:0004dfc4       EarlierThan                1004efc4 f   regalloc.obj
 0001:0004e004       IntervalLive               1004f004 f   regalloc.obj
 0001:0004e0e8       IntervalCmp                1004f0e8 f   regalloc.obj
 0001:0004e15c       IntervalLength             1004f15c f   regalloc.obj
 0001:0004e188       ProcListFindPos            1004f188 f   regalloc.obj
 0001:0004e3a0       IntervalOverlap            1004f3a0 f   regalloc.obj
 0001:0004e514       RegIntvlFindWith           1004f514 f   regalloc.obj
 0001:0004e8a8       ProcListFindStart          1004f8a8 f   regalloc.obj
 0001:0004e910       ProcListCons               1004f910 f   regalloc.obj
 0001:0004e970       RegIntvlDrop               1004f970 f   regalloc.obj
 0001:0004ea24       RegIntvlCons               1004fa24 f   regalloc.obj
 0001:0004eadc       ProcListAdd                1004fadc f   regalloc.obj
 0001:0004ebd0       ProcListRemove             1004fbd0 f   regalloc.obj
 0001:0004eca4       ReplaceRegisterLiveOutSetsBP 1004fca4 f   regalloc.obj
 0001:0004ed70       AssignRegisters            1004fd70 f   regalloc.obj
 0001:00061388       TestInstructionUsage       10062388 f i regalloc.obj
 0001:000613e8       GetVRegister               100623e8 f   ssa.obj
 0001:000614c8       AddUnconditionalPredecessor 100624c8 f   ssa.obj
 0001:00061530       ExpandCallInstructions     10062530 f   ssa.obj
 0001:00061c84       ReleaseVRegisterInfo       10062c84 f   ssa.obj
 0001:00061dd0       ValueNumbering             10062dd0 f   ssa.obj
 0001:00065a78       UseDefReset                10066a78 f i ssa.obj
 0001:00065ad0       ClearListEntry             10066ad0 f i ssa.obj
 0001:00065afc       TypeUsesFormatControl      10066afc f   groupinst.obj
 0001:00065b68       MoeArgToInstArg            10066b68 f   groupinst.obj
 0001:00065fcc       IsValidSwapInst            10066fcc f   groupinst.obj
 0001:00066128       GroupInstructionsProgram   10067128 f   groupinst.obj
 0001:000718d0       GetInputToU8C10IntermediateSwizzle 100728d0 f   icvt_c10.obj
 0001:000718fc       ConvertInputWriteMaskToIntermediate 100728fc f   icvt_c10.obj
 0001:00071940       ConvertInputChannelToIntermediate 10072940 f   icvt_c10.obj
 0001:00071984       CanOverrideSwiz            10072984 f   icvt_c10.obj
 0001:000719f0       GetSourceC10               100729f0 f   icvt_c10.obj
 0001:00074de4       CheckDuplicateChannel      10075de4 f   icvt_c10.obj
 0001:00074eb4       GetCMPTestType             10075eb4 f   icvt_c10.obj
 0001:00074fc8       CreateComparisonC10        10075fc8 f   icvt_c10.obj
 0001:00075870       GetGradientsC10            10076870 f   icvt_c10.obj
 0001:00075b0c       GetSampleIdxC10            10076b0c f   icvt_c10.obj
 0001:00075c4c       GetLODAdjustmentC10        10076c4c f   icvt_c10.obj
 0001:00076028       GetSampleCoordinateArrayIndexC10 10077028 f   icvt_c10.obj
 0001:000761d8       GetProjectionC10           100771d8 f   icvt_c10.obj
 0001:000764fc       GetSampleCoordinatesC10    100774fc f   icvt_c10.obj
 0001:00076a80       ConvertInstToIntermediateC10 10077a80 f   icvt_c10.obj
 0001:0007fa6c       MakePredicateArgument      10080a6c f i icvt_c10.obj
 0001:0007faa0       GetSourceTypeless          10080aa0 f   icvt_i32.obj
 0001:0007fae4       GetDestinationTypeless     10080ae4 f   icvt_i32.obj
 0001:0007fb18       GenerateIntegerArithmetic  10080b18 f   icvt_i32.obj
 0001:0008198c       ExpandFTRCInstruction      1008298c f   icvt_i32.obj
 0001:00081df4       ExpandCVTINT2ADDRInstruction 10082df4 f   icvt_i32.obj
 0001:00081e94       ExpandCVTFLT2INTInstruction 10082e94 f   icvt_i32.obj
 0001:00082860       CreateComparisonInt16      10083860 f   icvt_i32.obj
 0001:00082a58       CreateComparisonInt32      10083a58 f   icvt_i32.obj
 0001:00083264       IntegerAbsolute            10084264 f   icvt_i32.obj
 0001:00083384       ZeroExtendInteger          10084384 f   icvt_i32.obj
 0001:000835a8       SignExtendInteger          100845a8 f   icvt_i32.obj
 0001:000838c4       ConvertInstToIntermediateInt32 100848c4 f   icvt_i32.obj
 0001:000879dc       IntegerNegate              100889dc f   icvt_i32.obj
 0001:00087bbc       ConvertTempRegisterNumberF32 10088bbc f   icvt_f32.obj
 0001:00087c94       GetVSOutputSource          10088c94 f   icvt_f32.obj
 0001:000882e4       GetDestinationF32          100892e4 f   icvt_f32.obj
 0001:00088484       GenerateDestModF32         10089484 f   icvt_f32.obj
 0001:00088808       GetRelativeIndex           10089808 f   icvt_f32.obj
 0001:0008896c       LoadIteratedValue          1008996c f   icvt_f32.obj
 0001:00088e1c       ApplySourceModF32          10089e1c f   icvt_f32.obj
 0001:000892dc       GetSourceF32               1008a2dc f   icvt_f32.obj
 0001:00089f6c       DestChanOverlapsSrc        1008af6c f   icvt_f32.obj
 0001:0008a244       ConvertBitwiseInstructionF32 1008b244 f   icvt_f32.obj
 0001:0008ab18       ConvertVertexInputInstructionTypeless 1008bb18 f   icvt_f32.obj
 0001:0008acbc       CreateComparisonFloat      1008bcbc f   icvt_f32.obj
 0001:0008b344       ConvertSetpInstructionNonC10 1008c344 f   icvt_f32.obj
 0001:0008b908       ConvertComparisonInstructionF32 1008c908 f   icvt_f32.obj
 0001:0008c630       UnpackTextureChannelToF32  1008d630 f   icvt_f32.obj
 0001:0008cee0       GetGradientsF32            1008dee0 f   icvt_f32.obj
 0001:0008d09c       GetSampleIdxF32            1008e09c f   icvt_f32.obj
 0001:0008d184       GetLODAdjustmentF32        1008e184 f   icvt_f32.obj
 0001:0008d318       ConvertTextureArrayIndexToU16 1008e318 f   icvt_f32.obj
 0001:0008d4b8       GetSampleCoordinateArrayIndexF32 1008e4b8 f   icvt_f32.obj
 0001:0008d52c       GetProjectionF32           1008e52c f   icvt_f32.obj
 0001:0008d610       GetSampleCoordinatesF32    1008e610 f   icvt_f32.obj
 0001:0008d818       ConvertSamplerInstructionF32 1008e818 f   icvt_f32.obj
 0001:0008df90       ConvertTexkillInstructionFloat 1008ef90 f   icvt_f32.obj
 0001:0008e67c       ConvertIntegerDot34        1008f67c f   icvt_f32.obj
 0001:0008ed10       ConvertAddressValue        1008fd10 f   icvt_f32.obj
 0001:0008ee1c       ConvertMovaInstructionFloat 1008fe1c f   icvt_f32.obj
 0001:0008f02c       ConvertInstToIntermediateF32 1009002c f   icvt_f32.obj
 0001:000924a4       CheckForStaticConst        100934a4 f   icvt_core.obj
 0001:000925a8       FindRange                  100935a8 f   icvt_core.obj
 0001:00092728       LoadConstantNoHWReg        10093728 f   icvt_core.obj
 0001:00093360       LoadConstant               10094360 f   icvt_core.obj
 0001:000935f4       UnpackU24Channel           100945f4 f   icvt_core.obj
 0001:00093954       IsModifiableRegisterArray  10094954 f   icvt_core.obj
 0001:00093a84       LoadStoreIndexableTemp     10094a84 f   icvt_core.obj
 0001:000942ac       StoreIndexableTemp         100952ac f   icvt_core.obj
 0001:00094338       GetTextureCoordinateUsedChanCount 10095338 f   icvt_core.obj
 0001:00094404       GetUnpackedChannelFormat   10095404 f   icvt_core.obj
 0001:000945c4       GetTexformSwizzle          100955c4 f   icvt_core.obj
 0001:00094768       GetGradientDetails         10095768 f   icvt_core.obj
 0001:0009484c       EmitGradCalc               1009584c f   icvt_core.obj
 0001:00094ebc       LoadMaxTexarrayIndex       10095ebc f   icvt_core.obj
 0001:00095000       SetSampleGradientsDetails  10096000 f   icvt_core.obj
 0001:00095180       SetupSmpStateArgument      10096180 f   icvt_core.obj
 0001:000957ec       GetTextureSampleChannelLocation 100967ec f   icvt_core.obj
 0001:000959c0       FreeSampleResultLayout     100969c0 f   icvt_core.obj
 0001:00095a00       ConvertSamplerInstructionCore 10096a00 f   icvt_core.obj
 0001:00099000       ConvertSamplerInstructionCoreUSP 1009a000 f   icvt_core.obj
 0001:00099b94       ConvertLoadBufferInstructionCore 1009ab94 f   icvt_core.obj
 0001:0009a1ac       CheckFaceType              1009b1ac f   icvt_core.obj
 0001:0009a2bc       LabelToInst                1009b2bc f   icvt_core.obj
 0001:0009a338       IsInputInstFlowControl     1009b338 f   icvt_core.obj
 0001:0009a3c4       ConvertVertexInputInstructionCore 1009b3c4 f   icvt_core.obj
 0001:0009af08       GetInputPredicateInst      1009bf08 f   icvt_core.obj
 0001:0009af50       GetRegisterFormat          1009bf50 f   icvt_core.obj
 0001:0009af84       ConvertPixelShaderResultArg 1009bf84 f   icvt_core.obj
 0001:0009b310       ModifyFixedRegPhysicalReg  1009c310 f   icvt_core.obj
 0001:0009b4d0       AddFixedReg                1009c4d0 f   icvt_core.obj
 0001:0009b760       ConvertToIntermediate      1009c760 f   icvt_core.obj
 0001:000ada78       GetSingleSourceF16         100aea78 f   icvt_f16.obj
 0001:000aec90       GetSingleSourceConvertToF32 100afc90 f   icvt_f16.obj
 0001:000af134       GetGradientsF16            100b0134 f   icvt_f16.obj
 0001:000af334       GetSampleIdxF16            100b0334 f   icvt_f16.obj
 0001:000af448       GetLODAdjustmentF16        100b0448 f   icvt_f16.obj
 0001:000af5f0       GetSampleCoordinateArrayIndexF16 100b05f0 f   icvt_f16.obj
 0001:000af66c       GetProjectionF16           100b066c f   icvt_f16.obj
 0001:000af780       GetSampleCoordinatesF16    100b0780 f   icvt_f16.obj
 0001:000b0c74       ApplyFloatSourceModifier   100b1c74 f   icvt_f16.obj
 0001:000b0e34       ConvertInstToIntermediateF16 100b1e34 f   icvt_f16.obj
 0001:000b5544       AssignHardwareIndexRegisters 100b6544 f   indexreg.obj
 0001:000bead4       CompareInstParametersTypeLOADMEMCONST 100bfad4 f   inst.obj
 0001:000bf9e4       CanHaveSourceModifier      100c09e4 f   inst.obj
 0001:000bfab4       GetUSPPerSampleTemporaryCount 100c0ab4 f   inst.obj
 0001:000bfb50       GetUSPPerSampleUnpackTemporaryCount 100c0b50 f   inst.obj
 0001:000bfb68       GetSourceRegisterGroups    100c0b68 f   inst.obj
 0001:000bfffc       ProcessSourceRegisterGroups 100c0ffc f   inst.obj
 0001:000c0120       GetDestRegisterGroups      100c1120 f   inst.obj
 0001:000c03e4       ProcessDestRegisterGroups  100c13e4 f   inst.obj
 0001:000c0508       IsArgInRegisterGroup       100c1508 f   inst.obj
 0001:000c0644       GetRegisterGroupByArg      100c1644 f   inst.obj
 0001:000c0730       SupportsEndFlag            100c1730 f   inst.obj
 0001:000c07d4       HasC10FmtControl           100c17d4 f   inst.obj
 0001:000c0894       RequiresGradients          100c1894 f   inst.obj
 0001:000c0920       UseRepeatMaskOnly          100c1920 f   inst.obj
 0001:000c098c       CanUseRepeatMask           100c198c f   inst.obj
 0001:000c09d8       GetMaxRepeatCountInst      100c19d8 f   inst.obj
 0001:000c0a2c       CanRepeatInst              100c1a2c f   inst.obj
 0001:000c0bd0       HasF16F32SelectInst        100c1bd0 f   inst.obj
 0001:000c0c84       WroteAllLiveChannels       100c1c84 f   inst.obj
 0001:000c0d1c       CanUseDest                 100c1d1c f   inst.obj
 0001:000c0f28       IsSrc0StandardBanks        100c1f28 f   inst.obj
 0001:000c1058       IsSrc12StandardBanks       100c2058 f   inst.obj
 0001:000c11cc       CanUseSrc                  100c21cc f   inst.obj
 0001:000c1324       ApplyIMAEComponentSelect   100c2324 f   inst.obj
 0001:000c1534       BypassCacheForModifiableShaderMemory 100c2534 f   inst.obj
 0001:000c1580       IsValidImmediateForLocalAddressing 100c2580 f   inst.obj
 0001:000c17ac       IsValidImmediateForAbsoluteAddressing 100c27ac f   inst.obj
 0001:000c190c       IsImmediateSourceValid     100c290c f   inst.obj
 0001:000c1c80       GetChannelsWrittenInRegister 100c2c80 f   inst.obj
 0001:000c1d9c       GetChannelsWrittenInArg    100c2d9c f   inst.obj
 0001:000c1dec       FreeInst                   100c2dec f   inst.obj
 0001:000c1fac       InitInstArg                100c2fac f   inst.obj
 0001:000c2068       MakeArgumentSet            100c3068 f   inst.obj
 0001:000c2100       SetDestCount               100c3100 f   inst.obj
 0001:000c2594       SetArgumentCount           100c3594 f   inst.obj
 0001:000c272c       SetOpcodeAndDestCount      100c372c f   inst.obj
 0001:000c2888       SetOpcode                  100c3888 f   inst.obj
 0001:000c28f8       AllocateInst               100c38f8 f   inst.obj
 0001:000c2bf8       CopyInst                   100c3bf8 f   inst.obj
 0001:000c34a4       MakeSOPWMMove              100c44a4 f   inst.obj
 0001:000c357c       FormMove                   100c457c f   inst.obj
 0001:000c3790       IsMove                     100c4790 f   inst.obj
 0001:000c3de0       ConvertRegister            100c4de0 f   inst.obj
 0001:000c3f50       SameRegister               100c4f50 f   inst.obj
 0001:000c4060       EqualArgs                  100c5060 f   inst.obj
 0001:000c4170       IsDeschedBeforeInst        100c5170 f   inst.obj
 0001:000c41d0       IsDeschedAfterInst         100c51d0 f   inst.obj
 0001:000c42d4       IsDeschedulingPoint        100c52d4 f   inst.obj
 0001:000c4340       IsNonSSARegister           100c5340 f   inst.obj
 0001:000c43a8       IsNonSSAArgument           100c53a8 f   inst.obj
 0001:000c4440       IsUniformSource            100c5440 f   inst.obj
 0001:000c4724       CanUseSource0              100c5724 f   inst.obj
 0001:000c47bc       CompareInstructionArgumentParameters 100c57bc f   inst.obj
 0001:000c4d30       CompareArgs                100c5d30 f   inst.obj
 0001:000c4f20       CompareInstructionParameters 100c5f20 f   inst.obj
 0001:000c4fe8       EqualInstructionParameters 100c5fe8 f   inst.obj
 0001:000c503c       EqualDestinationParameters 100c603c f   inst.obj
 0001:000c51ec       EqualInstructionModes      100c61ec f   inst.obj
 0001:000c524c       IsInstAffectedByBRN21752   100c624c f   inst.obj
 0001:000c52c4       IsMaskableRegisterType     100c62c4 f   inst.obj
 0001:000c5304       GetMinimalDestinationMask  100c6304 f   inst.obj
 0001:000c5620       ModifyOpcode               100c6620 f   inst.obj
 0001:000c5740       MoveFloatSrc               100c6740 f   inst.obj
 0001:000c57ec       CopySrcAndModifiers        100c67ec f   inst.obj
 0001:000c5d6c       MoveSrcAndModifiers        100c6d6c f   inst.obj
 0001:000c5e50       ExchangeInstSources        100c6e50 f   inst.obj
 0001:000c5f64       SwapInstSources            100c6f64 f   inst.obj
 0001:000c6374       InstSource01Commute        100c7374 f   inst.obj
 0001:000c6448       CommuteSrc01               100c7448 f   inst.obj
 0001:000c6550       EqualFloatSrcsIgnoreNegate 100c7550 f   inst.obj
 0001:000c66b0       EqualFloatModifier         100c76b0 f   inst.obj
 0001:000c6788       EqualFloatSrcs             100c7788 f   inst.obj
 0001:000c68e0       GetFloatMod                100c78e0 f   inst.obj
 0001:000c6a80       IsNegated                  100c7a80 f   inst.obj
 0001:000c6ae0       IsAbsolute                 100c7ae0 f   inst.obj
 0001:000c6b44       HasNegateOrAbsoluteModifier 100c7b44 f   inst.obj
 0001:000c6c28       CombineInstSourceModifiers 100c7c28 f   inst.obj
 0001:000c6d0c       InvertNegateModifier       100c7d0c f   inst.obj
 0001:000c6d70       MovePackSource             100c7d70 f   inst.obj
 0001:000c6e60       SwapPCKSources             100c7e60 f   inst.obj
 0001:000c6f78       SetPCKComponent            100c7f78 f   inst.obj
 0001:000c7050       GetPCKComponent            100c8050 f   inst.obj
 0001:000c712c       EqualPCKArgs               100c812c f   inst.obj
 0001:000c7228       SetComponentSelect         100c8228 f   inst.obj
 0001:000c7500       GetComponentSelect         100c8500 f   inst.obj
 0001:000c7744       InitFloatSrcMod            100c8744 f   inst.obj
 0001:000c7780       InitPerArgumentParameters  100c8780 f   inst.obj
 0001:000c79f0       InstUsesF16FmtControl      100c89f0 f   inst.obj
 0001:000c7a90       GetMOEUnitsLog2            100c8a90 f   inst.obj
 0001:000c7b84       GetIndexUnitsLog2          100c8b84 f   inst.obj
 0001:000c7bc0       SetPredicate               100c8bc0 f   inst.obj
 0001:000c7f88       ClearPredicate             100c8f88 f   inst.obj
 0001:000c7fac       NoPredicate                100c8fac f   inst.obj
 0001:000c804c       CopyPredicate              100c904c f   inst.obj
 0001:000c808c       GetPredicate               100c908c f   inst.obj
 0001:000c8178       GetPredicateNegate         100c9178 f   inst.obj
 0001:000c8244       ComparePredicates          100c9244 f   inst.obj
 0001:000c82bc       EqualPredicates            100c92bc f   inst.obj
 0001:000c8310       MovePartiallyWrittenDest   100c9310 f   inst.obj
 0001:000c8364       CopyPartiallyWrittenDest   100c9364 f   inst.obj
 0001:000c83a4       SetPartiallyWrittenDest    100c93a4 f   inst.obj
 0001:000c8644       CopySrc                    100c9644 f   inst.obj
 0001:000c879c       MovePartialDestToSrc       100c979c f   inst.obj
 0001:000c8968       MoveSrc                    100c9968 f   inst.obj
 0001:000c8b18       MoveDest                   100c9b18 f   inst.obj
 0001:000c8c8c       SetSrcUnused               100c9c8c f   inst.obj
 0001:000c8d84       SetArgNoIndex              100c9d84 f   inst.obj
 0001:000c9108       SetSrcIndex                100ca108 f   inst.obj
 0001:000c9154       SetDestIndex               100ca154 f   inst.obj
 0001:000c91a0       SetPartialDestIndex        100ca1a0 f   inst.obj
 0001:000c91ec       SetArgumentIndex           100ca1ec f   inst.obj
 0001:000c9258       MakeArg                    100ca258 f   inst.obj
 0001:000c92c8       SetSrc                     100ca2c8 f   inst.obj
 0001:000c93fc       SetSrcFromArg              100ca3fc f   inst.obj
 0001:000c94e8       SetPartialDest             100ca4e8 f   inst.obj
 0001:000c9550       SetDestUnused              100ca550 f   inst.obj
 0001:000c9694       SetDestFromArg             100ca694 f   inst.obj
 0001:000c97d4       SetDest                    100ca7d4 f   inst.obj
 0001:000c983c       SetUseFromArg              100ca83c f   inst.obj
 0001:000c999c       SetConditionalBlockPredicate 100ca99c f   inst.obj
 0001:000c9a50       ReferencedOutsideBlock     100caa50 f   inst.obj
 0001:000c9adc       CopyPartiallyOverwrittenData 100caadc f   inst.obj
 0001:000c9cb0       SetArraySrc                100cacb0 f   inst.obj
 0001:000c9db0       SetArrayArgument           100cadb0 f   inst.obj
 0001:000c9f20       SetArgument                100caf20 f   inst.obj
 0001:000c9f90       MoveArgument               100caf90 f   inst.obj
 0001:000c9ff0       RegTypeReferencedInInstSources 100caff0 f   inst.obj
 0001:000ca080       RegTypeReferencedInInstDestination 100cb080 f   inst.obj
 0001:000ca144       UseDefResetArgument        100cb144 f i inst.obj
 0001:000ca180       GetCommutableSOP3Sources   100cb180 f   intcvt.obj
 0001:000cabd0       CommuteSOP3Sources         100cbbd0 f   intcvt.obj
 0001:000caf04       IsSOPWMMultiply            100cbf04 f   intcvt.obj
 0001:000cb038       IsSOPWMMove                100cc038 f   intcvt.obj
 0001:000cb11c       IsSOP2DoubleMove           100cc11c f   intcvt.obj
 0001:000cb2c4       IntegerOptimize            100cc2c4 f   intcvt.obj
 0001:000da374       FormatConvert              100db374 f   intcvt.obj
 0001:000dba40       CheckSourceVector          100dca40 f i intcvt.obj
 0001:000dba98       AppendListToList           100dca98 f i intcvt.obj
 0001:000dbb44       AssignInternalRegisters    100dcb44 f   iregalloc.obj
 0001:000e8dd8       UseDefIsInstUseDef         100e9dd8 f i iregalloc.obj
 0001:000e8e48       ExpandUnsupportedInstructions 100e9e48 f   iselect.obj
 0001:000e8f3c       GenerateNonEfoInstructionsBP 100e9f3c f   iselect.obj
 0001:000ee2d0       OverwritesIndexDest        100ef2d0 f   iselect.obj
 0001:000ee33c       OverwritesIndex            100ef33c f   iselect.obj
 0001:000ee3dc       CombineRegistersBackwards  100ef3dc f   iselect.obj
 0001:000ef3d8       SimplifyArithmetic         100f03d8 f   iselect.obj
 0001:000f0780       DoReplaceAllUsesMasked     100f1780 f   iselect.obj
 0001:000f10b4       ReplaceAllUsesMasked       100f20b4 f   iselect.obj
 0001:000f11c4       DoGlobalMoveReplace        100f21c4 f   iselect.obj
 0001:000f1864       EliminateGlobalMove        100f2864 f   iselect.obj
 0001:000f2364       EliminateMovesBP           100f3364 f   iselect.obj
 0001:000f3de0       EliminateMovesAndFuncs     100f4de0 f   iselect.obj
 0001:000f3f88       MergeIdenticalInstructionsBP 100f4f88 f   iselect.obj
 0001:000f50c4       IsConstantArgument         100f60c4 f   iselect.obj
 0001:000f5244       GlobalSimpleReplaceArguments 100f6244 f   iselect.obj
 0001:000f52e0       CheckAndUpdateInstSARegisterCount 100f62e0 f   iselect.obj
 0001:000f542c       ExtractConstantCalculations 100f642c f   iselect.obj
 0001:000f7a74       IsSamePred                 100f8a74 f   iselect.obj
 0001:000f7b1c       IsMatchPred                100f8b1c f   iselect.obj
 0001:000f7bb8       FlattenProgramConditionals 100f8bb8 f   iselect.obj
 0001:000fb9e8       OptimiseUSPSamplesBP       100fc9e8 f   iselect.obj
 0001:000fda9c       ReduceSampleResultPrecision 100fea9c f   iselect.obj
 0001:000fed90       RemoveUnnecessarySaturationsBP 100ffd90 f   iselect.obj
 0001:000ffca8       ConvertPredicatedMovesToMovc 10100ca8 f   iselect.obj
 0001:001006b0       FixInvalidSourceBanks      101016b0 f   iselect.obj
 0001:00101ecc       InitSourceVector           10102ecc f i iselect.obj
 0001:00101f78       AddToSourceVector          10102f78 f i iselect.obj
 0001:00101f9c       DeinitSourceVector         10102f9c f i iselect.obj
 0001:00101fec       IsTwoElementList           10102fec f i iselect.obj
 0001:00102068       CheckSourceVectorRange     10103068 f i iselect.obj
 0001:001020e4       AppendInstruction          101030e4 f   layout.obj
 0001:0010212c       IsIllegalInstructionPair   1010312c f   layout.obj
 0001:00102240       NoSchedLabelCB             10103240 f   layout.obj
 0001:001022d8       CommonBranchCB             101032d8 f   layout.obj
 0001:0010258c       LayoutProgram              1010358c f   layout.obj
 0001:00103838       CanSetEndFlag              10104838 f   layout.obj
 0001:001038a4       PointActionsHwCB           101048a4 f   layout.obj
 0001:00103d24       ReleaseRegisterGroup       10104d24 f   reggroup.obj
 0001:00103eec       FindRegisterGroup          10104eec f   reggroup.obj
 0001:00103f90       AddRegisterGroup           10104f90 f   reggroup.obj
 0001:001041a4       SetGroupHardwareRegisterNumber 101051a4 f   reggroup.obj
 0001:00104304       GetNodeAlignment           10105304 f   reggroup.obj
 0001:0010434c       AreAlignmentsCompatible    1010534c f   reggroup.obj
 0001:001043a4       CanCoalesceNodeWithQwordAlignedNode 101053a4 f   reggroup.obj
 0001:00104400       GetPrevNodeCount           10105400 f   reggroup.obj
 0001:0010447c       GetNextNodeCount           1010547c f   reggroup.obj
 0001:00104500       ValidGroup                 10105500 f   reggroup.obj
 0001:00104990       GetPrecolouredRegisterType 10105990 f   reggroup.obj
 0001:00104b1c       IsPrecolouredToSecondaryAttribute 10105b1c f   reggroup.obj
 0001:00104bb4       IsPrecolouredNode          10105bb4 f   reggroup.obj
 0001:00104c0c       IsNodeInGroup              10105c0c f   reggroup.obj
 0001:00104c74       GetConsecutiveGroup        10105c74 f   reggroup.obj
 0001:00104cdc       SetLinkedNodeAlignments    10105cdc f   reggroup.obj
 0001:00104e9c       DropLinkAfterNode          10105e9c f   reggroup.obj
 0001:00104f74       SetNodeAlignment           10105f74 f   reggroup.obj
 0001:0010508c       AppendToGroup              1010608c f   reggroup.obj
 0001:00105160       AddToGroup                 10106160 f   reggroup.obj
 0001:001054d0       RemoveFromGroup            101064d0 f   reggroup.obj
 0001:00105520       MakeGroup                  10106520 f   reggroup.obj
 0001:00105794       MakePartialDestGroup       10106794 f   reggroup.obj
 0001:001058f4       IsValidArgumentSet         101068f4 f   reggroup.obj
 0001:00105f18       UpdateInstGroupsAfterSpill 10106f18 f   reggroup.obj
 0001:0010607c       CreateRegisterGroupsContext 1010707c f   reggroup.obj
 0001:0010616c       DestroyRegisterGroupsContext 1010716c f   reggroup.obj
 0001:001062e8       SetupRegisterGroupsInst    101072e8 f   reggroup.obj
 0001:00108fd4       SetupRegisterGroups        10109fd4 f   reggroup.obj
 0001:0010a12c       ReleaseRegisterGroups      1010b12c f   reggroup.obj
 0001:0010a298       CheckValidRegisterGroupsInst 1010b298 f   reggroup.obj
 0001:0010a6c4       ForAllRegisterGroups       1010b6c4 f   reggroup.obj
 0001:0010a73c       ReorderInstructionsBP      1010b73c f   reorder.obj
 0001:0010afe0       ReorderHighLatncyInstsBP   1010bfe0 f   reorder.obj
 0001:0010c764       IsBlockDominatedByPreSplitBlock 1010d764 f   reorder.obj
 0001:0010c850       SplitFeedback              1010d850 f   reorder.obj
 0001:0010e3b0       PeepholeOptimizeBlock      1010f3b0 f   reorder.obj
 0001:0010e7b4       TestBlockForInstGroup      1010f7b4 f i reorder.obj
 0001:0010e7e8       IsDriverLoadedSecAttr      1010f7e8 f   regpack.obj
 0001:0010e9bc       AllocateSecondaryAttributes 1010f9bc f   regpack.obj
 0001:001107ac       FindHardwareConstant       101117ac f   regpack.obj
 0001:0011087c       GetHardwareConstantValueu  1011187c f   regpack.obj
 0001:00110944       GetHardwareConstantValue   10111944 f   regpack.obj
 0001:00110a48       IsStaticC10Value           10111a48 f   regpack.obj
 0001:00110c7c       GetDriverLoadedConstantLocation 10111c7c f   regpack.obj
 0001:00110d18       GetSAProgNumResultRegisters 10111d18 f   regpack.obj
 0001:00110d60       DropSAProgResult           10111d60 f   regpack.obj
 0001:001110f8       SetChansUsedFromSAProgResult 101120f8 f   regpack.obj
 0001:0011130c       BaseAddNewSAProgResult     1011230c f   regpack.obj
 0001:001116f0       AddNewSAProgResult         101126f0 f   regpack.obj
 0001:00111b48       AddSpillAreaOffsetPlaceholder 10112b48 f   regpack.obj
 0001:00111b84       ReplaceSpillAreaOffsetByStatic 10112b84 f   regpack.obj
 0001:00111c20       AddStaticSecAttrRange      10112c20 f   regpack.obj
 0001:0011239c       AddStaticSecAttr           1011339c f   regpack.obj
 0001:00112474       ReplaceHardwareConstBySecAttr 10113474 f   regpack.obj
 0001:0011254c       InitializeSAProg           1011354c f   regpack.obj
 0001:00112e80       AddDummyIteration          10113e80 f   regpack.obj
 0001:00113268       AddIteratedValue           10114268 f   regpack.obj
 0001:00113604       GetIteratedValue           10114604 f   regpack.obj
 0001:001137c0       AddOrCreateNonDependentTextureSample 101147c0 f   regpack.obj
 0001:00113c50       RemoveUnusedPixelShaderInputs 10114c50 f   regpack.obj
 0001:00114c44       AllocatePixelShaderIterationRegisters 10115c44 f   regpack.obj
 0001:00115ec0       ProjectCoordinates         10116ec0 f   regpack.obj
 0001:001167b0       FinaliseTextureSamples     101177b0 f   regpack.obj
 0001:00117e74       ExpandConditionalTextureSamples 10118e74 f   regpack.obj
 0001:00118104       CalculateHardwareRegisterLimits 10119104 f   regpack.obj
 0001:001185cc       PackConstantRegisters      101195cc f   regpack.obj
 0001:0011ce28       GetSourceLiveChans         1011de28 f   precovr.obj
 0001:0011d3ec       SwizzleMask                1011e3ec f   precovr.obj
 0001:0011d498       SkipInstBlock              1011e498 f   precovr.obj
 0001:0011d6b4       ConvertOperationsToInteger 1011e6b4 f   precovr.obj
 0001:00121a78       OverrideFloat16Precisions  10122a78 f   precovr.obj
 0001:00123870       AssignPredicateRegisters   10124870 f   pregalloc.obj
 0001:00128088       SetupSyncStartInformation  10129088 f   pregalloc.obj
 0001:0012ad80       MakePredicateDest          1012bd80 f i pregalloc.obj
 0001:0012adbc       MakePredicatePartialDest   1012bdbc f i pregalloc.obj
 0001:0012adf8       SupportNoSched             1012bdf8 f   finalise.obj
 0001:0012ae50       SetupSkipInvalidFlag       1012be50 f   finalise.obj
 0001:0012cfd8       CanStartFetch              1012dfd8 f   finalise.obj
 0001:0012d108       FinaliseMemoryLoads        1012e108 f   finalise.obj
 0001:0012e2dc       IsAsyncWBInst              1012f2dc f   finalise.obj
 0001:0012e420       FinaliseShader             1012f420 f   finalise.obj
 0001:00132bfc       UseDefIterateIRegLiveness_Current 10133bfc f i finalise.obj
 0001:00132c24       ConvertF32InstsToF16       10133c24 f   f16opt.obj
 0001:00132c60       EliminateF16Move           10133c60 f   f16opt.obj
 0001:00135974       EliminateF16MovesBP        10136974 f   f16opt.obj
 0001:0013809c       CombineFMad16Swizzle       1013909c f   f16opt.obj
 0001:00138170       SubstituteFMad16Swizzle    10139170 f   f16opt.obj
 0001:001382bc       UscAbort                   101392bc f   usc.obj
 0001:0013852c       UscAllocfn                 1013952c f   usc.obj
 0001:0013873c       _UscFree                   1013973c f   usc.obj
 0001:001388e4       CallocBitArray             101398e4 f   usc.obj
 0001:00138954       AllocInputInst             10139954 f   usc.obj
 0001:00138a24       CopyInputInst              10139a24 f   usc.obj
 0001:00138b1c       FreeInputProg              10139b1c f   usc.obj
 0001:00138ba0       CheckProgram               10139ba0 f   usc.obj
 0001:001396b4       GetNextRegisterCount       1013a6b4 f   usc.obj
 0001:00139720       GetNextPredicateRegister   1013a720 f   usc.obj
 0001:001398ec       MakeNewTempArg             1013a8ec f   usc.obj
 0001:00139950       MakeNewPredicateArg        1013a950 f   usc.obj
 0001:001399a4       GetNextRegister            1013a9a4 f   usc.obj
 0001:001399dc       SetBlockSwitch             1013a9dc f   usc.obj
 0001:0013a27c       ExchangeConditionalSuccessors 1013b27c f   usc.obj
 0001:0013a530       SetBlockConditional        1013b530 f   usc.obj
 0001:0013a730       SetBlockUnconditional      1013b730 f   usc.obj
 0001:0013a87c       MergeIdenticalSuccessors   1013b87c f   usc.obj
 0001:0013ac8c       DropPredecessorFromDeltaInstruction 1013bc8c f   usc.obj
 0001:0013ad6c       DropPredecessorFromDeltaInstructions 1013bd6c f   usc.obj
 0001:0013aec0       SwitchConditionalBlockToUnconditional 1013bec0 f   usc.obj
 0001:0013b1dc       SetSyncEndOnSuccessor      1013c1dc f   usc.obj
 0001:0013b304       AddEdgeViaEmptyBlock       1013c304 f   usc.obj
 0001:0013b5fc       RedirectEdgesFromPredecessors 1013c5fc f   usc.obj
 0001:0013b92c       ReplaceEdge                1013c92c f   usc.obj
 0001:0013bd18       RedirectEdge               1013cd18 f   usc.obj
 0001:0013be94       AllocateBlock              1013ce94 f   usc.obj
 0001:0013c0d4       FreeBlock                  1013d0d4 f   usc.obj
 0001:0013c81c       IsCall                     1013d81c f   usc.obj
 0001:0013c960       IsNonMergable              1013d960 f   usc.obj
 0001:0013c9ac       MergeBasicBlocks           1013d9ac f   usc.obj
 0001:0013d2c8       MergeAllBasicBlocks        1013e2c8 f   usc.obj
 0001:0013d328       FinaliseIntermediateCode   1013e328 f   usc.obj
 0001:0013db04       InitializeBlockWorkList    1013eb04 f   usc.obj
 0001:0013db30       IsBlockWorkListEmpty       1013eb30 f   usc.obj
 0001:0013db78       IsBlockInBlockWorkList     1013eb78 f   usc.obj
 0001:0013dbd4       PrependToBlockWorkList     1013ebd4 f   usc.obj
 0001:0013dc50       AppendToBlockWorkList      1013ec50 f   usc.obj
 0001:0013dce4       AppendPredecessorsToBlockWorkList 1013ece4 f   usc.obj
 0001:0013dd60       RemoveBlockWorkListHead    1013ed60 f   usc.obj
 0001:0013de80       DoDataflow                 1013ee80 f   usc.obj
 0001:0013e384       DoOnCfgBasicBlocks         1013f384 f   usc.obj
 0001:0013e594       DoOnAllBasicBlocks         1013f594 f   usc.obj
 0001:0013e60c       DebugPrintSF               1013f60c f   usc.obj
 0001:0013ebd4       InlineFunction             1013fbd4 f   usc.obj
 0001:0013f7e4       PVRUniFlexDestroyContext   101407e4 f   usc.obj
 0001:0013f81c       InsertInstAfter            1014081c f   usc.obj
 0001:0013f874       ClearBlockInsts            10140874 f   usc.obj
 0001:0013f8b4       InsertInstBefore           101408b4 f   usc.obj
 0001:0013fc74       AppendInst                 10140c74 f   usc.obj
 0001:0013fe48       SetAsGroupChild            10140e48 f   usc.obj
 0001:0013fecc       RemoveInst                 10140ecc f   usc.obj
 0001:0014023c       MaskToSwiz                 1014123c f   usc.obj
 0001:001402c8       CompOpToTest               101412c8 f   usc.obj
 0001:001403a8       GetInputPredicate          101413a8 f   usc.obj
 0001:00140530       AllocFunction              10141530 f   usc.obj
 0001:001407c8       FreeFunction               101417c8 f   usc.obj
 0001:00140b88       GetRemapLocationCount      10141b88 f   usc.obj
 0001:00140c70       GetRemapLocation           10141c70 f   usc.obj
 0001:00140cac       InitializeRemapTable       10141cac f   usc.obj
 0001:00140d34       DeinitializeRemapTable     10141d34 f   usc.obj
 0001:00140d74       ExpandFunctions            10141d74 f   usc.obj
 0001:001418b4       InitialiseIndexableTemps   101428b4 f   usc.obj
 0001:00141948       SearchRangeList            10142948 f   usc.obj
 0001:00141a0c       ReleaseFixedReg            10142a0c f   usc.obj
 0001:00141be4       ReleaseState               10142be4 f   usc.obj
 0001:00142230       ConvertSwitchBP            10143230 f   usc.obj
 0001:001426c0       AddNewRegisterArray        101436c0 f   usc.obj
 0001:0014284c       ComputeBlockDependencyGraph 1014384c f   usc.obj
 0001:00142a84       FreeBlockDGraphState       10143a84 f   usc.obj
 0001:00142ac4       CompileIntermediate        10143ac4 f   usc.obj
 0001:001467a0       UscMakeState               101477a0 f   usc.obj
 0001:001468dc       PVRUniFlexCreateContext    101478dc f   usc.obj
 0001:00146a08       PVRUniFlexCompileToHw      10147a08 f   usc.obj
 0001:00148334       PVRUniFlexCompileToUspBin  10149334 f   usc.obj
 0001:00148520       PVRUniFlexDestroyUspBin    10149520 f   usc.obj
 0001:0014854c       GetCurrentProcess          1014954c f i usc.obj
 0001:00148564       PVRUniFlexUnpackTextureStateConstantOffset 10149564 f   usc_utils.obj
 0001:00148788       PVRUniFlexInitTextureParameters 10149788 f   usc_utils.obj
 0001:001488b4       PVRUniFlexInitInst         101498b4 f   usc_utils.obj
 0001:001488e8       PVRUniFlexGetInputInstDesc 101498e8 f   usc_utils.obj
 0001:0014893c       PVRUniFlexDecodeInputSwizzle 1014993c f   usc_utils.obj
 0001:00148a10       InternalDecodeComparisonOperator 10149a10 f   usc_utils.obj
 0001:00148b68       InternalDecodeInputInst    10149b68 f   usc_utils.obj
 0001:00149f08       PVRUniFlexDecodeInputInst  1014af08 f   usc_utils.obj
 0001:00149f3c       PVRUniFlexDecodeIteration  1014af3c f   usc_utils.obj
 0001:0014a2a8       UseDefIsSSARegisterType    1014b2a8 f   usedef.obj
 0001:0014a304       UseDefGet                  1014b304 f   usedef.obj
 0001:0014a72c       UseDefResizeArgArray       1014b72c f   usedef.obj
 0001:0014a8f4       UseDefResizeArray          1014b8f4 f   usedef.obj
 0001:0014a9dc       CmpUse                     1014b9dc f   usedef.obj
 0001:0014ad14       GetUseChanMask             1014bd14 f   usedef.obj
 0001:0014af74       UseDefSetFmt               1014bf74 f   usedef.obj
 0001:0014b040       UseDefGetInst              1014c040 f   usedef.obj
 0001:0014b0b4       UseDefAddUse               1014c0b4 f   usedef.obj
 0001:0014bba4       UseDefAddArgUses           1014cba4 f   usedef.obj
 0001:0014bc34       UseDefAddDef               1014cc34 f   usedef.obj
 0001:0014bdc4       UseDefDropFuncInput        1014cdc4 f   usedef.obj
 0001:0014bf20       UseDefDropFuncOutput       1014cf20 f   usedef.obj
 0001:0014bfcc       UseDefAddFuncInput         1014cfcc f   usedef.obj
 0001:0014c08c       UseDefAddFuncOutput        1014d08c f   usedef.obj
 0001:0014c14c       UseDefReplaceArgumentUses  1014d14c f   usedef.obj
 0001:0014c1c0       UseDefDropDest             1014d1c0 f   usedef.obj
 0001:0014c23c       UseDefDropFixedRegDef      1014d23c f   usedef.obj
 0001:0014c2c8       UseDefAddFixedRegDef       1014d2c8 f   usedef.obj
 0001:0014c37c       UseDefDropFixedRegUse      1014d37c f   usedef.obj
 0001:0014c408       UseDefAddFixedRegUse       1014d408 f   usedef.obj
 0001:0014c68c       UseDefDropUse              1014d68c f   usedef.obj
 0001:0014c6e8       UseDefDropArgUses          1014d6e8 f   usedef.obj
 0001:0014c83c       UseDefMoveFuncInput        1014d83c f   usedef.obj
 0001:0014c9e0       UseDefReplaceDef           1014d9e0 f   usedef.obj
 0001:0014caf4       UseDefReplaceDest          1014daf4 f   usedef.obj
 0001:0014cc18       UseDefDelete               1014dc18 f   usedef.obj
 0001:0014cdfc       UseDefIsReferencedOutsideBlock 1014ddfc f   usedef.obj
 0001:0014d064       UseDefGetInstUseLocation   1014e064 f   usedef.obj
 0001:0014d3b8       UseDefBaseSubstUse         1014e3b8 f   usedef.obj
 0001:0014d9f4       UseDefSubstUse             1014e9f4 f   usedef.obj
 0001:0014da28       UseDefSubstituteIntermediateRegister 1014ea28 f   usedef.obj
 0001:0014dee0       UseDefForAllUsesOfSet      1014eee0 f   usedef.obj
 0001:0014e3f8       UseDefGetUsedChanMask      1014f3f8 f   usedef.obj
 0001:0014e4bc       UseDefDropUnusedTemps      1014f4bc f   usedef.obj
 0001:0014e940       UseDefInitialize           1014f940 f   usedef.obj
 0001:0014e984       UseDefFreeAll              1014f984 f   usedef.obj
 0001:0014ebe8       UseDefDeinitialize         1014fbe8 f   usedef.obj
 0001:0014ec1c       UseDefIsDef                1014fc1c f   usedef.obj
 0001:0014ec74       UseDefIsUse                1014fc74 f   usedef.obj
 0001:0014eccc       UseDefGetSingleRegisterUse 1014fccc f   usedef.obj
 0001:0014ee1c       UseDefGetSingleUse         1014fe1c f   usedef.obj
 0001:0014eec8       UseDefGetSingleSourceUse   1014fec8 f   usedef.obj
 0001:0014ef4c       UseDefIsPredicateSourceOnly 1014ff4c f   usedef.obj
 0001:0014f014       UseDefIsPartialDestOnly    10150014 f   usedef.obj
 0001:0014f0a8       UseDefIsSingleSourceUse    101500a8 f   usedef.obj
 0001:0014f100       UseDefIsSingleSourceRegisterUse 10150100 f   usedef.obj
 0001:0014f20c       UseDefGetRegisterSourceUseMask 1015020c f   usedef.obj
 0001:0014f4f0       UseDefGetSourceUseMask     101504f0 f   usedef.obj
 0001:0014f538       UseDefGetUseLocation       10150538 f   usedef.obj
 0001:0014f600       UseDefGetDefInstFromChain  10150600 f   usedef.obj
 0001:0014f684       UseDefGetDefInst           10150684 f   usedef.obj
 0001:0014f6ec       UseDefModifyInstructionBlock 101506ec f   usedef.obj
 0001:0014fe08       UseDefIsNextReferenceAsUse 10150e08 f   usedef.obj
 0001:0014ff08       UseDefIterateIRegLiveness_Next 10150f08 f   usedef.obj
 0001:001502ec       UseDefGetIRegLivenessSpanOverInterval 101512ec f   usedef.obj
 0001:001504d4       UseDefIterateIRegLiveness_InitializeAtPoint 101514d4 f   usedef.obj
 0001:00150980       UseDefIterateIRegLiveness_Initialize 10151980 f   usedef.obj
 0001:001509a8       UseDefGetIRegsLiveBeforeInst 101519a8 f   usedef.obj
 0001:001509dc       UseDefGetIRegStateBeforeInst 101519dc f   usedef.obj
 0001:00150a30       UseDefIsIRegLiveInInternal 10151a30 f   usedef.obj
 0001:00150c54       IsEntryInList              10151c54 f i usedef.obj
 0001:00150cd4       IsSingleElementList        10151cd4 f i usedef.obj
 0001:00150df4       OverridePrecisions         10151df4 f   pconvert.obj
 0001:0015118c       TrackRedundantFormatConversions 1015218c f   pconvert.obj
 0001:00152868       ConsolidateFormatConversionPatterns 10153868 f   pconvert.obj
 0001:00152d0c       TryDefaultPrecisionEnforcingSetting 10153d0c f   pconvert.obj
 0001:00152d38       EstimateFunctionCycleCosting 10153d38 f   pconvert.obj
 0001:001538dc       DoOnAllBlocksForFunction   101548dc f   pconvert.obj
 0001:00153968       GetHWOperandsUsedForArg    10154968 f   uspbin.obj
 0001:00153a94       CreateUspBinOutput         10154a94 f   uspbin.obj
 0001:00158fdc       DestroyUspBinOutput        10159fdc f   uspbin.obj
 0001:00159004       IsInstSrcShaderResultRef   1015a004 f   uspbin.obj
 0001:00159088       IsInstDestShaderResult     1015a088 f   uspbin.obj
 0001:00159108       MarkShaderResultWrite      1015a108 f   uspbin.obj
 0001:00159280       InsertAlternateResults     1015a280 f   uspbin.obj
 0001:00159904       IsInstReferingShaderResult 1015a904 f   uspbin.obj
 0001:001599a4       UseDefIterateIRegLiveness_GetC10Mask 1015a9a4 f i uspbin.obj
 0001:001599d0       PVRCleanupUniflexHw        1015a9d0 f   hw.obj
 0001:001599ec       CleanupUniflexHw           1015a9ec f   hw.obj
 0001:00159d00       SetHwShdrPhasesInfo        1015ad00 f   hw.obj
 0001:0015a1a4       CompileToHw                1015b1a4 f   hw.obj
 0001:0015c7fc       DebugPrintf                1015d7fc f   debug.obj
 0001:0015ca00       PrintInput                 1015da00 f   debug.obj
 0001:0015f354       NKDbgPrintfW               10160354 f   coredll:COREDLL.dll
 0001:0015f364       TerminateProcess           10160364 f   coredll:COREDLL.dll
 0001:0015f374       FloatToCstIndex            10160374 f   useasm:useasm.obj
 0001:0015f448       UseAssembleInstruction     10160448 f   useasm:useasm.obj
 0001:0017cd48       UseGetOpcodeArgumentCount  1017dd48 f   useasm:useasm.obj
 0001:0017cd78       UseIsTextureSampleOpcode   1017dd78 f   useasm:useasm.obj
 0001:0017cdc8       UseAcceptsSkipinvOpcode    1017ddc8 f   useasm:useasm.obj
 0001:0017cdf8       UseAcceptsNoSchedOpcode    1017ddf8 f   useasm:useasm.obj
 0001:0017ce28       UseAcceptsNoSchedEnhancedOpcode 1017de28 f   useasm:useasm.obj
 0001:0017ce58       UseGetNameOpcode           1017de58 f   useasm:useasm.obj
 0001:0017ce88       CheckUndefinedLabels       1017de88 f   useasm:useasm.obj
 0001:0017cf68       UseAssembler               1017df68 f   useasm:useasm.obj
 0001:0017d040       OpcodeArgumentCount        1017e040 f   useasm:usetab.obj
 0001:0017d080       OpcodeName                 1017e080 f   useasm:usetab.obj
 0001:0017d0bc       OpcodeAcceptsSkipInv       1017e0bc f   useasm:usetab.obj
 0001:0017d118       OpcodeAcceptsNoSched       1017e118 f   useasm:usetab.obj
 0001:0017d174       OpcodeAcceptsNoSchedEnhanced 1017e174 f   useasm:usetab.obj
 0001:0017d1d0       OpcodeDescFlags            1017e1d0 f   useasm:usetab.obj
 0001:0017d210       UseAsmGetCoreDesc          1017e210 f   useasm:utils.obj
 0001:0017d2bc       IsRevisionValid            1017e2bc f   useasm:utils.obj
 0001:0017d31c       FixBRN21697                1017e31c f   useasm:utils.obj
 0001:0017d368       FixBRN21713                1017e368 f   useasm:utils.obj
 0001:0017d3b4       FixBRN23062                1017e3b4 f   useasm:utils.obj
 0001:0017d400       FixBRN23164                1017e400 f   useasm:utils.obj
 0001:0017d44c       FixBRN23461                1017e44c f   useasm:utils.obj
 0001:0017d498       FixBRN23960                1017e498 f   useasm:utils.obj
 0001:0017d4e4       FixBRN24895                1017e4e4 f   useasm:utils.obj
 0001:0017d530       FixBRN25355                1017e530 f   useasm:utils.obj
 0001:0017d57c       FixBRN25060                1017e57c f   useasm:utils.obj
 0001:0017d5c8       FixBRN25580                1017e5c8 f   useasm:utils.obj
 0001:0017d614       FixBRN25582                1017e614 f   useasm:utils.obj
 0001:0017d660       FixBRN26570                1017e660 f   useasm:utils.obj
 0001:0017d6ac       FixBRN27005                1017e6ac f   useasm:utils.obj
 0001:0017d6f8       FixBRN26681                1017e6f8 f   useasm:utils.obj
 0001:0017d744       FixBRN27984                1017e744 f   useasm:utils.obj
 0001:0017d790       FixBRN29643                1017e790 f   useasm:utils.obj
 0001:0017d7dc       FixBRN30871                1017e7dc f   useasm:utils.obj
 0001:0017d828       FixBRN30898                1017e828 f   useasm:utils.obj
 0001:0017d874       IsEnhancedNoSched          1017e874 f   useasm:utils.obj
 0001:0017d8c4       IsHighPrecisionFIR         1017e8c4 f   useasm:utils.obj
 0001:0017d914       IsLoadMOEStateFromRegisters 1017e914 f   useasm:utils.obj
 0001:0017d964       IsPerInstMoeIncrements     1017e964 f   useasm:utils.obj
 0001:0017d9b4       IsFClampInstruction        1017e9b4 f   useasm:utils.obj
 0001:0017da04       IsSqrtSinCosInstruction    1017ea04 f   useasm:utils.obj
 0001:0017da54       IsIMA32Instruction         1017ea54 f   useasm:utils.obj
 0001:0017daa4       IsIDIVInstruction          1017eaa4 f   useasm:utils.obj
 0001:0017daf4       SupportsExtendedLoad       1017eaf4 f   useasm:utils.obj
 0001:0017db44       SupportsLDSTExtendedCacheModes 1017eb44 f   useasm:utils.obj
 0001:0017db98       SupportsSTNoReadBeforeWrite 1017eb98 f   useasm:utils.obj
 0001:0017dbec       SupportsSMPResultFormatConvert 1017ebec f   useasm:utils.obj
 0001:0017dc40       HasNewEfoOptions           1017ec40 f   useasm:utils.obj
 0001:0017dc90       HasPackMultipleRoundModes  1017ec90 f   useasm:utils.obj
 0001:0017dce0       HasDualIssue               1017ece0 f   useasm:utils.obj
 0001:0017dd30       HasUnlimitedPhases         1017ed30 f   useasm:utils.obj
 0001:0017dd80       HasNoInstructionPairing    1017ed80 f   useasm:utils.obj
 0001:0017ddd0       NumberOfMutexesSupported   1017edd0 f   useasm:utils.obj
 0001:0017de04       NumberOfMonitorsSupported  1017ee04 f   useasm:utils.obj
 0001:0017de38       NumberOfProgramCounterBits 1017ee38 f   useasm:utils.obj
 0001:0017de6c       NumberOfInternalRegisters  1017ee6c f   useasm:utils.obj
 0001:0017dea0       SupportsAlphaToCoverage    1017eea0 f   useasm:utils.obj
 0001:0017def0       SupportsFmad16Swizzles     1017eef0 f   useasm:utils.obj
 0001:0017df40       SupportsFnormalise         1017ef40 f   useasm:utils.obj
 0001:0017df90       SupportsPCF                1017ef90 f   useasm:utils.obj
 0001:0017dfe0       SupportsRawSample          1017efe0 f   useasm:utils.obj
 0001:0017e030       SupportsNopTrigger         1017f030 f   useasm:utils.obj
 0001:0017e080       SupportsBranchException    1017f080 f   useasm:utils.obj
 0001:0017e0d0       SupportsExtSyncEnd         1017f0d0 f   useasm:utils.obj
 0001:0017e120       SupportsMOEStore           1017f120 f   useasm:utils.obj
 0001:0017e170       SupportsCFI                1017f170 f   useasm:utils.obj
 0001:0017e1c0       SupportsVCB                1017f1c0 f   useasm:utils.obj
 0001:0017e210       SupportsVEC34              1017f210 f   useasm:utils.obj
 0001:0017e260       SupportsBranchPwait        1017f260 f   useasm:utils.obj
 0001:0017e2b0       SupportsRawSampleBoth      1017f2b0 f   useasm:utils.obj
 0001:0017e300       ReducedSMPRepeatCount      1017f300 f   useasm:utils.obj
 0001:0017e354       IMA32Is32x16Plus32         1017f354 f   useasm:utils.obj
 0001:0017e3a8       SupportsTESTSUB32          1017f3a8 f   useasm:utils.obj
 0001:0017e3fc       NoRepeatMaskOnBitwiseInstructions 1017f3fc f   useasm:utils.obj
 0001:0017e450       NoRepeatMaskOnSMPInstructions 1017f450 f   useasm:utils.obj
 0001:0017e4a4       SupportSkipInvalidOnIDFInstruction 1017f4a4 f   useasm:utils.obj
 0001:0017e4f8       SupportsAllAnyInstancesFlagOnBranchInstruction 1017f4f8 f   useasm:utils.obj
 0001:0017e54c       SupportsLDSTAtomicOps      1017f54c f   useasm:utils.obj
 0001:0017e5a0       SupportsIntegerConditionalInstructions 1017f5a0 f   useasm:utils.obj
 0001:0017e5f4       SupportsQwordLDST          1017f5f4 f   useasm:utils.obj
 0001:0017e648       SupportsIDXSC              1017f648 f   useasm:utils.obj
 0001:0017e69c       SupportsTESTSABLND         1017f69c f   useasm:utils.obj
 0001:0017e6f0       SupportsLDRSTRRepeat       1017f6f0 f   useasm:utils.obj
 0001:0017e744       SupportsSTRPredicate       1017f744 f   useasm:utils.obj
 0001:0017e798       SupportsLDRSTRExtendedImmediate 1017f798 f   useasm:utils.obj
 0001:0017e7ec       SupportsIndexTwoBanks      1017f7ec f   useasm:utils.obj
 0001:0017e840       SupportsSPRVV              1017f840 f   useasm:utils.obj
 0001:0017e894       IsInvalidSpecialRegisterForNonBitwiseInstructions 1017f894 f   useasm:utils.obj
 0001:0017e940       UseAsmInitInst             1017f940 f   useasm:utils.obj
 0001:0017e97c       UseAsmInitReg              1017f97c f   useasm:utils.obj
 0001:0017e9bc       DllMain                    1017f9bc f   corelib0:dllmain.obj
 0001:0017e9f4       _DllMainCRTStartup         1017f9f4 f   corelib0:pegdmain.obj
 0001:0017eb8c       __security_init_cookie     1017fb8c f   corelib0:seccinit.obj
 0001:0017ec28       __GSHandlerCheck           1017fc28 f   corelib0:gshandler.obj
 0001:0017ec6c       __GSHandlerCheckCommon     1017fc6c f   corelib0:gshandler.obj
 0001:0017ed0c       __security_check_cookie    1017fd0c f   corelib0:armsecgs.obj
 0001:0017ed1c       __gsfailure                1017fd1c     corelib0:armsecgs.obj
 0001:0017ed60       exit                       1017fd60 f   corelib0:cexit.obj
 0001:0017ee80       _exit                      1017fe80 f   corelib0:cexit.obj
 0001:0017eea0       _cexit                     1017fea0 f   corelib0:cexit.obj
 0001:0017eeb8       _c_exit                    1017feb8 f   corelib0:cexit.obj
 0001:0017eed0       _initterm                  1017fed0 f   corelib0:crt0dat.obj
 0001:0017ef1c       _cinit                     1017ff1c f   corelib0:crt0dat.obj
 0001:0017ef4c       __crt_ExitProcess          1017ff4c f   corelib0:exitproc_proxy.obj
 0001:0017ef78       _onexit                    1017ff78 f   corelib0:onexit.obj
 0001:0017f154       atexit                     10180154 f   corelib0:onexit.obj
 0001:0017f1a4       memcpy                     101801a4 f   corelib1:COREDLL.dll
 0001:0017f1b4       memset                     101801b4 f   corelib1:COREDLL.dll
 0001:0017f1c4       memcmp                     101801c4 f   corelib1:COREDLL.dll
 0001:0017f1d4       qsort                      101801d4 f   corelib1:COREDLL.dll
 0001:0017f1e4       labs                       101801e4 f   corelib1:COREDLL.dll
 0001:0017f1f4       memmove                    101801f4 f   corelib1:COREDLL.dll
 0001:0017f204       longjmp                    10180204 f   corelib1:COREDLL.dll
 0001:0017f214       strlen                     10180214 f   corelib1:COREDLL.dll
 0001:0017f224       sprintf                    10180224 f   corelib1:COREDLL.dll
 0001:0017f234       setjmp                     10180234 f   corelib1:COREDLL.dll
 0001:0017f244       _vsnprintf                 10180244 f   corelib1:COREDLL.dll
 0001:0017f254       strcat                     10180254 f   corelib1:COREDLL.dll
 0001:0017f264       strcpy                     10180264 f   corelib1:COREDLL.dll
 0001:0017f274       _XcptFilter                10180274 f   corelib1:COREDLL.dll
 0001:0017f284       __C_specific_handler       10180284 f   corelib1:COREDLL.dll
 0001:0017f294       __security_gen_cookie2     10180294 f   corelib1:COREDLL.dll
 0001:0017f2a4       __report_gsfailure         101802a4 f   corelib1:COREDLL.dll
 0001:0017f2b4       free                       101802b4 f   corelib1:COREDLL.dll
 0001:0017f2c4       realloc                    101802c4 f   corelib1:COREDLL.dll
 0001:0017f2d4       malloc                     101802d4 f   corelib1:COREDLL.dll
 0001:0017f2e4       _msize                     101802e4 f   corelib1:COREDLL.dll
 0001:0017f2f4       OutputDebugStringW         101802f4 f   coredll:COREDLL.dll
 0001:0017f304       DisableThreadLibraryCalls  10180304 f   coredll:COREDLL.dll
 0001:0017f354       __IMPORT_DESCRIPTOR_COREDLL 10180354     coredll:COREDLL.dll
 0001:0017f368       __NULL_IMPORT_DESCRIPTOR   10180368     coredll:COREDLL.dll
 0002:00000000       __imp_NKDbgPrintfW         10181000     coredll:COREDLL.dll
 0002:00000004       __imp_TerminateProcess     10181004     coredll:COREDLL.dll
 0002:00000008       __imp___rt_udiv            10181008     corelib1:COREDLL.dll
 0002:0000000c       __imp_memcpy               1018100c     corelib1:COREDLL.dll
 0002:00000010       __imp_memset               10181010     corelib1:COREDLL.dll
 0002:00000014       __imp_memcmp               10181014     corelib1:COREDLL.dll
 0002:00000018       __imp___rt_sdiv            10181018     corelib1:COREDLL.dll
 0002:0000001c       __imp_qsort                1018101c     corelib1:COREDLL.dll
 0002:00000020       __imp_labs                 10181020     corelib1:COREDLL.dll
 0002:00000024       __imp_memmove              10181024     corelib1:COREDLL.dll
 0002:00000028       __imp_longjmp              10181028     corelib1:COREDLL.dll
 0002:0000002c       __imp_strlen               1018102c     corelib1:COREDLL.dll
 0002:00000030       __imp_sprintf              10181030     corelib1:COREDLL.dll
 0002:00000034       __imp_setjmp               10181034     corelib1:COREDLL.dll
 0002:00000038       __imp__vsnprintf           10181038     corelib1:COREDLL.dll
 0002:0000003c       __imp_strcat               1018103c     corelib1:COREDLL.dll
 0002:00000040       __imp_strcpy               10181040     corelib1:COREDLL.dll
 0002:00000044       __imp__XcptFilter          10181044     corelib1:COREDLL.dll
 0002:00000048       __imp___C_specific_handler 10181048     corelib1:COREDLL.dll
 0002:0000004c       __imp___security_gen_cookie2 1018104c     corelib1:COREDLL.dll
 0002:00000050       __imp___report_gsfailure   10181050     corelib1:COREDLL.dll
 0002:00000054       __imp_free                 10181054     corelib1:COREDLL.dll
 0002:00000058       __imp_realloc              10181058     corelib1:COREDLL.dll
 0002:0000005c       __imp_malloc               1018105c     corelib1:COREDLL.dll
 0002:00000060       __imp__msize               10181060     corelib1:COREDLL.dll
 0002:00000064       __imp_OutputDebugStringW   10181064     coredll:COREDLL.dll
 0002:00000068       __imp_DisableThreadLibraryCalls 10181068     coredll:COREDLL.dll
 0002:0000006c       \177COREDLL_NULL_THUNK_DATA 1018106c     coredll:COREDLL.dll
 0002:00000070       __security_cookie          10181070     corelib0:seccinit.obj
 0002:00000074       __security_cookie_complement 10181074     corelib0:seccinit.obj
 0002:00000078       _exitflag                  10181078     corelib0:cexit.obj
 0002:0000007c       __onexitend                1018107c     <common>
 0002:00000080       __onexitbegin              10181080     <common>
 0002:00000084       _pRawDllMain               10181084     <common>

 entry point at        0001:0017e9f4

 Static symbols

 0001:0001a1cc       ConvertInstructionToUseasm 1001b1cc f   asm.obj
 0001:0001abdc       EncodePred                 1001bbdc f   asm.obj
 0001:0001ad48       ConvertDest                1001bd48 f   asm.obj
 0001:0001ae2c       CopyDestRegister           1001be2c f   asm.obj
 0001:0001b03c       CopyIndex                  1001c03c f   asm.obj
 0001:0001b110       ConvertRegisterNumber      1001c110 f   asm.obj
 0001:0001b344       CopySources                1001c344 f   asm.obj
 0001:0001b3bc       CopySource                 1001c3bc f   asm.obj
 0001:0001b5c4       CopySourcesWithFloatSourceModifier 1001c5c4 f   asm.obj
 0001:0001b6ec       ConvertIMAEToUseasm        1001c6ec f   asm.obj
 0001:0001bc9c       ConvertEMITToUseasm        1001cc9c f   asm.obj
 0001:0001bdf8       ConvertWOPToUseasm         1001cdf8 f   asm.obj
 0001:0001bea4       ConvertSMLSIToUseasm       1001cea4 f   asm.obj
 0001:0001bf60       ConvertBitwiseInstructionToUseasm 1001cf60 f   asm.obj
 0001:0001c0c0       ConvertIMA16ToUseasm       1001d0c0 f   asm.obj
 0001:0001c25c       ConvertEFOToUseasm         1001d25c f   asm.obj
 0001:0001c338       EncodeEfo                  1001d338 f   asm.obj
 0001:0001ca10       EncodeEfoArith             1001da10 f   asm.obj
 0001:0001d35c       ConvertIDFToUseasm         1001e35c f   asm.obj
 0001:0001d3e4       ConvertRLPToUseasm         1001e3e4 f   asm.obj
 0001:0001d548       ConvertTextureSampleToUseasm 1001e548 f   asm.obj
 0001:0001d920       GetUseasmOpcodeForSmp      1001e920 f   asm.obj
 0001:0001dbe4       GetTextureSampleCoordinateFormat 1001ebe4 f   asm.obj
 0001:0001dc20       ConvertSOPWMToUseasm       1001ec20 f   asm.obj
 0001:0001dd8c       EncodeSOPWMModes           1001ed8c f   asm.obj
 0001:0001de5c       CopyFPInstParam            1001ee5c f   asm.obj
 0001:0001ded0       ConvertFPMAIMA8ToUseasm    1001eed0 f   asm.obj
 0001:0001dfe4       EncodeFPMAModes            1001efe4 f   asm.obj
 0001:0001e164       ConvertLRP1ToUseasm        1001f164 f   asm.obj
 0001:0001e1dc       EncodeLRP1Modes            1001f1dc f   asm.obj
 0001:0001e35c       ConvertSOP2ToUseasm        1001f35c f   asm.obj
 0001:0001e3d4       EncodeSOP2Modes            1001f3d4 f   asm.obj
 0001:0001e5c0       CopyFPComplementFlag       1001f5c0 f   asm.obj
 0001:0001e634       ConvertSOP3ToUseasm        1001f634 f   asm.obj
 0001:0001e6b0       EncodeSOP3Modes            1001f6b0 f   asm.obj
 0001:0001ec0c       DropAlpha                  1001fc0c f   asm.obj
 0001:0001ec84       ConvertPCKInstructionToUseasm 1001fc84 f   asm.obj
 0001:0001ef04       CopyImmediate              1001ff04 f   asm.obj
 0001:0001ef50       ConvertCOMBC10InstructionToUseasm 1001ff50 f   asm.obj
 0001:0001f09c       ConvertIntegerDOTToUseasm  1002009c f   asm.obj
 0001:0001f138       CopyDOT34DestModToUseasm   10020138 f   asm.obj
 0001:0001f20c       GetIntegerDOTOpcode        1002020c f   asm.obj
 0001:0001f3c8       ConvertFDPRptToUseasm      100203c8 f   asm.obj
 0001:0001f4f8       CopyDPBaseIterationSources 100204f8 f   asm.obj
 0001:0001f5ec       ConvertFDDPToUseasm        100205ec f   asm.obj
 0001:0001f738       ConvertConditionalMoveToUseasm 10020738 f   asm.obj
 0001:0001f970       ConvertFDP_TESTToUseasm    10020970 f   asm.obj
 0001:0001fa90       CopyTestDestinations       10020a90 f   asm.obj
 0001:0001fb84       ConvertTESTToUseasm        10020b84 f   asm.obj
 0001:0001fd78       ConvertFMAD16ToUseasm      10020d78 f   asm.obj
 0001:0001ff84       ConvertLocalMemoryLocalStoreToUseasm 10020f84 f   asm.obj
 0001:00020278       ConvertMemoryLoadStoreToUseasm 10021278 f   asm.obj
 0001:00020c18       SetArraySize               10021c18 f   data.obj
 0001:00020c4c       ChunkElem                  10021c4c f   data.obj
 0001:00020c80       FreeChunk                  10021c80 f   data.obj
 0001:00020edc       BaseArrayGet               10021edc f   data.obj
 0001:000210a4       GetArraySize               100220a4 f   data.obj
 0001:000210cc       ArrayChunkGet              100220cc f   data.obj
 0001:00021408       NewChunk                   10022408 f   data.obj
 0001:0002165c       BaseArraySet               1002265c f   data.obj
 0001:000219c0       SetVectorSize              100229c0 f   data.obj
 0001:00021af8       SetVectorFlag              10022af8 f   data.obj
 0001:00021d84       GetVectorSize              10022d84 f   data.obj
 0001:00021db4       GetVectorFlag              10022db4 f   data.obj
 0001:00022000       CalcVecOp                  10023000 f   data.obj
 0001:00022238       VectorOpWorker             10023238 f   data.obj
 0001:00023800       VectorGetElement           10024800 f   data.obj
 0001:00025734       InsertInSortedList         10026734 f   data.obj
 0001:0002629c       UscStackElementPtr         1002729c f   data.obj
 0001:000265d0       BaseTreeDelete             100275d0 f   data.obj
 0001:0002670c       BaseTreeDetach             1002770c f   data.obj
 0001:00026814       TreeBaseGetPtr             10027814 f   data.obj
 0001:00026a14       BaseTreeValid              10027a14 f   data.obj
 0001:000270bc       TreeReplaceParent          100280bc f   data.obj
 0001:000271c8       TreeSuccessor              100281c8 f   data.obj
 0001:00027270       TreeMinimum                10028270 f   data.obj
 0001:000272b4       TreeDelete_Fix             100282b4 f   data.obj
 0001:000276ac       TreeRotateLeft             100286ac f   data.obj
 0001:0002776c       TreeRotateRight            1002876c f   data.obj
 0001:00027824       TreeIsRed                  10028824 f   data.obj
 0001:00027a3c       BaseTreeMake               10028a3c f   data.obj
 0001:00027acc       TreeAdd_Fix                10028acc f   data.obj
 0001:00027e00       BaseTreeIter               10028e00 f   data.obj
 0001:0002808c       RegisterVectorMapElementCmp 1002908c f   data.obj
 0001:000282a4       RegisterMapElementCmp      100292a4 f   data.obj
 0001:0002841c       RegSubstCmp                1002941c f   data.obj
 0001:00028584       SubstElemDelete            10029584 f   data.obj
 0001:0002953c       GetLiveChansInFPMAArgument 1002a53c f   dce.obj
 0001:00029900       RemapC10Channels           1002a900 f   dce.obj
 0001:000299e4       GetLiveChansInSOP2Argument 1002a9e4 f   dce.obj
 0001:00029cdc       GetLiveChansInLRP1Argument 1002acdc f   dce.obj
 0001:00029f78       GetLiveChansInSOPWMArgument 1002af78 f   dce.obj
 0001:0002a4d4       FormatToChannelMask        1002b4d4 f   dce.obj
 0001:0002a59c       GetTestALUChansUsed        1002b59c f   dce.obj
 0001:0002b4e8       GetSourcesUsedFromPack     1002c4e8 f   dce.obj
 0001:0002b6cc       GetChansUsedFromPackSource 1002c6cc f   dce.obj
 0001:0002bc24       GetLiveChansInCALLArg      1002cc24 f   dce.obj
 0001:0002bf54       TranslateArrayElement      1002cf54 f   dce.obj
 0001:0002c3d8       ChangeRegisterLiveMask     1002d3d8 f   dce.obj
 0001:0002cb1c       IncreaseLiveMaskForRead    1002db1c f   dce.obj
 0001:0002cba8       IncreaseIndexedRegisterLiveMask 1002dba8 f   dce.obj
 0001:0002ceec       ComputeLivenessForInst     1002deec f   dce.obj
 0001:0002d60c       GetDestLiveMask            1002e60c f   dce.obj
 0001:0002d6ac       GetIndexedRegisterLiveMask 1002e6ac f   dce.obj
 0001:0002d7dc       GetIndexRangeForDest       1002e7dc f   dce.obj
 0001:0002d92c       ReduceInstDestMask         1002e92c f   dce.obj
 0001:0002df70       SwapPackSources            1002ef70 f   dce.obj
 0001:0002e460       ClearSource                1002f460 f   dce.obj
 0001:0002e4bc       HandleEFODest              1002f4bc f   dce.obj
 0001:0002e6b4       HandleEFOIRegDest          1002f6b4 f   dce.obj
 0001:0002e914       LivenessDF                 1002f914 f   dce.obj
 0001:0002f0e4       MergeLivesets              100300e4 f   dce.obj
 0001:0002f25c       CompareLivesets            1003025c f   dce.obj
 0001:0002f468       DoLiveness                 10030468 f   dce.obj
 0001:0002fb78       GetRegistersLiveAtEnd      10030b78 f   dce.obj
 0001:00031090       InstUseIndex               10032090 f   dce.obj
 0001:000317dc       AnyInternalRegsReferenced  100327dc f   dce.obj
 0001:00031860       InternalRegsReferenced     10032860 f   dce.obj
 0001:00031bec       RegUseInst                 10032bec f   dce.obj
 0001:00031c9c       InstRegUse                 10032c9c f   dce.obj
 0001:00031ea8       InstRegDef                 10032ea8 f   dce.obj
 0001:00032b6c       FreeIntList                10033b6c f   dgraph.obj
 0001:00032e78       AddToDepList               10033e78 f   dgraph.obj
 0001:00032f24       AddToDepGraph              10033f24 f   dgraph.obj
 0001:00033308       InsertInAvailableList      10034308 f   dgraph.obj
 0001:00034b88       FindReaders                10035b88 f   dgraph.obj
 0001:00034c8c       AddDestDependencies        10035c8c f   dgraph.obj
 0001:00034ff4       FindRegArrayReaders        10035ff4 f   dgraph.obj
 0001:000352ac       RecordWrite                100362ac f   dgraph.obj
 0001:00035364       RecordRead                 10036364 f   dgraph.obj
 0001:00035480       RecordReadsByArg           10036480 f   dgraph.obj
 0001:000376d4       GetBestOfAnyAncestor       100386d4 f   domcalc.obj
 0001:00037800       DoDfs                      10038800 f   domcalc.obj
 0001:00037a10       AddToParent                10038a10 f   domcalc.obj
 0001:00037f38       MarkInLoop                 10038f38 f   domcalc.obj
 0001:00038144       MakeEfo_MulMad_SharedSrc   10039144 f   efo.obj
 0001:00038678       MoveFloatArgToEfo          10039678 f   efo.obj
 0001:00038784       CanUseEfoSrc               10039784 f   efo.obj
 0001:00038958       CanUseHardwareConstant     10039958 f   efo.obj
 0001:000389d4       MakeEfo_MulMad_Square      100399d4 f   efo.obj
 0001:00038f5c       MakeEfo_MulMad_IRegSrcs    10039f5c f   efo.obj
 0001:000394f8       MakeEfo_MadMad_Lrp         1003a4f8 f   efo.obj
 0001:00039c18       SetupIRegDests             1003ac18 f   efo.obj
 0001:00039d28       MakeEfo_EfoMad_Lrp_535     1003ad28 f   efo.obj
 0001:0003a3d8       MakeEfo_EfoMad_Lrp_545     1003b3d8 f   efo.obj
 0001:0003bcb0       SetupEfoStageData          1003ccb0 f   efo.obj
 0001:0003be3c       CanUseStandardDest         1003ce3c f   efo.obj
 0001:0003bf00       CanReplaceIRegMove         1003cf00 f   efo.obj
 0001:0003c874       GetClosedDependency        1003d874 f   efo.obj
 0001:0003c8d8       IsDescheduleBetweenGroupAndInsts 1003d8d8 f   efo.obj
 0001:0003ca78       IsInstDependentOnGroup     1003da78 f   efo.obj
 0001:0003cc24       IsInterveningIRegWriteForRead 1003dc24 f   efo.obj
 0001:0003ce14       IsGroupDependentOnInst     1003de14 f   efo.obj
 0001:0003d060       IsDescheduleBetweenGroups  1003e060 f   efo.obj
 0001:0003d1cc       IsInterveningGroup         1003e1cc f   efo.obj
 0001:0003d2cc       IsEfoOrDeschedDependent    1003e2cc f   efo.obj
 0001:0003d4e8       IsEfoWriterInGroup         1003e4e8 f   efo.obj
 0001:0003d57c       CheckWriteAfterReadDependency 1003e57c f   efo.obj
 0001:0003d6c8       CheckForDeschedReaders     1003e6c8 f   efo.obj
 0001:0003d7fc       CheckIRegReplaceGroupCB    1003e7fc f   efo.obj
 0001:0003d94c       NextEfoDestUses            1003e94c f   efo.obj
 0001:0003da98       GetNextInstUse             1003ea98 f   efo.obj
 0001:0003db78       GetInstUseMask             1003eb78 f   efo.obj
 0001:0003dc38       ReplaceIRegMove            1003ec38 f   efo.obj
 0001:0003de34       AddToEfoReaderList         1003ee34 f   efo.obj
 0001:0003df20       MergeEfoGroup              1003ef20 f   efo.obj
 0001:0003e444       GetDependency              1003f444 f   efo.obj
 0001:0003e4a8       SetDependency              1003f4a8 f   efo.obj
 0001:0003e5f8       SetClosedDependency        1003f5f8 f   efo.obj
 0001:0003e648       ClearDependencies          1003f648 f   efo.obj
 0001:0003e6e8       UpdateClosedEfoDependencyGraph 1003f6e8 f   efo.obj
 0001:0003e914       AddWriteAfterReadDependency 1003f914 f   efo.obj
 0001:0003ea10       ReplaceByInternalRegister  1003fa10 f   efo.obj
 0001:0003eed4       AddIRegDependency          1003fed4 f   efo.obj
 0001:0003f078       WriteDestUsingAnotherEfo   10040078 f   efo.obj
 0001:0003f248       WriteDestUsingEfo          10040248 f   efo.obj
 0001:0003f818       CanWriteDestUsingEfo       10040818 f   efo.obj
 0001:0003fbd0       AddDepsForWriteDestUsingEfo 10040bd0 f   efo.obj
 0001:0003fdfc       TryReorderPacks            10040dfc f   efo.obj
 0001:00040644       CheckPackDependency        10041644 f   efo.obj
 0001:000406e4       CheckPackDestDependency    100416e4 f   efo.obj
 0001:000408ac       UpdatePackMask             100418ac f   efo.obj
 0001:00040934       UnwindEfo                  10041934 f   efo.obj
 0001:00041a9c       CopyEfoArgToFloat          10042a9c f   efo.obj
 0001:00041bb8       DropInst                   10042bb8 f   efo.obj
 0001:00041c0c       IsInvalidSrc0ForUnwindEfo  10042c0c f   efo.obj
 0001:00041ca8       UnwindEfoToEfo             10042ca8 f   efo.obj
 0001:0004229c       CopyEfoSource              1004329c f   efo.obj
 0001:000423a0       ConvertM0ToA0              100433a0 f   efo.obj
 0001:00042648       CreateExistingIRegGroups   10043648 f   efo.obj
 0001:00042bf4       CreateNewEfoGroup          10043bf4 f   efo.obj
 0001:00042d70       AddToEfoWriterList         10043d70 f   efo.obj
 0001:000430a4       SetupGroupDependencyGraph  100440a4 f   efo.obj
 0001:000434a8       IsGroupDependentOnGroup    100444a8 f   efo.obj
 0001:00043748       OutputInstructionsInGroupOrder 10044748 f   efo.obj
 0001:00043b78       FinishDeschedInst          10044b78 f   efo.obj
 0001:00043cb0       FinishGroup                10044cb0 f   efo.obj
 0001:00043dd8       CanStartGroup              10044dd8 f   efo.obj
 0001:00044048       ExpandInternalRegistersMoves 10045048 f   efo.obj
 0001:00044218       FinishGroupDependencyGraph 10045218 f   efo.obj
 0001:000442a0       SetupDeschedDependencyState 100452a0 f   efo.obj
 0001:00044548       ConvertSingleInstToEfo     10045548 f   efo.obj
 0001:00044b18       MoveEfoSource              10045b18 f   efo.obj
 0001:00044c1c       ReplaceHardwareConstants   10045c1c f   efo.obj
 0001:00044d10       ConvertFloatInstToEfo      10045d10 f   efo.obj
 0001:00044d70       CanConvertSingleInstToEfo  10045d70 f   efo.obj
 0001:00045288       WriteDestUsingNonEfo       10046288 f   efo.obj
 0001:00045a14       IsDescheduleBetweenInstAndGroup 10046a14 f   efo.obj
 0001:00045b44       IsGroupDependency          10046b44 f   efo.obj
 0001:00045b98       CheckGroupOrderForNonEfo   10046b98 f   efo.obj
 0001:00045ca0       CreateEfoInstructions      10046ca0 f   efo.obj
 0001:00045e08       GenerateEfosFromDependentInstructions 10046e08 f   efo.obj
 0001:00046304       CheckEfoGroupOrder         10047304 f   efo.obj
 0001:000463f0       CheckSrcToIReg             100473f0 f   efo.obj
 0001:00046bd4       CountArgs                  10047bd4 f   efo.obj
 0001:00046d10       IsIRegDestOverwrite        10047d10 f   efo.obj
 0001:00046ebc       IsInterveningInst          10047ebc f   efo.obj
 0001:00047064       TryCombineDependentInstructions 10048064 f   efo.obj
 0001:00047d00       CreateEfoInst              10048d00 f   efo.obj
 0001:00047e1c       ReplaceInEfoReaderList     10048e1c f   efo.obj
 0001:00047f08       CanCombineDependentsIntoEfo 10048f08 f   efo.obj
 0001:000480d0       FindMadForEfoWriteBack     100490d0 f   efo.obj
 0001:000484b0       WouldBeInterveningIRegWrite 100494b0 f   efo.obj
 0001:000485a4       CheckEfoGroupDependencyForMad 100495a4 f   efo.obj
 0001:000486dc       BuildExtraAddInst          100496dc f   efo.obj
 0001:00048ac8       IsDestDependency           10049ac8 f   efo.obj
 0001:00048c3c       GenerateEfoFromCombinedInstructionsExtraIRegs 10049c3c f   efo.obj
 0001:00048d60       TryEfoCombineExtraIRegs    10049d60 f   efo.obj
 0001:000490e4       TryEfoCombineExtraIRegsMULMUL 1004a0e4 f   efo.obj
 0001:00049744       CheckEfoGroupDependency    1004a744 f   efo.obj
 0001:000499ec       CanReplaceSourceByIReg     1004a9ec f   efo.obj
 0001:00049f58       IsDescheduleBetweenInstAndInsts 1004af58 f   efo.obj
 0001:0004a0bc       SetupEfoInstExtraIRegs     1004b0bc f   efo.obj
 0001:0004a5a8       ReplaceDestByIReg          1004b5a8 f   efo.obj
 0001:0004a688       AddToMiddleEfoWriterList   1004b688 f   efo.obj
 0001:0004a7d0       TryEfoCombineExtraIRegsMADMUL 1004b7d0 f   efo.obj
 0001:0004b254       TryEfoCombineExtraIRegsMADMAD 1004c254 f   efo.obj
 0001:0004bb6c       GenerateEfoFromCombinedInstructions 1004cb6c f   efo.obj
 0001:0004bcc8       TryEfoCombine              1004ccc8 f   efo.obj
 0001:0004bf74       TryEfoCombineWithEfo       1004cf74 f   efo.obj
 0001:0004c480       CanCombineIntoEfo          1004d480 f   efo.obj
 0001:0004c8ac       CheckEfoTemplateTable      1004d8ac f   efo.obj
 0001:0004c968       CheckEfoTemplate           1004d968 f   efo.obj
 0001:0004d330       CheckEfoIReg               1004e330 f   efo.obj
 0001:0004d594       GetArg                     1004e594 f   efo.obj
 0001:0004d6c4       CombineIntoEfo             1004e6c4 f   efo.obj
 0001:0004dac4       GetNodeActivity            1004eac4 f   regalloc.obj
 0001:0004e30c       IntervalLessThan           1004f30c f   regalloc.obj
 0001:0004e6bc       RegIntvlFindPos            1004f6bc f   regalloc.obj
 0001:0004e840       RegListFindStart           1004f840 f   regalloc.obj
 0001:0004ee2c       AssignRegistersOffLine     1004fe2c f   regalloc.obj
 0001:0004eff4       AdjustBaseAddress          1004fff4 f   regalloc.obj
 0001:0004f23c       SetupSpillArea             1005023c f   regalloc.obj
 0001:0004f5ac       SetupSpillAreaBP           100505ac f   regalloc.obj
 0001:0004f8ac       AssignRegistersOffLineFuncGroup 100508ac f   regalloc.obj
 0001:000505b4       ColourToRegister           100515b4 f   regalloc.obj
 0001:000506f0       DoOnAllFuncGroupBasicBlocks 100516f0 f   regalloc.obj
 0001:000507c0       RegisterToNode             100517c0 f   regalloc.obj
 0001:0005087c       FreeRAGColState            1005187c f   regalloc.obj
 0001:000509d0       ClearRAData                100519d0 f   regalloc.obj
 0001:00050a2c       ResetRAGColState           10051a2c f   regalloc.obj
 0001:000517fc       AllocateRAGColState        100527fc f   regalloc.obj
 0001:0005191c       InitRAData                 1005291c f   regalloc.obj
 0001:00051958       FormOptRegGroupBP          10052958 f   regalloc.obj
 0001:00051bdc       RegisterGrouping           10052bdc f   regalloc.obj
 0001:000521f8       GetRegisterGroup           100531f8 f   regalloc.obj
 0001:000522dc       AddRegToInstGroup          100532dc f   regalloc.obj
 0001:00052a40       MakeRegisterGroup          10053a40 f   regalloc.obj
 0001:00052b24       ArgumentToNode             10053b24 f   regalloc.obj
 0001:00052cb8       GetFixedColour             10053cb8 f   regalloc.obj
 0001:00052d40       GetFixedRegister           10053d40 f   regalloc.obj
 0001:00052e80       RegIsNode                  10053e80 f   regalloc.obj
 0001:00052fe4       CompatibleInstructionModes 10053fe4 f   regalloc.obj
 0001:0005326c       SpillPlainNodes            1005426c f   regalloc.obj
 0001:000534cc       NodeToRegister             100544cc f   regalloc.obj
 0001:00053604       FindBestSpillNode          10054604 f   regalloc.obj
 0001:0005384c       GetFirstMandatoryNodeInGroup 1005484c f   regalloc.obj
 0001:000538a8       SpillRegistersBP           100548a8 f   regalloc.obj
 0001:000539bc       SpillEntireGroup           100549bc f   regalloc.obj
 0001:00053b48       SpillRegisterGroup         10054b48 f   regalloc.obj
 0001:00053ff4       SpillInternalRegisters     10054ff4 f   regalloc.obj
 0001:00054040       SpillInternalRegisters_NonVec 10055040 f   regalloc.obj
 0001:000541e0       GetSpillTempRegister       100551e0 f   regalloc.obj
 0001:00054234       SpillInternalRegister      10055234 f   regalloc.obj
 0001:000543a4       MakeInternalRegisterCopyInst 100553a4 f   regalloc.obj
 0001:000544e0       SaveInternalRegisterWChannel 100554e0 f   regalloc.obj
 0001:00054604       RestoreInternalRegisterWChannel 10055604 f   regalloc.obj
 0001:00054744       SpillReferencesInInst      10055744 f   regalloc.obj
 0001:00054ba4       InsertSpill                10055ba4 f   regalloc.obj
 0001:00054e44       SetSpillAddress            10055e44 f   regalloc.obj
 0001:00054f88       AllocateSpillSpace         10055f88 f   regalloc.obj
 0001:000553e8       AddSecAttrWithMemoryOffset 100563e8 f   regalloc.obj
 0001:000554dc       GetEarliestInst            100564dc f   regalloc.obj
 0001:000555d0       AppendToSpillList          100565d0 f   regalloc.obj
 0001:000556cc       PrepRegState               100566cc f   regalloc.obj
 0001:0005591c       FlagC10NodesBP             1005691c f   regalloc.obj
 0001:00055980       FlagC10NodesInst           10056980 f   regalloc.obj
 0001:00055aa0       FlagC10NodesArg            10056aa0 f   regalloc.obj
 0001:00055c54       IndexedArgumentToNodeRange 10056c54 f   regalloc.obj
 0001:00055dc4       ConstructInterferenceGraphBP 10056dc4 f   regalloc.obj
 0001:0005626c       ConstructInterferenceGraphForInst 1005726c f   regalloc.obj
 0001:00056710       UpdateInterferenceGraph    10057710 f   regalloc.obj
 0001:000568b4       AddEdge                    100578b4 f   regalloc.obj
 0001:00056a38       MakeInterfereWithAllPAs    10057a38 f   regalloc.obj
 0001:00056b78       MakeInterfereWithAllOutputRegs 10057b78 f   regalloc.obj
 0001:00056cbc       ConstructInterferenceGraphForImmTemps 10057cbc f   regalloc.obj
 0001:00056ea8       UpdateInterferenceGraphForSrc 10057ea8 f   regalloc.obj
 0001:00056fb0       UpdateInterferenceGraphForArgument 10057fb0 f   regalloc.obj
 0001:00057154       AddEdgeForAllDefs          10058154 f   regalloc.obj
 0001:00057210       GetDefList                 10058210 f   regalloc.obj
 0001:0005751c       GetCopySourceArgument      1005851c f   regalloc.obj
 0001:000575c8       ConstructInterferenceGraphForDestinations 100585c8 f   regalloc.obj
 0001:000577c0       AddDestRestrictions        100587c0 f   regalloc.obj
 0001:00057980       AddUSPTempsToInterferenceGraph 10058980 f   regalloc.obj
 0001:00057aa4       MakeRegisterGroupsReferenced 10058aa4 f   regalloc.obj
 0001:00057c30       AssignColours              10058c30 f   regalloc.obj
 0001:00058940       ColourToType               10059940 f   regalloc.obj
 0001:000589b4       RemoveFromGraph            100599b4 f   regalloc.obj
 0001:00058c78       SetNodeColour              10059c78 f   regalloc.obj
 0001:00058d5c       InsertNode                 10059d5c f   regalloc.obj
 0001:00059070       SimplifyGraph              1005a070 f   regalloc.obj
 0001:000591d0       ColourNode                 1005a1d0 f   regalloc.obj
 0001:00059874       ReserveNodeColour          1005a874 f   regalloc.obj
 0001:000598b0       CheckAlignmentRestrictionsOnColour 1005a8b0 f   regalloc.obj
 0001:000599b8       ClearConflictingReservations 1005a9b8 f   regalloc.obj
 0001:00059a90       CanNodeUseColour           1005aa90 f   regalloc.obj
 0001:00059c18       GetGroupStartAndSize       1005ac18 f   regalloc.obj
 0001:00059ce4       ColourNodeRange            1005ace4 f   regalloc.obj
 0001:00059f28       NodeHasMandatoryLinks      1005af28 f   regalloc.obj
 0001:00059fe4       DisconnectOptionalGroupParts 1005afe4 f   regalloc.obj
 0001:0005a0ec       ValidColourForRange        1005b0ec f   regalloc.obj
 0001:0005a1b8       SortRegsByDegree           1005b1b8 f   regalloc.obj
 0001:0005a3e8       NodeCmp                    1005b3e8 f   regalloc.obj
 0001:0005a590       SpillFixedTypeShaderOutput 1005b590 f   regalloc.obj
 0001:0005a790       ColourFixedRegister        1005b790 f   regalloc.obj
 0001:0005aa88       PrecolourFixedRegToDummy   1005ba88 f   regalloc.obj
 0001:0005ab38       PrecolourNode              1005bb38 f   regalloc.obj
 0001:0005ae8c       ArgumentToColour           1005be8c f   regalloc.obj
 0001:0005b070       SpillPrecolouredNode       1005c070 f   regalloc.obj
 0001:0005b390       InsertShaderEndMOV         1005c390 f   regalloc.obj
 0001:0005b7ec       IsUnusedAlternateOutput    1005c7ec f   regalloc.obj
 0001:0005b934       RenameReg                  1005c934 f   regalloc.obj
 0001:0005bbac       RenameRegistersBP          1005cbac f   regalloc.obj
 0001:0005c330       RenameArg                  1005d330 f   regalloc.obj
 0001:0005c358       DropInst                   1005d358 f   regalloc.obj
 0001:0005c3c8       CoalesceRegistersForMOVsBP 1005d3c8 f   regalloc.obj
 0001:0005c5dc       IsMOV                      1005d5dc f   regalloc.obj
 0001:0005c70c       TryCoalesceArguments       1005d70c f   regalloc.obj
 0001:0005c8a4       IsCoalescableRegister      1005d8a4 f   regalloc.obj
 0001:0005c914       CoalesceGroups             1005d914 f   regalloc.obj
 0001:0005cd54       CoalesceGroupElement       1005dd54 f   regalloc.obj
 0001:0005cf6c       CoalesceRegister           1005df6c f   regalloc.obj
 0001:0005d158       RemoveEdge                 1005e158 f   regalloc.obj
 0001:0005d370       ReplaceRegisterInsts       1005e370 f   regalloc.obj
 0001:0005d524       MarkRegisterAsShaderResult 1005e524 f   regalloc.obj
 0001:0005d644       UpdateLiveChansInDestAfterCoalesce 1005e644 f   regalloc.obj
 0001:0005d7d8       GetNewLiveChansInDest      1005e7d8 f   regalloc.obj
 0001:0005da40       CoalesceFixedTypeVariable  1005ea40 f   regalloc.obj
 0001:0005dcc8       CanCoalesceGroups          1005ecc8 f   regalloc.obj
 0001:0005e160       IsNonTemporaryNode         1005f160 f   regalloc.obj
 0001:0005e1ac       IsAfter                    1005f1ac f   regalloc.obj
 0001:0005e210       TryCoalesceRegisters       1005f210 f   regalloc.obj
 0001:0005e2c0       ConvertMOVToPCKBP          1005f2c0 f   regalloc.obj
 0001:0005e508       ConvertPCKToMOV            1005f508 f   regalloc.obj
 0001:0005e644       RenameSAProgResult         1005f644 f   regalloc.obj
 0001:0005e808       RenameSecondaryAttributes  1005f808 f   regalloc.obj
 0001:0005eadc       RenameSecondaryAttribute   1005fadc f   regalloc.obj
 0001:0005ede4       UpdateSecondaryAttributeCount 1005fde4 f   regalloc.obj
 0001:0005ef40       PreRegisterAllocationExpansions 1005ff40 f   regalloc.obj
 0001:0005efe8       ExpandDeltaInstructions    1005ffe8 f   regalloc.obj
 0001:0005f3d0       ExpandMasksBP              100603d0 f   regalloc.obj
 0001:0005f43c       ExpandMasksGroupCB         1006043c f   regalloc.obj
 0001:0005fbb8       ConvertPartialMoveToSOP2   10060bb8 f   regalloc.obj
 0001:00060158       HandlePCKMask              10061158 f   regalloc.obj
 0001:00060790       CreateMaskCopyInsts        10061790 f   regalloc.obj
 0001:00060908       CreateMoveForMask          10061908 f   regalloc.obj
 0001:00060a38       UpdateMaskedInstArguments  10061a38 f   regalloc.obj
 0001:00060b28       InsertMaskMoveInst         10061b28 f   regalloc.obj
 0001:00060bfc       ReplacePartialDestSources  10061bfc f   regalloc.obj
 0001:00060fa0       ExpandFeedbackDriverEpilog 10061fa0 f   regalloc.obj
 0001:00061828       CopyFunctionInputs         10062828 f   ssa.obj
 0001:00061a94       CopyFunctionOutputs        10062a94 f   ssa.obj
 0001:0006267c       FreeVarData                1006367c f   ssa.obj
 0001:00062724       SetupDefSites              10063724 f   ssa.obj
 0001:000628cc       CalculateDefSitesBP        100638cc f   ssa.obj
 0001:00062d90       InsertBlocksBeforeNonMergableBlocks 10063d90 f   ssa.obj
 0001:00062ef4       ValueNumberingFunc         10063ef4 f   ssa.obj
 0001:000632ec       ComputeNodeDominanceFrontier 100642ec f   ssa.obj
 0001:000635c4       AddToFrontier              100645c4 f   ssa.obj
 0001:00063674       RenameBlock                10064674 f   ssa.obj
 0001:00063f84       RenameSrc                  10064f84 f   ssa.obj
 0001:000640dc       GetNewName                 100650dc f   ssa.obj
 0001:000642b0       PushRename                 100652b0 f   ssa.obj
 0001:00064358       RenameInstSrc              10065358 f   ssa.obj
 0001:00064400       RenameDest                 10065400 f   ssa.obj
 0001:000645dc       RenameFunctionOutputs      100655dc f   ssa.obj
 0001:00064694       RenameFunctionInputs       10065694 f   ssa.obj
 0001:0006475c       RenameFixedRegs            1006575c f   ssa.obj
 0001:000649e0       InsertDelta                100659e0 f   ssa.obj
 0001:00064d20       FreeVars                   10065d20 f   ssa.obj
 0001:00064d9c       SubstituteConstantCallParameters 10065d9c f   ssa.obj
 0001:00064df4       SubstituteConstantCallParametersFunc 10065df4 f   ssa.obj
 0001:00065390       SetArgumentArrayForFunction 10066390 f   ssa.obj
 0001:00065458       UpdateFuncUseDefSetBP      10066458 f   ssa.obj
 0001:00065678       UpdateFuncUseSetSrc        10066678 f   ssa.obj
 0001:000656c4       UpdateFuncUseSet           100666c4 f   ssa.obj
 0001:0006571c       SetupFunctionInOuts        1006671c f   ssa.obj
 0001:00065924       CopyLiveRegisters          10066924 f   ssa.obj
 0001:00065c2c       Src0AliasesDest            10066c2c f   groupinst.obj
 0001:00065d24       HasMOEDest                 10066d24 f   groupinst.obj
 0001:00065d74       GetMOEDestIdx              10066d74 f   groupinst.obj
 0001:00065e2c       RemapMoeArg                10066e2c f   groupinst.obj
 0001:00066200       SaveRegNumsBP              10067200 f   groupinst.obj
 0001:000663cc       FreeGroupInstState         100673cc f   groupinst.obj
 0001:0006641c       InitGroupInstState         1006741c f   groupinst.obj
 0001:00066524       GenerateDotProdBP          10067524 f   groupinst.obj
 0001:00066650       GenerateDotProducts        10067650 f   groupinst.obj
 0001:00066718       GenerateFDP                10067718 f   groupinst.obj
 0001:00066e2c       CheckPossibleSwizzle       10067e2c f   groupinst.obj
 0001:00067144       GetMOERegisterNumber       10068144 f   groupinst.obj
 0001:00067248       EqualArgModes              10068248 f   groupinst.obj
 0001:000673cc       CopyArgumentToDP           100683cc f   groupinst.obj
 0001:00067428       CopyNegateAbsoluteModifierToFDP 10068428 f   groupinst.obj
 0001:000674e4       GenerateFDDP               100684e4 f   groupinst.obj
 0001:00067f74       IsDoubleDotProduct         10068f74 f   groupinst.obj
 0001:00068360       ExpandMacroInstruction     10069360 f   groupinst.obj
 0001:00068794       SetHardwareConst           10069794 f   groupinst.obj
 0001:000687c8       SetFloatHardwareConst      100697c8 f   groupinst.obj
 0001:00068870       SetFMAD16Constant          10069870 f   groupinst.obj
 0001:00068948       GenerateExtraDPCIteration  10069948 f   groupinst.obj
 0001:00068af8       OptimizePFlagCalc          10069af8 f   groupinst.obj
 0001:00068e84       MergeDPWithTest            10069e84 f   groupinst.obj
 0001:00069268       AdjustToMOEUnitsBP         1006a268 f   groupinst.obj
 0001:0006930c       AdjustToMOEUnitsInstArg    1006a30c f   groupinst.obj
 0001:000695f8       InsertSmlsi                1006a5f8 f   groupinst.obj
 0001:00069674       GroupInstructionsBasicBlock 1006a674 f   groupinst.obj
 0001:00069ab0       MoeToInst                  1006aab0 f   groupinst.obj
 0001:00069c8c       ResetMoeOpState            1006ac8c f   groupinst.obj
 0001:00069d34       UpdateSMLSISiteConstraints 1006ad34 f   groupinst.obj
 0001:0006a098       GetArgumentsAffectedByMOESwizzles 1006b098 f   groupinst.obj
 0001:0006a438       FreeRepeatGroup            1006b438 f   groupinst.obj
 0001:0006a460       AllocRepeatGroup           1006b460 f   groupinst.obj
 0001:0006a4c0       IsNonZeroSwizzle           1006b4c0 f   groupinst.obj
 0001:0006a560       GroupInstructions          1006b560 f   groupinst.obj
 0001:0006b3c4       AdjustRegisterNumbersForMOESwizzle 1006c3c4 f   groupinst.obj
 0001:0006b6d8       GetRegisterOffsetAtIteration 1006c6d8 f   groupinst.obj
 0001:0006b7a8       UpdateLiveChansInDest      1006c7a8 f   groupinst.obj
 0001:0006b968       UpdateLiveChansInDestForInst 1006c968 f   groupinst.obj
 0001:0006bcf4       RemapIncrements            1006ccf4 f   groupinst.obj
 0001:0006c0a0       IsReplicatedHardwareConstant 1006d0a0 f   groupinst.obj
 0001:0006c1b8       IsMOEStateCompatibleWithInstructionRange 1006d1b8 f   groupinst.obj
 0001:0006c354       CheckIncrements            1006d354 f   groupinst.obj
 0001:0006c59c       CheckExistingMoeState      1006d59c f   groupinst.obj
 0001:0006c8d8       EqualMoeData               1006d8d8 f   groupinst.obj
 0001:0006ca38       NeedSMSLIForDPDestination  1006da38 f   groupinst.obj
 0001:0006cb24       SwitchToRepeatMask         1006db24 f   groupinst.obj
 0001:0006cf5c       SwitchToRepeatSpecialConstArg 1006df5c f   groupinst.obj
 0001:0006d010       SwitchToRepeatArg          1006e010 f   groupinst.obj
 0001:0006d16c       FindPotentialGroup         1006e16c f   groupinst.obj
 0001:0006d4b8       TryAddToGroup              1006e4b8 f   groupinst.obj
 0001:0006dc34       CheckArg                   1006ec34 f   groupinst.obj
 0001:0006e024       ConvertIncrementToSwizzle  1006f024 f   groupinst.obj
 0001:0006e1e8       CheckArgSwizzleMode        1006f1e8 f   groupinst.obj
 0001:0006e4cc       CheckPredicateSource       1006f4cc f   groupinst.obj
 0001:0006e64c       GetPredicateNumber         1006f64c f   groupinst.obj
 0001:0006e6dc       GetDotProductMOEState      1006f6dc f   groupinst.obj
 0001:0006e890       RecordSmlsiStateForBlock   1006f890 f   groupinst.obj
 0001:0006e90c       DoMOEPass                  1006f90c f   groupinst.obj
 0001:0006ec2c       DoGroupInsts               1006fc2c f   groupinst.obj
 0001:0006ed9c       GroupInstsDF               1006fd9c f   groupinst.obj
 0001:0006f394       SMLSI_ProcessFuncEnd       10070394 f   groupinst.obj
 0001:0006f5a4       SMLSI_Merge                100705a4 f   groupinst.obj
 0001:0006f678       SMLSI_SetDefault           10070678 f   groupinst.obj
 0001:0006f690       InsertSmbo                 10070690 f   groupinst.obj
 0001:0006f70c       CheckBaseOffsetBasicBlock  1007070c f   groupinst.obj
 0001:0006f7a4       CheckBaseOffset            100707a4 f   groupinst.obj
 0001:0006fee4       GetBaseOffsetRange         10070ee4 f   groupinst.obj
 0001:000703b0       GetMaxAddressableRegNum    100713b0 f   groupinst.obj
 0001:00070514       InstUsesFormatControl      10071514 f   groupinst.obj
 0001:00070670       AdjustArgumentByBaseOffset 10071670 f   groupinst.obj
 0001:00070718       RecordSmboStateForBlock    10071718 f   groupinst.obj
 0001:00070790       SMBO_SetDefault            10071790 f   groupinst.obj
 0001:00070814       SMBO_Merge                 10071814 f   groupinst.obj
 0001:000708e0       SMBO_ProcessFuncEnd        100718e0 f   groupinst.obj
 0001:00070b14       InsertSetfc                10071b14 f   groupinst.obj
 0001:00070d08       InsertSetfcInstruction     10071d08 f   groupinst.obj
 0001:00070ec0       SearchFormatControlBP      10071ec0 f   groupinst.obj
 0001:00071004       GetFormatControlRequirements 10072004 f   groupinst.obj
 0001:000711c0       GetArgumentFormatControlRequirements 100721c0 f   groupinst.obj
 0001:000712b8       CheckFormatControlBasicBlock 100722b8 f   groupinst.obj
 0001:00071350       CheckFormatControl         10072350 f   groupinst.obj
 0001:00071644       RecordSetfcStateForBlock   10072644 f   groupinst.obj
 0001:000716c0       SETFC_SetDefault           100726c0 f   groupinst.obj
 0001:000716fc       SETFC_Merge                100726fc f   groupinst.obj
 0001:000717a0       SETFC_ProcessFuncEnd       100727a0 f   groupinst.obj
 0001:000729c4       ConvertTempRegisterNumberC10 100739c4 f   icvt_c10.obj
 0001:00072a9c       SwizzleC10                 10073a9c f   icvt_c10.obj
 0001:00072c84       ConvertF32ImmediateToC10   10073c84 f   icvt_c10.obj
 0001:00072e94       ApplySourceModC10          10073e94 f   icvt_c10.obj
 0001:000736f0       GetIteratedValueC10        100746f0 f   icvt_c10.obj
 0001:00073bd8       LoadAlwaysFloatSourceC10   10074bd8 f   icvt_c10.obj
 0001:00073e10       LoadHwConstC10             10074e10 f   icvt_c10.obj
 0001:00074178       LoadHwConstU8              10075178 f   icvt_c10.obj
 0001:0007428c       LoadBackfaceC10            1007528c f   icvt_c10.obj
 0001:00074604       GetC10OrU8StaticConstant   10075604 f   icvt_c10.obj
 0001:00074888       ExpandAlignedConstantAccess 10075888 f   icvt_c10.obj
 0001:000748ec       ExpandUnalignedConstantAccess 100758ec f   icvt_c10.obj
 0001:00074c1c       ConvertC10ArgToU8          10075c1c f   icvt_c10.obj
 0001:00075d18       ConvertDataFromC10         10076d18 f   icvt_c10.obj
 0001:0007634c       ConvertU8ArgToC10          1007734c f   icvt_c10.obj
 0001:00076f70       ConvertScalarInstructionC10 10077f70 f   icvt_c10.obj
 0001:00077770       ConvertDestinationC10      10078770 f   icvt_c10.obj
 0001:0007795c       GetDestinationC10          1007895c f   icvt_c10.obj
 0001:00077ba8       GenerateDestModC10         10078ba8 f   icvt_c10.obj
 0001:000787a4       ConvertDotProductInstructionC10 100797a4 f   icvt_c10.obj
 0001:000793fc       ConvertFloatOnlyInstructionC10 1007a3fc f   icvt_c10.obj
 0001:000799cc       ConvertLrpInstructionC10   1007a9cc f   icvt_c10.obj
 0001:0007a1bc       ConvertMadInstructionC10   1007b1bc f   icvt_c10.obj
 0001:0007aad8       ConvertVectorTwoArgInstructionC10 1007bad8 f   icvt_c10.obj
 0001:0007b4d4       ConvertMovaInstructionC10  1007c4d4 f   icvt_c10.obj
 0001:0007b73c       ConvertComparisonInstructionC10 1007c73c f   icvt_c10.obj
 0001:0007c478       ConvertSamplerInstructionC10USCHW 1007d478 f   icvt_c10.obj
 0001:0007c66c       ApplyDestModC10            1007d66c f   icvt_c10.obj
 0001:0007c708       UnpackTextureC10           1007d708 f   icvt_c10.obj
 0001:0007c80c       ConvertTextureChannelC10   1007d80c f   icvt_c10.obj
 0001:0007c9c8       ConvertTextureChannelFromC10 1007d9c8 f   icvt_c10.obj
 0001:0007cbd0       UnpackU8Texture            1007dbd0 f   icvt_c10.obj
 0001:0007d284       IsIdentitySamplerSwizzle   1007e284 f   icvt_c10.obj
 0001:0007d398       ConvertSamplerInstructionC10USPBIN 1007e398 f   icvt_c10.obj
 0001:0007d994       ConvertMoveInstructionC10  1007e994 f   icvt_c10.obj
 0001:0007f1cc       ConvertSetpInstructionC10  100801cc f   icvt_c10.obj
 0001:0007f678       ConvertTexkillInstructionC10 10080678 f   icvt_c10.obj
 0001:0007f864       KillOneChannel             10080864 f   icvt_c10.obj
 0001:0007fc90       Generate32bitIntegerMul_Non545 10080c90 f   icvt_i32.obj
 0001:000800e8       Generate32bitIntegerMulNonNeg_Non545 100810e8 f   icvt_i32.obj
 0001:00080d6c       Generate32bitIntegerAdd_Non545 10081d6c f   icvt_i32.obj
 0001:00081804       Generate32bitIntegerMad_Non545 10082804 f   icvt_i32.obj
 0001:00082f88       GenerateSignResult         10083f88 f   icvt_i32.obj
 0001:00083044       GenerateOrTest             10084044 f   icvt_i32.obj
 0001:0008315c       GenerateIntMovc            1008415c f   icvt_i32.obj
 0001:00083be8       ConvertIntegerInstruction  10084be8 f   icvt_i32.obj
 0001:00084c8c       GenerateIntegerDivide_Non545 10085c8c f   icvt_i32.obj
 0001:0008540c       GenerateIntegerDividePostCheck_Non545 1008640c f   icvt_i32.obj
 0001:00086710       GenerateInt16Arithmetic    10087710 f   icvt_i32.obj
 0001:00086a38       ConvertMinMaxInstructionInt16 10087a38 f   icvt_i32.obj
 0001:00086bf8       GenerateInt16Comparison    10087bf8 f   icvt_i32.obj
 0001:00086d30       ConvertMinMaxInstructionInt32 10087d30 f   icvt_i32.obj
 0001:00086ec4       ConvertComparisonInstructionInt16 10087ec4 f   icvt_i32.obj
 0001:00086fac       ConvertComparisonInstructionInt32 10087fac f   icvt_i32.obj
 0001:0008723c       MoveTempToDestination      1008823c f   icvt_i32.obj
 0001:0008733c       ConvertFloatToIntegerConversion 1008833c f   icvt_i32.obj
 0001:0008749c       ConvertF32ConversionInstructionInt16 1008849c f   icvt_i32.obj
 0001:00087580       ConvertF32ConversionInstructionInt32 10088580 f   icvt_i32.obj
 0001:00087628       ConvertIntegerMOV          10088628 f   icvt_i32.obj
 0001:00087890       ConvertMovaIntInstruction  10088890 f   icvt_i32.obj
 0001:00088228       IsBetweenValidShaderOutputRanges 10089228 f   icvt_f32.obj
 0001:00089a64       GetPSOutputSource          1008aa64 f   icvt_f32.obj
 0001:00089b00       GetMiscSourceF32           1008ab00 f   icvt_f32.obj
 0001:0008aac8       StoreIntoSpecialDest       1008bac8 f   icvt_f32.obj
 0001:0008aee4       CreateComparisonF32        1008bee4 f   icvt_f32.obj
 0001:0008c3f0       ApplyMultiformatSourceMod  1008d3f0 f   icvt_f32.obj
 0001:0008c4f4       ApplySourceMod             1008d4f4 f   icvt_f32.obj
 0001:0008cc98       Extract10Or2BitUnsignedInt 1008dc98 f   icvt_f32.obj
 0001:0008d894       ConvertSamplerInstructionF32USCHW 1008e894 f   icvt_f32.obj
 0001:0008d920       UnpackTexture              1008e920 f   icvt_f32.obj
 0001:0008dbc4       ConvertSamplerInstructionF32USPBIN 1008ebc4 f   icvt_f32.obj
 0001:0008de10       MoveF32VectorToInputDest   1008ee10 f   icvt_f32.obj
 0001:0008f504       ConvertDotProductInstructionF32 10090504 f   icvt_f32.obj
 0001:0008fd44       ConvertVectorInstructionF32 10090d44 f   icvt_f32.obj
 0001:00090bc0       CopySourceModifiers        10091bc0 f   icvt_f32.obj
 0001:00090ed4       ConvertLoadBufferInstructionF32 10091ed4 f   icvt_f32.obj
 0001:00090f48       ConvertLogpInstructionF32  10091f48 f   icvt_f32.obj
 0001:000916b8       ConvertTexkillInstructionBit 100926b8 f   icvt_f32.obj
 0001:00091894       ConvertReformatInstructionF32 10092894 f   icvt_f32.obj
 0001:00091f58       ConvertInteger32ToF32      10092f58 f   icvt_f32.obj
 0001:00092f24       ConvertRelativeOffset      10093f24 f   icvt_core.obj
 0001:00092fe4       ConvertSourceRegisterToConstantOffset 10093fe4 f   icvt_core.obj
 0001:00093200       CompareRange               10094200 f   icvt_core.obj
 0001:000932cc       SortByAddress              100942cc f   icvt_core.obj
 0001:00093520       CheckForHwConst            10094520 f   icvt_core.obj
 0001:000941d8       NewVecArrayData            100951d8 f   icvt_core.obj
 0001:00094f38       LoadTextureState           10095f38 f   icvt_core.obj
 0001:00095604       EncodeTextureStateRegNum   10096604 f   icvt_core.obj
 0001:00095f0c       SetupTextureSampleParameters 10096f0c f   icvt_core.obj
 0001:00096c24       SelectTextureOutputFormat  10097c24 f   icvt_core.obj
 0001:0009732c       GetSampleRegisterFormat    1009832c f   icvt_core.obj
 0001:00097600       GetTextureResultCount      10098600 f   icvt_core.obj
 0001:00097bdc       CombineInputSwizzles       10098bdc f   icvt_core.obj
 0001:00097c88       ConvertSwizzleSelToChannelLocation 10098c88 f   icvt_core.obj
 0001:00097d3c       GetSampleInputParameters   10098d3c f   icvt_core.obj
 0001:00097ecc       GetSampleParametersSource  10098ecc f   icvt_core.obj
 0001:00097f58       EmitSampleDataInstruction  10098f58 f   icvt_core.obj
 0001:00098194       BaseEmitSampleInstructionWithState 10099194 f   icvt_core.obj
 0001:00098b88       CreateUSPSampleUnpackInstruction 10099b88 f   icvt_core.obj
 0001:00099348       GetUSPTextureSampleDestinationDetails 1009a348 f   icvt_core.obj
 0001:00099520       GenerateNonDependentTextureSampleUSP 1009a520 f   icvt_core.obj
 0001:0009a7bc       GetSourceConvertToU16      1009b7bc f   icvt_core.obj
 0001:0009b374       CmpFixedReg                1009c374 f   icvt_core.obj
 0001:0009bd78       BuildCFG                   1009cd78 f   icvt_core.obj
 0001:0009bf28       DoConvert                  1009cf28 f   icvt_core.obj
 0001:0009c83c       ConvertInstToIntermediate  1009d83c f   icvt_core.obj
 0001:0009cbdc       SearchBackwardsSetp        1009dbdc f   icvt_core.obj
 0001:0009ccf8       UFConstComp                1009dcf8 f   icvt_core.obj
 0001:0009d138       GetInputConst              1009e138 f   icvt_core.obj
 0001:0009d174       GetInputConstU             1009e174 f   icvt_core.obj
 0001:0009d3a4       UFRegIsConst               1009e3a4 f   icvt_core.obj
 0001:0009d4a8       DoFlowControlTest          1009e4a8 f   icvt_core.obj
 0001:0009e110       IsBooleanConstSet          1009f110 f   icvt_core.obj
 0001:0009e218       ConvertLoop                1009f218 f   icvt_core.obj
 0001:0009e7e8       AddD3DLoopProlog           1009f7e8 f   icvt_core.obj
 0001:0009ea5c       AddD3DLoopEpilog           1009fa5c f   icvt_core.obj
 0001:0009edd8       ConvertCall                1009fdd8 f   icvt_core.obj
 0001:0009f5a0       ConvertConditional         100a05a0 f   icvt_core.obj
 0001:0009f8ec       ConvertSwitch              100a08ec f   icvt_core.obj
 0001:0009ff9c       ConvertEmitInstruction     100a0f9c f   icvt_core.obj
 0001:000a09a4       ConvertCutInstruction      100a19a4 f   icvt_core.obj
 0001:000a1328       ConvertEmitCutInstruction  100a2328 f   icvt_core.obj
 0001:000a1374       ConvertSplitInstruction    100a2374 f   icvt_core.obj
 0001:000a14d4       ExpandRelativeIndexAndMacro 100a24d4 f   icvt_core.obj
 0001:000a17c8       ExpandMacro                100a27c8 f   icvt_core.obj
 0001:000a3204       RemapInputSwizzle          100a4204 f   icvt_core.obj
 0001:000a32f0       ExpandTRC                  100a42f0 f   icvt_core.obj
 0001:000a3688       ApplyAbsoluteModifier      100a4688 f   icvt_core.obj
 0001:000a36dc       ExpandRNE                  100a46dc f   icvt_core.obj
 0001:000a3ac4       BuildInputTempRegDest      100a4ac4 f   icvt_core.obj
 0001:000a3b34       BuildInputTempRegSrc       100a4b34 f   icvt_core.obj
 0001:000a3ba4       BuildInputImmediateSrc     100a4ba4 f   icvt_core.obj
 0001:000a3c10       ExpandCEIL                 100a4c10 f   icvt_core.obj
 0001:000a3e28       ExpandSLT_SGE              100a4e28 f   icvt_core.obj
 0001:000a3fe4       BuildInputHwConstSrc       100a4fe4 f   icvt_core.obj
 0001:000a4050       ExpandCND                  100a5050 f   icvt_core.obj
 0001:000a41ec       ExpandLIT                  100a51ec f   icvt_core.obj
 0001:000a4c34       BuildInputPredDest         100a5c34 f   icvt_core.obj
 0001:000a4ca4       BuildInputCompOp           100a5ca4 f   icvt_core.obj
 0001:000a4d10       BuildInputPredicate        100a5d10 f   icvt_core.obj
 0001:000a4d68       BuildInputFloatImmediateSrc 100a5d68 f   icvt_core.obj
 0001:000a4dd4       ExpandPOW                  100a5dd4 f   icvt_core.obj
 0001:000a5000       ExpandSUB                  100a6000 f   icvt_core.obj
 0001:000a506c       ExpandSINCOS2              100a606c f   icvt_core.obj
 0001:000a5940       MapAngleToMinusPiToPi      100a6940 f   icvt_core.obj
 0001:000a5b6c       ExpandSINCOS               100a6b6c f   icvt_core.obj
 0001:000a6240       LoadImmediateVector        100a7240 f   icvt_core.obj
 0001:000a630c       ExpandFloatDIV             100a730c f   icvt_core.obj
 0001:000a6484       ExpandInt16DIV             100a7484 f   icvt_core.obj
 0001:000a6cb8       ExpandIntegerDIV           100a7cb8 f   icvt_core.obj
 0001:000a7530       ExpandFLR                  100a8530 f   icvt_core.obj
 0001:000a757c       GenerateFloor              100a857c f   icvt_core.obj
 0001:000a76d0       ExpandEXPP                 100a86d0 f   icvt_core.obj
 0001:000a7aac       ExpandMOVA_TRC             100a8aac f   icvt_core.obj
 0001:000a7bc0       ExpandSGN                  100a8bc0 f   icvt_core.obj
 0001:000a7dd0       ExpandSGN_Int              100a8dd0 f   icvt_core.obj
 0001:000a8148       ExpandSQRT                 100a9148 f   icvt_core.obj
 0001:000a84ac       ExpandMOV                  100a94ac f   icvt_core.obj
 0001:000a86e0       MakeLRP                    100a96e0 f   icvt_core.obj
 0001:000a88bc       CopyInputTextureSample     100a98bc f   icvt_core.obj
 0001:000a8988       ExpandLDWithImmediateOffsets 100a9988 f   icvt_core.obj
 0001:000a96d8       GetTextureDimensionConstant 100aa6d8 f   icvt_core.obj
 0001:000a9884       BuildInputSrc              100aa884 f   icvt_core.obj
 0001:000a98f4       OffsetSampleCoordinates    100aa8f4 f   icvt_core.obj
 0001:000a99cc       SampleWithOffsetsAtMipMapLevel 100aa9cc f   icvt_core.obj
 0001:000a9c08       ExpandRelativeIndex        100aac08 f   icvt_core.obj
 0001:000aa078       IsChanAlreadyLoaded        100ab078 f   icvt_core.obj
 0001:000aa130       GetMaximumInputRegisterNumber 100ab130 f   icvt_core.obj
 0001:000aa4b0       GetDestinationWriteCount   100ab4b0 f   icvt_core.obj
 0001:000aa618       CheckConsistentRegFormats  100ab618 f   icvt_core.obj
 0001:000aaa44       IsIncompatibleFormat       100aba44 f   icvt_core.obj
 0001:000aab64       SetupVertexShaderOutputs   100abb64 f   icvt_core.obj
 0001:000aacb4       SetupVertexShaderInputs    100abcb4 f   icvt_core.obj
 0001:000aaf00       SetupPixelShader           100abf00 f   icvt_core.obj
 0001:000ab050       SetupIterations            100ac050 f   icvt_core.obj
 0001:000ab4c4       SetValidSahderOutputsData  100ac4c4 f   icvt_core.obj
 0001:000abc3c       FinalisePixelShaderIntermediateCode 100acc3c f   icvt_core.obj
 0001:000ac070       ConvertPixelShaderResults  100ad070 f   icvt_core.obj
 0001:000ac2bc       ConvertPixelShaderResult   100ad2bc f   icvt_core.obj
 0001:000ac690       SetScalarDest              100ad690 f   icvt_core.obj
 0001:000ac7a4       SetupPixelShaderFixedRegs  100ad7a4 f   icvt_core.obj
 0001:000acc4c       GetColourResultPhysicalLocation 100adc4c f   icvt_core.obj
 0001:000acd1c       AddColourResultFixedReg    100add1c f   icvt_core.obj
 0001:000ace3c       CountValidColourOutputChannels 100ade3c f   icvt_core.obj
 0001:000ad06c       SetupUnpackedColourOutput  100ae06c f   icvt_core.obj
 0001:000ad188       GenerateShaderMOV          100ae188 f   icvt_core.obj
 0001:000ad264       BuildInputDest             100ae264 f   icvt_core.obj
 0001:000ad2d4       FinaliseVertexShaderIntermediateCode 100ae2d4 f   icvt_core.obj
 0001:000ad3bc       GenerateShaderEndClamp     100ae3bc f   icvt_core.obj
 0001:000ad4ac       SetupVertexShaderFixedRegs 100ae4ac f   icvt_core.obj
 0001:000adacc       GetF16Source               100aeacc f   icvt_f16.obj
 0001:000ae434       GetIteratedValueF16        100af434 f   icvt_f16.obj
 0001:000ae8d8       ConvertTempRegisterNumberF16 100af8d8 f   icvt_f16.obj
 0001:000ae9bc       CopySourceModifiers        100af9bc f   icvt_f16.obj
 0001:000aea2c       GetF16StaticConstant       100afa2c f   icvt_f16.obj
 0001:000afc7c       GetDoubleSourceF16         100b0c7c f   icvt_f16.obj
 0001:000b09e0       GetF16StaticDoubleConst    100b19e0 f   icvt_f16.obj
 0001:000b12e0       ConvertScalarInstructionF16 100b22e0 f   icvt_f16.obj
 0001:000b1804       ConvertDestinationF16      100b2804 f   icvt_f16.obj
 0001:000b197c       GetDestinationF16          100b297c f   icvt_f16.obj
 0001:000b1b54       GenerateDestModF16         100b2b54 f   icvt_f16.obj
 0001:000b20fc       ConvertMadInstructionF16   100b30fc f   icvt_f16.obj
 0001:000b2910       ConvertF32OnlyInstructionF16 100b3910 f   icvt_f16.obj
 0001:000b3114       ConvertSamplerInstructionF16USCHW 100b4114 f   icvt_f16.obj
 0001:000b3220       UnpackTextureF16           100b4220 f   icvt_f16.obj
 0001:000b38ac       ConvertSamplerInstructionF16USPBIN 100b48ac f   icvt_f16.obj
 0001:000b3b90       MoveF16VectorToInputDest   100b4b90 f   icvt_f16.obj
 0001:000b3db0       ConvertMoveInstructionF16  100b4db0 f   icvt_f16.obj
 0001:000b43d4       ConvertComparisonInstructionF16 100b53d4 f   icvt_f16.obj
 0001:000b4b48       ConvertDotProductInstructionF16 100b5b48 f   icvt_f16.obj
 0001:000b5020       ConvertDot4InstructionF16  100b6020 f   icvt_f16.obj
 0001:000b5bc4       GetIndexNextRef            100b6bc4 f   indexreg.obj
 0001:000b5f68       FixInvalidIndices          100b6f68 f   indexreg.obj
 0001:000b5fd0       FixInvalidIndex            100b6fd0 f   indexreg.obj
 0001:000b60b8       FixIndexedDeltaArguments   100b70b8 f   indexreg.obj
 0001:000b6464       CheckAndFixIndex           100b7464 f   indexreg.obj
 0001:000b6614       GetArrayOffset             100b7614 f   indexreg.obj
 0001:000b668c       GetArrayPrecolouredOffset  100b768c f   indexreg.obj
 0001:000b6800       SetupAlignedIndex          100b7800 f   indexreg.obj
 0001:000b6b8c       GetMaximumIndexStaticOffset 100b7b8c f   indexreg.obj
 0001:000b6c1c       UsesFormatSelect           100b7c1c f   indexreg.obj
 0001:000b6d8c       FindMatchingIndexCopy      100b7d8c f   indexreg.obj
 0001:000b7078       UpdateCopyInsertPoint      100b8078 f   indexreg.obj
 0001:000b70d4       FixInvalidIndexStrideSource 100b80d4 f   indexreg.obj
 0001:000b7210       MoveIndexReference         100b8210 f   indexreg.obj
 0001:000b763c       SetSourceTempArg           100b863c f   indexreg.obj
 0001:000b7678       SetDestTempArg             100b8678 f   indexreg.obj
 0001:000b76b4       SetTempArg                 100b86b4 f   indexreg.obj
 0001:000b7760       FixInvalidIndexStrideSource_NonIDXSC 100b8760 f   indexreg.obj
 0001:000b79b8       SpansTwoRegisters          100b89b8 f   indexreg.obj
 0001:000b7a3c       ExpandSubcomponentRead_NonIDXSC 100b8a3c f   indexreg.obj
 0001:000b7dd4       GetIndexUnitsAtRefLog2     100b8dd4 f   indexreg.obj
 0001:000b7e44       FixPartiallyWrittenArrays  100b8e44 f   indexreg.obj
 0001:000b8158       RebaseIndexReferences      100b9158 f   indexreg.obj
 0001:000b8298       RebaseIndexReference       100b9298 f   indexreg.obj
 0001:000b849c       SetupIndexCopy             100b949c f   indexreg.obj
 0001:000b87cc       LoadImmediate              100b97cc f   indexreg.obj
 0001:000b8988       SetIndex                   100b9988 f   indexreg.obj
 0001:000b8ac4       SetIndexSource             100b9ac4 f   indexreg.obj
 0001:000b8b5c       SetupSubcomponentSelectIndex 100b9b5c f   indexreg.obj
 0001:000b8e5c       AssignHardwareIndexRegistersForInst 100b9e5c f   indexreg.obj
 0001:000b9214       SortByNextRefCB            100ba214 f   indexreg.obj
 0001:000b9300       GetNextRef                 100ba300 f   indexreg.obj
 0001:000b9394       AssignHardwareIndexRegistersArgument 100ba394 f   indexreg.obj
 0001:000b9948       MoveIndexReferences        100ba948 f   indexreg.obj
 0001:000b9a50       MoveIndexReferenceToMatchingStrideInst 100baa50 f   indexreg.obj
 0001:000b9c98       FinaliseIndexRef           100bac98 f   indexreg.obj
 0001:000ba00c       GetArrayLength             100bb00c f   indexreg.obj
 0001:000ba104       CmpIndexRef                100bb104 f   indexreg.obj
 0001:000ba2a0       FoldIndexRegisterWrite     100bb2a0 f   indexreg.obj
 0001:000ba4e8       IsSrc0Standard             100bb4e8 f   inst.obj
 0001:000ba534       IsSrc0Extended             100bb534 f   inst.obj
 0001:000ba580       IsSrc12Standard            100bb580 f   inst.obj
 0001:000ba5cc       IsSrc12Extended            100bb5cc f   inst.obj
 0001:000ba61c       IsImmediate                100bb61c f   inst.obj
 0001:000ba6b4       IsLink                     100bb6b4 f   inst.obj
 0001:000ba74c       IsDRC                      100bb74c f   inst.obj
 0001:000ba7e4       IsInternalOrUnused         100bb7e4 f   inst.obj
 0001:000ba888       IsTempOrPrimAttr           100bb888 f   inst.obj
 0001:000ba8f0       IsValidSETLSource          100bb8f0 f   inst.obj
 0001:000ba9dc       IsValidEFOSource           100bb9dc f   inst.obj
 0001:000baa80       IsValidMINorMAXSource0Bank 100bba80 f   inst.obj
 0001:000bab50       IsValidLMCDynamicOffsetBank 100bbb50 f   inst.obj
 0001:000babcc       IsValidTESTSource1         100bbbcc f   inst.obj
 0001:000bad44       CanUseUSPSampleDest        100bbd44 f   inst.obj
 0001:000badb4       CanUseExternalWBDest       100bbdb4 f   inst.obj
 0001:000bae18       CanUseEFODest              100bbe18 f   inst.obj
 0001:000baf28       CanUseSAVLDest             100bbf28 f   inst.obj
 0001:000bafb8       CanUseDELTADest            100bbfb8 f   inst.obj
 0001:000bb07c       CanUseIMAEDest             100bc07c f   inst.obj
 0001:000bb118       InitInstructionTypeNONE    100bc118 f   inst.obj
 0001:000bb138       InitInstructionTypeFLOAT   100bc138 f   inst.obj
 0001:000bb1a8       InitInstructionTypeEFO     100bc1a8 f   inst.obj
 0001:000bb29c       InitInstructionTypeSOPWM   100bc29c f   inst.obj
 0001:000bb30c       InitInstructionTypeSOP2    100bc30c f   inst.obj
 0001:000bb37c       InitInstructionTypeSOP3    100bc37c f   inst.obj
 0001:000bb3ec       InitInstructionTypeLRP1    100bc3ec f   inst.obj
 0001:000bb45c       InitInstructionTypeFPMA    100bc45c f   inst.obj
 0001:000bb4e4       InitInstructionTypeIMA32   100bc4e4 f   inst.obj
 0001:000bb584       InitInstructionTypeSMP     100bc584 f   inst.obj
 0001:000bb64c       InitInstructionTypeSMPUNPACK 100bc64c f   inst.obj
 0001:000bb714       InitInstructionTypeDOT34   100bc714 f   inst.obj
 0001:000bb784       InitInstructionTypeDPC     100bc784 f   inst.obj
 0001:000bb7f4       InitInstructionTypeLDST    100bc7f4 f   inst.obj
 0001:000bb8c0       InitInstructionTypeLOADCONST 100bc8c0 f   inst.obj
 0001:000bb930       InitInstructionTypeLOADMEMCONST 100bc930 f   inst.obj
 0001:000bb9d0       InitInstructionTypeIMA16   100bc9d0 f   inst.obj
 0001:000bba3c       InitInstructionTypeIMAE    100bca3c f   inst.obj
 0001:000bbb58       InitInstructionTypeCALL    100bcb58 f   inst.obj
 0001:000bbc44       InitInstructionTypeEMIT    100bcc44 f   inst.obj
 0001:000bbc6c       InitInstructionTypeTEST    100bcc6c f   inst.obj
 0001:000bbcdc       InitInstructionTypeMOVC    100bccdc f   inst.obj
 0001:000bbd48       InitInstructionTypeFARITH16 100bcd48 f   inst.obj
 0001:000bbe10       InitInstructionTypeMEMSPILL 100bce10 f   inst.obj
 0001:000bbe94       InitInstructionTypeCVTFLT2INT 100bce94 f   inst.obj
 0001:000bbeec       InitInstructionTypePCK     100bceec f   inst.obj
 0001:000bbf5c       InitInstructionTypeLDSTARR 100bcf5c f   inst.obj
 0001:000bc010       InitInstructionTypeFDOTPRODUCT 100bd010 f   inst.obj
 0001:000bc080       InitInstructionTypeDELTA   100bd080 f   inst.obj
 0001:000bc13c       InitInstructionTypeMOVP    100bd13c f   inst.obj
 0001:000bc1a8       InitInstructionTypeFEEDBACKDRIVEREPILOG 100bd1a8 f   inst.obj
 0001:000bc22c       InitInstructionTypeBITWISE 100bd22c f   inst.obj
 0001:000bc298       InitInstructionTypeUNDEF   100bd298 f   inst.obj
 0001:000bc2e0       ClearInstructionTypeNONE   100bd2e0 f   inst.obj
 0001:000bc310       ClearInstructionTypeFLOAT  100bd310 f   inst.obj
 0001:000bc340       ClearInstructionTypeEFO    100bd340 f   inst.obj
 0001:000bc370       ClearInstructionTypeSOPWM  100bd370 f   inst.obj
 0001:000bc3a0       ClearInstructionTypeSOP2   100bd3a0 f   inst.obj
 0001:000bc3d0       ClearInstructionTypeSOP3   100bd3d0 f   inst.obj
 0001:000bc400       ClearInstructionTypeLRP1   100bd400 f   inst.obj
 0001:000bc430       ClearInstructionTypeFPMA   100bd430 f   inst.obj
 0001:000bc460       ClearInstructionTypeIMA32  100bd460 f   inst.obj
 0001:000bc490       ClearInstructionTypeSMP    100bd490 f   inst.obj
 0001:000bc57c       ClearInstructionTypeSMPUNPACK 100bd57c f   inst.obj
 0001:000bc644       ClearInstructionTypeDOT34  100bd644 f   inst.obj
 0001:000bc674       ClearInstructionTypeDPC    100bd674 f   inst.obj
 0001:000bc6a4       ClearInstructionTypeLDST   100bd6a4 f   inst.obj
 0001:000bc6d4       ClearInstructionTypeLOADCONST 100bd6d4 f   inst.obj
 0001:000bc754       ClearInstructionTypeLOADMEMCONST 100bd754 f   inst.obj
 0001:000bc784       ClearInstructionTypeIMA16  100bd784 f   inst.obj
 0001:000bc7b4       ClearInstructionTypeIMAE   100bd7b4 f   inst.obj
 0001:000bc7e4       ClearInstructionTypeCALL   100bd7e4 f   inst.obj
 0001:000bca00       ClearInstructionTypeEMIT   100bda00 f   inst.obj
 0001:000bca20       ClearInstructionTypeTEST   100bda20 f   inst.obj
 0001:000bca50       ClearInstructionTypeMOVC   100bda50 f   inst.obj
 0001:000bca80       ClearInstructionTypeFARITH16 100bda80 f   inst.obj
 0001:000bcab0       ClearInstructionTypeMEMSPILL 100bdab0 f   inst.obj
 0001:000bcae0       ClearInstructionTypeCVTFLT2INT 100bdae0 f   inst.obj
 0001:000bcb10       ClearInstructionTypePCK    100bdb10 f   inst.obj
 0001:000bcb40       ClearInstructionTypeLDSTARR 100bdb40 f   inst.obj
 0001:000bcb70       ClearInstructionTypeFDOTPRODUCT 100bdb70 f   inst.obj
 0001:000bcba0       ClearInstructionTypeDELTA  100bdba0 f   inst.obj
 0001:000bcc5c       ClearInstructionTypeMOVP   100bdc5c f   inst.obj
 0001:000bcc8c       ClearInstructionTypeFEEDBACKDRIVEREPILOG 100bdc8c f   inst.obj
 0001:000bccbc       ClearInstructionTypeBITWISE 100bdcbc f   inst.obj
 0001:000bccec       ClearInstructionTypeUNDEF  100bdcec f   inst.obj
 0001:000bcd34       CompareInstParametersTypeNONE 100bdd34 f   inst.obj
 0001:000bcd70       CompareInstParametersTypeUNDEF 100bdd70 f   inst.obj
 0001:000bcdc0       CompareInstParametersTypeFLOAT 100bddc0 f   inst.obj
 0001:000bce74       CompareFloatSourceModifiers 100bde74 f   inst.obj
 0001:000bcf24       CompareFloatSourceModifier 100bdf24 f   inst.obj
 0001:000bd004       CompareInstParametersTypeEFO 100be004 f   inst.obj
 0001:000bd3d4       CompareInstParametersTypeSOPWM 100be3d4 f   inst.obj
 0001:000bd5ec       CompareInstParametersTypeSOP2 100be5ec f   inst.obj
 0001:000bd958       CompareInstParametersTypeSOP3 100be958 f   inst.obj
 0001:000bdd08       CompareInstParametersTypeLRP1 100bed08 f   inst.obj
 0001:000bdfec       CompareInstParametersTypeFPMA 100befec f   inst.obj
 0001:000be314       CompareInstParametersTypeIMA32 100bf314 f   inst.obj
 0001:000be364       CompareInstParametersTypeSMP 100bf364 f   inst.obj
 0001:000be4f4       CompareInstParametersTypeDOT34 100bf4f4 f   inst.obj
 0001:000be5fc       CompareInstParametersTypeDPC 100bf5fc f   inst.obj
 0001:000be6a4       CompareInstParametersTypeLDST 100bf6a4 f   inst.obj
 0001:000be8bc       CompareInstParametersTypeLOADCONST 100bf8bc f   inst.obj
 0001:000bec64       CompareInstParametersTypeIMA16 100bfc64 f   inst.obj
 0001:000becb0       CompareInstParametersTypeIMAE 100bfcb0 f   inst.obj
 0001:000bee00       CompareInstParametersTypeCALL 100bfe00 f   inst.obj
 0001:000bee50       CompareInstParametersTypeEMIT 100bfe50 f   inst.obj
 0001:000bee94       CompareInstParametersTypeTEST 100bfe94 f   inst.obj
 0001:000bf010       CompareInstParametersTypeMOVP 100c0010 f   inst.obj
 0001:000bf05c       CompareInstParametersTypeBITWISE 100c005c f   inst.obj
 0001:000bf0a8       CompareInstParametersTypeMOVC 100c00a8 f   inst.obj
 0001:000bf128       CompareInstParametersTypeFARITH16 100c0128 f   inst.obj
 0001:000bf258       CompareInstParametersTypeMEMSPILL 100c0258 f   inst.obj
 0001:000bf2a4       CompareInstParametersTypeCVTFLT2INT 100c02a4 f   inst.obj
 0001:000bf2f0       CompareInstParametersTypePCK 100c02f0 f   inst.obj
 0001:000bf41c       CompareInstParametersTypeLDSTARR 100c041c f   inst.obj
 0001:000bf5ac       CompareInstParametersTypeFDOTPRODUCT 100c05ac f   inst.obj
 0001:000bf874       CompareInstParametersTypeDELTA 100c0874 f   inst.obj
 0001:000bf8b0       CompareInstParametersTypeSMPUNPACK 100c08b0 f   inst.obj
 0001:000bf994       CompareInstParametersTypeFEEDBACKDRIVEREPILOG 100c0994 f   inst.obj
 0001:000bfc30       ProcessTextureSampleSourceRegisterGroups 100c0c30 f   inst.obj
 0001:000bfee0       ProcessUspSampleUnpackSourceRegisterGroups 100c0ee0 f   inst.obj
 0001:000c0238       ProcessUSPSMPDestRegisterGroups 100c1238 f   inst.obj
 0001:000c0fac       IsSrc0ExtendedBanks        100c1fac f   inst.obj
 0001:000c1104       IsSrc12ExtendedBanks       100c2104 f   inst.obj
 0001:000c1140       CanUseSmpSrc               100c2140 f   inst.obj
 0001:000c1bfc       IsRotatedImmediateInRange  100c2bfc f   inst.obj
 0001:000c1f14       ClearInst                  100c2f14 f   inst.obj
 0001:000c27b8       InitInst                   100c37b8 f   inst.obj
 0001:000c4608       IsUniformTemp              100c5608 f   inst.obj
 0001:000c4c8c       GetIMAEComponent           100c5c8c f   inst.obj
 0001:000c58e0       CopySrcModifiers           100c68e0 f   inst.obj
 0001:000c62e8       SwapFloatSourceModifiers   100c72e8 f   inst.obj
 0001:000c7e14       InstAssignedHardwareRegisters 100c8e14 f   inst.obj
 0001:000c8cd0       ClearSrc                   100c9cd0 f   inst.obj
 0001:000c8e58       SetArgIndex                100c9e58 f   inst.obj
 0001:000c95f4       ClearDest                  100ca5f4 f   inst.obj
 0001:000c9e20       SetArrayDest               100cae20 f   inst.obj
 0001:000ca2cc       AddAlphaSwizzleC10Constant 100cb2cc f   intcvt.obj
 0001:000ca720       IsSOP3MultiplyAdd          100cb720 f   intcvt.obj
 0001:000ca960       IsSOP3Interpolate          100cb960 f   intcvt.obj
 0001:000cac4c       CommuteSOP3Sources_MAD     100cbc4c f   intcvt.obj
 0001:000cad30       CommuteSOP3Sources_LRP     100cbd30 f   intcvt.obj
 0001:000cb444       NormaliseIntegerInstructions 100cc444 f   intcvt.obj
 0001:000cc214       SOPWMToMove                100cd214 f   intcvt.obj
 0001:000cc334       DropRedundantMinMax        100cd334 f   intcvt.obj
 0001:000cc7ac       ReducePCKToMove            100cd7ac f   intcvt.obj
 0001:000cc9f8       AllChannelsTheSameInSource 100cd9f8 f   intcvt.obj
 0001:000ccab0       ConvertPartialDestToSrc    100cdab0 f   intcvt.obj
 0001:000ccff0       EliminateIntegerMoves      100cdff0 f   intcvt.obj
 0001:000cd99c       IsSOPWMSub                 100ce99c f   intcvt.obj
 0001:000cda80       GlobalSubstComplement      100cea80 f   intcvt.obj
 0001:000cdeb8       GlobalReplaceIntegerComponentMoveArguments 100ceeb8 f   intcvt.obj
 0001:000ce0a4       CheckIntegerComponentMoveBanks 100cf0a4 f   intcvt.obj
 0001:000ce3e0       CheckIntegerComponentMoveFormat 100cf3e0 f   intcvt.obj
 0001:000ce6b8       CheckIntegerComponentMoveFormat_ComplexOp 100cf6b8 f   intcvt.obj
 0001:000ce9d8       CheckIntegerComponentMoveFormat_PCK 100cf9d8 f   intcvt.obj
 0001:000cedb0       CheckIntegerComponentMoveFormat_COMBC10 100cfdb0 f   intcvt.obj
 0001:000ceef8       CheckIntegerComponentMoveFormat_TEST 100cfef8 f   intcvt.obj
 0001:000cf500       CheckIntegerComponentMoveFormat_INTARITH 100d0500 f   intcvt.obj
 0001:000cf8b4       EliminateAlphaSwizzleReplace 100d08b4 f   intcvt.obj
 0001:000d00c4       GenerateMoveForMaskedDest  100d10c4 f   intcvt.obj
 0001:000d01bc       IntegerPeepholeOptimize    100d11bc f   intcvt.obj
 0001:000d02d8       CombineSharedDestInstructions 100d12d8 f   intcvt.obj
 0001:000d18ac       IsRGBClear                 100d28ac f   intcvt.obj
 0001:000d19b4       IsAlphaMultiply            100d29b4 f   intcvt.obj
 0001:000d1b14       CombineDifferentSrcFmtPacks 100d2b14 f   intcvt.obj
 0001:000d1f4c       SetConstantOne             100d2f4c f   intcvt.obj
 0001:000d204c       IsConstantOne              100d304c f   intcvt.obj
 0001:000d218c       CombineSopwms              100d318c f   intcvt.obj
 0001:000d29f4       CombineSopwmsMatchingArgsIntoSop2 100d39f4 f   intcvt.obj
 0001:000d2cd4       SwapArgsInSrcSel           100d3cd4 f   intcvt.obj
 0001:000d2df4       SelectAlphaInSrcSel        100d3df4 f   intcvt.obj
 0001:000d2ea4       CombineSopwmsWithSpareArgIntoSop2 100d3ea4 f   intcvt.obj
 0001:000d30fc       CombineMulMulToSOP3        100d40fc f   intcvt.obj
 0001:000d360c       CombineAddMovToSOP3        100d460c f   intcvt.obj
 0001:000d396c       IsSOPWMAdd                 100d496c f   intcvt.obj
 0001:000d3a50       CombineMulMovToLRP1        100d4a50 f   intcvt.obj
 0001:000d3c5c       IsLRP1Mul                  100d4c5c f   intcvt.obj
 0001:000d3d40       ConvertMulMovToLRP1        100d4d40 f   intcvt.obj
 0001:000d3f74       CombineMOVSOPWM            100d4f74 f   intcvt.obj
 0001:000d434c       ConvertPackToMove          100d534c f   intcvt.obj
 0001:000d45a8       CombineSOPWMMOVToSOP2      100d55a8 f   intcvt.obj
 0001:000d4920       CombineMOVMOVToSOP2        100d5920 f   intcvt.obj
 0001:000d4c60       IsFPMove                   100d5c60 f   intcvt.obj
 0001:000d4d90       CombinePacksToU8C10        100d5d90 f   intcvt.obj
 0001:000d5a1c       OptimizeDependentIntegerInstructions 100d6a1c f   intcvt.obj
 0001:000d5efc       CombineFormatConvertSetConst 100d6efc f   intcvt.obj
 0001:000d6230       RemoveRedundantConversion  100d7230 f   intcvt.obj
 0001:000d6708       CombineSOPWMMulSOPWMDouble 100d7708 f   intcvt.obj
 0001:000d6878       IsResultSaturated          100d7878 f   intcvt.obj
 0001:000d68fc       CombineMulMovSrcToLRP1     100d78fc f   intcvt.obj
 0001:000d69f4       CombineAlphaRGBMoveMultiply 100d79f4 f   intcvt.obj
 0001:000d6dec       CombineIntMulAdd           100d7dec f   intcvt.obj
 0001:000d79d8       FoldC10Combine             100d89d8 f   intcvt.obj
 0001:000d7f20       CombineSOPWMSOP2Move       100d8f20 f   intcvt.obj
 0001:000d83b0       CombineSOP2MoveSOPWMMultiply 100d93b0 f   intcvt.obj
 0001:000d87b4       CheckForScale              100d97b4 f   intcvt.obj
 0001:000d8db8       ConvertUnpacksToO8         100d9db8 f   intcvt.obj
 0001:000d9068       ConvertUnpackInstToO8      100da068 f   intcvt.obj
 0001:000d9268       ConvertMinMaxToFormatConvert 100da268 f   intcvt.obj
 0001:000d954c       CheckIntegerMaxMin         100da54c f   intcvt.obj
 0001:000d973c       FoldDestFormatConversion   100da73c f   intcvt.obj
 0001:000d998c       CombineFormatConvertWithConstantSet 100da98c f   intcvt.obj
 0001:000d9cd0       CombineMul_MulMov          100dacd0 f   intcvt.obj
 0001:000d9f1c       IsMulMov                   100daf1c f   intcvt.obj
 0001:000da0ac       FindOtherInstruction       100db0ac f   intcvt.obj
 0001:000da7f8       FormatConvert_AddTemp      100db7f8 f   intcvt.obj
 0001:000daab0       FormatConvert_CombineSets  100dbab0 f   intcvt.obj
 0001:000dab98       FormatConvert_FindTemp     100dbb98 f   intcvt.obj
 0001:000dac1c       FormatConvert_CheckReplace 100dbc1c f   intcvt.obj
 0001:000daf98       FormatConvert_DoReplace    100dbf98 f   intcvt.obj
 0001:000db714       FormatConvert_FlagConvertedData 100dc714 f   intcvt.obj
 0001:000dc058       TempFromListEntryC10       100dd058 f   iregalloc.obj
 0001:000dc0ac       MergeRestoreC10Source      100dd0ac f   iregalloc.obj
 0001:000dc24c       MergeRestoreOneC10Source   100dd24c f   iregalloc.obj
 0001:000dc4bc       GetChanUse                 100dd4bc f   iregalloc.obj
 0001:000dc534       FixTestC10ChanSel          100dd534 f   iregalloc.obj
 0001:000dc898       FoldNodeRegWithSOPWM       100dd898 f   iregalloc.obj
 0001:000dcf6c       ExpandIRegSaveC10          100ddf6c f   iregalloc.obj
 0001:000dd048       GenerateC10Save            100de048 f   iregalloc.obj
 0001:000dd39c       ExpandIRegRestoreC10       100de39c f   iregalloc.obj
 0001:000dd430       MergeSaveC10Destination    100de430 f   iregalloc.obj
 0001:000dda14       DropFromMergeList          100dea14 f   iregalloc.obj
 0001:000ddaf8       MergeC10MoveDestination    100deaf8 f   iregalloc.obj
 0001:000ddc60       MergeC10PCKDestination     100dec60 f   iregalloc.obj
 0001:000de008       MergeC10SOP2Destination    100df008 f   iregalloc.obj
 0001:000de0d0       SetSeparateRGBAndAlphaDestinations 100df0d0 f   iregalloc.obj
 0001:000de1f8       CanMoveSOP2AlphaCalculationToSOPWM 100df1f8 f   iregalloc.obj
 0001:000de2d0       ConvertC10ALUToSOPWM       100df2d0 f   iregalloc.obj
 0001:000de6d0       ReplaceSource0             100df6d0 f   iregalloc.obj
 0001:000de760       MergeC10SOP3Destination    100df760 f   iregalloc.obj
 0001:000de8fc       CanMoveSOP3AlphaCalculationToSOPWM 100df8fc f   iregalloc.obj
 0001:000dea34       CanSwitchAlphaToRed        100dfa34 f   iregalloc.obj
 0001:000deaac       IsIRegArgument             100dfaac f   iregalloc.obj
 0001:000debe0       GetIntervalByArg           100dfbe0 f   iregalloc.obj
 0001:000dec38       GetInterval                100dfc38 f   iregalloc.obj
 0001:000dec74       MergeC10SimpleALUDestination 100dfc74 f   iregalloc.obj
 0001:000decb4       SplitIRegDestC10           100dfcb4 f   iregalloc.obj
 0001:000dee4c       MergeIRegSources           100dfe4c f   iregalloc.obj
 0001:000df00c       AddToUsedIntervalList      100e000c f   iregalloc.obj
 0001:000df09c       CmpFirstRef                100e009c f   iregalloc.obj
 0001:000df108       AddNewBlockInterval        100e0108 f   iregalloc.obj
 0001:000df18c       InitializeInterval         100e018c f   iregalloc.obj
 0001:000df28c       CopyPartialDest            100e028c f   iregalloc.obj
 0001:000df570       CopyFixedHwReg             100e0570 f   iregalloc.obj
 0001:000df5fc       AssignInternalRegistersBlock 100e05fc f   iregalloc.obj
 0001:000e0360       IsReferenceInBlock         100e1360 f   iregalloc.obj
 0001:000e03d0       SubstByUnifiedStore        100e13d0 f   iregalloc.obj
 0001:000e0494       MergeIRegSave              100e1494 f   iregalloc.obj
 0001:000e0ae0       MergeRestoreOnRange        100e1ae0 f   iregalloc.obj
 0001:000e0dd0       DropInterval               100e1dd0 f   iregalloc.obj
 0001:000e0fb4       IsUsedAsSrc                100e1fb4 f   iregalloc.obj
 0001:000e111c       CanSubstByUnifiedStore     100e211c f   iregalloc.obj
 0001:000e1228       MergeIRegSavesAndRestores  100e2228 f   iregalloc.obj
 0001:000e17bc       SplitIRegInstructions      100e27bc f   iregalloc.obj
 0001:000e1bf4       TryMergeIRegSave           100e2bf4 f   iregalloc.obj
 0001:000e1f18       SubstIntermediateRegister  100e2f18 f   iregalloc.obj
 0001:000e1fa8       GetSaveInstCount           100e2fa8 f   iregalloc.obj
 0001:000e2034       TryMergeIRegRestore        100e3034 f   iregalloc.obj
 0001:000e2194       MergeRestore               100e3194 f   iregalloc.obj
 0001:000e23a4       CmpAccessCount             100e33a4 f   iregalloc.obj
 0001:000e23f8       GetUseCount                100e33f8 f   iregalloc.obj
 0001:000e2498       GetSaveUseCount            100e3498 f   iregalloc.obj
 0001:000e25a0       CmpNextRef                 100e35a0 f   iregalloc.obj
 0001:000e25fc       ProcessPartialDest         100e35fc f   iregalloc.obj
 0001:000e2990       GetRefBlockIndex           100e3990 f   iregalloc.obj
 0001:000e2a1c       ExpandOpcode               100e3a1c f   iregalloc.obj
 0001:000e2ab8       SkipNonInstReferences      100e3ab8 f   iregalloc.obj
 0001:000e2b28       UseDefToRef                100e3b28 f   iregalloc.obj
 0001:000e2be0       AssignHardwareRegister     100e3be0 f   iregalloc.obj
 0001:000e3150       GetOverlappingFixedRegisterMask 100e4150 f   iregalloc.obj
 0001:000e3270       MkSpillCandidate           100e4270 f   iregalloc.obj
 0001:000e330c       IsBetterSpillCandidate     100e430c f   iregalloc.obj
 0001:000e33fc       GetNextRefAfterCurrent     100e43fc f   iregalloc.obj
 0001:000e34d0       GetSaveCost                100e44d0 f   iregalloc.obj
 0001:000e3728       GetSpillPartialDestCost    100e4728 f   iregalloc.obj
 0001:000e3970       SpillPartialDest           100e4970 f   iregalloc.obj
 0001:000e3a70       SpillCurrent               100e4a70 f   iregalloc.obj
 0001:000e3c3c       SpillInterval              100e4c3c f   iregalloc.obj
 0001:000e46c4       IsRestoreInst              100e56c4 f   iregalloc.obj
 0001:000e4700       CopyIntervalData           100e5700 f   iregalloc.obj
 0001:000e4740       SaveInterval               100e5740 f   iregalloc.obj
 0001:000e4aec       RestoreInterval            100e5aec f   iregalloc.obj
 0001:000e4e68       ProcessLiveInOutInterval   100e5e68 f   iregalloc.obj
 0001:000e50a0       IsUsedInDifferentBlock     100e60a0 f   iregalloc.obj
 0001:000e5190       KillInternalRegisters      100e6190 f   iregalloc.obj
 0001:000e526c       SpillIntervalForDeschedule 100e626c f   iregalloc.obj
 0001:000e5ca0       AddFixedIRegs              100e6ca0 f   iregalloc.obj
 0001:000e5e6c       ExpandC10Temporaries       100e6e6c f   iregalloc.obj
 0001:000e657c       GetAlphaChanReg            100e757c f   iregalloc.obj
 0001:000e65b4       SwitchAlphaChannelToRed    100e75b4 f   iregalloc.obj
 0001:000e6654       SwitchAlphaChannelToRedInSource 100e7654 f   iregalloc.obj
 0001:000e6860       SwitchAlphaChannelToRedInDest 100e7860 f   iregalloc.obj
 0001:000e70e8       ConvertAlphaSel            100e80e8 f   iregalloc.obj
 0001:000e7160       SeparateC10AlphaChannel    100e8160 f   iregalloc.obj
 0001:000e7318       SeparateC10DestAlphaChannel 100e8318 f   iregalloc.obj
 0001:000e78e0       ExpandC10Iterations        100e88e0 f   iregalloc.obj
 0001:000e7cb0       ExpandC10SecondaryAttributes 100e8cb0 f   iregalloc.obj
 0001:000e8180       ExpandC10Move              100e9180 f   iregalloc.obj
 0001:000e8334       AllocGlobalInterval        100e9334 f   iregalloc.obj
 0001:000e83c8       AddToNextRefList           100e93c8 f   iregalloc.obj
 0001:000e843c       AddCarryInternalRegisters  100e943c f   iregalloc.obj
 0001:000e8668       AddCarryInterval           100e9668 f   iregalloc.obj
 0001:000e8794       GetArgFromInst             100e9794 f   iregalloc.obj
 0001:000e8948       CopyInstructionArgument    100e9948 f   iregalloc.obj
 0001:000e8c7c       SetFixedColourArg          100e9c7c f   iregalloc.obj
 0001:000e923c       OptimizeInstructionSequence 100ea23c f   iselect.obj
 0001:000e92e4       OptimizeInstSeqNoPredicate 100ea2e4 f   iselect.obj
 0001:000e953c       CombineMovcTestNoPredicate 100ea53c f   iselect.obj
 0001:000e9e48       DoF32Test                  100eae48 f   iselect.obj
 0001:000ea0a4       DoBitwiseTest              100eb0a4 f   iselect.obj
 0001:000ea2cc       LogicalNegateTest          100eb2cc f   iselect.obj
 0001:000ea428       IsConstantValue            100eb428 f   iselect.obj
 0001:000ea4ec       FoldSeperateTestNoPredicate 100eb4ec f   iselect.obj
 0001:000eadd8       HasTestVariant             100ebdd8 f   iselect.obj
 0001:000eaec4       UNPCKF32U8ToUNPCKF32O8NoPredicate 100ebec4 f   iselect.obj
 0001:000eb278       FoldMINOrMAX_UNPCKF32U8NoPredicate 100ec278 f   iselect.obj
 0001:000eb53c       FoldMOVCXX_MULNoPredicate  100ec53c f   iselect.obj
 0001:000eb960       SimplifyAddressConversionNoPredicate 100ec960 f   iselect.obj
 0001:000ebb2c       OptimizeInstSeqPredicateDontCare 100ecb2c f   iselect.obj
 0001:000ebdd8       CombineNOT_Bitwise         100ecdd8 f   iselect.obj
 0001:000ebfb0       FoldConstantTest           100ecfb0 f   iselect.obj
 0001:000ec4bc       AllTestArgsHwConst         100ed4bc f   iselect.obj
 0001:000ec5c8       InvertTest                 100ed5c8 f   iselect.obj
 0001:000ec858       FoldTESTMASK_MOVC          100ed858 f   iselect.obj
 0001:000ecc40       FoldTESTMASK_TEST          100edc40 f   iselect.obj
 0001:000ecf64       FoldMUL16_ADD16            100edf64 f   iselect.obj
 0001:000ed2bc       FoldADD_ADDorSUB_ADD       100ee2bc f   iselect.obj
 0001:000ed550       FoldMUL_ADDOrMUL           100ee550 f   iselect.obj
 0001:000ed94c       FindMSAPart                100ee94c f   iselect.obj
 0001:000eda60       FindMulX2                  100eea60 f   iselect.obj
 0001:000edb78       FindAdd                    100eeb78 f   iselect.obj
 0001:000edc44       FoldADD_ADD                100eec44 f   iselect.obj
 0001:000edef4       TermsCancelOut             100eeef4 f   iselect.obj
 0001:000ee268       IsModifiableRegister       100ef268 f   iselect.obj
 0001:000ee5c8       AddToNonTempWorkList       100ef5c8 f   iselect.obj
 0001:000ee674       DoCombineRegistersBackwards 100ef674 f   iselect.obj
 0001:000ee8d8       BaseCombineNonTempRegister 100ef8d8 f   iselect.obj
 0001:000ef070       IsReplacableDest           100f0070 f   iselect.obj
 0001:000ef100       UpdateRefRange             100f0100 f   iselect.obj
 0001:000ef168       GetEarliestInst            100f0168 f   iselect.obj
 0001:000ef244       GetLatestInst              100f0244 f   iselect.obj
 0001:000ef320       IsValidIndexType           100f0320 f   iselect.obj
 0001:000ef6fc       HasSourceModifier          100f06fc f   iselect.obj
 0001:000ef800       SimplifyInst               100f0800 f   iselect.obj
 0001:000efff8       SimplifyArithmeticOp       100f0ff8 f   iselect.obj
 0001:000f0534       GetArithmeticOpType        100f1534 f   iselect.obj
 0001:000f0670       GetConstant                100f1670 f   iselect.obj
 0001:000f0938       CreateMaskedReplaceWorkItem 100f1938 f   iselect.obj
 0001:000f09ac       BaseReplaceAllUsesMasked   100f19ac f   iselect.obj
 0001:000f1458       ReplaceAllUses             100f2458 f   iselect.obj
 0001:000f19bc       GlobalReplaceArguments     100f29bc f   iselect.obj
 0001:000f2050       CanChangeTestForSourceMod  100f3050 f   iselect.obj
 0001:000f2124       ChangeTestForSourceMod     100f3124 f   iselect.obj
 0001:000f2c20       EliminatePredicateMove     100f3c20 f   iselect.obj
 0001:000f33a8       SetPredicateSourceToFixedValue 100f43a8 f   iselect.obj
 0001:000f34bc       NegateAtDefiningTest       100f44bc f   iselect.obj
 0001:000f3814       RemovePredicateWrite       100f4814 f   iselect.obj
 0001:000f3a1c       IsFixedResultTest          100f4a1c f   iselect.obj
 0001:000f3e68       NegateTest                 100f4e68 f   iselect.obj
 0001:000f41c4       IsUnmergeableInst          100f51c4 f   iselect.obj
 0001:000f43ec       InsertInstInMergeList      100f53ec f   iselect.obj
 0001:000f44b0       CompareInstructions        100f54b0 f   iselect.obj
 0001:000f4c2c       IsTestIdempotent           100f5c2c f   iselect.obj
 0001:000f4dc8       LogicalCombine             100f5dc8 f   iselect.obj
 0001:000f4e4c       ReplaceIdenticalResult     100f5e4c f   iselect.obj
 0001:000f5a2c       ExtractConstantCalculationsBP 100f6a2c f   iselect.obj
 0001:000f5bfc       ExtractConstantCalculationsInst 100f6bfc f   iselect.obj
 0001:000f6950       ReplaceConstantArg         100f7950 f   iselect.obj
 0001:000f69c0       ReplaceConstantSource      100f79c0 f   iselect.obj
 0001:000f6a44       CopySecAttrToTemp          100f7a44 f   iselect.obj
 0001:000f6e38       AlreadyExtracted           100f7e38 f   iselect.obj
 0001:000f6fa8       GetSAOutputUsage           100f7fa8 f   iselect.obj
 0001:000f7244       CombineF32PacksBlock       100f8244 f   iselect.obj
 0001:000f7748       ReplaceF32ByF16Source      100f8748 f   iselect.obj
 0001:000f7cac       FlattenConditionalsDomTree 100f8cac f   iselect.obj
 0001:000f7da0       FlattenConditional         100f8da0 f   iselect.obj
 0001:000f8658       ConvertDeltaInstructionsToPredCopy 100f9658 f   iselect.obj
 0001:000f8930       ConvertConstantDeltaToMov  100f9930 f   iselect.obj
 0001:000f8bb4       GetConditionalEdge         100f9bb4 f   iselect.obj
 0001:000f8c68       CanFlattenDeltaInstructions 100f9c68 f   iselect.obj
 0001:000f954c       IsDuplicatedDeltaSource    100fa54c f   iselect.obj
 0001:000f9634       FlattenMOVCDeltaInstructions 100fa634 f   iselect.obj
 0001:000f9878       InsertDeltaMOVC            100fa878 f   iselect.obj
 0001:000f9f44       SetDeltaMov                100faf44 f   iselect.obj
 0001:000f9f90       CanTestBecomeMovC          100faf90 f   iselect.obj
 0001:000fa1f0       FlattenDeltaInstructions   100fb1f0 f   iselect.obj
 0001:000fa630       InsertDeltaCopy            100fb630 f   iselect.obj
 0001:000fa7a4       MovePredicateInsts         100fb7a4 f   iselect.obj
 0001:000fae74       CanPredicate               100fbe74 f   iselect.obj
 0001:000faf50       SetupConditionalWrite      100fbf50 f   iselect.obj
 0001:000fb15c       MoveMOVCInsts              100fc15c f   iselect.obj
 0001:000fb298       CanFlatten                 100fc298 f   iselect.obj
 0001:000fb6fc       CanFlattenMOVC             100fc6fc f   iselect.obj
 0001:000fbb4c       OptimiseUSPSampleDestFmt   100fcb4c f   iselect.obj
 0001:000fd234       GetUSPDestFmtChannelOrder  100fe234 f   iselect.obj
 0001:000fd290       ComponentToChannel         100fe290 f   iselect.obj
 0001:000fd360       ChannelMaskToComponentMask 100fe360 f   iselect.obj
 0001:000fd4fc       SetPackSourceFormat        100fe4fc f   iselect.obj
 0001:000fda40       AppendToMoveList           100fea40 f   iselect.obj
 0001:000fdc68       ReduceSampleResultPrecisionForSampler 100fec68 f   iselect.obj
 0001:000fe260       CheckSamplerUseForPrecisionReduce 100ff260 f   iselect.obj
 0001:000fe530       CheckSamplerUseInst        100ff530 f   iselect.obj
 0001:000fe71c       ReduceSampleResultPrecisionForDependentTextureSample 100ff71c f   iselect.obj
 0001:000ff208       IsSaturatedSample          10100208 f   iselect.obj
 0001:000ff318       IsSaturatedArgument        10100318 f   iselect.obj
 0001:000ff41c       UpdateSaturatedResult      1010041c f   iselect.obj
 0001:000ff600       TryRemoveSaturate          10100600 f   iselect.obj
 0001:000ff85c       TrySimplifyTest            1010085c f   iselect.obj
 0001:000ffb18       FlagSaturatedPixelShaderInputs 10100b18 f   iselect.obj
 0001:000ffd4c       ConvertPredicatedMoveToMovc 10100d4c f   iselect.obj
 0001:00100548       FindSecondPredicatedMove   10101548 f   iselect.obj
 0001:001006e8       FixInvalidSourceBanksBP    101016e8 f   iselect.obj
 0001:001007c8       FixInvalidSourceBanksInst  101017c8 f   iselect.obj
 0001:00100b14       IsValidSourceArg           10101b14 f   iselect.obj
 0001:00100c18       IsValidSource              10101c18 f   iselect.obj
 0001:00100d10       ReplaceImmediateByHwConst  10101d10 f   iselect.obj
 0001:00100f2c       CheckForHardwareConstants  10101f2c f   iselect.obj
 0001:00101024       IsHwConstSourceValid       10102024 f   iselect.obj
 0001:0010116c       ReplaceSourcesByTemporaries 1010216c f   iselect.obj
 0001:001014d8       FixInvalidSourceBanks_GetCReg 101024d8 f   iselect.obj
 0001:001016c4       AddMoveForInvalidSourceBank 101026c4 f   iselect.obj
 0001:00101908       CollapseMultipleMoves      10102908 f   iselect.obj
 0001:00101994       CouldAlsoReplaceSrc1       10102994 f   iselect.obj
 0001:00101aac       CheckSourceArg             10102aac f   iselect.obj
 0001:00101b80       ReplaceConstantBySecAttr   10102b80 f   iselect.obj
 0001:001029e8       DoPhaseStart               101039e8 f   layout.obj
 0001:00102aa0       LayoutBlockBP              10103aa0 f   layout.obj
 0001:001032b8       IsSyncEndDest              101042b8 f   layout.obj
 0001:0010349c       LayoutCall                 1010449c f   layout.obj
 0001:00103748       AllocArrayOfNegOnes        10104748 f   layout.obj
 0001:001037b0       CheckAndSet                101047b0 f   layout.obj
 0001:00103d7c       DeleteRegisterGroup        10104d7c f   reggroup.obj
 0001:001046f0       IsAfter                    101056f0 f   reggroup.obj
 0001:00104754       ArePrecolouredNodeConsecutive 10105754 f   reggroup.obj
 0001:00104da4       BaseSetNodeAlignment       10105da4 f   reggroup.obj
 0001:0010563c       BaseMakeGroup              1010663c f   reggroup.obj
 0001:00105a50       IsConsecutiveTemps         10106a50 f   reggroup.obj
 0001:00105c70       IsConsecutiveNonTemps      10106c70 f   reggroup.obj
 0001:00105f54       UpdateGroupsAfterSpillCB   10106f54 f   reggroup.obj
 0001:001060e8       EquivalentSourceCmp        101070e8 f   reggroup.obj
 0001:001061b4       DeleteEquivSrc             101071b4 f   reggroup.obj
 0001:00106358       SetupRegisterGroupsInstDest 10107358 f   reggroup.obj
 0001:00106460       SetupRegisterGroupInstDest 10107460 f   reggroup.obj
 0001:00106584       IsValidGroup               10107584 f   reggroup.obj
 0001:00106684       GetMaximumRangeLength      10107684 f   reggroup.obj
 0001:00106714       ReplaceDestinationsByTemporaries 10107714 f   reggroup.obj
 0001:00106b08       SetupRegisterGroupsInstSource 10107b08 f   reggroup.obj
 0001:00106d00       ReplaceSourcesByTemporaries 10107d00 f   reggroup.obj
 0001:00107014       CheckForEquivalents        10108014 f   reggroup.obj
 0001:0010775c       GetEquivalentSource        1010875c f   reggroup.obj
 0001:00107868       RemoveFromEquivalentList   10108868 f   reggroup.obj
 0001:001078cc       AddToEquivalentList        101088cc f   reggroup.obj
 0001:001079d0       AddEquivalent              101089d0 f   reggroup.obj
 0001:00107a60       CreateEquivalent           10108a60 f   reggroup.obj
 0001:00107abc       CheckForEquivalentSet      10108abc f   reggroup.obj
 0001:00107e44       IsCRegMoveResultDead       10108e44 f   reggroup.obj
 0001:00107f58       ReuseExistingSources       10108f58 f   reggroup.obj
 0001:001080ac       CanUseIntermediateSource   101090ac f   reggroup.obj
 0001:00108130       CreateCRegReplacement      10109130 f   reggroup.obj
 0001:00108278       ReplaceFPConstantsBySecAttrs 10109278 f   reggroup.obj
 0001:00108640       TryFixNonConsecutiveFPConstants 10109640 f   reggroup.obj
 0001:00108850       IsValidRegisterGroup       10109850 f   reggroup.obj
 0001:001088e4       IsValidNonTempGroup        101098e4 f   reggroup.obj
 0001:00108a24       IsValidTempGroup           10109a24 f   reggroup.obj
 0001:00108b0c       ReplaceNonTemporarySourcesByTemporaries 10109b0c f   reggroup.obj
 0001:00108d08       StoreGroupsToCheckCB       10109d08 f   reggroup.obj
 0001:00108e64       SetupSourceGroup           10109e64 f   reggroup.obj
 0001:001090a8       CmpGroupPair               1010a0a8 f   reggroup.obj
 0001:001090ec       SetupRegisterGroupsBP      1010a0ec f   reggroup.obj
 0001:00109528       GroupArrayRegs             1010a528 f   reggroup.obj
 0001:001096c8       GroupFixedRegs             1010a6c8 f   reggroup.obj
 0001:00109728       GroupFixedReg              1010a728 f   reggroup.obj
 0001:00109ecc       BaseSetNodeAlignmentFromRegisterNumber 1010aecc f   reggroup.obj
 0001:00109f28       SetCopyInstSrcDest         1010af28 f   reggroup.obj
 0001:0010a000       InsertShaderEndMov         1010b000 f   reggroup.obj
 0001:0010a258       DeleteGroupPair            1010b258 f   reggroup.obj
 0001:0010a300       CheckValidRegisterGroupCB  1010b300 f   reggroup.obj
 0001:0010a384       CheckValidRegisterGroup    1010b384 f   reggroup.obj
 0001:0010a7c4       FindFetch                  1010b7c4 f   reorder.obj
 0001:0010ae14       IsFetch                    1010be14 f   reorder.obj
 0001:0010b0c4       InitHighLatncyInstsReorderState 1010c0c4 f   reorder.obj
 0001:0010b30c       FreeHighLatncyInstsReorderState 1010c30c f   reorder.obj
 0001:0010b41c       CalculateMaxCyclesToHighLatncyInsts 1010c41c f   reorder.obj
 0001:0010b7b8       IsHighLatncyNonMemLoadInst 1010c7b8 f   reorder.obj
 0001:0010b82c       ReorderHighLatncyInsts     1010c82c f   reorder.obj
 0001:0010c48c       MinCyclsToHighLatncyInst   1010d48c f   reorder.obj
 0001:0010c634       RemoveCyclesFromAllHighLatncyChildren 1010d634 f   reorder.obj
 0001:0010cf10       IsFBDependency             1010df10 f   reorder.obj
 0001:0010d01c       SetFBDependency            1010e01c f   reorder.obj
 0001:0010d074       GetResultsNeededForFeedback 1010e074 f   reorder.obj
 0001:0010d398       AddToNeededForFeedbackSet  1010e398 f   reorder.obj
 0001:0010d6cc       AreInternalRegsAndPredicatesLiveAtFB 1010e6cc f   reorder.obj
 0001:0010dc08       ProcessFeedbackResults     1010ec08 f   reorder.obj
 0001:0010df0c       ReorderColourOutputPackInstructions 1010ef0c f   reorder.obj
 0001:0010e438       PeepholeOptimizer          1010f438 f   reorder.obj
 0001:0010f09c       UniformSACmp               1011009c f   regpack.obj
 0001:0010f0f0       SetUniformSecAttrPriority  101100f0 f   regpack.obj
 0001:0010f148       RemoveUniformSecAttrFromAlignList 10110148 f   regpack.obj
 0001:0010f2b0       IsGroupHead                101102b0 f   regpack.obj
 0001:0010f30c       AddUniformSecAttrToAlignList 1011030c f   regpack.obj
 0001:0010f480       FixSARegisterNumbers       10110480 f   regpack.obj
 0001:0010f584       SetSARegisterNumberPreferences 10110584 f   regpack.obj
 0001:0010f730       UsedWithFormatSelect       10110730 f   regpack.obj
 0001:0010f86c       FindMatchingEntry          1011086c f   regpack.obj
 0001:0010fc74       FindAlignedEntry           10110c74 f   regpack.obj
 0001:0010fe44       FindEntryOfLength          10110e44 f   regpack.obj
 0001:0010ff24       SkipFragmentedRegions      10110f24 f   regpack.obj
 0001:0011009c       GetShortestEntry           1011109c f   regpack.obj
 0001:00110170       SetSAHardwareRegisterNumbers 10111170 f   regpack.obj
 0001:00110308       AllocDriverLoadedSecondaryAttributes 10111308 f   regpack.obj
 0001:0011054c       AppendToSAGroup            1011154c f   regpack.obj
 0001:001106d0       AddPaddingSecondaryAttributes 101116d0 f   regpack.obj
 0001:00111234       AddSAProgResultGroup       10112234 f   regpack.obj
 0001:00111754       AddSimpleSecAttr           10112754 f   regpack.obj
 0001:001117b8       AddNewInRegisterConstant   101127b8 f   regpack.obj
 0001:00111ea8       FindStaticConst            10112ea8 f   regpack.obj
 0001:00111fbc       IsStaticConstRange         10112fbc f   regpack.obj
 0001:0011206c       IsStaticConst              1011306c f   regpack.obj
 0001:00112288       IsValidSecAttrGroup        10113288 f   regpack.obj
 0001:001127b8       MarkSAOnlyRegionsReserved  101137b8 f   regpack.obj
 0001:00112e2c       CBDescCmp                  10113e2c f   regpack.obj
 0001:00113098       AddFixedRegForPixelShaderInput 10114098 f   regpack.obj
 0001:00114768       IsLastCoordUsed            10115768 f   regpack.obj
 0001:00114a60       CopyFixedRegData           10115a60 f   regpack.obj
 0001:001152a0       InitSizeAndAlignList       101162a0 f   regpack.obj
 0001:00115330       AssignInputOutputRegisters 10116330 f   regpack.obj
 0001:00115548       GetPriorityEntry           10116548 f   regpack.obj
 0001:00115634       GetPriorityEntryOfLength   10116634 f   regpack.obj
 0001:001156f8       AppendPixelShaderInput     101166f8 f   regpack.obj
 0001:00115ad0       AddPixelShaderInputPadding 10116ad0 f   regpack.obj
 0001:00116100       ExpandProjectedSMP_F32     10117100 f   regpack.obj
 0001:001162ac       ExpandProjectedSMP_F16     101172ac f   regpack.obj
 0001:001164e8       ExpandProjectedSMP_C10     101174e8 f   regpack.obj
 0001:00116b48       ExpandProjectedSMP         10117b48 f   regpack.obj
 0001:00116ca0       GenerateNonDependentTextureSamples 10117ca0 f   regpack.obj
 0001:00116e5c       CanAddNewNonDependentTextureSamples 10117e5c f   regpack.obj
 0001:00116ec4       TryConvertSMPToNonDependentTextureSample 10117ec4 f   regpack.obj
 0001:00117988       GetUnderlyingRegisterNumber 10118988 f   regpack.obj
 0001:00117b20       ExpandMultiplaneSMP        10118b20 f   regpack.obj
 0001:0011975c       ExpandMemoryLoad           1011a75c f   regpack.obj
 0001:00119960       ConvertToLIMM              1011a960 f   regpack.obj
 0001:00119a00       UpdateMemoryLoad           1011aa00 f   regpack.obj
 0001:00119d5c       ApplyConstantRemapping     1011ad5c f   regpack.obj
 0001:0011a288       AddRemappedEntry           1011b288 f   regpack.obj
 0001:0011a314       GenerateMemoryLoad         1011b314 f   regpack.obj
 0001:0011a674       SetBaseAddressRegForConstsBuffer 1011b674 f   regpack.obj
 0001:0011a7d0       ExpandMultiMemoryLoad      1011b7d0 f   regpack.obj
 0001:0011a9f0       ReplaceRTAIdx              1011b9f0 f   regpack.obj
 0001:0011ab48       ReplaceStaticAddressLoadConsts 1011bb48 f   regpack.obj
 0001:0011ac80       ReplaceLoadConsts          1011bc80 f   regpack.obj
 0001:0011ad34       ReplaceLoadConst           1011bd34 f   regpack.obj
 0001:0011b474       ReplaceDynamicAddressLoadConsts 1011c474 f   regpack.obj
 0001:0011b8d4       SearchConstBufs            1011c8d4 f   regpack.obj
 0001:0011c098       AddToStaticConstLoadList   1011d098 f   regpack.obj
 0001:0011c2e8       ChanMaskToDwordMask        1011d2e8 f   regpack.obj
 0001:0011c3e8       RangeCostCompare           1011d3e8 f   regpack.obj
 0001:0011c434       StaticConstCostCompare     1011d434 f   regpack.obj
 0001:0011c570       FreeLCData                 1011d570 f   regpack.obj
 0001:0011c5f8       FreeRange                  1011d5f8 f   regpack.obj
 0001:0011c680       ProcessSAOnlyConstantRange 1011d680 f   regpack.obj
 0001:0011cab4       ProcessSAOnlyConstantBuffer 1011dab4 f   regpack.obj
 0001:0011d594       IsBlockStart               1011e594 f   precovr.obj
 0001:0011d63c       IsBlockEnd                 1011e63c f   precovr.obj
 0001:0011dd3c       ConvertPrologOperations    1011ed3c f   precovr.obj
 0001:0011de18       ConvertDotProduct          1011ee18 f   precovr.obj
 0001:0011e05c       IsIntegerDot3Arg           1011f05c f   precovr.obj
 0001:0011e414       IsResultUsed               1011f414 f   precovr.obj
 0001:0011e780       IsConditionalStart         1011f780 f   precovr.obj
 0001:0011e7f4       IsIntegerTexture           1011f7f4 f   precovr.obj
 0001:0011e940       ConvertTextureSource       1011f940 f   precovr.obj
 0001:0011ea6c       DoIntegerConversion        1011fa6c f   precovr.obj
 0001:0011f0d0       ConvertInstructionToInteger 101200d0 f   precovr.obj
 0001:0011f464       ConvertMoveInstruction     10120464 f   precovr.obj
 0001:0011f6c8       AddPackedRegister          101206c8 f   precovr.obj
 0001:0011f9e4       ConvertMulInstruction      101209e4 f   precovr.obj
 0001:001201f8       IsSaturatedSource          101211f8 f   precovr.obj
 0001:0012057c       IsSaturatedTemp            1012157c f   precovr.obj
 0001:00120a04       ConvertMinMaxInstruction   10121a04 f   precovr.obj
 0001:00120d88       IsStaticConstInRange       10121d88 f   precovr.obj
 0001:00120f60       ConvertAddInstruction      10121f60 f   precovr.obj
 0001:001213ac       AddPackToInteger           101223ac f   precovr.obj
 0001:001215d8       FindElse                   101225d8 f   precovr.obj
 0001:001216d4       FindPackedRegister         101226d4 f   precovr.obj
 0001:001219ac       FreePrecovrState           101229ac f   precovr.obj
 0001:00122650       ConvertInputInstF16ToF32   10123650 f   precovr.obj
 0001:0012289c       ChangeTemporaryRegisterFormats 1012389c f   precovr.obj
 0001:00122a14       CheckInstConversion        10123a14 f   precovr.obj
 0001:00122e70       GetHwInstCountForF16Instruction 10123e70 f   precovr.obj
 0001:00123184       InsertF16ToF32Convert      10124184 f   precovr.obj
 0001:00123338       ConvertRegisterPrecision   10124338 f   precovr.obj
 0001:00124170       FreeRegSpillState          10125170 f   pregalloc.obj
 0001:001241c0       FreeRegState               101251c0 f   pregalloc.obj
 0001:00124320       ConstructPredicateInterferenceGraphBP 10125320 f   pregalloc.obj
 0001:00124480       UpdatePredicateInterferenceGraph 10125480 f   pregalloc.obj
 0001:00124500       AddEdgeToPredicateInterferenceGraph 10125500 f   pregalloc.obj
 0001:00124654       ConstructPredicateInterferenceGraphForInst 10125654 f   pregalloc.obj
 0001:00124928       CheckPredicateRepeat       10125928 f   pregalloc.obj
 0001:00124cec       GetInstHardwarePredicateRangeSupported 10125cec f   pregalloc.obj
 0001:00124e70       ProcessPredicateSource     10125e70 f   pregalloc.obj
 0001:00124eec       InsertNode                 10125eec f   pregalloc.obj
 0001:00125090       RemoveFromGraph            10126090 f   pregalloc.obj
 0001:00125288       SimplifyGraph              10126288 f   pregalloc.obj
 0001:00125404       ColourNode                 10126404 f   pregalloc.obj
 0001:00125674       SpillPredicateRegister     10126674 f   pregalloc.obj
 0001:00125754       CanUseTestMaskSpillModeBP  10126754 f   pregalloc.obj
 0001:00125918       SpillPredRegBP             10126918 f   pregalloc.obj
 0001:00125e04       RestorePredicate           10126e04 f   pregalloc.obj
 0001:00126060       GetSpillPredicate          10127060 f   pregalloc.obj
 0001:001260b4       RestorePredicateForInst    101270b4 f   pregalloc.obj
 0001:001261f8       SaveInstResult             101271f8 f   pregalloc.obj
 0001:00126874       RenamePredRegBP            10127874 f   pregalloc.obj
 0001:00126b28       RenamePredArg              10127b28 f   pregalloc.obj
 0001:00126be8       AllocRegSpillState         10127be8 f   pregalloc.obj
 0001:00126d1c       AllocRegState              10127d1c f   pregalloc.obj
 0001:001270cc       ChooseNewSpillPredicate    101280cc f   pregalloc.obj
 0001:00127274       CoalescePredicates         10128274 f   pregalloc.obj
 0001:00127828       ExpandMOVPInstructions     10128828 f   pregalloc.obj
 0001:001278e0       ExpandMOVP                 101288e0 f   pregalloc.obj
 0001:00127bd0       SetPredicateToFixedValue   10128bd0 f   pregalloc.obj
 0001:00127d28       ExpandPredicatedMOVP       10128d28 f   pregalloc.obj
 0001:00127f98       SetImmediate               10128f98 f   pregalloc.obj
 0001:00128454       LocateSyncs                10129454 f   pregalloc.obj
 0001:00128e6c       BreakEdge                  10129e6c f   pregalloc.obj
 0001:00128ecc       Restructure                10129ecc f   pregalloc.obj
 0001:001293e0       MyEdges                    1012a3e0 f   pregalloc.obj
 0001:00129544       PushEdge                   1012a544 f   pregalloc.obj
 0001:001295b8       CombineEdgeLists           1012a5b8 f   pregalloc.obj
 0001:00129754       DoRestructuring            1012a754 f   pregalloc.obj
 0001:0012a0f4       InsertSetPredicate         1012b0f4 f   pregalloc.obj
 0001:0012a150       GetFlagSetter              1012b150 f   pregalloc.obj
 0001:0012a27c       SetSyncStartEnd            1012b27c f   pregalloc.obj
 0001:0012ab1c       LoopContains               1012bb1c f   pregalloc.obj
 0001:0012ab8c       SetSyncEnd                 1012bb8c f   pregalloc.obj
 0001:0012ac0c       SortDomChildren            1012bc0c f   pregalloc.obj
 0001:0012b108       InitSkipinvState           1012c108 f   finalise.obj
 0001:0012b260       DeinitSkipinvState         1012c260 f   finalise.obj
 0001:0012b2bc       DoSkipInvalid              1012c2bc f   finalise.obj
 0001:0012b448       CopySkipinvState           1012c448 f   finalise.obj
 0001:0012b568       SetSkipInvalidDF           1012c568 f   finalise.obj
 0001:0012b95c       CompareSkipinvStates       1012c95c f   finalise.obj
 0001:0012bb00       MergeSkipinvState          1012cb00 f   finalise.obj
 0001:0012bd38       OrArray                    1012cd38 f   finalise.obj
 0001:0012be20       SetSkipInvalidFlagForInst  1012ce20 f   finalise.obj
 0001:0012c6a0       SupportsSkipInv            1012d6a0 f   finalise.obj
 0001:0012c6f8       SetSkipInvalidFlagForArgIndex 1012d6f8 f   finalise.obj
 0001:0012c7e0       FlagNonFlowControlPredicate 1012d7e0 f   finalise.obj
 0001:0012c870       SetSkipInvalidFlagForSource 1012d870 f   finalise.obj
 0001:0012cb4c       IsDestUsedForGradients     1012db4c f   finalise.obj
 0001:0012cf3c       SetSkipInvAllInstsBP       1012df3c f   finalise.obj
 0001:0012d294       FinaliseMemConstLoad       1012e294 f   finalise.obj
 0001:0012d4f0       MakeLD                     1012e4f0 f   finalise.obj
 0001:0012d6f8       CopyLoadMemConst           1012e6f8 f   finalise.obj
 0001:0012d864       ScaleDynamicOffset         1012e864 f   finalise.obj
 0001:0012d9b0       OptimizeMemoryAddressCalculationsInst 1012e9b0 f   finalise.obj
 0001:0012e048       FindFetchesUsingOffset     1012f048 f   finalise.obj
 0001:0012e360       IsTextureSample            1012f360 f   finalise.obj
 0001:0012e7e8       AddSMRForRelativeAddressing 1012f7e8 f   finalise.obj
 0001:0012e98c       DetermineNonAnisoTextureStagesBP 1012f98c f   finalise.obj
 0001:0012ea2c       InsertWaitsBP              1012fa2c f   finalise.obj
 0001:0012f028       GetWaitInstIdx             10130028 f   finalise.obj
 0001:0012f394       GetAsyncUnitType           10130394 f   finalise.obj
 0001:0012f43c       InsertWait                 1013043c f   finalise.obj
 0001:0012f4a0       InsertWDF                  101304a0 f   finalise.obj
 0001:0012f54c       SetDependentReadCounter    1013054c f   finalise.obj
 0001:0012f634       CheckInsertWaits           10130634 f   finalise.obj
 0001:0012f6bc       InsertIDF                  101306bc f   finalise.obj
 0001:0012f7a4       SetupSyncStartFlag         101307a4 f   finalise.obj
 0001:0012f818       SetSyncStartBP             10130818 f   finalise.obj
 0001:0012f8ec       SetSyncStartBeforeInst     101308ec f   finalise.obj
 0001:0012f9bc       SupportSyncStart           101309bc f   finalise.obj
 0001:0012fa14       InsertPaddingInstructions  10130a14 f   finalise.obj
 0001:00130088       PrependPaddingToBlock      10131088 f   finalise.obj
 0001:0013013c       SetupNoSchedFlag           1013113c f   finalise.obj
 0001:00130214       SetNoSchedFlagForBasicBlockNoPairs 10131214 f   finalise.obj
 0001:001304dc       IsDeschedule               101314dc f   finalise.obj
 0001:00130544       SupportsNoSched_NoPairs    10131544 f   finalise.obj
 0001:0013058c       SetNoSchedFlagForBasicBlock 1013158c f   finalise.obj
 0001:00131010       NoSchedAlignToEvenCB       10132010 f   finalise.obj
 0001:00131078       NoSchedBranchCB            10132078 f   finalise.obj
 0001:001310d8       IsPunchthroughFBStillSplit 101320d8 f   finalise.obj
 0001:001311dc       IsPunchthroughSplitStillSplit 101321dc f   finalise.obj
 0001:001312e0       FinaliseIndexableTempsBP   101322e0 f   finalise.obj
 0001:00131410       RemoveNoEmitInstructionsBP 10132410 f   finalise.obj
 0001:001314a8       AddFixForBRN25804          101324a8 f   finalise.obj
 0001:001316f8       AddFixForBRN25804ForBlock  101326f8 f   finalise.obj
 0001:00131894       IsTESTMASKUsedInBlock      10132894 f   finalise.obj
 0001:00131974       AddFixForBRN31988          10132974 f   finalise.obj
 0001:00131a10       AddFixForBRN31988ToFunction 10132a10 f   finalise.obj
 0001:00131cd0       ExpandC10InstsBP           10132cd0 f   finalise.obj
 0001:00132078       AddFixForBRN30853          10133078 f   finalise.obj
 0001:001322d4       GetBRN30853FunctionState   101332d4 f   finalise.obj
 0001:00132960       ProcessBlockBRN30853       10133960 f   finalise.obj
 0001:00132af4       AddFixForBRN30853ToProg    10133af4 f   finalise.obj
 0001:0013355c       CanCombineF16Registers     1013455c f   f16opt.obj
 0001:0013362c       CanSubstInF16Inst          1013462c f   f16opt.obj
 0001:001337a8       CanSubstituteF16FormatConvert 101347a8 f   f16opt.obj
 0001:00133a18       CanSubstituteF16RegisterByC10 10134a18 f   f16opt.obj
 0001:00133b10       CanSubstituteF16RegisterSwizzle 10134b10 f   f16opt.obj
 0001:00133e28       AllF16ChannelsTheSame      10134e28 f   f16opt.obj
 0001:00133e90       CombineF16Registers        10134e90 f   f16opt.obj
 0001:00133fa8       SubstInF16Inst             10134fa8 f   f16opt.obj
 0001:00134100       SubstituteF16Argument      10135100 f   f16opt.obj
 0001:001352e4       GlobalF16FullPackReplaceArguments 101362e4 f   f16opt.obj
 0001:00135cbc       Float16Optimize            10136cbc f   f16opt.obj
 0001:00135f94       OptimizeDependentF16Instructions 10136f94 f   f16opt.obj
 0001:0013701c       AddMoveDependency          1013801c f   f16opt.obj
 0001:001370c0       F16SwizzleToComponent      101380c0 f   f16opt.obj
 0001:00137180       CompressF16Masks           10138180 f   f16opt.obj
 0001:00137400       ExpandF16Masks             10138400 f   f16opt.obj
 0001:0013763c       OptimizeMultipleUseDependentInstructions 1013863c f   f16opt.obj
 0001:00137788       OptimizeMultipleUseDependentInstruction 10138788 f   f16opt.obj
 0001:001379dc       PromoteFARITH16ToF32       101389dc f   f16opt.obj
 0001:00137e80       FindUnpacksOfResult        10138e80 f   f16opt.obj
 0001:001385fc       OldAllocfn                 101395fc f   usc.obj
 0001:00138764       _OldFree                   10139764 f   usc.obj
 0001:00138ce0       CheckBlock                 10139ce0 f   usc.obj
 0001:001393f0       CheckInst                  1013a3f0 f   usc.obj
 0001:0013965c       CheckReg                   1013a65c f   usc.obj
 0001:00139758       BaseGetNextRegister        1013a758 f   usc.obj
 0001:00139c34       AddAsPredecessor           1013ac34 f   usc.obj
 0001:00139d40       ClearBlockState            1013ad40 f   usc.obj
 0001:00139e74       ClearSuccessors            1013ae74 f   usc.obj
 0001:00139f08       RemoveFromPredecessors     1013af08 f   usc.obj
 0001:0013a22c       FreeSuccessors             1013b22c f   usc.obj
 0001:0013a3a0       UpdateSuccessor            1013b3a0 f   usc.obj
 0001:0013a7ac       SetSingleSuccessor         1013b7ac f   usc.obj
 0001:0013a84c       InitializeUnconditionalBlock 1013b84c f   usc.obj
 0001:0013bcc8       FreePredecessors           1013ccc8 f   usc.obj
 0001:0013c464       FreeBlockState             1013d464 f   usc.obj
 0001:0013c68c       FreeInsts                  1013d68c f   usc.obj
 0001:0013d818       FillPredecessorArraysBP    1013e818 f   usc.obj
 0001:0013d9e4       SetupMasksAndPredicatesBP  1013e9e4 f   usc.obj
 0001:0013e860       DebugPrintSortRecursive    1013f860 f   usc.obj
 0001:0013fa44       InsertInstIntoBlock        10140a44 f   usc.obj
 0001:00140dd4       ExpandFunction             10141dd4 f   usc.obj
 0001:00140ee8       ExpandCallInstruction      10141ee8 f   usc.obj
 0001:0014104c       ExpandCallArguments        1014204c f   usc.obj
 0001:00141458       ExpandFunctionParameters   10142458 f   usc.obj
 0001:00141644       ExpandFunctionParameterArray 10142644 f   usc.obj
 0001:00141838       FreeFunctionInOut          10142838 f   usc.obj
 0001:00141fdc       ReleaseVaildShaderOutputsData 10142fdc f   usc.obj
 0001:00142078       ReleaseVertexShaderState   10143078 f   usc.obj
 0001:001420d8       ReleasePixelShaderState    101430d8 f   usc.obj
 0001:001421e8       ReleaseFixedRegList        101431e8 f   usc.obj
 0001:001424f8       GenerateSwitchTest         101434f8 f   usc.obj
 0001:0014329c       IntegerOptimizeBP          1014429c f   usc.obj
 0001:00143300       AddFixForBRN21752BP        10144300 f   usc.obj
 0001:00143858       SetupLoadStoreArray        10144858 f   usc.obj
 0001:00143e64       CmpArraySetupData          10144e64 f   usc.obj
 0001:00143f50       ExpandMemLoadStoreBP       10144f50 f   usc.obj
 0001:00144008       ExpandLoadStoreInst        10145008 f   usc.obj
 0001:0014518c       GetLocalAddressingMemoryOffset 1014618c f   usc.obj
 0001:00145348       ExpandLoadStoreBP          10146348 f   usc.obj
 0001:0014544c       ExpandRegLdStInst          1014644c f   usc.obj
 0001:00145c30       EmitLdStRegIndex           10146c30 f   usc.obj
 0001:00145f58       EmitLdStRegMove            10146f58 f   usc.obj
 0001:001466ac       SetFirstArrayElement       101476ac f   usc.obj
 0001:00146754       EliminateNewMovesBP        10147754 f   usc.obj
 0001:00146bac       DisplayUnfreedAllocs       10147bac f   usc.obj
 0001:00146c40       InitState                  10147c40 f   usc.obj
 0001:00147504       InitVertexShaderState      10148504 f   usc.obj
 0001:00147594       InitPixelShaderState       10148594 f   usc.obj
 0001:001476a4       IsInvariantShader          101486a4 f   usc.obj
 0001:00147844       SetErrorHandler            10148844 f   usc.obj
 0001:00147868       CleanUpOnError             10148868 f   usc.obj
 0001:001478e8       CompileUniflex             101488e8 f   usc.obj
 0001:00147ffc       DebugVerifyInstGroup       10148ffc f   usc.obj
 0001:0014a0c8       DecodeIterationSource      1014b0c8 f   usc_utils.obj
 0001:0014a340       UseDefBaseGet              1014b340 f   usedef.obj
 0001:0014a66c       UseDefValidRegisterType    1014b66c f   usedef.obj
 0001:0014a848       UseDefReplace              1014b848 f   usedef.obj
 0001:0014ab08       GetInstOrder               1014bb08 f   usedef.obj
 0001:0014b144       UseDefGetOrCreate          1014c144 f   usedef.obj
 0001:0014b2d4       UseDefSet                  1014c2d4 f   usedef.obj
 0001:0014b70c       AppendToDroppedUsesList    1014c70c f   usedef.obj
 0001:0014b77c       UseDefInsertUse            1014c77c f   usedef.obj
 0001:0014b940       GetUseFmt                  1014c940 f   usedef.obj
 0001:0014ba44       UseDefUpdateFmt            1014ca44 f   usedef.obj
 0001:0014bb14       UseDefGetUseBlock          1014cb14 f   usedef.obj
 0001:0014bcc4       GetDefFmt                  1014ccc4 f   usedef.obj
 0001:0014be70       UseDefBaseDropDef          1014ce70 f   usedef.obj
 0001:0014c208       UseDefDropDef              1014d208 f   usedef.obj
 0001:0014c4bc       UseDefRemoveUse            1014d4bc f   usedef.obj
 0001:0014c714       UseDefReplaceUse           1014d714 f   usedef.obj
 0001:0014d71c       UseDefSubstInstructionUse  1014e71c f   usedef.obj
 0001:0014e240       GetEarliestInstFromSet     1014f240 f   usedef.obj
 0001:0014e6e8       UseDefCheckUnusedInst      1014f6e8 f   usedef.obj
 0001:0014e8dc       UseDefCheckUnusedArg       1014f8dc f   usedef.obj
 0001:0014f294       UseDefGetSourceOrPartialDestUseMask 10150294 f   usedef.obj
 0001:0014f718       UseDefRemoveInstArgs       10150718 f   usedef.obj
 0001:0014f8e8       UseDefRemoveFromLists      101508e8 f   usedef.obj
 0001:0014fa0c       UseDefRemoveArgFromLists   10150a0c f   usedef.obj
 0001:0014faac       UseDefInsertInstArgs       10150aac f   usedef.obj
 0001:0014fcbc       UseDefInsertIntoLists      10150cbc f   usedef.obj
 0001:0014fd68       UseDefInsertArgIntoLists   10150d68 f   usedef.obj
 0001:00150900       UseDefGetLastDefine        10151900 f   usedef.obj
 0001:00150d44       USCPathSetHint_C10ToF16    10151d44 f   pconvert.obj
 0001:00150d70       USCPathSetHint_C10ToF32    10151d70 f   pconvert.obj
 0001:00150d9c       USCPathSetHint_F16ToF32    10151d9c f   pconvert.obj
 0001:00150dc8       USCPathSetHint_C10F16ToF32 10151dc8 f   pconvert.obj
 0001:00152f28       EstimateCycleCostForInst   10153f28 f   pconvert.obj
 0001:001534b4       EstimateCycleCostForBlock  101544b4 f   pconvert.obj
 0001:00153dec       PCShaderSkip4              10154dec f   uspbin.obj
 0001:00153e10       PCShaderSkip2              10154e10 f   uspbin.obj
 0001:00153e34       PCShaderSkip1              10154e34 f   uspbin.obj
 0001:00153e58       PCShaderSkipN              10154e58 f   uspbin.obj
 0001:00153e80       PCShaderWrite4             10154e80 f   uspbin.obj
 0001:00153f14       PCShaderWrite2             10154f14 f   uspbin.obj
 0001:00153f78       PCShaderWrite1             10154f78 f   uspbin.obj
 0001:00153fc4       PCShaderWriteN             10154fc4 f   uspbin.obj
 0001:00154040       UseAssemblerGetLabelAddress 10155040 f   uspbin.obj
 0001:00154074       UseAssemblerError          10155074 f   uspbin.obj
 0001:001540c4       GetShaderAltResultRegs     101550c4 f   uspbin.obj
 0001:00154304       BuildPCShader              10155304 f   uspbin.obj
 0001:001543f8       BuildPCBlockHdr            101553f8 f   uspbin.obj
 0001:00154468       BuildPCProgDesc            10155468 f   uspbin.obj
 0001:0015456c       CalcConstTableSizeForMemMappedConsts 1015556c f   uspbin.obj
 0001:001546a0       CalcConstTableSize         101556a0 f   uspbin.obj
 0001:001547d4       BuildPCProgDescHdr         101557d4 f   uspbin.obj
 0001:001555a4       GetShaderResultInfo        101565a4 f   uspbin.obj
 0001:00155798       BuildPCProgDescVSInputUsage 10156798 f   uspbin.obj
 0001:00155874       BuildPCProgDescBRNList     10156874 f   uspbin.obj
 0001:00155934       BuildPCProgDescPSInputList 10156934 f   uspbin.obj
 0001:00155d18       BuildPCProgDescConstListForMemoryMappedConsts 10156d18 f   uspbin.obj
 0001:00156130       AddC10UnpackedConstant     10157130 f   uspbin.obj
 0001:00156200       AddC10ConstantEntry        10157200 f   uspbin.obj
 0001:001562e4       AddC10Constant             101572e4 f   uspbin.obj
 0001:00156430       AddU8Constant              10157430 f   uspbin.obj
 0001:00156544       BuildPCProgDescConstList   10157544 f   uspbin.obj
 0001:001568bc       BuildPCProgDescSAUpdateCode 101578bc f   uspbin.obj
 0001:0015691c       EncodeInstsBP              1015791c f   uspbin.obj
 0001:001569a4       BuildPCProgDescValidShdrOutputs 101579a4 f   uspbin.obj
 0001:00156ab4       BuildPCLabelCB             10157ab4 f   uspbin.obj
 0001:00156b20       BuildPCBranchCB            10157b20 f   uspbin.obj
 0001:00156cc0       BuildPCDataForBasicBlockCB 10157cc0 f   uspbin.obj
 0001:00156ff8       BuildHWCodeBlock           10157ff8 f   uspbin.obj
 0001:001573a0       SetupPCInstDesc            101583a0 f   uspbin.obj
 0001:0015751c       ConvertMOESwizzleToHwFormat 1015851c f   uspbin.obj
 0001:001575c4       BuildSampleBlock           101585c4 f   uspbin.obj
 0001:0015802c       BuildSampleUnpackBlock     1015902c f   uspbin.obj
 0001:00158ae0       UpdateMOEState             10159ae0 f   uspbin.obj
 0001:00158d70       PointActionsUspBinCB       10159d70 f   uspbin.obj
 0001:00158fbc       AlignToEvenUspBinCB        10159fbc f   uspbin.obj
 0001:001595a8       InsertAltOutPutsAndRecordResultRefs 1015a5a8 f   uspbin.obj
 0001:001597e4       CheckResultDest            1015a7e4 f   uspbin.obj
 0001:0015b2c0       UseAssemblerError          1015c2c0 f   hw.obj
 0001:0015b310       UseAssemblerGetLabelAddress 1015c310 f   hw.obj
 0001:0015b35c       UseAssemblerSetLabelAddress 1015c35c f   hw.obj
 0001:0015b3a4       UseAssemblerGetLabelName   1015c3a4 f   hw.obj
 0001:0015b3d8       UseAssemblerRealloc        1015c3d8 f   hw.obj
 0001:0015b4f0       CopyConstantTable          1015c4f0 f   hw.obj
 0001:0015b72c       GetConstantTableSize       1015c72c f   hw.obj
 0001:0015b7e0       GetConstantTableEntrySize  1015c7e0 f   hw.obj
 0001:0015b9a0       CopyConstantTableEntry     1015c9a0 f   hw.obj
 0001:0015bd94       CopyC10UnpackedConstantTableEntry 1015cd94 f   hw.obj
 0001:0015be90       AddC10Constant             1015ce90 f   hw.obj
 0001:0015bf10       CopyC10PackedConstantTableEntry 1015cf10 f   hw.obj
 0001:0015c07c       CopySAMappedConstantsTable 1015d07c f   hw.obj
 0001:0015c30c       GetConstantTableSizeForSAMappedConsts 1015d30c f   hw.obj
 0001:0015c3ac       CompileInstrsCB            1015d3ac f   hw.obj
 0001:0015c530       CompileLabelCB             1015d530 f   hw.obj
 0001:0015c604       CompileBranchCB            1015d604 f   hw.obj
 0001:0015c788       AlignToEvenHwCB            1015d788 f   hw.obj
 0001:0015ea48       PrintValidShaderOutputs    1015fa48 f   debug.obj
 0001:0015eb70       PrintInvariantShaderOutputs 1015fb70 f   debug.obj
 0001:0015ec98       PrintInputInst             1015fc98 f   debug.obj
 0001:0015ed58       PrintTextureFilterType     1015fd58 f   debug.obj
 0001:0015ee10       PrintRangeList             1015fe10 f   debug.obj
 0001:0015ef10       PrintConstantBufferDescription 1015ff10 f   debug.obj
 0001:0015f1c8       PrintInputBitArray         101601c8 f   debug.obj
 0001:00160120       FixupLabelAddresses        10161120 f   useasm:useasm.obj
 0001:001603f4       SetLabelAddress            101613f4 f   useasm:useasm.obj
 0001:00160790       AssembleDot34              10161790 f   useasm:useasm.obj
 0001:00161bf8       CheckArgFlags              10162bf8 f   useasm:useasm.obj
 0001:00162080       CheckFlags                 10163080 f   useasm:useasm.obj
 0001:00162c30       EncodeDest                 10163c30 f   useasm:useasm.obj
 0001:00162cb4       EncodeArgument             10163cb4 f   useasm:useasm.obj
 0001:00162e70       EncodeDestBank             10163e70 f   useasm:useasm.obj
 0001:00163138       GetRegisterTypeName        10164138 f   useasm:useasm.obj
 0001:001631b8       GPIRegistersUseTempBank    101641b8 f   useasm:useasm.obj
 0001:00163208       EncodeSrc0Bank             10164208 f   useasm:useasm.obj
 0001:0016335c       IsValidSrc0Bank            1016435c f   useasm:useasm.obj
 0001:001634c0       EncodeSrc12Bank            101644c0 f   useasm:useasm.obj
 0001:001637c8       CheckAndEncodeRegisterNumber 101647c8 f   useasm:useasm.obj
 0001:00163d18       EncodeIndex                10164d18 f   useasm:useasm.obj
 0001:00163e98       CheckAndEncodeGlobalRegisterNumber 10164e98 f   useasm:useasm.obj
 0001:00164058       CheckAndEncodeImmediate    10165058 f   useasm:useasm.obj
 0001:00164124       CheckSignedImmediate       10165124 f   useasm:useasm.obj
 0001:0016423c       EncodeSrc0                 1016523c f   useasm:useasm.obj
 0001:001642c0       EncodeSrc1                 101652c0 f   useasm:useasm.obj
 0001:00164344       EncodeSrc2                 10165344 f   useasm:useasm.obj
 0001:001643c8       EncodePredicate            101653c8 f   useasm:useasm.obj
 0001:00164568       EncodeTestInstruction      10165568 f   useasm:useasm.obj
 0001:00165124       EncodeUnusedSource         10166124 f   useasm:useasm.obj
 0001:001651bc       EncodeTestInstruction_AluOp 101661bc f   useasm:useasm.obj
 0001:0016568c       EncodeTestInstruction_FloatAluOp 1016668c f   useasm:useasm.obj
 0001:001658d0       EncodeTestInstruction_Repeat 101668d0 f   useasm:useasm.obj
 0001:00165bf4       CheckTestSourceBankRestrictions 10166bf4 f   useasm:useasm.obj
 0001:00165c7c       EncodeFloatInstruction     10166c7c f   useasm:useasm.obj
 0001:001667cc       EncodeFloatMod             101677cc f   useasm:useasm.obj
 0001:00166838       EncodeFloatRepeats         10167838 f   useasm:useasm.obj
 0001:001669c0       EncodeSOP2Instruction      101679c0 f   useasm:useasm.obj
 0001:00167cf0       EncodePackInstruction      10168cf0 f   useasm:useasm.obj
 0001:00168b80       CheckByteMask              10169b80 f   useasm:useasm.obj
 0001:00168c2c       EncodeBitwiseInstruction   10169c2c f   useasm:useasm.obj
 0001:00169500       ExpandMacros               1016a500 f   useasm:useasm.obj
 0001:0016ad50       IntSrcSel                  1016bd50 f   useasm:useasm.obj
 0001:0016adc4       EncodeFDPCInstruction      1016bdc4 f   useasm:useasm.obj
 0001:0016b230       EncodeFDDPInstruction      1016c230 f   useasm:useasm.obj
 0001:0016b74c       EncodeFDDPCInstruction     1016c74c f   useasm:useasm.obj
 0001:0016bdbc       EncodeMovcInstruction      1016cdbc f   useasm:useasm.obj
 0001:0016c300       EncodeMOVCTest             1016d300 f   useasm:useasm.obj
 0001:0016c470       EncodeEfoInstruction       1016d470 f   useasm:useasm.obj
 0001:0016c9b0       EncodeSOPWMInstruction     1016d9b0 f   useasm:useasm.obj
 0001:0016d580       EncodeLRP1Instruction      1016e580 f   useasm:useasm.obj
 0001:0016e468       EncodeLRP2Instruction      1016f468 f   useasm:useasm.obj
 0001:0016f444       EncodeSOP3Instruction      10170444 f   useasm:useasm.obj
 0001:001709d4       EncodeFPMAInstruction      101719d4 f   useasm:useasm.obj
 0001:001715cc       EncodeIMA16Instruction     101725cc f   useasm:useasm.obj
 0001:00171fb8       EncodeIMAEInstruction      10172fb8 f   useasm:useasm.obj
 0001:00172a84       EncodeADIFInstruction      10173a84 f   useasm:useasm.obj
 0001:00172f08       EncodeSSUM16Instruction    10173f08 f   useasm:useasm.obj
 0001:001738b0       EncodeFIRVInstruction      101748b0 f   useasm:useasm.obj
 0001:00174158       EncodeFIRVHInstruction     10175158 f   useasm:useasm.obj
 0001:001747b0       EncodeBILINInstruction     101757b0 f   useasm:useasm.obj
 0001:001750d0       EncodeFIRHInstruction      101760d0 f   useasm:useasm.obj
 0001:00175a6c       EncodeFIRHHInstruction     10176a6c f   useasm:useasm.obj
 0001:00176498       EncodeSMPInstruction       10177498 f   useasm:useasm.obj
 0001:00176dd0       EncodeSMPInstruction_RepeatCount 10177dd0 f   useasm:useasm.obj
 0001:00176f08       EncodeLDSTInstruction      10177f08 f   useasm:useasm.obj
 0001:00177b7c       EncodeLDSTCacheFlags       10178b7c f   useasm:useasm.obj
 0001:00177ce0       EncodeLAPCInstruction      10178ce0 f   useasm:useasm.obj
 0001:00177e24       EncodeBranchInstruction    10178e24 f   useasm:useasm.obj
 0001:00178214       GetLabelAddress            10179214 f   useasm:useasm.obj
 0001:001784a0       EncodeIDFInstruction       101794a0 f   useasm:useasm.obj
 0001:001787a8       EncodeWDFInstruction       101797a8 f   useasm:useasm.obj
 0001:0017894c       EncodeEmitInstruction      1017994c f   useasm:useasm.obj
 0001:0017922c       EncodeEmitInstructionSource 1017a22c f   useasm:useasm.obj
 0001:0017938c       EncodeSMOAInstruction      1017a38c f   useasm:useasm.obj
 0001:0017993c       EncodeSMLSIInstruction     1017a93c f   useasm:useasm.obj
 0001:0017a2f0       EncodeMOEInstruction       1017b2f0 f   useasm:useasm.obj
 0001:0017a878       EncodeSETFCInstruction     1017b878 f   useasm:useasm.obj
 0001:0017ab08       EncodeLIMMInstruction      1017bb08 f   useasm:useasm.obj
 0001:0017ae18       EncodeMOVInstruction       1017be18 f   useasm:useasm.obj
 0001:0017b324       EncodeMutexInstruction     1017c324 f   useasm:useasm.obj
 0001:0017b540       EncodeLDRSTRInstruction    1017c540 f   useasm:useasm.obj
 0001:0017bad4       EncodeLDRSTRGlobalRegisterNumber 1017cad4 f   useasm:useasm.obj
 0001:0017bbc4       EncodePTOFFPCOEFFInstruction 1017cbc4 f   useasm:useasm.obj
 0001:0017be20       EncodeATST8Instruction     1017ce20 f   useasm:useasm.obj
 0001:0017c43c       EncodeDEPTHFInstruction    1017d43c f   useasm:useasm.obj
 0001:0017c850       EncodeSETMInstruction      1017d850 f   useasm:useasm.obj
 0001:0017ca64       EncodePaddingInstruction   1017da64 f   useasm:useasm.obj
 0001:0017cb80       EncodeWOPInstruction       1017db80 f   useasm:useasm.obj
 0001:0017ea44       _DllMainCRTStartupHelper   1017fa44 f   corelib0:pegdmain.obj
 0001:0017ed80       doexit                     1017fd80 f   corelib0:cexit.obj
