 libGLES_CM

 Timestamp is 4f20d33b (Wed Jan 25 23:14:51 2012)

 Preferred load address is 10000000

 Start         Length     Name                   Class
 0001:00000000 00000004H .CRT$XCA                CODE
 0001:00000004 00000004H .CRT$XCZ                CODE
 0001:00000008 00000004H .CRT$XIA                CODE
 0001:0000000c 00000004H .CRT$XIZ                CODE
 0001:00000010 00000004H .CRT$XPA                CODE
 0001:00000014 00000004H .CRT$XPZ                CODE
 0001:00000018 00000004H .CRT$XTA                CODE
 0001:0000001c 00000004H .CRT$XTZ                CODE
 0001:00000020 00025dbbH .rdata                  CODE
 0001:00025ddc 00000027H .rdata$debug            CODE
 0001:00025e04 0012e324H .text                   CODE
 0001:00154128 00000074H .xdata                  CODE
 0001:0015419c 00000050H .idata$2                CODE
 0001:001541ec 00000014H .idata$3                CODE
 0001:00154200 000001f4H .idata$4                CODE
 0001:001543f4 00000254H .idata$6                CODE
 0001:00154650 000010a7H .edata                  CODE
 0002:00000000 000001f4H .idata$5                DATA
 0002:000001f4 0000000cH .data                   DATA
 0002:00000200 00000024H .bss                    DATA
 0003:00000000 00002a60H .pdata                  DATA

  Address         Publics by Value              Rva+Base       Lib:Object

 0000:00000000       ___safe_se_handler_count   00000000     <absolute>
 0000:00000000       ___safe_se_handler_table   00000000     <absolute>
 0001:00000000       __xc_a                     10001000     corelib0:crt0init.obj
 0001:00000004       __xc_z                     10001004     corelib0:crt0init.obj
 0001:00000008       __xi_a                     10001008     corelib0:crt0init.obj
 0001:0000000c       __xi_z                     1000100c     corelib0:crt0init.obj
 0001:00000010       __xp_a                     10001010     corelib0:crt0init.obj
 0001:00000014       __xp_z                     10001014     corelib0:crt0init.obj
 0001:00000018       __xt_a                     10001018     corelib0:crt0init.obj
 0001:0000001c       __xt_z                     1000101c     corelib0:crt0init.obj
 0001:000001a8       ??_C@_0EN@NPDOHGA@InitAccumUSECodeBlocks?3?5Failed?5t@ 100011a8     accum.obj
 0001:000001f8       ??_C@_0EE@ILGDEPOC@InitAccumUSECodeBlocks?3?5Couldn?8t@ 100011f8     accum.obj
 0001:00000240       ??_C@_0FA@PGGJFPP@InitAccumUSECodeBlocks?3?5Couldn?8t@ 10001240     accum.obj
 0001:00000290       ??_C@_0FE@ELICNGN@c?3?2data?2jatin?2powervr_build?2ddk1@ 10001290     accum.obj
 0001:000002e8       ??_C@_0EL@HAKEABCF@c?3?2data?2jatin?2powervr_build?2ddk1@ 100012e8     accum.obj
 0001:00000334       __real@bf800000            10001334     accum.obj
 0001:00000338       __real@3f800000            10001338     accum.obj
 0001:0000033c       __real@40000000            1000133c     accum.obj
 0001:00000340       __real@00000000            10001340     accum.obj
 0001:000004b0       ??_C@_0FF@OAJPNBLH@c?3?2data?2jatin?2powervr_build?2ddk1@ 100014b0     bufobj.obj
 0001:00000508       ??_C@_0CC@KBBBBNHJ@ReclaimBufferObjectMemKRM?3?5Calle@ 10001508     bufobj.obj
 0001:0000052c       ??_C@_0CE@NECJBKEL@DestroyBufferObjectGhostKRM?3?5Cal@ 1000152c     bufobj.obj
 0001:00000550       ??_C@_0DA@DDAIGOKO@FreeBufferObject?3?5Problem?5freein@ 10001550     bufobj.obj
 0001:00000580       ??_C@_0CI@BHPENKLO@glBindBuffer?3?5CreateBufferObject@ 10001580     bufobj.obj
 0001:000005a8       ??_C@_0N@BONEPPLO@glBindBuffer?$AA@ 100015a8     bufobj.obj
 0001:000005b8       ??_C@_0BA@DMNLADIO@glDeleteBuffers?$AA@ 100015b8     bufobj.obj
 0001:000005c8       ??_C@_0N@LAOHBIBA@glGenBuffers?$AA@ 100015c8     bufobj.obj
 0001:000005d8       ??_C@_0CP@CCPHLIGN@glBufferData?3?5Can?8t?5allocate?5mem@ 100015d8     bufobj.obj
 0001:00000608       ??_C@_0EE@KKKLGPPD@glBufferData?3?5Can?8t?5update?1free?5@ 10001608     bufobj.obj
 0001:0000064c       ??_C@_0N@JHHJMABP@glBufferData?$AA@ 1000164c     bufobj.obj
 0001:00000660       ??_C@_0EA@HMGPGMMA@glBufferSubData?3?5Can?8t?5update?5da@ 10001660     bufobj.obj
 0001:000006a0       ??_C@_0CL@FEPBBFGL@glBufferSubData?3?5No?5memory?5for?5o@ 100016a0     bufobj.obj
 0001:000006cc       ??_C@_0BA@GAJMDBBN@glBufferSubData?$AA@ 100016cc     bufobj.obj
 0001:000006dc       ??_C@_0CH@MGCNBDDM@glMapBuffer?3?5Buffer?5didn?8t?5becom@ 100016dc     bufobj.obj
 0001:00000704       ??_C@_0P@MBENIONB@glMapBufferOES?$AA@ 10001704     bufobj.obj
 0001:00000714       ??_C@_0BB@CEFEJGJJ@glUnmapBufferOES?$AA@ 10001714     bufobj.obj
 0001:00000890       ??_C@_0DF@GLBDIODB@Couldn?8t?5allocate?5USE?5fragment?5c@ 10001890     clear.obj
 0001:000008c8       ??_C@_0DD@MILFIDMN@Couldn?8t?5allocate?5USE?5vertex?5cod@ 100018c8     clear.obj
 0001:00000900       ??_C@_0FE@PLJGMPGP@c?3?2data?2jatin?2powervr_build?2ddk1@ 10001900     clear.obj
 0001:00000954       __real@44bfc000            10001954     clear.obj
 0001:00000958       ??_C@_0CA@KMPCDMKP@glClear?3?5Can?8t?5send?5clear?5prims?$AA@ 10001958     clear.obj
 0001:00000978       ??_C@_0CH@BIKEBNCL@glClear?3?5Can?8t?5send?5drawmask?5for@ 10001978     clear.obj
 0001:000009a0       ??_C@_0BP@PPEGMJNN@glClear?3?5Can?8t?5prepare?5to?5draw?$AA@ 100019a0     clear.obj
 0001:000009c0       ??_C@_07IBAPPAHJ@glClear?$AA@ 100019c0     clear.obj
 0001:000009c8       ??_C@_0N@OGLMDNKC@glClearColor?$AA@ 100019c8     clear.obj
 0001:000009d8       __real@37800000            100019d8     clear.obj
 0001:000009dc       ??_C@_0O@NPNIINAH@glClearColorx?$AA@ 100019dc     clear.obj
 0001:000009ec       ??_C@_0O@FMBMCDIL@glClearDepthf?$AA@ 100019ec     clear.obj
 0001:000009fc       ??_C@_0O@IIFNBMFE@glClearDepthx?$AA@ 100019fc     clear.obj
 0001:00000a0c       ??_C@_0P@KBLPBBFP@glClearStencil?$AA@ 10001a0c     clear.obj
 0001:00000b88       ??_C@_0FG@ONEFHPBO@c?3?2data?2jatin?2powervr_build?2ddk1@ 10001b88     drawtex.obj
 0001:00000be0       ??_C@_0O@BJIAOEIB@glDrawTexsOES?$AA@ 10001be0     drawtex.obj
 0001:00000bf0       ??_C@_0CK@OHPNNDMO@DrawTexture?3?5Can?8t?5get?5index?5buf@ 10001bf0     drawtex.obj
 0001:00000c1c       ??_C@_0CL@NFHGMCC@DrawTexture?3?5Can?8t?5get?5vertex?5bu@ 10001c1c     drawtex.obj
 0001:00000c48       ??_C@_0CB@BIIHDHOA@DrawTexture?3?5No?5textures?5enabled@ 10001c48     drawtex.obj
 0001:00000c6c       ??_C@_0CD@EIFIEKG@DrawTexture?3?5Can?8t?5prepare?5to?5dr@ 10001c6c     drawtex.obj
 0001:00000c90       ??_C@_0O@DDNAGLKC@glDrawTexiOES?$AA@ 10001c90     drawtex.obj
 0001:00000ca0       ??_C@_0O@LBIAPMHD@glDrawTexfOES?$AA@ 10001ca0     drawtex.obj
 0001:00000cb0       ??_C@_0O@GOFANFJA@glDrawTexxOES?$AA@ 10001cb0     drawtex.obj
 0001:00000cc0       ??_C@_0P@NABHNIJE@glDrawTexsvOES?$AA@ 10001cc0     drawtex.obj
 0001:00000cd0       ??_C@_0P@HCFKPJGJ@glDrawTexivOES?$AA@ 10001cd0     drawtex.obj
 0001:00000ce0       ??_C@_0P@IDAMELLM@glDrawTexfvOES?$AA@ 10001ce0     drawtex.obj
 0001:00000cf0       ??_C@_0P@LKNACIFH@glDrawTexxvOES?$AA@ 10001cf0     drawtex.obj
 0001:00000ec0       ??_C@_0FJ@NNNNAAPH@c?3?2data?2jatin?2powervr_build?2ddk1@ 10001ec0     drawvarray.obj
 0001:00000f1c       ??_C@_0DL@EJGAANDO@WriteDirect16Indices?3?5Bad?5eMode?5@ 10001f1c     drawvarray.obj
 0001:00000f58       ??_C@_0CE@EEAAHDAN@Ran?5out?5of?5sync?5objects?5on?5frame@ 10001f58     drawvarray.obj
 0001:00000f7c       ??_C@_0CF@OPCOLKOD@glDrawArrays?3?5ValidateState?$CI?$CJ?5fa@ 10001f7c     drawvarray.obj
 0001:00000fa4       ??_C@_0CE@OFNEMIJL@glDrawArrays?3?5Can?8t?5prepare?5to?5d@ 10001fa4     drawvarray.obj
 0001:00000fc8       ??_C@_0N@CMNPPOHA@glDrawArrays?$AA@ 10001fc8     drawvarray.obj
 0001:00000fd8       ??_C@_0DD@LFLPAFCM@GetNumIndices?3?5Bad?5mode?5?$CI0x?$CFX?$CJ?5?9@ 10001fd8     drawvarray.obj
 0001:00001010       ??_C@_0EN@KPOHHGCE@CreateSequentialStaticIndices?3?5C@ 10002010     drawvarray.obj
 0001:00001060       ??_C@_0EM@OILMKBPC@CreateLineStripStaticIndices?3?5Ca@ 10002060     drawvarray.obj
 0001:000010ac       ??_C@_0DI@KOHBCCOJ@DrawBatchOnVBuffer?3?5Bad?5mode?5?$CI0x@ 100020ac     drawvarray.obj
 0001:000010e4       ??_C@_0DE@CBGMFHGC@DrawBatchOnVBuffer?3?5Out?5of?5memor@ 100020e4     drawvarray.obj
 0001:00001118       ??_C@_0CL@BAGDGJKF@DrawBatchOnVBuffer?3?5ValidateStat@ 10002118     drawvarray.obj
 0001:00001144       ??_C@_0CH@GKDJKBAC@glDrawElements?3?5ValidateState?$CI?$CJ?5@ 10002144     drawvarray.obj
 0001:0000116c       ??_C@_0CG@JHPPPBMJ@glDrawElements?3?5Can?8t?5prepare?5to@ 1000216c     drawvarray.obj
 0001:00001194       ??_C@_0P@MENFIFGE@glDrawElements?$AA@ 10002194     drawvarray.obj
 0001:000011a4       ??_C@_0DE@HBMCBJJL@Index?5offset?5?$CFu?5is?5larger?5than?5i@ 100021a4     drawvarray.obj
 0001:000011d8       ??_C@_0EE@NPKLEAAF@PickDrawElementsProc?3?5Failed?5to?5@ 100021d8     drawvarray.obj
 0001:00001220       ??_C@_0FA@NJKGLILA@PickDrawElementsProc?3?5Resized?5dy@ 10002220     drawvarray.obj
 0001:00001270       ??_C@_0DH@DCBPMFGG@PickDrawElementsProc?3?5ScheduleTA@ 10002270     drawvarray.obj
 0001:000012a8       ??_C@_0DP@JPEMBNKA@DetermineMinAndMaxIndices?3?5Bad?5t@ 100022a8     drawvarray.obj
 0001:000012e8       ??_C@_0DG@ODPFJHB@TransformIndicesTo16Bits?3?5Unsupp@ 100022e8     drawvarray.obj
 0001:00001320       ??_C@_0DF@CMCFEOJA@Index?5offset?5?$CFld?5is?5larger?5than?5@ 10002320     drawvarray.obj
 0001:00001358       ??_C@_0CI@IPGPFDCC@TransformIndicesTo16Bits?3?5Out?5of@ 10002358     drawvarray.obj
 0001:00001380       ??_C@_0CK@INANLONG@glMultiDrawArrays?3?5ValidateState@ 10002380     drawvarray.obj
 0001:000013ac       ??_C@_0DB@FBJOOIDG@glMultiDrawArrays?3?5Out?5of?5memory@ 100023ac     drawvarray.obj
 0001:000013e0       ??_C@_0BC@IBABPJFA@glMultiDrawArrays?$AA@ 100023e0     drawvarray.obj
 0001:000013f4       ??_C@_0DN@NFCEMMNB@MultiDrawBatchOnVBuffer?3?5Bad?5mod@ 100023f4     drawvarray.obj
 0001:00001434       ??_C@_0DJ@ILKOCDMA@MultiDrawBatchOnVBuffer?3?5Out?5of?5@ 10002434     drawvarray.obj
 0001:00001470       ??_C@_0DA@OHOOFIBA@MultiDrawBatchOnVBuffer?3?5Validat@ 10002470     drawvarray.obj
 0001:000014a0       ??_C@_0CM@MPGFMFIO@glMultiDrawElements?3?5ValidateSta@ 100024a0     drawvarray.obj
 0001:000014cc       ??_C@_0CL@MBCOBGOO@glMultiDrawElements?3?5Can?8t?5prepa@ 100024cc     drawvarray.obj
 0001:000014f8       ??_C@_0DG@GBOKBDNO@glMultiDrawElements?3?5Out?5of?5memo@ 100024f8     drawvarray.obj
 0001:00001530       ??_C@_0DI@DHBKDLOL@glMultiDrawElements?3?5Out?5of?5memo@ 10002530     drawvarray.obj
 0001:00001568       ??_C@_0DD@LIBOBONO@glMultiDrawElements?3?5Out?5of?5memo@ 10002568     drawvarray.obj
 0001:0000159c       ??_C@_0BE@MPDFJJLL@glMultiDrawElements?$AA@ 1000259c     drawvarray.obj
 0001:000015b0       ??_C@_0DK@JAHCKOAN@MultiDrawElementsDeindex?5Out?5of?5@ 100025b0     drawvarray.obj
 0001:00001774       sGLES1FunctionTable        10002774     eglglue.obj
 0001:000017a8       ??_C@_0CC@IEJIDDDF@GLESCreateGC?3?5Metrics?5init?5faile@ 100027a8     eglglue.obj
 0001:000017cc       ??_C@_0CE@PLGMILOO@GLESCreateGC?3?5Failed?5to?5init?5the@ 100027cc     eglglue.obj
 0001:000017f0       ??_C@_0DA@MGDJNMCN@GLESCreateGC?3?5Failed?5to?5create?5e@ 100027f0     eglglue.obj
 0001:00001820       ??_C@_0FG@DFBNACDH@c?3?2data?2jatin?2powervr_build?2ddk1@ 10002820     eglglue.obj
 0001:00001878       ??_C@_0CM@KMLLCEGB@GLESCreateGC?3?5Can?8t?5alloc?5memory@ 10002878     eglglue.obj
 0001:000018a4       __real@3f000000            100028a4     eglglue.obj
 0001:000018a8       __real@42000000            100028a8     eglglue.obj
 0001:000018ac       ??_C@_0CN@IAMEADJM@InitContext?3?5InitSpecialUSECodeB@ 100028ac     eglglue.obj
 0001:000018dc       ??_C@_0DF@KNGGLADJ@InitContext?3?5Failed?5to?5create?5Du@ 100028dc     eglglue.obj
 0001:00001914       ??_C@_0DJ@LJHKOHIK@InitContext?3?5Couldn?8t?5initialise@ 10002914     eglglue.obj
 0001:00001950       ??_C@_0DB@HIMENPJO@InitContext?3?5CreateVertexArrayOb@ 10002950     eglglue.obj
 0001:00001984       ??_C@_0CL@BKNIJGJF@InitContext?3?5CreateFrameBufferSt@ 10002984     eglglue.obj
 0001:000019b0       ??_C@_0CG@DEHHKJLP@InitContext?3?5CreateBufObjState?5f@ 100029b0     eglglue.obj
 0001:000019d8       ??_C@_0CH@POFJNPNC@InitContext?3?5CreateTextureState?5@ 100029d8     eglglue.obj
 0001:00001a00       ??_C@_0DC@HAGIKDIC@InitContext?3?5HashTableCreate?5for@ 10002a00     eglglue.obj
 0001:00001a34       ??_C@_0DH@HCHDGNMP@InitContext?3?5HashTableCreate?5for@ 10002a34     eglglue.obj
 0001:00001a6c       ??_C@_0DH@IIIOOFAK@InitContext?3?5HashTableCreate?5for@ 10002a6c     eglglue.obj
 0001:00001aa4       ??_C@_0CD@FFMENND@InitContext?3?5InitFFTNLState?5fail@ 10002aa4     eglglue.obj
 0001:00001ac8       ??_C@_0CN@GFNOGGAK@InitContext?3?5Failed?5to?5fill?5preg@ 10002ac8     eglglue.obj
 0001:00001af8       ??_C@_0CI@CPPPKOPL@InitContext?3?5Failed?5to?5create?5bu@ 10002af8     eglglue.obj
 0001:00001b20       ??_C@_0CB@EIJAAPDO@InitContext?3?5Invalid?5buffer?5type@ 10002b20     eglglue.obj
 0001:00001b48       ??_C@_0ED@CBCMAHJK@InitContext?3?5ignoring?5buffer?5typ@ 10002b48     eglglue.obj
 0001:00001b90       ??_C@_0EN@KJOOBKEP@InitContext?3?5ignoring?5buffer?5typ@ 10002b90     eglglue.obj
 0001:00001be0       ??_C@_0CK@LDGEEINK@InitContext?3?5Couldn?8t?5init?5light@ 10002be0     eglglue.obj
 0001:00001c0c       ??_C@_0CL@KIMMNPJE@InitContext?3?5Couldn?8t?5init?5trans@ 10002c0c     eglglue.obj
 0001:00001c38       ??_C@_0CN@IFILKDKH@InitContext?3?5Failed?5to?5create?5TA@ 10002c38     eglglue.obj
 0001:00001c68       ??_C@_0DI@EMJIGNPP@InitContext?3?5Couldn?8t?5create?5uns@ 10002c68     eglglue.obj
 0001:00001ca0       ??_C@_0CG@KFIFKAHF@InitContext?3?5CreateSharedState?5f@ 10002ca0     eglglue.obj
 0001:00001cc8       ??_C@_0EH@GDEHDGJ@FreeContextSharedState?3?5PVRSRVDe@ 10002cc8     eglglue.obj
 0001:00001d10       ??_C@_0EJ@IGAIDCDO@FreeContextSharedState?3?5PVRSRVDe@ 10002d10     eglglue.obj
 0001:00001d60       ??_C@_0EI@EIAMFMMD@FreeContextSharedState?3?5PVRSRVDe@ 10002d60     eglglue.obj
 0001:00001da8       ??_C@_0DC@LHAGPGKP@CreateSharedState?3?5Couldn?8t?5crea@ 10002da8     eglglue.obj
 0001:00001ddc       ??_C@_0DL@DFDNDDFB@CreateSharedState?3?5Failed?5to?5cre@ 10002ddc     eglglue.obj
 0001:00001e18       ??_C@_0DN@FNJGKOMG@CreateSharedState?3?5Failed?5to?5cre@ 10002e18     eglglue.obj
 0001:00001e58       ??_C@_0DO@IIFCLGPC@CreateSharedState?3?5Failed?5to?5cre@ 10002e58     eglglue.obj
 0001:00001e98       ??_C@_0DM@LNCJHMDH@CreateSharedState?3?5Failed?5to?5cre@ 10002e98     eglglue.obj
 0001:00001ed8       ??_C@_0EJ@BKMJGKGK@CreateSharedState?3?5Couldn?8t?5init@ 10002ed8     eglglue.obj
 0001:00001f28       ??_C@_0EF@DANIEHPF@CreateSharedState?3?5Couldn?8t?5init@ 10002f28     eglglue.obj
 0001:00001f70       ??_C@_0DL@OPPGANOI@CreateSharedState?3?5Couldn?8t?5init@ 10002f70     eglglue.obj
 0001:00001fb0       ??_C@_0EE@BMLAEGPJ@CreateSharedState?3?5PVRSRVDestroy@ 10002fb0     eglglue.obj
 0001:00001ff8       ??_C@_0EC@KCNPELEL@CreateSharedState?3?5PVRSRVCreateM@ 10002ff8     eglglue.obj
 0001:00002040       ??_C@_0EC@KMIBOLGN@CreateSharedState?3?5PVRSRVDestroy@ 10003040     eglglue.obj
 0001:00002088       ??_C@_0ED@GFIBOKDL@CreateSharedState?3?5PVRSRVCreateM@ 10003088     eglglue.obj
 0001:000020d0       ??_C@_0EB@GEMCON@CreateSharedState?3?5PVRSRVCreateM@ 100030d0     eglglue.obj
 0001:00002114       ??_C@_0CJ@IBBNODEI@DeInitContext?3?5FreeTexStreamStat@ 10003114     eglglue.obj
 0001:00002140       ??_C@_0CH@JKADMECB@DeInitContext?3?5FreeTextureState?5@ 10003140     eglglue.obj
 0001:00002168       ??_C@_0CH@OFECLHD@GLESDestroyGC?3?5Failed?5to?5deinit?5@ 10003168     eglglue.obj
 0001:00002190       ??_C@_0DF@LNNGFKPJ@GLESMakeCurrentGC?3?5Invalid?5drawa@ 10003190     eglglue.obj
 0001:000021c8       ??_C@_0BD@OHHMDKJE@glIsVertexArrayOES?$AA@ 100031c8     eglglue.obj
 0001:000021dc       ??_C@_0BF@MLJKHCLD@glGenVertexArraysOES?$AA@ 100031dc     eglglue.obj
 0001:000021f4       ??_C@_0BI@JDOHIGAB@glDeleteVertexArraysOES?$AA@ 100031f4     eglglue.obj
 0001:0000220c       ??_C@_0BF@GDJHAHOE@glBindVertexArrayOES?$AA@ 1000320c     eglglue.obj
 0001:00002224       ??_C@_0CH@JLEJGINJ@glEGLImageTargetRenderbufferStor@ 10003224     eglglue.obj
 0001:0000224c       ??_C@_0BN@FPPCHDBA@glEGLImageTargetTexture2DOES?$AA@ 1000324c     eglglue.obj
 0001:0000226c       ??_C@_0BH@CPIJKLBJ@glMultiDrawElementsEXT?$AA@ 1000326c     eglglue.obj
 0001:00002284       ??_C@_0BF@MOHHALAE@glMultiDrawArraysEXT?$AA@ 10003284     eglglue.obj
 0001:0000229c       ??_C@_0BH@HANHAAH@glGetBufferPointervOES?$AA@ 1000329c     eglglue.obj
 0001:000022b4       ??_C@_0BD@PIBFHNP@glTexBindStreamIMG?$AA@ 100032b4     eglglue.obj
 0001:000022c8       ??_C@_0BM@MBNDOCOP@glGetTexStreamDeviceNameIMG?$AA@ 100032c8     eglglue.obj
 0001:000022e4       ??_C@_0CD@OCNNIBKN@glGetTexStreamDeviceAttributeivI@ 100032e4     eglglue.obj
 0001:00002308       ??_C@_0BE@BMGJDPBK@glGenerateMipmapOES?$AA@ 10003308     eglglue.obj
 0001:0000231c       ??_C@_0CJ@FPBNJAAI@glGetFramebufferAttachmentParame@ 1000331c     eglglue.obj
 0001:00002348       ??_C@_0BN@CEGIKEBP@glFramebufferRenderbufferOES?$AA@ 10003348     eglglue.obj
 0001:00002368       ??_C@_0BK@IBODAJKF@glFramebufferTexture2DOES?$AA@ 10003368     eglglue.obj
 0001:00002384       ??_C@_0BM@FKHNDAOE@glCheckFramebufferStatusOES?$AA@ 10003384     eglglue.obj
 0001:000023a0       ??_C@_0BF@GBILCPIM@glGenFramebuffersOES?$AA@ 100033a0     eglglue.obj
 0001:000023b8       ??_C@_0BI@DJPGNLDO@glDeleteFramebuffersOES?$AA@ 100033b8     eglglue.obj
 0001:000023d0       ??_C@_0BF@HIIGGHIK@glBindFramebufferOES?$AA@ 100033d0     eglglue.obj
 0001:000023e8       ??_C@_0BD@PMGNFKPK@glIsFramebufferOES?$AA@ 100033e8     eglglue.obj
 0001:000023fc       ??_C@_0CA@ODMPPHIE@glGetRenderbufferParameterivOES?$AA@ 100033fc     eglglue.obj
 0001:0000241c       ??_C@_0BJ@OLDCKGHK@glRenderbufferStorageOES?$AA@ 1000341c     eglglue.obj
 0001:00002438       ??_C@_0BG@EDIBBEEP@glGenRenderbuffersOES?$AA@ 10003438     eglglue.obj
 0001:00002450       ??_C@_0BJ@GGLGLLBL@glDeleteRenderbuffersOES?$AA@ 10003450     eglglue.obj
 0001:0000246c       ??_C@_0BG@FPKCPFFN@glBindRenderbufferOES?$AA@ 1000346c     eglglue.obj
 0001:00002484       ??_C@_0BE@PCDGPFM@glIsRenderbufferOES?$AA@ 10003484     eglglue.obj
 0001:00002498       ??_C@_0BB@GPIPACKB@glGetTexGenxvOES?$AA@ 10003498     eglglue.obj
 0001:000024ac       ??_C@_0BB@FGFDGBEK@glGetTexGenfvOES?$AA@ 100034ac     eglglue.obj
 0001:000024c0       ??_C@_0BB@KHAFNDJP@glGetTexGenivOES?$AA@ 100034c0     eglglue.obj
 0001:000024d4       ??_C@_0O@OEFPDKKM@glTexGenxvOES?$AA@ 100034d4     eglglue.obj
 0001:000024e4       ??_C@_0N@DPLLCAOI@glTexGenxOES?$AA@ 100034e4     eglglue.obj
 0001:000024f4       ??_C@_0O@NNIDFJEH@glTexGenfvOES?$AA@ 100034f4     eglglue.obj
 0001:00002504       ??_C@_0N@OAGLAJAL@glTexGenfOES?$AA@ 10003504     eglglue.obj
 0001:00002514       ??_C@_0O@CMNFOLJC@glTexGenivOES?$AA@ 10003514     eglglue.obj
 0001:00002524       ??_C@_0N@GCDLJONK@glTexGeniOES?$AA@ 10003524     eglglue.obj
 0001:00002534       ??_C@_0BH@FBPJDECF@glBlendFuncSeparateOES?$AA@ 10003534     eglglue.obj
 0001:0000254c       ??_C@_0BL@LJMLCLCI@glBlendEquationSeparateOES?$AA@ 1000354c     eglglue.obj
 0001:00002568       ??_C@_0BD@BBOLNBAI@glBlendEquationOES?$AA@ 10003568     eglglue.obj
 0001:0000257c       ??_C@_0BC@DEKNHIDE@glQueryMatrixxOES?$AA@ 1000357c     eglglue.obj
 0001:00002590       ??_C@_0BD@PCEFFFDF@glWeightPointerOES?$AA@ 10003590     eglglue.obj
 0001:000025a4       ??_C@_0BI@BEEEECPN@glMatrixIndexPointerOES?$AA@ 100035a4     eglglue.obj
 0001:000025bc       ??_C@_0CE@HEFPEHID@glLoadPaletteFromModelViewMatrix@ 100035bc     eglglue.obj
 0001:000025e0       ??_C@_0BK@NDELAMFO@glCurrentPaletteMatrixOES?$AA@ 100035e0     eglglue.obj
 0001:000025fc       ??_C@_0BG@PIPFALFL@glPointSizePointerOES?$AA@ 100035fc     eglglue.obj
 0001:00002780       ??_C@_0FC@EFBLBINO@c?3?2data?2jatin?2powervr_build?2ddk1@ 10003780     fbo.obj
 0001:000027d8       ??_C@_0EM@KBDMHONC@FlushAttachableIfNeeded?3?5Schedul@ 100037d8     fbo.obj
 0001:00002828       ??_C@_0FB@KFAKONLO@FlushAttachableIfNeeded?3?5Schedul@ 10003828     fbo.obj
 0001:0000287c       ??_C@_0DO@PEBPLMAK@FBOAttachableHasBeenModified?3?5Co@ 1000387c     fbo.obj
 0001:000028bc       ??_C@_0DN@PFLJBCP@ComputeFrameBufferCompleteness?3?5@ 100038bc     fbo.obj
 0001:00002900       ??_C@_0EF@OHFJMGGP@GetFrameBufferCompleteness?3?5form@ 10003900     fbo.obj
 0001:00002948       ??_C@_0DH@IBJIGMG@ComputeFrameBufferCompleteness?3?5@ 10003948     fbo.obj
 0001:00002980       ??_C@_0DI@BMPCKJML@SetupRenderbufferFromEGLImage?3?5U@ 10003980     fbo.obj
 0001:000029b8       ??_C@_0DH@KLJNMBFI@glBindFramebufferOES?3?5ScheduleTA@ 100039b8     fbo.obj
 0001:00002c84       ui32NumCombineOpSources    10003c84     fftex.obj
 0001:00002ca8       ??_C@_0FE@EFLBAJNP@c?3?2data?2jatin?2powervr_build?2ddk1@ 10003ca8     fftex.obj
 0001:00002cfc       ??_C@_0CM@FHAMGNNL@AddFFTextureBinding?$CI?$CJ?3?5Unknown?5b@ 10003cfc     fftex.obj
 0001:00002d28       ??_C@_0DE@GAKLPCBN@ValidateFFTextureConstants?$CI?$CJ?3?5Un@ 10003d28     fftex.obj
 0001:00002d5c       ??_C@_0DN@KHKEFFN@ValidateFFTextureConstants?3?5Fail@ 10003d5c     fftex.obj
 0001:00002da0       ??_C@_0EI@FDNBMDPK@ValidateFFTextureBlending?3?5Base?5@ 10003da0     fftex.obj
 0001:00002de8       ??_C@_0DG@CBGHCOGJ@ReuseHashedBlendState?3?5Existing?5@ 10003de8     fftex.obj
 0001:00002e20       ??_C@_0EB@NEBOAFFL@ReuseHashedBlendState?3?5CreateInt@ 10003e20     fftex.obj
 0001:00002e64       ??_C@_0CH@OBEFJKKD@ReuseHashedBlendState?3?5malloc?$CI?$CJ?5@ 10003e64     fftex.obj
 0001:000030b0       ??_C@_0FK@GOJENFGE@CreateIntegerFragmentProgramFrom@ 100040b0     fftexhw.obj
 0001:00003110       ??_C@_0FG@LLHBKGK@c?3?2data?2jatin?2powervr_build?2ddk1@ 10004110     fftexhw.obj
 0001:00003168       ??_C@_0EF@IIJHPIKI@AllocateTempReg?$CI?$CJ?3?5failed?5to?5all@ 10004168     fftexhw.obj
 0001:000031b0       ??_C@_0DG@OGDMHAFJ@DeallocateTempReg?$CI?$CJ?3?5register?5nu@ 100041b0     fftexhw.obj
 0001:000031e8       ??_C@_0DB@PMKOONHO@DeallocateTempReg?$CI?$CJ?3?5invalid?5reg@ 100041e8     fftexhw.obj
 0001:0000321c       ??_C@_0CO@IOIDMMJP@EncodeGeneralColorBlend?$CI?$CJ?3?5Inval@ 1000421c     fftexhw.obj
 0001:00003250       ??_C@_0FF@ONMCLPEN@EncodeGeneralColorBlend?$CI?$CJ?3?5unsup@ 10004250     fftexhw.obj
 0001:000032a8       ??_C@_0DD@ODIGNPFI@SetupColourSourceRegTypeNum?3?5Inv@ 100042a8     fftexhw.obj
 0001:000032dc       ??_C@_0CN@HGKLNJML@EncodeGeneralAlphaBlend?$CI?$CJ?3?5Inval@ 100042dc     fftexhw.obj
 0001:00003310       ??_C@_0FF@FNECIKOI@EncodeGeneralAlphaBlend?$CI?$CJ?3?5unsup@ 10004310     fftexhw.obj
 0001:00003368       ??_C@_0DB@CGNCFONE@SetupAlphaSourceRegTypeNum?3?5Inva@ 10004368     fftexhw.obj
 0001:0000339c       ??_C@_0CL@COHPOKHD@EncodeRestrictedBlend?$CI?$CJ?3?5Invalid@ 1000439c     fftexhw.obj
 0001:000033c8       ??_C@_0CM@NLKHCNMG@EncodeRestrictedBlend?$CI?$CJ?3?5Invalid@ 100043c8     fftexhw.obj
 0001:000033f4       ??_C@_0CP@BKGJBLCH@IntegerScaleColorAndAlpha?3?5Inval@ 100043f4     fftexhw.obj
 0001:00003424       ??_C@_0DA@JMNHMPBJ@IntegerScaleColorAndAlpha?3?5Inval@ 10004424     fftexhw.obj
 0001:00003454       ??_C@_0DB@HLOFEFHM@CalculateSourceInformation?3?5Inva@ 10004454     fftexhw.obj
 0001:00003488       ??_C@_0DC@MILMKBHF@CalculateSourceInformation?3?5Inva@ 10004488     fftexhw.obj
 0001:000034c0       ??_C@_0EC@FOAHDENE@CalculateSourceInformation?$CI?$CJ?3?5un@ 100044c0     fftexhw.obj
 0001:0000366c       ??_C@_0P@LFBAMGOD@USCShaders?4txt?$AA@ 1000466c     fftnlgles.obj
 0001:0000367c       ??_C@_03FHBIKNDF@w?$CLt?$AA@ 1000467c     fftnlgles.obj
 0001:00003680       ??_C@_0CP@NMKIFBOK@InitFFTNLState?3?5Failed?5create?5FF@ 10004680     fftnlgles.obj
 0001:000036b0       ??_C@_0CK@CIFFNOBC@InitFFTNLState?3?5Failed?5create?5US@ 100046b0     fftnlgles.obj
 0001:000036e0       ??_C@_0FI@IELEDPBE@c?3?2data?2jatin?2powervr_build?2ddk1@ 100046e0     fftnlgles.obj
 0001:00003738       ??_C@_0CM@MHMEPDCK@InitFFTNLState?3?5Failed?5create?5FF@ 10004738     fftnlgles.obj
 0001:00003764       ??_C@_0BA@JNOOKNAN@fftnlshader?4txt?$AA@ 10004764     fftnlgles.obj
 0001:00003774       ??_C@_09JLEGPNFI@FFGen?3?5?$CFs?$AA@ 10004774     fftnlgles.obj
 0001:00003780       ??_C@_03OFAPEBGM@?$CFs?6?$AA@ 10004780     fftnlgles.obj
 0001:00003788       ??_C@_0FB@BIFNOOCG@SetupFFTNLShaderOutputs?3?5psOutpu@ 10004788     fftnlgles.obj
 0001:000037e0       ??_C@_0EI@PCLFMLBJ@SetupBuildFFTNLShaderConstants?3?5@ 100047e0     fftnlgles.obj
 0001:00003828       __real@3f99be61            10004828     fftnlgles.obj
 0001:0000382c       __real@3fb8aa3b            1000482c     fftnlgles.obj
 0001:00003830       __real@3c8efa35            10004830     fftnlgles.obj
 0001:00003838       ??_C@_0EB@JPHNIDEI@UpdateFFTNLShaderConstantsSize?3?5@ 10004838     fftnlgles.obj
 0001:0000387c       ??_C@_0DF@PMENDGCA@SetupUSEVertexShader?3?5Existing?5s@ 1000487c     fftnlgles.obj
 0001:000038b4       ??_C@_0DF@LBKKBKJK@SetupFFTNLShader?3?5Failed?5to?5crea@ 100048b4     fftnlgles.obj
 0001:000038ec       ??_C@_0DH@DHNIMLFL@SetupUSEVertexShader?3?5Failed?5to?5@ 100048ec     fftnlgles.obj
 0001:00003924       ??_C@_0DJ@GBEJALDC@SetupUSEVertexShader?3?5Failed?5to?5@ 10004924     fftnlgles.obj
 0001:00003960       __real@43340000            10004960     fftnlgles.obj
 0001:00003968       ??_C@_0EA@MAEPLGFI@SetupFFTNLShaderInputs?3?5psReg?9?$DOe@ 10004968     fftnlgles.obj
 0001:000039a8       ??_C@_0DL@NOBDKANL@SetupFFTNLShaderCode?3?5Failed?5to?5@ 100049a8     fftnlgles.obj
 0001:000039e4       ??_C@_0DD@CLFICDIJ@CompileFFGenUniFlexCode?3?5Unsuppo@ 100049e4     fftnlgles.obj
 0001:00003a18       ??_C@_0CI@GNMFFPDK@CompileFFGenUniFlexCode?3?5Realloc@ 10004a18     fftnlgles.obj
 0001:00003a40       ??_C@_0EG@PCNLIAEA@CompileFFGenUniFlexCode?3?5Failed?5@ 10004a40     fftnlgles.obj
 0001:00003a88       ??_C@_0EH@OIFEODKN@CompileFFGenUniFlexCode?3?5PVRUniF@ 10004a88     fftnlgles.obj
 0001:00003ad0       ??_C@_0CJ@KNHOOEOP@?6?9?9?9?9?9?9?9?9?9?9?9?9?9?9?9?9?9?9?9?9?9?9?9?9?9?9?9?9?9?9?9@ 10004ad0     fftnlgles.obj
 0001:00003c68       ??_C@_0FC@HIDPPEIA@c?3?2data?2jatin?2powervr_build?2ddk1@ 10004c68     fog.obj
 0001:00003cbc       ??_C@_07FNEIAABA@glFogfv?$AA@ 10004cbc     fog.obj
 0001:00003cc4       ??_C@_06JJHNMGPD@glFogf?$AA@ 10004cc4     fog.obj
 0001:00003ccc       ??_C@_07ELPAIOGK@glFogxv?$AA@ 10004ccc     fog.obj
 0001:00003cd4       ??_C@_06ENDMPJCM@glFogx?$AA@ 10004cd4     fog.obj
 0001:00003cdc       ??_C@_0BB@NNIEEEPA@OpenGL?5ES?9CM?51?41?$AA@ 10004cdc     get.obj
 0001:00003cf0       ??_C@_0BA@HDDICJEH@PowerVR?5SGX?5530?$AA@ 10004cf0     get.obj
 0001:00003d00       ??_C@_0BJ@FGEHHHOH@Imagination?5Technologies?$AA@ 10004d00     get.obj
 0001:00003e88       pszRenderer                10004e88     get.obj
 0001:00003e90       ??_C@_0FC@LLHPMHPF@c?3?2data?2jatin?2powervr_build?2ddk1@ 10004e90     get.obj
 0001:00003ee4       ??_C@_0M@NJHAEPDN@glIsTexture?$AA@ 10004ee4     get.obj
 0001:00003ef0       ??_C@_0L@KFPDMKNG@glIsBuffer?$AA@ 10004ef0     get.obj
 0001:00003efc       ??_C@_0BH@BMIEIFJP@glGetBufferParameteriv?$AA@ 10004efc     get.obj
 0001:00003f14       ??_C@_0BK@HONONNDB@glGetBufferParameterivOES?$AA@ 10004f14     get.obj
 0001:00003f30       ??_C@_0BA@GCPPEEDM@glGetMaterialfv?$AA@ 10004f30     get.obj
 0001:00003f40       ??_C@_0BA@HEEHMKEG@glGetMaterialxv?$AA@ 10004f40     get.obj
 0001:00003f50       ??_C@_0N@MGGMJGKA@glGetLightfv?$AA@ 10004f50     get.obj
 0001:00003f60       ??_C@_0N@NANEBINK@glGetLightxv?$AA@ 10004f60     get.obj
 0001:00003f70       ??_C@_0O@KDAJGFCL@glGetTexEnvfv?$AA@ 10004f70     get.obj
 0001:00003f80       __real@47057000            10004f80     get.obj
 0001:00003f84       __real@43820000            10004f84     get.obj
 0001:00003f88       __real@45f00800            10004f88     get.obj
 0001:00003f8c       __real@453e2000            10004f8c     get.obj
 0001:00003f90       __real@46040400            10004f90     get.obj
 0001:00003f94       __real@46040000            10004f94     get.obj
 0001:00003f98       ??_C@_0CA@NAPPJABA@GetTexEnvCombine?3?5Invalid?5pname?$AA@ 10004f98     get.obj
 0001:00003fb8       ??_C@_0CA@KPDJEMDI@GetTexEnvCombine?3?5Invalid?5scale?$AA@ 10004fb8     get.obj
 0001:00003fd8       ??_C@_0CC@JNCMAIGF@GetTexEnvCombine?3?5Invalid?5operan@ 10004fd8     get.obj
 0001:00003ffc       ??_C@_0CB@GGMOLDBH@GetTexEnvCombine?3?5Invalid?5source@ 10004ffc     get.obj
 0001:00004020       ??_C@_0CE@HGJOBHDG@GetTexEnvCombine?3?5Invalid?5operat@ 10005020     get.obj
 0001:00004044       ??_C@_0O@LFLBOLFB@glGetTexEnvxv?$AA@ 10005044     get.obj
 0001:00004054       ??_C@_0O@KIFFCCBG@glGetTexEnviv?$AA@ 10005054     get.obj
 0001:00004064       ??_C@_0BA@EGMBKDGG@glGetClipPlanef?$AA@ 10005064     get.obj
 0001:00004074       __real@47800000            10005074     get.obj
 0001:00004078       ??_C@_0BA@JCIAJMLJ@glGetClipPlanex?$AA@ 10005078     get.obj
 0001:00004088       ??_C@_0BE@DGCNLNPP@glGetTexParameteriv?$AA@ 10005088     get.obj
 0001:0000409c       ??_C@_0BE@DNHBPKMC@glGetTexParameterfv?$AA@ 1000509c     get.obj
 0001:000040b0       ??_C@_0BE@CLMJHELI@glGetTexParameterxv?$AA@ 100050b0     get.obj
 0001:000040c4       ??_C@_0M@DLGHPANC@glGetFixedv?$AA@ 100050c4     get.obj
 0001:000040d0       ??_C@_0M@CKCOBONE@glGetFloatv?$AA@ 100050d0     get.obj
 0001:000040dc       ??_C@_0O@NLMELLCJ@glGetBooleanv?$AA@ 100050dc     get.obj
 0001:000040ec       ??_C@_0O@LADEDGJO@glGetPointerv?$AA@ 100050ec     get.obj
 0001:000040fc       ??_C@_0M@INHMIHKC@glIsEnabled?$AA@ 100050fc     get.obj
 0001:00004108       ??_C@_0O@DHHDCCLF@glGetIntegerv?$AA@ 10005108     get.obj
 0001:00004118       ??_C@_0L@FPKAMKHB@glGetError?$AA@ 10005118     get.obj
 0001:00004124       ??_C@_0BK@IIHABKIK@glGetString?3?5Unknown?5name?$AA@ 10005124     get.obj
 0001:00004140       ??_C@_0M@OPOBFDCB@glGetString?$AA@ 10005140     get.obj
 0001:00004420       ??_C@_0EE@NFMPPPHF@HardwareMakeTextureMipmapLevels?3@ 10005420     makemips.obj
 0001:00004464       ??_C@_0DJ@ONPFGLHH@HardwareMakeTextureMipmapLevels?3@ 10005464     makemips.obj
 0001:000044a0       ??_C@_0FH@FMIHGDJF@c?3?2data?2jatin?2powervr_build?2ddk1@ 100054a0     makemips.obj
 0001:000044f8       ??_C@_0DL@OIPECIIE@HardwareMakeTextureMipmapLevels?3@ 100054f8     makemips.obj
 0001:00004538       ??_C@_0EG@CGMBGJPI@HardwareMipGen?3?5Timeout?5failed?5o@ 10005538     makemips.obj
 0001:00004580       ??_C@_0EE@LCPPLKAM@HardwareMipGen?3?5Failed?5to?5genera@ 10005580     makemips.obj
 0001:000045c4       ??_C@_0CL@IBOMPNIN@HardwareMipGen?3?5Unsupported?5text@ 100055c4     makemips.obj
 0001:000045f0       ??_C@_0DD@FOHGDACG@MakeTextureMipmapLevels?3?5Unknown@ 100055f0     makemips.obj
 0001:00004628       ??_C@_0EF@PABMPLIL@MakeTextureMipmapLevels?3?5The?5for@ 10005628     makemips.obj
 0001:00004670       ??_C@_0DD@DEOKBILD@MakeTextureMipmapLevels?3?5Base?5le@ 10005670     makemips.obj
 0001:00004810       ??_C@_0FF@FBOBDBA@c?3?2data?2jatin?2powervr_build?2ddk1@ 10005810     matrix.obj
 0001:000049d0       ??_C@_0CD@CEJJMLID@?5Texture?5allocation?5HWM?5?$DN?5?$CFu?5byt@ 100059d0     metrics.obj
 0001:000049f3       ??_C@_00CNPNBAHC@?$AA@     100059f3     metrics.obj
 0001:000049f4       ??_C@_0DC@FFJNNOJH@?5?5?5?5Color?5?5?5?5?5?5?5?5?5?5?5?$CF7d?1?$CF12?44f?1?$CF@ 100059f4     metrics.obj
 0001:00004a28       ??_C@_0EL@GICFPDM@?5Read?5Pixel?5Stats?5?5?$FL?5?5Calls?1perC@ 10005a28     metrics.obj
 0001:00004a74       ??_C@_0CP@GPGPFNAE@?5?5?5?5Texture?5Readback?5?5?5?5?5?5?5?5?5?$CF7d@ 10005a74     metrics.obj
 0001:00004aa4       ??_C@_0CP@EFPMDBGN@?5?5?5?5Load?5Ghost?5Texture?5?5?5?5?5?5?5?$CF7d@ 10005aa4     metrics.obj
 0001:00004ad4       ??_C@_0CP@DAAHPODP@?5?5?5?5TranslateLoadTexture?5?5?5?5?5?$CF7d@ 10005ad4     metrics.obj
 0001:00004b04       ??_C@_0CP@JNIFKJHK@?5?5?5?5AllocateTexture?5?5?5?5?5?5?5?5?5?5?$CF7d@ 10005b04     metrics.obj
 0001:00004b34       ??_C@_0CP@MOJAODCF@?5?5?5?5CopySubImage?5?5?5?5?5?5?5?5?5?5?5?5?5?$CF7d@ 10005b34     metrics.obj
 0001:00004b64       ??_C@_0CP@FNPHHMFC@?5?5?5?5CopyImage?5?5?5?5?5?5?5?5?5?5?5?5?5?5?5?5?$CF7d@ 10005b64     metrics.obj
 0001:00004b98       ??_C@_0ED@FIJCPJNJ@?5Texture?5Statistics?5?5?5?5?5?5?5?5?5?$FL?5?5C@ 10005b98     metrics.obj
 0001:00004bdc       ??_C@_0DL@IKBEOOJP@?5?5?5?5CompSubTex?5?5?5?5?5?5?5?5?5?5?5?5?5?5?5?$CF7d@ 10005bdc     metrics.obj
 0001:00004c18       ??_C@_0DL@NKGOINK@?5?5?5?5CompTex?5?5?5?5?5?5?5?5?5?5?5?5?5?5?5?5?5?5?$CF7d@ 10005c18     metrics.obj
 0001:00004c54       ??_C@_0DL@PBGOCKCE@?5?5?5?5TexSubImage?5?5?5?5?5?5?5?5?5?5?5?5?5?5?$CF7d@ 10005c54     metrics.obj
 0001:00004c90       ??_C@_0DL@HLNBPNME@?5?5?5?5TexImage?5?5?5?5?5?5?5?5?5?5?5?5?5?5?5?5?5?$CF7d@ 10005c90     metrics.obj
 0001:00004cd0       ??_C@_0FE@LIMHNONI@?5Texture?5Statistics?5?5?5?5?5?5?5?5?5?$FL?5?5C@ 10005cd0     metrics.obj
 0001:00004d24       ??_C@_0DI@ELKOOHD@?5Average?5Compress?5Sub?5Load?5MTexe@ 10005d24     metrics.obj
 0001:00004d5c       ??_C@_0DI@PINBFANE@?5Average?5Compress?5Load?5MTexels?1s@ 10005d5c     metrics.obj
 0001:00004d94       ??_C@_0DI@EODDOBJD@?5Average?5TexSubImage?5Load?5MTexel@ 10005d94     metrics.obj
 0001:00004dcc       ??_C@_0DI@NKHGKCH@?5Average?5TexImage?5Load?5MTexels?1s@ 10005dcc     metrics.obj
 0001:00004e04       ??_C@_0CL@HMCEFCIP@?5?5USC?5time?5?5?5?5?5?5?5?5?5?5?5?5?5?5?5?5?5?5?5?5?5?$CF@ 10005e04     metrics.obj
 0001:00004e30       ??_C@_0CL@PCNKBELK@?5?5FFGen?5time?5?5?5?5?5?5?5?5?5?5?5?5?5?5?5?5?5?5?5?$CF@ 10005e30     metrics.obj
 0001:00004e5c       ??_C@_0DL@BGKADPOI@?5FFGen?5stats?5?5?5?5?5?5?5?5?5?5?5?5?5?5?5?5?5?5?5?5@ 10005e5c     metrics.obj
 0001:00004e98       ??_C@_0DG@LHCMEMBE@?5?5USE?5Codeheap?5?9?5Vertex?5?5?5?5?5?5?5?5?5@ 10005e98     metrics.obj
 0001:00004ed0       ??_C@_0DG@DBNJEPBE@?5?5USE?5Codeheap?5?9?5Fragment?5?5?5?5?5?5?5@ 10005ed0     metrics.obj
 0001:00004f08       ??_C@_0DG@OPNDDMOP@?5?5MTE?5State?5?5?5?5?5?5?5?5?5?5?5?5?5?5?5?5?5?5?5?5?5@ 10005f08     metrics.obj
 0001:00004f40       ??_C@_0DG@OIPPAFMB@?5?5USSE?5fragment?5data?5?5?5?5?5?5?5?5?5?5?5?5@ 10005f40     metrics.obj
 0001:00004f78       ??_C@_0DG@IMCMIIHG@?5?5PDS?5fragment?5data?5?5?5?5?5?5?5?5?5?5?5?5?5@ 10005f78     metrics.obj
 0001:00004fb0       ??_C@_0DG@IGEGAOAE@?5?5MTE?5Copy?5data?5?5?5?5?5?5?5?5?5?5?5?5?5?5?5?5?5@ 10005fb0     metrics.obj
 0001:00004fe8       ??_C@_0DG@HCDGNMMP@?5?5PDS?5vertex?5auxiliary?5data?5?5?5?5?5@ 10005fe8     metrics.obj
 0001:00005020       ??_C@_0DG@IINDIACB@?5?5PDS?5vertex?5data?5?5?5?5?5?5?5?5?5?5?5?5?5?5?5@ 10006020     metrics.obj
 0001:00005058       ??_C@_0DG@DIENLHBG@?5?5Index?5data?5?5?5?5?5?5?5?5?5?5?5?5?5?5?5?5?5?5?5?5@ 10006058     metrics.obj
 0001:00005090       ??_C@_0DG@NHBEBOIP@?5?5Vertex?5data?5?5?5?5?5?5?5?5?5?5?5?5?5?5?5?5?5?5?5@ 10006090     metrics.obj
 0001:000050c8       ??_C@_0DG@KFPHNCJL@?5?5VDM?5Control?5?5?5?5?5?5?5?5?5?5?5?5?5?5?5?5?5?5?5@ 100060c8     metrics.obj
 0001:00005100       __real@43800000            10006100     metrics.obj
 0001:00005108       ??_C@_0ED@HMJJFMOC@?5Buffer?5Statistics?5?5?5?5?5?5?5?5?5?5?5?5?5?5@ 10006108     metrics.obj
 0001:0000514c       ??_C@_0DE@IOAPJHKI@?5Total?5Code?5Heap?5operations?5?5?5?5?5@ 1000614c     metrics.obj
 0001:00005180       ??_C@_0CM@OHLMMOEE@?5Max?5NamesArray?5operation?5?5?5?5?5?5?5@ 10006180     metrics.obj
 0001:000051ac       ??_C@_0CM@OCKLMKFM@?5Max?5USE?5Codeheap?5Alloc?5?9?5Vertex@ 100061ac     metrics.obj
 0001:000051d8       ??_C@_0CM@LAHMBOPC@?5Max?5USE?5Codeheap?5Alloc?5?9?5Fragme@ 100061d8     metrics.obj
 0001:00005204       ??_C@_0CM@EELNJONE@?5Max?5EmitState?$CI?$CJ?5?5?5?5?5?5?5?5?5?5?5?5?5?5?5?5@ 10006204     metrics.obj
 0001:00005230       ??_C@_0CM@LFAOPFKJ@?5Max?5ValidateState?$CI?$CJ?5?5?5?5?5?5?5?5?5?5?5?5@ 10006230     metrics.obj
 0001:0000525c       ??_C@_0CM@DCFHDPOA@?5Max?5Wait?5for?5TA?5?5?5?5?5?5?5?5?5?5?5?5?5?5?5?5@ 1000625c     metrics.obj
 0001:00005288       ??_C@_0CM@EKAFKDGA@?5Max?5Wait?5for?53D?5?5?5?5?5?5?5?5?5?5?5?5?5?5?5?5@ 10006288     metrics.obj
 0001:000052b4       ??_C@_0CM@EIHMADKA@?5Max?5SGXKickTA?5?5?5?5?5?5?5?5?5?5?5?5?5?5?5?5?5?5@ 100062b4     metrics.obj
 0001:000052e0       ??_C@_0CM@PKAOIFH@?5Max?5Prepare?5to?5draw?5?5?5?5?5?5?5?5?5?5?5?5@ 100062e0     metrics.obj
 0001:00005310       ??_C@_0EN@HKLJKHCM@?5?5?5?5?5?5?5?5?5Statistics?5per?5call?5?5?5?5@ 10006310     metrics.obj
 0001:00005360       ??_C@_0CO@GCICCIFB@?5PDSPixelShaderProgram?5?9?5variant@ 10006360     metrics.obj
 0001:00005390       ??_C@_0CO@ELFLDIK@?5PDSPixelShaderProgram?5?9?5variant@ 10006390     metrics.obj
 0001:000053c0       ??_C@_0BN@JCLCCDL@?5PDS?5Variant?5hit?1miss?5totals?$AA@ 100063c0     metrics.obj
 0001:000053e0       ??_C@_0DE@NDILEMMI@?5Element?5Fans?5?5?5?5?5?5?5?5?5?5?5?5?5?5?5?5?5?5?5@ 100063e0     metrics.obj
 0001:00005414       ??_C@_0DE@HGPCIELM@?5Element?5Strips?5?5?5?5?5?5?5?5?5?5?5?5?5?5?5?5?5@ 10006414     metrics.obj
 0001:00005448       ??_C@_0DE@BBHOEAE@?5Element?5Triangles?5?5?5?5?5?5?5?5?5?5?5?5?5?5@ 10006448     metrics.obj
 0001:0000547c       ??_C@_0DE@COFFMGIK@?5Element?5Line?5Strips?5?5?5?5?5?5?5?5?5?5?5?5@ 1000647c     metrics.obj
 0001:000054b0       ??_C@_0DE@JGFBBCLP@?5Element?5Line?5Loops?5?5?5?5?5?5?5?5?5?5?5?5?5@ 100064b0     metrics.obj
 0001:000054e4       ??_C@_0DE@IOFCEFMJ@?5Element?5Lines?5?5?5?5?5?5?5?5?5?5?5?5?5?5?5?5?5?5@ 100064e4     metrics.obj
 0001:00005518       ??_C@_0DE@BCPIIBBP@?5Element?5Points?5?5?5?5?5?5?5?5?5?5?5?5?5?5?5?5?5@ 10006518     metrics.obj
 0001:0000554c       ??_C@_0DE@HBFMJOGI@?5Array?5Fans?5?5?5?5?5?5?5?5?5?5?5?5?5?5?5?5?5?5?5?5?5@ 1000654c     metrics.obj
 0001:00005580       ??_C@_0DE@KPLAMNGB@?5Array?5Strips?5?5?5?5?5?5?5?5?5?5?5?5?5?5?5?5?5?5?5@ 10006580     metrics.obj
 0001:000055b4       ??_C@_0DE@MOBOPPGM@?5Array?5Triangles?5?5?5?5?5?5?5?5?5?5?5?5?5?5?5?5@ 100065b4     metrics.obj
 0001:000055e8       ??_C@_0DE@LOHOCEAP@?5Array?5Line?5Strips?5?5?5?5?5?5?5?5?5?5?5?5?5?5@ 100065e8     metrics.obj
 0001:0000561c       ??_C@_0DE@JNPBEIHA@?5Array?5Line?5Loops?5?5?5?5?5?5?5?5?5?5?5?5?5?5?5@ 1000661c     metrics.obj
 0001:00005650       ??_C@_0DE@BBJLEKFE@?5Array?5Lines?5?5?5?5?5?5?5?5?5?5?5?5?5?5?5?5?5?5?5?5@ 10006650     metrics.obj
 0001:00005684       ??_C@_0DE@FKPALCMO@?5Array?5Points?5?5?5?5?5?5?5?5?5?5?5?5?5?5?5?5?5?5?5@ 10006684     metrics.obj
 0001:000056b8       ??_C@_0DE@EGHFHFEO@?5Total?5Index?5Data?5Generate?1Copy?5@ 100066b8     metrics.obj
 0001:000056ec       ??_C@_0DE@GAJGANIL@?5Total?5Vertex?5Data?5Copy?5?5?5?5?5?5?5?5?5@ 100066ec     metrics.obj
 0001:00005720       ??_C@_0DE@JGCIMOIP@?5Total?5Primitive?5Draw?5?5?5?5?5?5?5?5?5?5?5@ 10006720     metrics.obj
 0001:00005754       ??_C@_0DE@PCDONOBC@?5USE?5Codeheap?5Alloc?5?9?5Vertex?5?5?5?5@ 10006754     metrics.obj
 0001:00005788       ??_C@_0DE@DNBGNPON@?5USE?5Codeheap?5Alloc?5?9?5Fragment?5?5@ 10006788     metrics.obj
 0001:000057bc       ??_C@_0DE@IDGBADAJ@?5?5?9?5BugFix?$CI?$CJ?5?5?5?5?5?5?5?5?5?5?5?5?5?5?5?5?5?5?5?5@ 100067bc     metrics.obj
 0001:000057f0       ??_C@_0DE@CBDPMBCI@?5?5?9?5WriteVDMControlStream?$CI?$CJ?5?5?5?5?5@ 100067f0     metrics.obj
 0001:00005824       ??_C@_0DE@BGKHCDLI@?5?5?9?5SetupStateUpdate?$CI?$CJ?5?5?5?5?5?5?5?5?5?5@ 10006824     metrics.obj
 0001:00005858       ??_C@_0DE@CCLBFBMI@?5?5?9?5WriteMTEStateCopyPrograms?$CI?$CJ?5@ 10006858     metrics.obj
 0001:0000588c       ??_C@_0DE@PGHBNPOE@?5?5?9?5WriteMTEState?$CI?$CJ?5?5?5?5?5?5?5?5?5?5?5?5?5@ 1000688c     metrics.obj
 0001:000058c0       ??_C@_0DE@MNLCAFMC@?5?5?9?5WritePDSUSEShaderSAProgram?$CI?$CJ@ 100068c0     metrics.obj
 0001:000058f4       ??_C@_0DE@IKGOHIAP@?5?5?9?5WritePDSVertexShaderProgram?$CI@ 100068f4     metrics.obj
 0001:00005928       ??_C@_0DE@DMDCBCPP@?5?5?9?5WriteAuxiliaryPDSVertexShade@ 10006928     metrics.obj
 0001:0000595c       ??_C@_0DE@JAIAFABK@?5?5?9?5WritePDSStaticVertexShader?$CI?$CJ@ 1000695c     metrics.obj
 0001:00005990       ??_C@_0FE@OBEKEPH@?5?5?9?5WritePDSVertexShaderProgramW@ 10006990     metrics.obj
 0001:000059e4       ??_C@_0DI@JLCMPPNK@?5?5?9?5WritePDSVertexShaderProgramW@ 100069e4     metrics.obj
 0001:00005a1c       ??_C@_0DE@EAIONJFG@?5?5?9?5WritePDSPixelShaderProgram?$CI?$CJ@ 10006a1c     metrics.obj
 0001:00005a50       ??_C@_0DE@JMCJMNGE@?5Total?5EmitState?$CI?$CJ?5?5?5?5?5?5?5?5?5?5?5?5?5?5@ 10006a50     metrics.obj
 0001:00005a84       ??_C@_0DE@GNOMIDMJ@?5?5?9?5Setup_FragmentShader?$CI?$CJ?5?5?5?5?5?5@ 10006a84     metrics.obj
 0001:00005ab8       ??_C@_0DE@JCMIMAJF@?5?5?9?5Setup_RenderState?$CI?$CJ?5?5?5?5?5?5?5?5?5@ 10006ab8     metrics.obj
 0001:00005aec       ??_C@_0DE@MCGNDOJC@?5?5?9?5Setup_VertexVariant?$CI?$CJ?5?5?5?5?5?5?5@ 10006aec     metrics.obj
 0001:00005b20       ??_C@_0DE@IOABEFMF@?5?5?9?5Setup_Outputs?$CI?$CJ?5?5?5?5?5?5?5?5?5?5?5?5?5@ 10006b20     metrics.obj
 0001:00005b54       ??_C@_0DE@OLMKPODK@?5?5?9?5Setup_VertexConstants?$CI?$CJ?5?5?5?5?5@ 10006b54     metrics.obj
 0001:00005b88       ??_C@_0DE@LOOKFKAP@?5?5?9?5Setup_VertexShader?$CI?$CJ?5?5?5?5?5?5?5?5@ 10006b88     metrics.obj
 0001:00005bbc       ??_C@_0DE@PLPBFHBF@?5?5?9?5UpdateMVP?$CI?$CJ?5?5?5?5?5?5?5?5?5?5?5?5?5?5?5?5?5@ 10006bbc     metrics.obj
 0001:00005bf0       ??_C@_0DE@IMLFJEHG@?5?5?9?5Setup_Streams?$CI?$CJ?5?5?5?5?5?5?5?5?5?5?5?5?5@ 10006bf0     metrics.obj
 0001:00005c24       ??_C@_0DE@JPEDCHEA@?5?5?9?5Setup_TextureState?$CI?$CJ?5?5?5?5?5?5?5?5@ 10006c24     metrics.obj
 0001:00005c58       ??_C@_0DE@HFGEFKFA@?5?5?9?5Setup_VAO_AttribPointers?$CI?$CJ?5?5@ 10006c58     metrics.obj
 0001:00005c8c       ??_C@_0DE@OIGMPEND@?5?5?9?5Setup_VAO_AttribStreams?$CI?$CJ?5?5?5@ 10006c8c     metrics.obj
 0001:00005cc0       ??_C@_0DE@HOLGGNLE@?5Total?5ValidateState?$CI?$CJ?5?5?5?5?5?5?5?5?5?5@ 10006cc0     metrics.obj
 0001:00005cf4       ??_C@_0DE@KHDLILEH@?5Total?5Wait?5for?5TA?5?5?5?5?5?5?5?5?5?5?5?5?5?5@ 10006cf4     metrics.obj
 0001:00005d28       ??_C@_0DE@JGJLKLEP@?5Total?5Wait?5for?53D?5?5?5?5?5?5?5?5?5?5?5?5?5?5@ 10006d28     metrics.obj
 0001:00005d5c       ??_C@_0DI@EONHANDI@?5Total?5Renders?5?5?5?5?5?5?5?5?5?5?5?5?5?5?5?5?5?5@ 10006d5c     metrics.obj
 0001:00005d94       ??_C@_0CE@HJHPOOGB@?5?5?5?$CFs?5kick?5limit?3?5?5?5?5?5?$CF10d?1?5?5?5?5?5@ 10006d94     metrics.obj
 0001:00005db8       ??_C@_0DE@OCOHBBBF@?5Total?5SGXKickTA?5?5?5?5?5?5?5?5?5?5?5?5?5?5?5?5@ 10006db8     metrics.obj
 0001:00005dec       ??_C@_0DE@FLDICMAH@?5Total?5SwapBuffers?5?5?5?5?5?5?5?5?5?5?5?5?5?5@ 10006dec     metrics.obj
 0001:00005e20       ??_C@_0DE@KMCDFDBO@?5Total?5Prepare?5to?5draw?5?5?5?5?5?5?5?5?5?5@ 10006e20     metrics.obj
 0001:00005e54       ??_C@_0DN@JJFCFLJP@?5?5?5?5?5Statistics?5per?5profiled?5fra@ 10006e54     metrics.obj
 0001:00005e94       ??_C@_01CLKCMJKC@?5?$AA@   10006e94     metrics.obj
 0001:00005e98       ??_C@_0DI@HJLBBINA@?5Estimated?5FPS?5?5?5?5?5?5?5?5?5?5?5?5?5?5?5?5?5?5@ 10006e98     metrics.obj
 0001:00005ed0       __real@447a0000            10006ed0     metrics.obj
 0001:00005ed4       ??_C@_0DG@FMLDGDEH@?5Average?5Driver?5Time?5per?5Profile@ 10006ed4     metrics.obj
 0001:00005f0c       ??_C@_0DG@LGFJOID@?5Average?5Elapsed?5Time?5per?5Profil@ 10006f0c     metrics.obj
 0001:00005f44       ??_C@_0DG@FFGHIIAF@?5Profiled?5Frames?5?5?5?5?5?5?5?5?5?5?5?5?5?5?5?5@ 10006f44     metrics.obj
 0001:00005f7c       ??_C@_0DE@EOMDGPMF@?5Total?5Frames?5?5?5?5?5?5?5?5?5?5?5?5?5?5?5?5?5?5?5@ 10006f7c     metrics.obj
 0001:00005fb0       ??_C@_0CN@JJJINHEC@Profiled?5frames?3?50?5?9?9?9?5no?5metric@ 10006fb0     metrics.obj
 0001:00005fe0       ??_C@_0CB@OIILBJPD@Warning?3?5Timer?5?$CFd?5in?5ON?5position@ 10006fe0     metrics.obj
 0001:000064b8       __real@437f0000            100074b8     misc.obj
 0001:000064bc       __real@3b808081            100074bc     misc.obj
 0001:000064c0       ??_C@_0FD@PDBCJMGG@c?3?2data?2jatin?2powervr_build?2ddk1@ 100074c0     misc.obj
 0001:00006514       ??_C@_08DFCPOKBK@glFinish?$AA@ 10007514     misc.obj
 0001:00006520       ??_C@_07COFELLJA@glFlush?$AA@ 10007520     misc.obj
 0001:00006528       ??_C@_06HEADGMBC@glHint?$AA@ 10007528     misc.obj
 0001:00006530       __real@4f000000            10007530     misc.obj
 0001:00006534       ??_C@_0BF@INKPIHNJ@DisableMetricsOutput?$AA@ 10007534     misc.obj
 0001:0000654c       ??_C@_0BG@OKANBFIO@EnableMemorySpeedTest?$AA@ 1000754c     misc.obj
 0001:00006564       ??_C@_0BA@HGPCCFOD@ProfileEndFrame?$AA@ 10007564     misc.obj
 0001:00006574       ??_C@_0BC@EPKGFFNK@ProfileStartFrame?$AA@ 10007574     misc.obj
 0001:00006588       ??_C@_0BA@BCNPAIIG@DumpProfileData?$AA@ 10007588     misc.obj
 0001:00006598       ??_C@_0BA@FMCJLEC@KickTAThreshold?$AA@ 10007598     misc.obj
 0001:000065a8       ??_C@_0L@CDGAGNFA@KickTAMode?$AA@ 100075a8     misc.obj
 0001:000065b4       ??_C@_0BF@GMGALNEL@DefaultVDMBufferSize?$AA@ 100075b4     misc.obj
 0001:000065cc       ??_C@_0BP@CNJFMOH@DefaultPregenMTECopyBufferSize?$AA@ 100075cc     misc.obj
 0001:000065ec       ??_C@_0BP@CGBHEOOJ@DefaultPregenPDSVertBufferSize?$AA@ 100075ec     misc.obj
 0001:0000660c       ??_C@_0BJ@FDELEOJK@DefaultPDSVertBufferSize?$AA@ 1000760c     misc.obj
 0001:00006628       ??_C@_0BH@EMCDMDFL@DefaultIndexBufferSize?$AA@ 10007628     misc.obj
 0001:00006640       ??_C@_0BE@JDMADPED@MaxVertexBufferSize?$AA@ 10007640     misc.obj
 0001:00006654       ??_C@_0BI@GMOOJAHB@DefaultVertexBufferSize?$AA@ 10007654     misc.obj
 0001:0000666c       ??_C@_0M@HPPFGNFE@DumpShaders?$AA@ 1000766c     misc.obj
 0001:00006678       ??_C@_0O@GNLHGOLK@UseC10Colours?$AA@ 10007678     misc.obj
 0001:00006688       ??_C@_0BB@FEGFPPJN@DisableUSEASMOPT?$AA@ 10007688     misc.obj
 0001:0000669c       ??_C@_0BP@JBLIJOPK@DisableStaticPDSPixelSAProgram?$AA@ 1000769c     misc.obj
 0001:000066bc       ??_C@_0BE@CJIJABHD@EnableStaticMTECopy?$AA@ 100076bc     misc.obj
 0001:000066d0       ??_C@_0BG@CHMKCCI@EnableStaticPDSVertex?$AA@ 100076d0     misc.obj
 0001:000066e8       ??_C@_0P@LPEGOECO@FlushBehaviour?$AA@ 100076e8     misc.obj
 0001:000066f8       ??_C@_0BH@EMEDPOLF@DisableHWTextureUpload?$AA@ 100076f8     misc.obj
 0001:00006710       ??_C@_0BC@LONHONOF@DisableHWTQMipGen?$AA@ 10007710     misc.obj
 0001:00006724       ??_C@_0BG@MNNFDOBG@DisableHWTQBufferBlit?$AA@ 10007724     misc.obj
 0001:0000673c       ??_C@_0BG@JGJGPFCD@DisableHWTQNormalBlit?$AA@ 1000773c     misc.obj
 0001:00006754       ??_C@_0BJ@CAHNBNBG@DisableHWTQTextureUpload?$AA@ 10007754     misc.obj
 0001:00006770       ??_C@_0BE@CONEIBKK@OptimisedValidation?$AA@ 10007770     misc.obj
 0001:00006784       ??_C@_0BA@FKGCDPP@FBODepthDiscard?$AA@ 10007784     misc.obj
 0001:00006794       ??_C@_0BE@NCEPNDKE@ExternalZBufferMode?$AA@ 10007794     misc.obj
 0001:000067a8       ??_C@_0BF@JLMGKHEC@BuildExtensionString?$AA@ 100077a8     misc.obj
 0001:000067c0       __real@4efffff7            100077c0     misc.obj
 0001:000067c4       __real@0000000000000000    100077c4     misc.obj
 0001:00006934       ??_C@_0CE@HECFBCPO@CreateNamesArray?3?5Invalid?5name?5t@ 10007934     names.obj
 0001:00006958       ??_C@_0FE@KACLPILG@c?3?2data?2jatin?2powervr_build?2ddk1@ 10007958     names.obj
 0001:000069b0       ??_C@_0EH@NDOOPIIN@RemoveItemFromList?3?5trying?5to?5re@ 100079b0     names.obj
 0001:00006cc8       ??_C@_0DC@HAMHBHGF@GetStridedSurfaceData?3?5Invalid?5B@ 10007cc8     pixop.obj
 0001:00006d00       ??_C@_0FE@PBOLLBKP@c?3?2data?2jatin?2powervr_build?2ddk1@ 10007d00     pixop.obj
 0001:00006d54       ??_C@_0BF@BGLAILLL@Unknown?5pixel?5format?$AA@ 10007d54     pixop.obj
 0001:00006d6c       ??_C@_0O@JCCIGLOF@glPixelStorei?$AA@ 10007d6c     pixop.obj
 0001:00006d7c       __real@3a83126f            10007d7c     pixop.obj
 0001:00006d80       ??_C@_0CJ@KEJMLFLO@glReadPixels?3?5Failed?5to?5get?5stri@ 10007d80     pixop.obj
 0001:00006dac       ??_C@_0CA@NMCOODBC@glReadPixels?3?5Couldn?8t?5flush?5HW?$AA@ 10007dac     pixop.obj
 0001:00006dcc       ??_C@_0CB@ELLDLIOP@glReadPixels?3?5Surface?5is?5invalid@ 10007dcc     pixop.obj
 0001:00006df0       ??_C@_0N@CKFNNHOO@glReadPixels?$AA@ 10007df0     pixop.obj
 0001:00006e00       ??_C@_0M@NBPNKFEJ@MSSAMPCOV?5?5?$AA@ 10007e00     profile.obj
 0001:00006e0c       ??_C@_0M@MENMOBDA@MSSAMPALPHA?$AA@ 10007e0c     profile.obj
 0001:00006e18       ??_C@_0M@EFDDKFGF@MSALPHACOV?5?$AA@ 10007e18     profile.obj
 0001:00006e24       ??_C@_0M@GJDAHKDE@MTXPALETTE?5?$AA@ 10007e24     profile.obj
 0001:00006e30       ??_C@_0M@MCOEPJEO@PNTSPRITE?5?5?$AA@ 10007e30     profile.obj
 0001:00006e3c       ??_C@_0M@IIJNMHPJ@CLIPPLN5?5?5?5?$AA@ 10007e3c     profile.obj
 0001:00006e48       ??_C@_0M@LFPNOOEJ@CLIPPLN4?5?5?5?$AA@ 10007e48     profile.obj
 0001:00006e54       ??_C@_0M@HNNDCFJ@CLIPPLN3?5?5?5?$AA@ 10007e54     profile.obj
 0001:00006e60       ??_C@_0M@DKLNBLOJ@CLIPPLN2?5?5?5?$AA@ 10007e60     profile.obj
 0001:00006e6c       ??_C@_0M@HNBNGBDJ@CLIPPLN1?5?5?5?$AA@ 10007e6c     profile.obj
 0001:00006e78       ??_C@_0M@EAHNEIIJ@CLIPPLN0?5?5?5?$AA@ 10007e78     profile.obj
 0001:00006e84       ??_C@_0M@GPLEONOL@CULLFACE?5?5?5?$AA@ 10007e84     profile.obj
 0001:00006e90       ??_C@_0M@LHJPJJIP@NORMALIZE?5?5?$AA@ 10007e90     profile.obj
 0001:00006e9c       ??_C@_0M@DFHJAHPN@COLORMAT?5?5?5?$AA@ 10007e9c     profile.obj
 0001:00006ea8       ??_C@_0M@LDHKOOPO@RESCALE?5?5?5?5?$AA@ 10007ea8     profile.obj
 0001:00006eb4       ??_C@_0M@NHOPLGOC@LIGHTING?5?5?5?$AA@ 10007eb4     profile.obj
 0001:00006ec0       ??_C@_0M@HCFENIOD@LIGHT7?5?5?5?5?5?$AA@ 10007ec0     profile.obj
 0001:00006ecc       ??_C@_0M@NECDNDFH@LIGHT6?5?5?5?5?5?$AA@ 10007ecc     profile.obj
 0001:00006ed8       ??_C@_0M@OFMLMJMK@LIGHT5?5?5?5?5?5?$AA@ 10007ed8     profile.obj
 0001:00006ee4       ??_C@_0M@EDLMMCHO@LIGHT4?5?5?5?5?5?$AA@ 10007ee4     profile.obj
 0001:00006ef0       ??_C@_0M@IGBLPMPA@LIGHT3?5?5?5?5?5?$AA@ 10007ef0     profile.obj
 0001:00006efc       ??_C@_0M@CAGMPHEE@LIGHT2?5?5?5?5?5?$AA@ 10007efc     profile.obj
 0001:00006f08       ??_C@_0M@BBIEONNJ@LIGHT1?5?5?5?5?5?$AA@ 10007f08     profile.obj
 0001:00006f14       ??_C@_0M@LHPDOGGN@LIGHT0?5?5?5?5?5?$AA@ 10007f14     profile.obj
 0001:00006f20       ??_C@_0M@ENIDCFGK@SCISSOR?5?5?5?5?$AA@ 10007f20     profile.obj
 0001:00006f2c       ??_C@_0M@PHDMKGCH@MULTISAMPLE?$AA@ 10007f2c     profile.obj
 0001:00006f38       ??_C@_0M@NBFOMGAB@DITHER?5?5?5?5?5?$AA@ 10007f38     profile.obj
 0001:00006f44       ??_C@_0M@HIKDEGEO@TEXSTREAM3?5?$AA@ 10007f44     profile.obj
 0001:00006f50       ??_C@_0M@HJGBCMHJ@TEXSTREAM2?5?$AA@ 10007f50     profile.obj
 0001:00006f5c       ??_C@_0M@HLCHJCCA@TEXSTREAM1?5?$AA@ 10007f5c     profile.obj
 0001:00006f68       ??_C@_0M@HKOFPIBH@TEXSTREAM0?5?$AA@ 10007f68     profile.obj
 0001:00006f74       ??_C@_0M@DNJGHJBK@GENTEXTURE3?$AA@ 10007f74     profile.obj
 0001:00006f80       ??_C@_0M@CEINEIFL@GENTEXTURE2?$AA@ 10007f80     profile.obj
 0001:00006f8c       ??_C@_0M@PKABLJI@GENTEXTURE1?$AA@ 10007f8c     profile.obj
 0001:00006f98       ??_C@_0M@BGLLCKNJ@GENTEXTURE0?$AA@ 10007f98     profile.obj
 0001:00006fa4       ??_C@_0M@NFKHPJGG@CEMTEXTURE3?$AA@ 10007fa4     profile.obj
 0001:00006fb0       ??_C@_0M@MMLMMICH@CEMTEXTURE2?$AA@ 10007fb0     profile.obj
 0001:00006fbc       ??_C@_0M@OHJBJLOE@CEMTEXTURE1?$AA@ 10007fbc     profile.obj
 0001:00006fc8       ??_C@_0M@POIKKKKF@CEMTEXTURE0?$AA@ 10007fc8     profile.obj
 0001:00006fd4       ??_C@_0M@LDEIKJHM@POINTSMOOTH?$AA@ 10007fd4     profile.obj
 0001:00006fe0       ??_C@_0M@HNIKGCEC@LINESMOOTH?5?$AA@ 10007fe0     profile.obj
 0001:00006fec       ??_C@_0M@BNAOOEFH@FOG?5?5?5?5?5?5?5?5?$AA@ 10007fec     profile.obj
 0001:00006ff8       ??_C@_0M@IELJFIBP@POLYOFFSET?5?$AA@ 10007ff8     profile.obj
 0001:00007004       ??_C@_0M@GCJIFGAP@DEPTHTEST?5?5?$AA@ 10008004     profile.obj
 0001:00007010       ??_C@_0M@IEFGKKEB@TEXTURE3?5?5?5?$AA@ 10008010     profile.obj
 0001:0000701c       ??_C@_0M@LJDGIDPB@TEXTURE2?5?5?5?$AA@ 1000801c     profile.obj
 0001:00007028       ??_C@_0M@POJGPJCB@TEXTURE1?5?5?5?$AA@ 10008028     profile.obj
 0001:00007034       ??_C@_0M@MDPGNAJB@TEXTURE0?5?5?5?$AA@ 10008034     profile.obj
 0001:00007040       ??_C@_0M@LGAEPNLF@STENCILTEST?$AA@ 10008040     profile.obj
 0001:0000704c       ??_C@_0M@CPEBKNFM@LOGICOP?5?5?5?5?$AA@ 1000804c     profile.obj
 0001:00007058       ??_C@_0M@NEMNLFNE@ALPHATEST?5?5?$AA@ 10008058     profile.obj
 0001:00007064       ??_C@_0M@GIBGPLMN@ALPHABLEND?5?$AA@ 10008064     profile.obj
 0001:00007070       ??_C@_0BM@IPPLPAPB@DrawArrays?5?5?5?$CIV?5VBO?$CJ?5?5?5?5?5?5?5?$AA@ 10008070     profile.obj
 0001:0000708c       ??_C@_0BM@BNFPCGMO@DrawArrays?5?5?5?5?5?5?5?5?5?5?5?5?5?5?5?5?5?$AA@ 1000808c     profile.obj
 0001:000070a8       ??_C@_0BM@KNLOAKG@DrawElements?5?$CIV?5and?5I?5VBO?$CJ?5?$AA@ 100080a8     profile.obj
 0001:000070c4       ??_C@_0BM@FAGNEJGA@DrawElements?5?$CII?5VBO?$CJ?5?5?5?5?5?5?5?$AA@ 100080c4     profile.obj
 0001:000070e0       ??_C@_0BM@GAELMBPK@DrawElements?5?$CIV?5VBO?$CJ?5?5?5?5?5?5?5?$AA@ 100080e0     profile.obj
 0001:000070fc       ??_C@_0BM@PCOPBHMF@DrawElements?5?5?5?5?5?5?5?5?5?5?5?5?5?5?5?$AA@ 100080fc     profile.obj
 0001:00007118       ??_C@_0BC@HKFIMA@GL_TRIANGLE_FAN?5?5?$AA@ 10008118     profile.obj
 0001:0000712c       ??_C@_0BC@IJJHLCGE@GL_TRIANGLE_STRIP?$AA@ 1000812c     profile.obj
 0001:00007140       ??_C@_0BC@GGNMAADO@GL_TRIANGLES?5?5?5?5?5?$AA@ 10008140     profile.obj
 0001:00007154       ??_C@_0BC@FCBPEFND@GL_LINE_STRIP?5?5?5?5?$AA@ 10008154     profile.obj
 0001:00007168       ??_C@_0BC@LEPFLDDM@GL_LINE_LOOP?5?5?5?5?5?$AA@ 10008168     profile.obj
 0001:0000717c       ??_C@_0BC@BDENOJEM@GL_LINES?5?5?5?5?5?5?5?5?5?$AA@ 1000817c     profile.obj
 0001:00007190       ??_C@_0BC@NCLMBNBP@GL_POINTS?5?5?5?5?5?5?5?5?$AA@ 10008190     profile.obj
 0001:000071a4       ??_C@_0CI@NFBHNAOA@glMultiDrawElements?5?5?5?5?5?5?5?5?5?5?5?5?5@ 100081a4     profile.obj
 0001:000071cc       ??_C@_0CI@PGOIGPAG@glMultiDrawArrays?5?5?5?5?5?5?5?5?5?5?5?5?5?5?5@ 100081cc     profile.obj
 0001:000071f4       ??_C@_0CI@GKBAAHLK@glEGLImageTargetRenderbufferStor@ 100081f4     profile.obj
 0001:0000721c       ??_C@_0CI@CJNCJJPO@glEGLImageTargetTexture2DOES?5?5?5?5@ 1000821c     profile.obj
 0001:00007244       ??_C@_0CI@FKGOICEC@glGetBufferPointervOES?5?5?5?5?5?5?5?5?5?5@ 10008244     profile.obj
 0001:0000726c       ??_C@_0CI@BPGPFKBO@glUnmapBufferOES?5?5?5?5?5?5?5?5?5?5?5?5?5?5?5?5@ 1000826c     profile.obj
 0001:00007294       ??_C@_0CI@BEHLJJGA@glMapBufferOES?5?5?5?5?5?5?5?5?5?5?5?5?5?5?5?5?5?5@ 10008294     profile.obj
 0001:000072bc       ??_C@_0BF@PIACAAII@glGetTexGenxv?7?7?7?7?7?7?7?$AA@ 100082bc     profile.obj
 0001:000072d4       ??_C@_0BF@MBGFLBND@glGetTexGenfv?7?7?7?7?7?7?7?$AA@ 100082d4     profile.obj
 0001:000072ec       ??_C@_0BF@DAGOOKFO@glGetTexGeniv?7?7?7?7?7?7?7?$AA@ 100082ec     profile.obj
 0001:00007304       ??_C@_0BD@KKKINCBE@glTexGenxv?7?7?7?7?7?7?7?7?$AA@ 10008304     profile.obj
 0001:00007318       ??_C@_0BC@PEFIPPMO@glTexGenx?7?7?7?7?7?7?7?7?$AA@ 10008318     profile.obj
 0001:0000732c       ??_C@_0BD@FGCIDNNJ@glTexGenfv?7?7?7?7?7?7?7?7?$AA@ 1000832c     profile.obj
 0001:00007340       ??_C@_0BC@MNDPEOJF@glTexGenf?7?7?7?7?7?7?7?7?$AA@ 10008340     profile.obj
 0001:00007354       ??_C@_0BD@MFNAMJBP@glTexGeniv?7?7?7?7?7?7?7?7?$AA@ 10008354     profile.obj
 0001:00007368       ??_C@_0BC@DMDEBFBI@glTexGeni?7?7?7?7?7?7?7?7?$AA@ 10008368     profile.obj
 0001:0000737c       ??_C@_0BM@IDJEDJJC@glBlendEquationSeparate?7?7?7?7?$AA@ 1000837c     profile.obj
 0001:00007398       ??_C@_0BG@CPBBAMHF@glBlendEquation?7?7?7?7?7?7?$AA@ 10008398     profile.obj
 0001:000073b0       ??_C@_0BJ@PHOGEGJC@glBlendFuncSeparate?7?7?7?7?7?$AA@ 100083b0     profile.obj
 0001:000073cc       ??_C@_0BJ@KKGNDGND@glGenerateMipmapOES?7?7?7?7?7?$AA@ 100083cc     profile.obj
 0001:000073e8       ??_C@_0CA@DNGDLLKC@glFramebufferRenderbufferOES?7?7?7?$AA@ 100083e8     profile.obj
 0001:00007408       ??_C@_0BO@NLEBAHCC@glFramebufferTexture3DOES?7?7?7?7?$AA@ 10008408     profile.obj
 0001:00007428       ??_C@_0BO@DEIDGMBM@glFramebufferTexture2DOES?7?7?7?7?$AA@ 10008428     profile.obj
 0001:00007448       ??_C@_0BP@PMACIMBI@glCheckFramebufferStatusOES?7?7?7?$AA@ 10008448     profile.obj
 0001:00007468       ??_C@_0BK@JEMFLAIJ@glGenFramebuffersOES?7?7?7?7?7?$AA@ 10008468     profile.obj
 0001:00007484       ??_C@_0BM@CCMADGEN@glDeleteFramebuffersOES?7?7?7?7?$AA@ 10008484     profile.obj
 0001:000074a0       ??_C@_0BK@NGPNAPLA@glBindFramebufferOES?7?7?7?7?7?$AA@ 100084a0     profile.obj
 0001:000074bc       ??_C@_0BJ@KPKEPBFJ@glIsFramebufferOES?7?7?7?7?7?7?$AA@ 100084bc     profile.obj
 0001:000074d8       ??_C@_0CG@GMFPCPIK@glGetRenderbufferStorageFormatsi@ 100084d8     profile.obj
 0001:00007500       ??_C@_0CC@KCCFFJPJ@glGetRenderbufferParameterivOES?7@ 10008500     profile.obj
 0001:00007524       ??_C@_0BN@KNNEKDJG@glRenderbufferStorageOES?7?7?7?7?$AA@ 10008524     profile.obj
 0001:00007544       ??_C@_0BL@LHHPJONE@glGenRenderbuffersOES?7?7?7?7?7?$AA@ 10008544     profile.obj
 0001:00007560       ??_C@_0BN@PGFGKBAB@glDeleteRenderbuffersOES?7?7?7?7?$AA@ 10008560     profile.obj
 0001:00007580       ??_C@_0BL@BPOANJIP@glBindRenderbufferOES?7?7?7?7?7?$AA@ 10008580     profile.obj
 0001:0000759c       ??_C@_0BJ@KKDBNNBM@glIsRenderbufferOES?7?7?7?7?7?$AA@ 1000859c     profile.obj
 0001:000075b8       ??_C@_0BG@PFGECDMI@glDrawTexxvOES?7?7?7?7?7?7?7?$AA@ 100085b8     profile.obj
 0001:000075d0       ??_C@_0BG@LLIFIJKC@glDrawTexfvOES?7?7?7?7?7?7?7?$AA@ 100085d0     profile.obj
 0001:000075e8       ??_C@_0BG@JMPFFMJH@glDrawTexivOES?7?7?7?7?7?7?7?$AA@ 100085e8     profile.obj
 0001:00007600       ??_C@_0BG@BCKNJMGL@glDrawTexsvOES?7?7?7?7?7?7?7?$AA@ 10008600     profile.obj
 0001:00007618       ??_C@_0BF@ENACBGFG@glDrawTexxOES?7?7?7?7?7?7?7?$AA@ 10008618     profile.obj
 0001:00007630       ??_C@_0BF@KICLCILE@glDrawTexfOES?7?7?7?7?7?7?7?$AA@ 10008630     profile.obj
 0001:00007648       ??_C@_0BF@NKLPLHMF@glDrawTexiOES?7?7?7?7?7?7?7?$AA@ 10008648     profile.obj
 0001:00007660       ??_C@_0BF@DMJALCFI@glDrawTexsOES?7?7?7?7?7?7?7?$AA@ 10008660     profile.obj
 0001:00007678       ??_C@_0CF@KFAHDGJE@glLoadPaletteFromModelViewMatrix@ 10008678     profile.obj
 0001:000076a0       ??_C@_0BO@IAJEDJGI@glCurrentPaletteMatrixOES?7?7?7?7?$AA@ 100086a0     profile.obj
 0001:000076c0       ??_C@_0BJ@KCFCGADC@glWeightPointerOES?7?7?7?7?7?7?$AA@ 100086c0     profile.obj
 0001:000076dc       ??_C@_0BM@CHNGGEJF@glMatrixIndexPointerOES?7?7?7?7?$AA@ 100086dc     profile.obj
 0001:000076f8       ??_C@_0BD@KDBCGPLG@glColor4ub?7?7?7?7?7?7?7?7?$AA@ 100086f8     profile.obj
 0001:0000770c       ??_C@_0BH@KBNJCOHN@glTexParameterxv?7?7?7?7?7?7?$AA@ 1000870c     profile.obj
 0001:00007724       ??_C@_0BH@BKGCHIEP@glTexParameteriv?7?7?7?7?7?7?$AA@ 10008724     profile.obj
 0001:0000773c       ??_C@_0BH@MFNLLHJO@glTexParameterfv?7?7?7?7?7?7?$AA@ 1000873c     profile.obj
 0001:00007754       ??_C@_0BG@NLFACKHC@glTexParameteri?7?7?7?7?7?7?$AA@ 10008754     profile.obj
 0001:0000776c       ??_C@_0BD@MJGDCJBD@glTexEnviv?7?7?7?7?7?7?7?7?$AA@ 1000876c     profile.obj
 0001:00007780       ??_C@_0BC@DJMPCBND@glTexEnvi?7?7?7?7?7?7?7?7?$AA@ 10008780     profile.obj
 0001:00007794       ??_C@_0BL@HOKMFPKA@glPointSizePointerOES?7?7?7?7?7?$AA@ 10008794     profile.obj
 0001:000077b0       ??_C@_0BJ@HGPEAGFH@glPointParameterxv?7?7?7?7?7?7?$AA@ 100087b0     profile.obj
 0001:000077cc       ??_C@_0BI@ELLLNPCG@glPointParameterx?7?7?7?7?7?7?$AA@ 100087cc     profile.obj
 0001:000077e4       ??_C@_0BJ@BCPGJPLE@glPointParameterfv?7?7?7?7?7?7?$AA@ 100087e4     profile.obj
 0001:00007800       ??_C@_0BI@CCIKPMDP@glPointParameterf?7?7?7?7?7?7?$AA@ 10008800     profile.obj
 0001:00007818       ??_C@_0BD@JGOHMIPK@glIsTexture?7?7?7?7?7?7?7?$AA@ 10008818     profile.obj
 0001:0000782c       ??_C@_0BD@CMKONAFJ@glIsBuffer?7?7?7?7?7?7?7?7?$AA@ 1000882c     profile.obj
 0001:00007840       ??_C@_0BD@PDEDCHAC@glIsEnabled?7?7?7?7?7?7?7?$AA@ 10008840     profile.obj
 0001:00007854       ??_C@_0BF@CHNEBLAA@glGetPointerv?7?7?7?7?7?7?7?$AA@ 10008854     profile.obj
 0001:0000786c       ??_C@_0BF@MEDLENHH@glGetBooleanv?7?7?7?7?7?7?7?$AA@ 1000886c     profile.obj
 0001:00007884       ??_C@_0BD@NEPNDIIP@glGetFloatv?7?7?7?7?7?7?7?$AA@ 10008884     profile.obj
 0001:00007898       ??_C@_0BD@CGCFHNIF@glGetFixedv?7?7?7?7?7?7?7?$AA@ 10008898     profile.obj
 0001:000078ac       ??_C@_0BJ@KFOANIEN@glGetTexParameterxv?7?7?7?7?7?$AA@ 100088ac     profile.obj
 0001:000078c8       ??_C@_0BJ@MMNBPLFE@glGetTexParameterfv?7?7?7?7?7?$AA@ 100088c8     profile.obj
 0001:000078e4       ??_C@_0BJ@BFPBOJPI@glGetTexParameteriv?7?7?7?7?7?$AA@ 100088e4     profile.obj
 0001:00007900       ??_C@_0BG@CGGBOLCP@glGetClipPlanex?7?7?7?7?7?7?$AA@ 10008900     profile.obj
 0001:00007918       ??_C@_0BG@EPFAMIDG@glGetClipPlanef?7?7?7?7?7?7?$AA@ 10008918     profile.obj
 0001:00007930       ??_C@_0BF@PNPJDEED@glGetTexEnvxv?7?7?7?7?7?7?7?$AA@ 10008930     profile.obj
 0001:00007948       ??_C@_0BF@MEJOIFBI@glGetTexEnvfv?7?7?7?7?7?7?7?$AA@ 10008948     profile.obj
 0001:00007960       ??_C@_0BF@DFJFNOJF@glGetTexEnviv?7?7?7?7?7?7?7?$AA@ 10008960     profile.obj
 0001:00007978       ??_C@_0BE@LJMEBOPA@glGetLightxv?7?7?7?7?7?7?7?$AA@ 10008978     profile.obj
 0001:0000798c       ??_C@_0BE@IAKDKPKL@glGetLightfv?7?7?7?7?7?7?7?$AA@ 1000898c     profile.obj
 0001:000079a0       ??_C@_0BG@DDADAACF@glGetMaterialxv?7?7?7?7?7?7?$AA@ 100089a0     profile.obj
 0001:000079b8       ??_C@_0BG@FHABJJMG@glGetMaterialfv?7?7?7?7?7?7?$AA@ 100089b8     profile.obj
 0001:000079d0       ??_C@_0BM@JOOEDM@glGetBufferParameteriv?7?7?7?7?7?$AA@ 100089d0     profile.obj
 0001:000079ec       ??_C@_0BE@MAOOLGA@glGenBuffers?7?7?7?7?7?7?7?$AA@ 100089ec     profile.obj
 0001:00007a00       ??_C@_0BG@KDKCJEDC@glDeleteBuffers?7?7?7?7?7?7?$AA@ 10008a00     profile.obj
 0001:00007a18       ??_C@_0BG@IANEKMGJ@glBufferSubData?7?7?7?7?7?7?$AA@ 10008a18     profile.obj
 0001:00007a30       ??_C@_0BE@FHPIALDN@glBufferData?7?7?7?7?7?7?7?$AA@ 10008a30     profile.obj
 0001:00007a44       ??_C@_0BE@FLOOMEAJ@glBindBuffer?7?7?7?7?7?7?7?$AA@ 10008a44     profile.obj
 0001:00007a58       ??_C@_0BN@NHDHKAKL@glGetTexStreamDeviceName?7?7?7?7?$AA@ 10008a58     profile.obj
 0001:00007a78       ??_C@_0BG@HNIKBOEA@glTexBindStream?7?7?7?7?7?7?$AA@ 10008a78     profile.obj
 0001:00007a90       ??_C@_0CC@GJMMGKDL@glGetTexStreamDeviceAttributeiv?7@ 10008a90     profile.obj
 0001:00007ab4       ??_C@_0BG@DGMKDBPD@glColorMaterial?7?7?7?7?7?7?$AA@ 10008ab4     profile.obj
 0001:00007acc       ??_C@_0BG@HAPBDCME@glQueryMatrixx?7?7?7?7?7?7?7?$AA@ 10008acc     profile.obj
 0001:00007ae4       ??_C@_0BE@JMMOEKJK@glClipPlanex?7?7?7?7?7?7?7?$AA@ 10008ae4     profile.obj
 0001:00007af8       ??_C@_0BE@PIMMNDHJ@glClipPlanef?7?7?7?7?7?7?7?$AA@ 10008af8     profile.obj
 0001:00007b0c       ??_C@_0BO@HLCFCHKN@glViewport?5?5?5?5?5?5?5?5?5?5?5?5?5?5?5?7?7?7?7?$AA@ 10008b0c     profile.obj
 0001:00007b2c       ??_C@_0BO@KBHIHMKP@glVertexPointer?5?5?5?5?5?5?5?5?5?5?7?7?7?7?$AA@ 10008b2c     profile.obj
 0001:00007b4c       ??_C@_0BO@FLMCPCDI@glTranslatex?5?5?5?5?5?5?5?5?5?5?5?5?5?7?7?7?7?$AA@ 10008b4c     profile.obj
 0001:00007b6c       ??_C@_0BO@NMPNNPKE@glTranslatef?5?5?5?5?5?5?5?5?5?5?5?5?5?7?7?7?7?$AA@ 10008b6c     profile.obj
 0001:00007b8c       ??_C@_0BO@KGAFDPCD@glTexSubImage2D?5?5?5?5?5?5?5?5?5?5?7?7?7?7?$AA@ 10008b8c     profile.obj
 0001:00007bac       ??_C@_0BO@EAKOPPLI@glTexParameterx?5?5?5?5?5?5?5?5?5?5?7?7?7?7?$AA@ 10008bac     profile.obj
 0001:00007bcc       ??_C@_0BO@IGALDHIN@glTexParameterf?5?5?5?5?5?5?5?5?5?5?7?7?7?7?$AA@ 10008bcc     profile.obj
 0001:00007bec       ??_C@_0BO@HAAMFPFF@glTexImage2D?5?5?5?5?5?5?5?5?5?5?5?5?5?7?7?7?7?$AA@ 10008bec     profile.obj
 0001:00007c0c       ??_C@_0BO@GFBELJKK@glTexEnvxv?5?5?5?5?5?5?5?5?5?5?5?5?5?5?5?7?7?7?7?$AA@ 10008c0c     profile.obj
 0001:00007c2c       ??_C@_0BO@CMCMODHB@glTexEnvx?5?5?5?5?5?5?5?5?5?5?5?5?5?5?5?5?7?7?7?7?$AA@ 10008c2c     profile.obj
 0001:00007c4c       ??_C@_0BO@HFBIPGL@glTexEnvfv?5?5?5?5?5?5?5?5?5?5?5?5?5?5?5?7?7?7?7?$AA@ 10008c4c     profile.obj
 0001:00007c6c       ??_C@_0BO@EOGJNFLA@glTexEnvf?5?5?5?5?5?5?5?5?5?5?5?5?5?5?5?5?7?7?7?7?$AA@ 10008c6c     profile.obj
 0001:00007c8c       ??_C@_0BO@JBKJPJJA@glTexCoordPointer?5?5?5?5?5?5?5?5?7?7?7?7?$AA@ 10008c8c     profile.obj
 0001:00007cac       ??_C@_0BO@MBOPCCPE@glStencilOp?5?5?5?5?5?5?5?5?5?5?5?5?5?5?7?7?7?7?$AA@ 10008cac     profile.obj
 0001:00007ccc       ??_C@_0BO@BKMMOBGP@glStencilMask?5?5?5?5?5?5?5?5?5?5?5?5?7?7?7?7?$AA@ 10008ccc     profile.obj
 0001:00007cec       ??_C@_0BO@NJDDCPLP@glStencilFunc?5?5?5?5?5?5?5?5?5?5?5?5?7?7?7?7?$AA@ 10008cec     profile.obj
 0001:00007d0c       ??_C@_0BO@IOPEGMHJ@glShadeModel?5?5?5?5?5?5?5?5?5?5?5?5?5?7?7?7?7?$AA@ 10008d0c     profile.obj
 0001:00007d2c       ??_C@_0BO@BCDPMNNL@glScissor?5?5?5?5?5?5?5?5?5?5?5?5?5?5?5?5?7?7?7?7?$AA@ 10008d2c     profile.obj
 0001:00007d4c       ??_C@_0BO@ICODLJP@glScalex?5?5?5?5?5?5?5?5?5?5?5?5?5?5?5?5?5?7?7?7?7?$AA@ 10008d4c     profile.obj
 0001:00007d6c       ??_C@_0BO@OECPIMIP@glScalef?5?5?5?5?5?5?5?5?5?5?5?5?5?5?5?5?5?7?7?7?7?$AA@ 10008d6c     profile.obj
 0001:00007d8c       ??_C@_0BO@HIJHEBJI@glSampleCoveragex?5?5?5?5?5?5?5?5?7?7?7?7?$AA@ 10008d8c     profile.obj
 0001:00007dac       ??_C@_0BO@GMMFJEDD@glSampleCoverage?5?5?5?5?5?5?5?5?5?7?7?7?7?$AA@ 10008dac     profile.obj
 0001:00007dcc       ??_C@_0BO@BOOICIP@glRotatex?5?5?5?5?5?5?5?5?5?5?5?5?5?5?5?5?7?7?7?7?$AA@ 10008dcc     profile.obj
 0001:00007dec       ??_C@_0BO@GDKLLEEO@glRotatef?5?5?5?5?5?5?5?5?5?5?5?5?5?5?5?5?7?7?7?7?$AA@ 10008dec     profile.obj
 0001:00007e0c       ??_C@_0BO@NCLMFHHB@glReadPixels?5?5?5?5?5?5?5?5?5?5?5?5?5?7?7?7?7?$AA@ 10008e0c     profile.obj
 0001:00007e2c       ??_C@_0BO@OEGNFOBP@glPushMatrix?5?5?5?5?5?5?5?5?5?5?5?5?5?7?7?7?7?$AA@ 10008e2c     profile.obj
 0001:00007e4c       ??_C@_0BO@NDPPGEDO@glPopMatrix?5?5?5?5?5?5?5?5?5?5?5?5?5?5?7?7?7?7?$AA@ 10008e4c     profile.obj
 0001:00007e6c       ??_C@_0BO@FMLFAFHI@glPolygonOffsetx?5?5?5?5?5?5?5?5?5?7?7?7?7?$AA@ 10008e6c     profile.obj
 0001:00007e8c       ??_C@_0BO@BNKFCNMN@glPolygonOffset?5?5?5?5?5?5?5?5?5?5?7?7?7?7?$AA@ 10008e8c     profile.obj
 0001:00007eac       ??_C@_0BO@LFAEGKLA@glPointSizex?5?5?5?5?5?5?5?5?5?5?5?5?5?7?7?7?7?$AA@ 10008eac     profile.obj
 0001:00007ecc       ??_C@_0BO@OCOPKABH@glPointSize?5?5?5?5?5?5?5?5?5?5?5?5?5?5?7?7?7?7?$AA@ 10008ecc     profile.obj
 0001:00007eec       ??_C@_0BO@KANGMLJ@glPixelStorei?5?5?5?5?5?5?5?5?5?5?5?5?7?7?7?7?$AA@ 10008eec     profile.obj
 0001:00007f0c       ??_C@_0BO@LPKBJHLM@glOrthox?5?5?5?5?5?5?5?5?5?5?5?5?5?5?5?5?5?7?7?7?7?$AA@ 10008f0c     profile.obj
 0001:00007f2c       ??_C@_0BO@FDKACAKM@glOrthof?5?5?5?5?5?5?5?5?5?5?5?5?5?5?5?5?5?7?7?7?7?$AA@ 10008f2c     profile.obj
 0001:00007f4c       ??_C@_0BO@BBKNDIMI@glNormalPointer?5?5?5?5?5?5?5?5?5?5?7?7?7?7?$AA@ 10008f4c     profile.obj
 0001:00007f6c       ??_C@_0BO@CFKBJIGF@glNormal3x?5?5?5?5?5?5?5?5?5?5?5?5?5?5?5?7?7?7?7?$AA@ 10008f6c     profile.obj
 0001:00007f8c       ??_C@_0BO@LNIKIGDJ@glNormal3f?5?5?5?5?5?5?5?5?5?5?5?5?5?5?5?7?7?7?7?$AA@ 10008f8c     profile.obj
 0001:00007fac       ??_C@_0BO@MLCIHHHK@glMultiTexCoord4x?5?5?5?5?5?5?5?5?7?7?7?7?$AA@ 10008fac     profile.obj
 0001:00007fcc       ??_C@_0BO@GGABBOJG@glMultiTexCoord4f?5?5?5?5?5?5?5?5?7?7?7?7?$AA@ 10008fcc     profile.obj
 0001:00007fec       ??_C@_0BO@NOJJBPPK@glMultMatrixx?5?5?5?5?5?5?5?5?5?5?5?5?7?7?7?7?$AA@ 10008fec     profile.obj
 0001:0000800c       ??_C@_0BO@OJBHFBGL@glMultMatrixf?5?5?5?5?5?5?5?5?5?5?5?5?7?7?7?7?$AA@ 1000900c     profile.obj
 0001:0000802c       ??_C@_0BO@FBFKDAC@glMatrixMode?5?5?5?5?5?5?5?5?5?5?5?5?5?7?7?7?7?$AA@ 1000902c     profile.obj
 0001:0000804c       ??_C@_0BO@GJKMHALK@glMaterialxv?5?5?5?5?5?5?5?5?5?5?5?5?5?7?7?7?7?$AA@ 1000904c     profile.obj
 0001:0000806c       ??_C@_0BO@KKDKKMIL@glMaterialx?5?5?5?5?5?5?5?5?5?5?5?5?5?5?7?7?7?7?$AA@ 1000906c     profile.obj
 0001:0000808c       ??_C@_0BO@JAJCJAPI@glMaterialfv?5?5?5?5?5?5?5?5?5?5?5?5?5?7?7?7?7?$AA@ 1000908c     profile.obj
 0001:000080ac       ??_C@_0BO@FDAEEMMJ@glMaterialf?5?5?5?5?5?5?5?5?5?5?5?5?5?5?7?7?7?7?$AA@ 100090ac     profile.obj
 0001:000080cc       ??_C@_0BO@HOFGGCND@glLogicOp?5?5?5?5?5?5?5?5?5?5?5?5?5?5?5?5?7?7?7?7?$AA@ 100090cc     profile.obj
 0001:000080ec       ??_C@_0BO@FOHFJDCB@glLoadMatrixx?5?5?5?5?5?5?5?5?5?5?5?5?7?7?7?7?$AA@ 100090ec     profile.obj
 0001:0000810c       ??_C@_0BO@GJPLNNLA@glLoadMatrixf?5?5?5?5?5?5?5?5?5?5?5?5?7?7?7?7?$AA@ 1000910c     profile.obj
 0001:0000812c       ??_C@_0BO@MLADGABN@glLoadIdentity?5?5?5?5?5?5?5?5?5?5?5?7?7?7?7?$AA@ 1000912c     profile.obj
 0001:0000814c       ??_C@_0BO@HHLDCGN@glLineWidthx?5?5?5?5?5?5?5?5?5?5?5?5?5?7?7?7?7?$AA@ 1000914c     profile.obj
 0001:0000816c       ??_C@_0BO@FAJAPIMK@glLineWidth?5?5?5?5?5?5?5?5?5?5?5?5?5?5?7?7?7?7?$AA@ 1000916c     profile.obj
 0001:0000818c       ??_C@_0BO@COCIKPKK@glLightxv?5?5?5?5?5?5?5?5?5?5?5?5?5?5?5?5?7?7?7?7?$AA@ 1000918c     profile.obj
 0001:000081ac       ??_C@_0BO@DPGAJMKM@glLightx?5?5?5?5?5?5?5?5?5?5?5?5?5?5?5?5?5?7?7?7?7?$AA@ 100091ac     profile.obj
 0001:000081cc       ??_C@_0BO@MCCJBILK@glLightfv?5?5?5?5?5?5?5?5?5?5?5?5?5?5?5?5?7?7?7?7?$AA@ 100091cc     profile.obj
 0001:000081ec       ??_C@_0BO@NDGBCLLM@glLightf?5?5?5?5?5?5?5?5?5?5?5?5?5?5?5?5?5?7?7?7?7?$AA@ 100091ec     profile.obj
 0001:0000820c       ??_C@_0BO@IKPLGKEB@glLightModelxv?5?5?5?5?5?5?5?5?5?5?5?7?7?7?7?$AA@ 1000920c     profile.obj
 0001:0000822c       ??_C@_0BO@GHNICBMA@glLightModelx?5?5?5?5?5?5?5?5?5?5?5?5?7?7?7?7?$AA@ 1000922c     profile.obj
 0001:0000824c       ??_C@_0BO@LNHFCENA@glLightModelfv?5?5?5?5?5?5?5?5?5?5?5?7?7?7?7?$AA@ 1000924c     profile.obj
 0001:0000826c       ??_C@_0BO@FAFGGPFB@glLightModelf?5?5?5?5?5?5?5?5?5?5?5?5?7?7?7?7?$AA@ 1000926c     profile.obj
 0001:0000828c       ??_C@_0BO@DAJCNKFM@glHint?5?5?5?5?5?5?5?5?5?5?5?5?5?5?5?5?5?5?5?7?7?7?7?$AA@ 1000928c     profile.obj
 0001:000082ac       ??_C@_0BO@EAJAICHG@glGetString?5?5?5?5?5?5?5?5?5?5?5?5?5?5?7?7?7?7?$AA@ 100092ac     profile.obj
 0001:000082cc       ??_C@_0BO@BINFOFEO@glGetIntegerv?5?5?5?5?5?5?5?5?5?5?5?5?7?7?7?7?$AA@ 100092cc     profile.obj
 0001:000082ec       ??_C@_0BO@BJMDNIMK@glGetError?5?5?5?5?5?5?5?5?5?5?5?5?5?5?5?7?7?7?7?$AA@ 100092ec     profile.obj
 0001:0000830c       ??_C@_0BO@PPMDCAOK@glGenTextures?5?5?5?5?5?5?5?5?5?5?5?5?7?7?7?7?$AA@ 1000930c     profile.obj
 0001:0000832c       ??_C@_0BO@NJMKGAPC@glFrustumx?5?5?5?5?5?5?5?5?5?5?5?5?5?5?5?7?7?7?7?$AA@ 1000932c     profile.obj
 0001:0000834c       ??_C@_0BO@EBOBHOKO@glFrustumf?5?5?5?5?5?5?5?5?5?5?5?5?5?5?5?7?7?7?7?$AA@ 1000934c     profile.obj
 0001:0000836c       ??_C@_0BO@ICDLNMOM@glFrontFace?5?5?5?5?5?5?5?5?5?5?5?5?5?5?7?7?7?7?$AA@ 1000936c     profile.obj
 0001:0000838c       ??_C@_0BO@INAOEIC@glFogxv?5?5?5?5?5?5?5?5?5?5?5?5?5?5?5?5?5?5?7?7?7?7?$AA@ 1000938c     profile.obj
 0001:000083ac       ??_C@_0BO@OBFKDDFK@glFogx?5?5?5?5?5?5?5?5?5?5?5?5?5?5?5?5?5?5?5?7?7?7?7?$AA@ 100093ac     profile.obj
 0001:000083cc       ??_C@_0BO@BHBHDMPN@glFogfv?5?5?5?5?5?5?5?5?5?5?5?5?5?5?5?5?5?5?7?7?7?7?$AA@ 100093cc     profile.obj
 0001:000083ec       ??_C@_0BO@POJNOLCF@glFogf?5?5?5?5?5?5?5?5?5?5?5?5?5?5?5?5?5?5?5?7?7?7?7?$AA@ 100093ec     profile.obj
 0001:0000840c       ??_C@_0BO@OBONGB@glFlush?5?5?5?5?5?5?5?5?5?5?5?5?5?5?5?5?5?5?7?7?7?7?$AA@ 1000940c     profile.obj
 0001:0000842c       ??_C@_0BO@BGHBCEGA@glFinish?5?5?5?5?5?5?5?5?5?5?5?5?5?5?5?5?5?7?7?7?7?$AA@ 1000942c     profile.obj
 0001:0000844c       ??_C@_0BO@IGKKKOLH@glEnableClientState?5?5?5?5?5?5?7?7?7?7?$AA@ 1000944c     profile.obj
 0001:0000846c       ??_C@_0BO@FFJOGKCK@glEnable?5?5?5?5?5?5?5?5?5?5?5?5?5?5?5?5?5?7?7?7?7?$AA@ 1000946c     profile.obj
 0001:0000848c       ??_C@_0BO@FHCLDEG@glDrawElements?5?5?5?5?5?5?5?5?5?5?5?7?7?7?7?$AA@ 1000948c     profile.obj
 0001:000084ac       ??_C@_0BO@OKMCICEN@glDrawArrays?5?5?5?5?5?5?5?5?5?5?5?5?5?7?7?7?7?$AA@ 100094ac     profile.obj
 0001:000084cc       ??_C@_0BO@JGAGACIJ@glDisableClientState?5?5?5?5?5?7?7?7?7?$AA@ 100094cc     profile.obj
 0001:000084ec       ??_C@_0BO@HEDGGEOO@glDisable?5?5?5?5?5?5?5?5?5?5?5?5?5?5?5?5?7?7?7?7?$AA@ 100094ec     profile.obj
 0001:0000850c       ??_C@_0BO@JJJPLFFJ@glDepthRangex?5?5?5?5?5?5?5?5?5?5?5?5?7?7?7?7?$AA@ 1000950c     profile.obj
 0001:0000852c       ??_C@_0BO@KOBBPLMI@glDepthRangef?5?5?5?5?5?5?5?5?5?5?5?5?7?7?7?7?$AA@ 1000952c     profile.obj
 0001:0000854c       ??_C@_0BO@COBDKKCP@glDepthMask?5?5?5?5?5?5?5?5?5?5?5?5?5?5?7?7?7?7?$AA@ 1000954c     profile.obj
 0001:0000856c       ??_C@_0BO@NDPHEDHI@glDepthFunc?5?5?5?5?5?5?5?5?5?5?5?5?5?5?7?7?7?7?$AA@ 1000956c     profile.obj
 0001:0000858c       ??_C@_0BO@MKBFOPAG@glDeleteTextures?5?5?5?5?5?5?5?5?5?7?7?7?7?$AA@ 1000958c     profile.obj
 0001:000085ac       ??_C@_0BO@NPHIDNJH@glCullFace?5?5?5?5?5?5?5?5?5?5?5?5?5?5?5?7?7?7?7?$AA@ 100095ac     profile.obj
 0001:000085cc       ??_C@_0BO@JEEIGDMB@glCopyTexSubImage2D?5?5?5?5?5?5?7?7?7?7?$AA@ 100095cc     profile.obj
 0001:000085ec       ??_C@_0BO@CAJGJCDE@glCopyTexImage2D?5?5?5?5?5?5?5?5?5?7?7?7?7?$AA@ 100095ec     profile.obj
 0001:0000860c       ??_C@_0BO@GIDOPMIH@glCompressedTexSubImage2D?7?7?7?7?$AA@ 1000960c     profile.obj
 0001:0000862c       ??_C@_0BO@DLHDGOG@glCompressedTexImage2D?5?5?5?7?7?7?7?$AA@ 1000962c     profile.obj
 0001:0000864c       ??_C@_0BO@FCLDELDE@glColorPointer?5?5?5?5?5?5?5?5?5?5?5?7?7?7?7?$AA@ 1000964c     profile.obj
 0001:0000866c       ??_C@_0BO@NFMDNEGI@glColorMask?5?5?5?5?5?5?5?5?5?5?5?5?5?5?7?7?7?7?$AA@ 1000966c     profile.obj
 0001:0000868c       ??_C@_0BO@IMFJAAGP@glColor4x?5?5?5?5?5?5?5?5?5?5?5?5?5?5?5?5?7?7?7?7?$AA@ 1000968c     profile.obj
 0001:000086ac       ??_C@_0BO@OOBMDGKO@glColor4f?5?5?5?5?5?5?5?5?5?5?5?5?5?5?5?5?7?7?7?7?$AA@ 100096ac     profile.obj
 0001:000086cc       ??_C@_0BO@GHIOIGJA@glClientActiveTexture?5?5?5?5?7?7?7?7?$AA@ 100096cc     profile.obj
 0001:000086ec       ??_C@_0BO@GPBBEPJM@glClearStencil?5?5?5?5?5?5?5?5?5?5?5?7?7?7?7?$AA@ 100096ec     profile.obj
 0001:0000870c       ??_C@_0BO@HEEJJNFN@glClearDepthx?5?5?5?5?5?5?5?5?5?5?5?5?7?7?7?7?$AA@ 1000970c     profile.obj
 0001:0000872c       ??_C@_0BO@EDMHNDMM@glClearDepthf?5?5?5?5?5?5?5?5?5?5?5?5?7?7?7?7?$AA@ 1000972c     profile.obj
 0001:0000874c       ??_C@_0BO@FFOPOFHB@glClearColorx?5?5?5?5?5?5?5?5?5?5?5?5?7?7?7?7?$AA@ 1000974c     profile.obj
 0001:0000876c       ??_C@_0BO@NGJAGHAF@glClearColor?5?5?5?5?5?5?5?5?5?5?5?5?5?7?7?7?7?$AA@ 1000976c     profile.obj
 0001:0000878c       ??_C@_0BO@BBPNDBMP@glClear?5?5?5?5?5?5?5?5?5?5?5?5?5?5?5?5?5?5?7?7?7?7?$AA@ 1000978c     profile.obj
 0001:000087ac       ??_C@_0BO@ECOPNLKJ@glBlendFunc?5?5?5?5?5?5?5?5?5?5?5?5?5?5?7?7?7?7?$AA@ 100097ac     profile.obj
 0001:000087cc       ??_C@_0BO@MLPIFHGC@glBindTexture?5?5?5?5?5?5?5?5?5?5?5?5?7?7?7?7?$AA@ 100097cc     profile.obj
 0001:000087ec       ??_C@_0BO@PDPJOKMG@glAlphaFuncx?5?5?5?5?5?5?5?5?5?5?5?5?5?7?7?7?7?$AA@ 100097ec     profile.obj
 0001:0000880c       ??_C@_0BO@KEBCCAGB@glAlphaFunc?5?5?5?5?5?5?5?5?5?5?5?5?5?5?7?7?7?7?$AA@ 1000980c     profile.obj
 0001:0000882c       ??_C@_0BO@BPDMFGGE@glActiveTexture?5?5?5?5?5?5?5?5?5?5?7?7?7?7?$AA@ 1000982c     profile.obj
 0001:00008dd8       ??_C@_0FA@FDJKEMMB@AddToStateMetric?3?5Could?5not?5crea@ 10009dd8     profile.obj
 0001:00008e28       ??_C@_0FG@HAICHLC@c?3?2data?2jatin?2powervr_build?2ddk1@ 10009e28     profile.obj
 0001:00008e80       ??_C@_0BN@KBAJGMBH@?$CFs?5?5?$CF12u?5?5?$CF2?46f?5?5?$CF12u?5?5?$CF2?46f?$AA@ 10009e80     profile.obj
 0001:00008ea0       ??_C@_0GL@ELMGGDJD@Call?5?5?5?5?5?5?5?5?5?5?5?5?5?5?5?5?5?5?5?5?5?5?5?5?5?5?5?5@ 10009ea0     profile.obj
 0001:00008f0c       ??_C@_0CH@PNNCCMIA@Entry?5point?5profiling?5?$CITimes?5in?5@ 10009f0c     profile.obj
 0001:00008f34       ??_C@_0BJ@MKPDMMDM@VBO?5names?5generated?5?$DN?5?$CFu?$AA@ 10009f34     profile.obj
 0001:00008f50       ??_C@_0BJ@KOKAEFLK@?6VBO?5allocation?5HWM?5?$DN?5?$CFu?$AA@ 10009f50     profile.obj
 0001:00008f6c       ??_C@_0BI@PAMNMEGE@?$DN?$DN?$DN?$DN?$DN?$DN?$DN?$DN?$DN?$DN?$DN?$DN?$DN?$DN?$DN?$DN?$DN?$DN?$DN?$DN?$DN?$DN?$DN?$AA@ 10009f6c     profile.obj
 0001:00008f84       ??_C@_0BI@KEHCGKK@Profiling?5?$CIper?5context?$CJ?$AA@ 10009f84     profile.obj
 0001:00008f9c       ??_C@_0CG@FCHFLJNI@?$CFs?5?5?5?5?5?5?5?5?5?5?5?$CF10u?5?$CF10u?5?5?5?5?5?$CF10u?5@ 10009f9c     profile.obj
 0001:00008fc4       ??_C@_0DE@NGKMHFAM@?$CFs?5?5?5Vertices?5?5?5?5?5?5Calls?5Vertice@ 10009fc4     profile.obj
 0001:00008ff8       ??_C@_0BF@HPFCCMCK@Draw?5calls?5profiling?$AA@ 10009ff8     profile.obj
 0001:00009010       ??_C@_0N@FKOPEHJN@Usage?5Count?5?$AA@ 1000a010     profile.obj
 0001:00009020       ??_C@_05FCEONCHK@?5?$CF6u?5?$AA@ 1000a020     profile.obj
 0001:00009028       ??_C@_04KIEOPGPD@?5?$CFu?5?$AA@ 1000a028     profile.obj
 0001:00009030       ??_C@_0N@OGNGEMDM@State?5?5?5?5?5?5?5?$AA@ 1000a030     profile.obj
 0001:00009040       ??_C@_0CF@MANNOKNI@State?5combinations?5used?5in?5rende@ 1000a040     profile.obj
 0001:00009068       ??_C@_03NDEAONJP@?5?5?5?$AA@ 1000a068     profile.obj
 0001:0000906c       ??_C@_03LBOPJCJH@?5x?5?$AA@ 1000a06c     profile.obj
 0001:00009070       ??_C@_03IKGEINEE@?$CFs?5?$AA@ 1000a070     profile.obj
 0001:00009074       ??_C@_0BK@EJLPOIC@?$CFs?5?$CF13u?5?$CF14u?5?$CF14?42f?5?$CF9?42f?$AA@ 1000a074     profile.obj
 0001:00009090       ??_C@_0EC@DJPNNLKC@State?5?5?5?5?5?5?5?5?5?5ValidCalls?5Redund@ 1000a090     profile.obj
 0001:000090d4       ??_C@_0BK@KNIJNIAH@Enable?1Disable?5Call?5Table?$AA@ 1000a0d4     profile.obj
 0001:00009258       ??_C@_0DF@BMIEIOHG@Couldn?8t?5allocate?5USE?5vertex?5cod@ 1000a258     scissor.obj
 0001:00009290       ??_C@_0FG@IMCOEEGG@c?3?2data?2jatin?2powervr_build?2ddk1@ 1000a290     scissor.obj
 0001:000092e8       ??_C@_09ECGPAEPL@glScissor?$AA@ 1000a2e8     scissor.obj
 0001:00009460       ??_C@_0FE@NFGJDAPC@c?3?2data?2jatin?2powervr_build?2ddk1@ 1000a460     sgxif.obj
 0001:000094b4       ??_C@_0DJ@EDMGEGKG@WaitUntilBufObjNotUsed?3?5Timeout?5@ 1000a4b4     sgxif.obj
 0001:000094f0       ??_C@_0BD@PJKDIHCC@Start?5Frame?5failed?$AA@ 1000a4f0     sgxif.obj
 0001:00009504       ??_C@_0DA@GLLIAGPN@PrepareToDraw?3?5KEGLResizeRenderS@ 1000a504     sgxif.obj
 0001:00009534       ??_C@_0CK@FFNDCBIE@PrepareToDraw?3?5Creating?5ZS?5buffe@ 1000a534     sgxif.obj
 0001:00009560       ??_C@_0DC@NCDJFHFJ@PrepareToDraw?3?5KEGLGetDrawablePa@ 1000a560     sgxif.obj
 0001:00009594       __real@1e3ce508            1000a594     sgxif.obj
 0001:00009598       ??_C@_0CO@NKBKDPN@SetupZLSRegs?3?5Bad?5external?5Z?5Buf@ 1000a598     sgxif.obj
 0001:000095c8       ??_C@_0CM@LBMKCODI@WaitForRender?3?5PVRSRVEventObject@ 1000a5c8     sgxif.obj
 0001:000095f4       ??_C@_0BH@IPGEHDGD@WaitForRender?3?5Timeout?$AA@ 1000a5f4     sgxif.obj
 0001:0000960c       ??_C@_0CL@ONLGPOAI@DoKickTA?3?5SGXKickTA?$CI?$CJ?5failed?5wit@ 1000a60c     sgxif.obj
 0001:00009638       ??_C@_0FA@NOGCIEFE@OutputTerminateState?5failed?0?5eve@ 1000a638     sgxif.obj
 0001:00009688       ??_C@_0DA@LBHDJFNF@DoKickTA?3?5Couldn?8t?5allocate?5memo@ 1000a688     sgxif.obj
 0001:000096b8       ??_C@_0CK@GFOEDIKO@DoKickTA?3?5Creating?5ZS?5buffer?5for@ 1000a6b8     sgxif.obj
 0001:000096e4       ??_C@_0CM@IJKIDFFD@ScheduleTA?3?5SetupPixelEventProgr@ 1000a6e4     sgxif.obj
 0001:00009878       ??_C@_0CE@JGFOKKHM@PDS?5Variant?5not?5found?5in?5hash?5ta@ 1000a878     shader.obj
 0001:000098a0       ??_C@_0FF@DEHHMOFC@c?3?2data?2jatin?2powervr_build?2ddk1@ 1000a8a0     shader.obj
 0001:000098f8       ??_C@_0DI@BJNLCHCD@DestroyUSECodeVariantGhostKRM?3?5S@ 1000a8f8     shader.obj
 0001:00009930       ??_C@_0CO@OEODEDNH@DestroyVertexVariants?3?5Kicking?5t@ 1000a930     shader.obj
 0001:00009c40       ??_C@_0FE@CNEDBJCP@c?3?2data?2jatin?2powervr_build?2ddk1@ 1000ac40     state.obj
 0001:00009c94       ??_C@_0P@BIBPOIBJ@glEnable?3?50x?$CFX?$AA@ 1000ac94     state.obj
 0001:00009ca4       ??_C@_0BA@HMHFALFF@glDisable?3?50x?$CFX?$AA@ 1000aca4     state.obj
 0001:00009cb4       ??_C@_0M@BJGLMKCC@glAlphaFunc?$AA@ 1000acb4     state.obj
 0001:00009cc0       ??_C@_0N@DCJPNJNA@glAlphaFuncx?$AA@ 1000acc0     state.obj
 0001:00009cd0       ??_C@_0M@PFBKOKOH@glBlendFunc?$AA@ 1000acd0     state.obj
 0001:00009cdc       ??_C@_0L@BAPBLHME@glCullFace?$AA@ 1000acdc     state.obj
 0001:00009ce8       ??_C@_0M@NEJABAEP@glDepthFunc?$AA@ 1000ace8     state.obj
 0001:00009cf4       ??_C@_0M@KABMFLLN@glDepthMask?$AA@ 1000acf4     state.obj
 0001:00009d00       ??_C@_0M@CFLGNFPG@glLineWidth?$AA@ 1000ad00     state.obj
 0001:00009d0c       ??_C@_0N@LDBNBCAC@glLineWidthx?$AA@ 1000ad0c     state.obj
 0001:00009d1c       ??_C@_0M@EEAPMMNM@glPointSize?$AA@ 1000ad1c     state.obj
 0001:00009d28       ??_C@_0N@GIMHGCMN@glPointSizex?$AA@ 1000ad28     state.obj
 0001:00009d38       ??_C@_0BD@LIABKNDP@glPointParameterfv?$AA@ 1000ad38     state.obj
 0001:00009d4c       __real@3ff0000000000000    1000ad4c     state.obj
 0001:00009d54       ??_C@_0BC@FGOOEDO@glPointParameterf?$AA@ 1000ad54     state.obj
 0001:00009d68       ??_C@_0BD@KOLJCDEF@glPointParameterxv?$AA@ 1000ad68     state.obj
 0001:00009d7c       ??_C@_0BC@NBCPNLOB@glPointParameterx?$AA@ 1000ad7c     state.obj
 0001:00009d90       ??_C@_0M@ILBMDJDA@glFrontFace?$AA@ 1000ad90     state.obj
 0001:00009d9c       ??_C@_09GKGMNAKG@glLogicOp?$AA@ 1000ad9c     state.obj
 0001:00009da8       ??_C@_0BA@FFBJGNC@glPolygonOffset?$AA@ 1000ada8     state.obj
 0001:00009db8       ??_C@_0BB@IPDOBBJA@glPolygonOffsetx?$AA@ 1000adb8     state.obj
 0001:00009dcc       ??_C@_0N@NALMFHKN@glShadeModel?$AA@ 1000adcc     state.obj
 0001:00009ddc       ??_C@_0O@ENNLLOLN@glStencilFunc?$AA@ 1000addc     state.obj
 0001:00009dec       ??_C@_0M@BILBNGF@glStencilOp?$AA@ 1000adec     state.obj
 0001:00009df8       ??_C@_0O@DJFHPFEP@glStencilMask?$AA@ 1000adf8     state.obj
 0001:00009e08       ??_C@_0M@DLGOAHPH@glColorMask?$AA@ 1000ae08     state.obj
 0001:00009e14       ??_C@_0BB@BJGIPMOA@glSampleCoverage?$AA@ 1000ae14     state.obj
 0001:00009e28       ??_C@_0BC@EHPFHJHK@glSampleCoveragex?$AA@ 1000ae28     state.obj
 0001:00009fa4       ??_C@_0BI@DPIEFKAC@Hash?5table?5alloc?5failed?$AA@ 1000afa4     statehash.obj
 0001:00009fc0       ??_C@_0FI@CDNNJABB@c?3?2data?2jatin?2powervr_build?2ddk1@ 1000afc0     statehash.obj
 0001:0000a180       ??_C@_0FC@HEOLAIHI@c?3?2data?2jatin?2powervr_build?2ddk1@ 1000b180     tex.obj
 0001:0000a1d4       ??_C@_0BA@KOBBIKOF@glActiveTexture?$AA@ 1000b1d4     tex.obj
 0001:0000a1e4       ??_C@_0O@JKKCIBGC@glBindTexture?$AA@ 1000b1e4     tex.obj
 0001:0000a1f4       ??_C@_0BB@KMPLFJIC@glDeleteTextures?$AA@ 1000b1f4     tex.obj
 0001:0000a208       ??_C@_0O@LLMANLNK@glGenTextures?$AA@ 1000b208     tex.obj
 0001:0000a218       ??_C@_0N@JBIKHLCC@glTexImage2D?$AA@ 1000b218     tex.obj
 0001:0000a228       ??_C@_0CJ@ILHBPBGP@glTexSubImage2D?3?5Can?8t?5get?5drawa@ 1000b228     tex.obj
 0001:0000a254       ??_C@_0DH@MGOPOCMO@glTexSubImage2D?3?5Missing?1Unsuppo@ 1000b254     tex.obj
 0001:0000a28c       ??_C@_0BA@NHKIJEMK@glTexSubImage2D?$AA@ 1000b28c     tex.obj
 0001:0000a29c       ??_C@_0DO@MDBILCKA@GLESGetImageSource?3?5CEM?5source?5r@ 1000b29c     tex.obj
 0001:0000a2dc       ??_C@_0CM@GBMBBACP@UpdateEGLImage?3?5Can?8t?5make?5textu@ 1000b2dc     tex.obj
 0001:0000a308       ??_C@_0EL@HCEDPED@glCompressedTexImage2D?3?5Wrong?5in@ 1000b308     tex.obj
 0001:0000a354       ??_C@_0BH@GHLPKKFI@glCompressedTexImage2D?$AA@ 1000b354     tex.obj
 0001:0000a36c       ??_C@_0BK@EAFOEJMH@glCompressedTexSubImage2D?$AA@ 1000b36c     tex.obj
 0001:0000a388       ??_C@_0CN@LGEABPPI@glCopyTexImage2D?3?5Failed?5to?5get?5@ 1000b388     tex.obj
 0001:0000a3b8       ??_C@_0CB@BDIEJAAM@glCopyTexImage2D?3?5Can?8t?5flush?5HW@ 1000b3b8     tex.obj
 0001:0000a3dc       ??_C@_0BB@MGAFKJKC@glCopyTexImage2D?$AA@ 1000b3dc     tex.obj
 0001:0000a3f0       ??_C@_0CN@BMDDMHOE@glCopyTexSubImage2D?3?5Can?8t?5get?5d@ 1000b3f0     tex.obj
 0001:0000a420       ??_C@_0CH@MGALCOCN@glCopyTexSubImage2D?3?5Couldn?8t?5fl@ 1000b420     tex.obj
 0001:0000a448       ??_C@_0DA@ILHPNPJN@glCopyTexSubImage2D?3?5Failed?5to?5g@ 1000b448     tex.obj
 0001:0000a478       ??_C@_0CE@BFCNHICB@glCopyTexSubImage2D?3?5Can?8t?5flush@ 1000b478     tex.obj
 0001:0000a49c       ??_C@_0BC@HHODBEKC@Unknown?5HW?5format?$AA@ 1000b49c     tex.obj
 0001:0000a4b0       ??_C@_0BE@PIJELGDB@glCopyTexSubImage2D?$AA@ 1000b4b0     tex.obj
 0001:0000a4c4       ??_C@_0L@EMICMNOO@glTexEnvfv?$AA@ 1000b4c4     tex.obj
 0001:0000a4d0       ??_C@_09FCLLGECI@glTexEnvf?$AA@ 1000b4d0     tex.obj
 0001:0000a4dc       ??_C@_0L@FKDKEDJE@glTexEnvxv?$AA@ 1000b4dc     tex.obj
 0001:0000a4e8       ??_C@_09IGPKFLPH@glTexEnvx?$AA@ 1000b4e8     tex.obj
 0001:0000a4f4       ??_C@_0L@EHNOIKND@glTexEnviv?$AA@ 1000b4f4     tex.obj
 0001:0000a500       __real@2f800005            1000b500     tex.obj
 0001:0000a504       ??_C@_09NFCDHIOH@glTexEnvi?$AA@ 1000b504     tex.obj
 0001:0000a510       ??_C@_0BA@INKFIMGP@glTexParameterf?$AA@ 1000b510     tex.obj
 0001:0000a520       ??_C@_0BA@FJOELDLA@glTexParameterx?$AA@ 1000b520     tex.obj
 0001:0000a530       ??_C@_0BA@KDNJAKA@glTexParameteri?$AA@ 1000b530     tex.obj
 0001:0000a540       ??_C@_0BB@KEOFAHDF@glTexParameterfv?$AA@ 1000b540     tex.obj
 0001:0000a554       ??_C@_0BB@KPLJEAAI@glTexParameteriv?$AA@ 1000b554     tex.obj
 0001:0000a568       ??_C@_0BB@LCFNIJEP@glTexParameterxv?$AA@ 1000b568     tex.obj
 0001:0000a84c       ??_C@_0DJ@IFAEMBNN@PrepareHWTQTextureUpload?3?5HWTQ?5f@ 1000b84c     texdata.obj
 0001:0000a888       ??_C@_0EC@KFNKKALH@PrepareHWTQTextureUpload?3?5Unsupp@ 1000b888     texdata.obj
 0001:0000a8d0       ??_C@_0EA@BMBEEEFA@PrepareHWTQTextureUpload?3?5unable@ 1000b8d0     texdata.obj
 0001:0000a910       ??_C@_0DF@PNLGPKLA@PrepareHWTQTextureUpload?3?5unsupp@ 1000b910     texdata.obj
 0001:0000a948       ??_C@_0EA@GJCONGOE@PrepareHWTQTextureUpload?3?5unsupp@ 1000b948     texdata.obj
 0001:0000a988       ??_C@_0EA@MNBGMPOL@PrepareHWTQTextureUpload?3?5unsupp@ 1000b988     texdata.obj
 0001:0000a9c8       ??_C@_0DL@DLEAEPFL@PrepareHWTQTextureUpload?3?5unsupp@ 1000b9c8     texdata.obj
 0001:0000aa08       ??_C@_0EN@GONGKKNH@PrepareHWTQTextureUpload?3?5unsupp@ 1000ba08     texdata.obj
 0001:0000aa58       ??_C@_0EB@PJCIFFBI@PrepareHWTQTextureUpload?3?5unsupp@ 1000ba58     texdata.obj
 0001:0000aaa0       ??_C@_0FG@BEACEIBC@c?3?2data?2jatin?2powervr_build?2ddk1@ 1000baa0     texdata.obj
 0001:0000aaf8       ??_C@_0EL@JCIMBHJL@HWTQTextureUpload?3?5Timeout?5faile@ 1000baf8     texdata.obj
 0001:0000ab48       ??_C@_0EP@OOCJPILN@HWTQTextureUpload?3?5Failed?5to?5loa@ 1000bb48     texdata.obj
 0001:0000ab98       ??_C@_0DN@PKNJLDCC@PrepareHWTQTextureNormalBlit?3?5HW@ 1000bb98     texdata.obj
 0001:0000abd8       ??_C@_0DM@ECGAAMIO@PrepareHWTQTextureNormalBlit?3?5un@ 1000bbd8     texdata.obj
 0001:0000ac18       ??_C@_0GI@OGIGEFAC@PrepareHWTQTextureNormalBlit?3?5il@ 1000bc18     texdata.obj
 0001:0000ac80       ??_C@_0ED@EDLLDAL@PrepareHWTQTextureNormalBlit?3?5Un@ 1000bc80     texdata.obj
 0001:0000acc8       ??_C@_0EF@PBIMNLNA@PrepareHWTQTextureNormalBlit?3?5Un@ 1000bcc8     texdata.obj
 0001:0000ad10       ??_C@_0DO@GDAFBDAK@PrepareHWTQTextureNormalBlit?3?5Un@ 1000bd10     texdata.obj
 0001:0000ad50       ??_C@_0EP@HOAICCFA@HWTQTextureNormalBlit?3?5Timeout?5f@ 1000bd50     texdata.obj
 0001:0000ada0       ??_C@_0FD@JLJGEFNN@HWTQTextureNormalBlit?3?5Failed?5to@ 1000bda0     texdata.obj
 0001:0000adf4       ??_C@_0DD@ONPLJCAC@TranslateLevel?3?5Memory?5calculati@ 1000bdf4     texdata.obj
 0001:0000ae28       ??_C@_0EC@PPLLGKGK@ReadBackTextureData?3?5Timeout?5fai@ 1000be28     texdata.obj
 0001:0000ae70       ??_C@_0FP@JEKPGFBJ@PrepareHWTQTextureBufferBlit?3?5te@ 1000be70     texdata.obj
 0001:0000aed0       ??_C@_0EP@NCNNDLNN@HWTQTextureBufferBlit?3?5Timeout?5f@ 1000bed0     texdata.obj
 0001:0000af20       ??_C@_0FD@LEHNGNFN@HWTQTextureBufferBlit?3?5Failed?5to@ 1000bf20     texdata.obj
 0001:0000b0dc       TexFormatABGR8888          1000c0dc     texformat.obj
 0001:0000b0e8       TexFormatARGB8888          1000c0e8     texformat.obj
 0001:0000b0f4       TexFormatARGB1555          1000c0f4     texformat.obj
 0001:0000b100       TexFormatARGB4444          1000c100     texformat.obj
 0001:0000b10c       TexFormatXBGR8888          1000c10c     texformat.obj
 0001:0000b118       TexFormatRGB565            1000c118     texformat.obj
 0001:0000b124       TexFormatAlpha             1000c124     texformat.obj
 0001:0000b130       TexFormatLuminance         1000c130     texformat.obj
 0001:0000b13c       TexFormatLuminanceAlpha    1000c13c     texformat.obj
 0001:0000b148       TexFormatPVRTC2RGB         1000c148     texformat.obj
 0001:0000b154       TexFormatPVRTC4RGB         1000c154     texformat.obj
 0001:0000b160       TexFormatPVRTC2RGBA        1000c160     texformat.obj
 0001:0000b16c       TexFormatPVRTC4RGBA        1000c16c     texformat.obj
 0001:0000b178       TexFormatPVRTCII2RGB       1000c178     texformat.obj
 0001:0000b184       TexFormatPVRTCII4RGB       1000c184     texformat.obj
 0001:0000b190       TexFormatPVRTCII2RGBA      1000c190     texformat.obj
 0001:0000b19c       TexFormatPVRTCII4RGBA      1000c19c     texformat.obj
 0001:0000b1a8       TexFormatETC1RGB8          1000c1a8     texformat.obj
 0001:0000b1b4       TexFormatUYVY              1000c1b4     texformat.obj
 0001:0000b1c0       TexFormatVYUY              1000c1c0     texformat.obj
 0001:0000b1cc       TexFormatYUYV              1000c1cc     texformat.obj
 0001:0000b1d8       TexFormatYVYU              1000c1d8     texformat.obj
 0001:0000b1e4       TexFormat2PlaneYUV420      1000c1e4     texformat.obj
 0001:0000b1f0       TexFormat3PlaneYUV420      1000c1f0     texformat.obj
 0001:0000b364       ??_C@_0CN@EDJMOLPG@CreateTextureMemory?3?5Reaping?5act@ 1000c364     texmgmt.obj
 0001:0000b398       ??_C@_0FG@FNPELMIC@c?3?2data?2jatin?2powervr_build?2ddk1@ 1000c398     texmgmt.obj
 0001:0000b3f0       ??_C@_0M@KOEMAKPO@?$CFuk?5ghosted?$AA@ 1000c3f0     texmgmt.obj
 0001:0000b3fc       ??_C@_0DE@CNEGLENM@TextureCreatePBufferLevel?3?5Unkno@ 1000c3fc     texmgmt.obj
 0001:0000b430       ??_C@_0DD@CIMPPOJO@TextureCreatePBufferLevel?3?5Can?8t@ 1000c430     texmgmt.obj
 0001:0000b464       ??_C@_0DC@GJDGIFDA@TextureCreateImageLevel?3?5Unknown@ 1000c464     texmgmt.obj
 0001:0000b498       ??_C@_0EF@IDHNDOI@FreeTextureMemKRM?3?5Could?5not?5all@ 1000c498     texmgmt.obj
 0001:0000b4e0       ??_C@_0DL@IIJJALHE@TexStreamUnbindBufferDevice?3?5Clo@ 1000c4e0     texmgmt.obj
 0001:0000b51c       ??_C@_0DJ@GEMCGMGJ@CreateDummyTexture?3?5Can?8t?5create@ 1000c51c     texmgmt.obj
 0001:0000b558       ??_C@_0CA@CJAGLBPH@Couldn?8t?5create?5default?5texture?$AA@ 1000c558     texmgmt.obj
 0001:0000b578       ??_C@_0DI@ECCEBFL@DestroyDummyTexture?3?5Can?8t?5free?5@ 1000c578     texmgmt.obj
 0001:0000b5b0       ??_C@_0CL@BMOHPCHB@FreeTextureState?3?5BindTexture?5?$CFu@ 1000c5b0     texmgmt.obj
 0001:0000b5dc       ??_C@_0DH@PPHPBACD@SetupEGLImageArbitraryStride?3?5Un@ 1000c5dc     texmgmt.obj
 0001:0000b780       ??_C@_0FI@HDIFMAGN@c?3?2data?2jatin?2powervr_build?2ddk1@ 1000c780     texrender.obj
 0001:0000b7d8       ??_C@_0CK@DPMPKAJO@GLESBindTexImage?3?5Can?8t?5ghost?5th@ 1000c7d8     texrender.obj
 0001:0000b970       ??_C@_0FF@IIHLJCAD@c?3?2data?2jatin?2powervr_build?2ddk1@ 1000c970     tnlapi.obj
 0001:0000b9c8       __real@3f4ccccd            1000c9c8     tnlapi.obj
 0001:0000b9cc       __real@3e4ccccd            1000c9cc     tnlapi.obj
 0001:0000b9d0       ??_C@_0P@JKHJPMNC@glLightModelfv?$AA@ 1000c9d0     tnlapi.obj
 0001:0000b9e0       ??_C@_0O@HPCJLAII@glLightModelf?$AA@ 1000c9e0     tnlapi.obj
 0001:0000b9f0       ??_C@_0P@IMMBHCKI@glLightModelxv?$AA@ 1000c9f0     tnlapi.obj
 0001:0000ba00       ??_C@_0O@KLGIIPFH@glLightModelx?$AA@ 1000ca00     tnlapi.obj
 0001:0000ba10       ??_C@_08LPDPILEL@glLightf?$AA@ 1000ca10     tnlapi.obj
 0001:0000ba1c       __real@42b40000            1000ca1c     tnlapi.obj
 0001:0000ba20       __real@43000000            1000ca20     tnlapi.obj
 0001:0000ba24       ??_C@_09JINEHJOD@glLightfv?$AA@ 1000ca24     tnlapi.obj
 0001:0000ba30       ??_C@_08GLHOLEJE@glLightx?$AA@ 1000ca30     tnlapi.obj
 0001:0000ba3c       ??_C@_09IOGMPHJJ@glLightxv?$AA@ 1000ca3c     tnlapi.obj
 0001:0000ba48       ??_C@_0M@HANOIKMC@glMaterialf?$AA@ 1000ca48     tnlapi.obj
 0001:0000ba54       ??_C@_0N@MHPKDGG@glMaterialfv?$AA@ 1000ca54     tnlapi.obj
 0001:0000ba64       ??_C@_0M@KEJPLFBN@glMaterialx?$AA@ 1000ca64     tnlapi.obj
 0001:0000ba70       ??_C@_0N@BKMHCNBM@glMaterialxv?$AA@ 1000ca70     tnlapi.obj
 0001:0000ba80       ??_C@_0L@KBLIPDFH@glViewport?$AA@ 1000ca80     tnlapi.obj
 0001:0000ba8c       ??_C@_0O@JDFJDNND@glDepthRangef?$AA@ 1000ca8c     tnlapi.obj
 0001:0000ba9c       ??_C@_0O@EHBIACAM@glDepthRangex?$AA@ 1000ca9c     tnlapi.obj
 0001:0000baac       ??_C@_0N@KDLNHKEJ@glMatrixMode?$AA@ 1000caac     tnlapi.obj
 0001:0000babc       ??_C@_0L@HFEMMHCG@glFrustumf?$AA@ 1000cabc     tnlapi.obj
 0001:0000bac8       __real@c0000000            1000cac8     tnlapi.obj
 0001:0000bacc       ??_C@_0L@KBANPIPJ@glFrustumx?$AA@ 1000cacc     tnlapi.obj
 0001:0000bad8       ??_C@_08NAPFMCEN@glOrthof?$AA@ 1000cad8     tnlapi.obj
 0001:0000bae4       ??_C@_08ELEPNJC@glOrthox?$AA@ 1000cae4     tnlapi.obj
 0001:0000baf0       ??_C@_0P@EJAFHEPO@glLoadIdentity?$AA@ 1000caf0     tnlapi.obj
 0001:0000bb00       ??_C@_0O@DJGBMGEI@glLoadMatrixf?$AA@ 1000cb00     tnlapi.obj
 0001:0000bb10       ??_C@_0O@ONCAPJJH@glLoadMatrixx?$AA@ 1000cb10     tnlapi.obj
 0001:0000bb20       ??_C@_0O@LHKDNPKJ@glMultMatrixf?$AA@ 1000cb20     tnlapi.obj
 0001:0000bb30       ??_C@_0O@GDOCOAHG@glMultMatrixx?$AA@ 1000cb30     tnlapi.obj
 0001:0000bb40       ??_C@_09FCODNBIM@glRotatef?$AA@ 1000cb40     tnlapi.obj
 0001:0000bb4c       ??_C@_09IGKCOOFD@glRotatex?$AA@ 1000cb4c     tnlapi.obj
 0001:0000bb58       ??_C@_08JCPEOPLK@glScalef?$AA@ 1000cb58     tnlapi.obj
 0001:0000bb64       ??_C@_08EGLFNAGF@glScalex?$AA@ 1000cb64     tnlapi.obj
 0001:0000bb70       ??_C@_0N@IFPDDBNE@glTranslatef?$AA@ 1000cb70     tnlapi.obj
 0001:0000bb80       ??_C@_0N@FBLCAOAL@glTranslatex?$AA@ 1000cb80     tnlapi.obj
 0001:0000bb90       ??_C@_0N@IHFNHGBL@glPushMatrix?$AA@ 1000cb90     tnlapi.obj
 0001:0000bba0       ??_C@_0M@JPEAAEEK@glPopMatrix?$AA@ 1000cba0     tnlapi.obj
 0001:0000bbac       ??_C@_0N@CIEBEEDM@glClipPlanef?$AA@ 1000cbac     tnlapi.obj
 0001:0000bbbc       ??_C@_0N@PMAAHLOD@glClipPlanex?$AA@ 1000cbbc     tnlapi.obj
 0001:0000bd38       ??_C@_0EA@CPLILNKN@AddInstruction?$CI?$CJ?3?5Failed?5to?5allo@ 1000cd38     useasmgles.obj
 0001:0000bd78       ??_C@_0FJ@DOLPHHMM@c?3?2data?2jatin?2powervr_build?2ddk1@ 1000cd78     useasmgles.obj
 0001:0000bdd8       ??_C@_0FE@OFNABGJB@DuplicateUSEASMInstrcutionList?$CI?$CJ@ 1000cdd8     useasmgles.obj
 0001:0000be2c       ??_C@_0DI@GMMIDJOF@AssembleUSEASMInstructions?$CI?$CJ?3?5Us@ 1000ce2c     useasmgles.obj
 0001:0000be68       ??_C@_0EM@NFLKDEJH@AssembleUSEASMInstructions?$CI?$CJ?3?5Fa@ 1000ce68     useasmgles.obj
 0001:0000beb4       ??_C@_0DL@LMCMLHOO@AssembleUSEASMInstructions?$CI?$CJ?3?5No@ 1000ceb4     useasmgles.obj
 0001:0000bef0       ??_C@_0BE@FNKABGHI@Assembler?5Error?3?$CFs?6?$AA@ 1000cef0     useasmgles.obj
 0001:0000c1a8       ??_C@_0FG@OJECBEEI@c?3?2data?2jatin?2powervr_build?2ddk1@ 1000d1a8     usegles.obj
 0001:0000c200       ??_C@_0DF@MEHIKNK@Couldn?8t?5allocate?5USE?5pixel?5even@ 1000d200     usegles.obj
 0001:0000c238       ??_C@_0CN@EMKNIHCG@Couldn?8t?5allocate?5USE?5pixel?5even@ 1000d238     usegles.obj
 0001:0000c268       ??_C@_0CG@OBJPKILK@Couldn?8t?5allocate?5USE?5state?5copy@ 1000d268     usegles.obj
 0001:0000c290       ??_C@_0CP@NPDIDLPG@CreateVertexUnpackUSECode?3?5Unkno@ 1000d290     usegles.obj
 0001:0000c2c0       ??_C@_0DM@OPDAMEOK@CreateVertexUnpackUSECode?3?5Inval@ 1000d2c0     usegles.obj
 0001:0000c300       ??_C@_0EI@EGHMKKBF@CreateLogicalOpsUSEASMCode?$CI?$CJ?3?5Lo@ 1000d300     usegles.obj
 0001:0000c348       ??_C@_0FD@CAMHPKOD@SetupIteratorsAndTextureLookups?3@ 1000d348     usegles.obj
 0001:0000c3a0       ??_C@_0FK@INOJOGCA@SetupIteratorsAndTextureLookups?3@ 1000d3a0     usegles.obj
 0001:0000c808       ??_C@_0FH@BLKHDBKB@c?3?2data?2jatin?2powervr_build?2ddk1@ 1000d808     validate.obj
 0001:0000c860       ??_C@_0DE@DEDHKFAA@DestroyPDSVariantGhostKRM?3?5Shoul@ 1000d860     validate.obj
 0001:0000c894       ??_C@_0DP@DIKIAFNA@SetupRenderState?3?5Optimizing?5out@ 1000d894     validate.obj
 0001:0000c8d8       ??_C@_0EA@HMPDEHPO@SetupRenderState?3?5Optimizing?5out@ 1000d8d8     validate.obj
 0001:0000c918       ??_C@_0CI@KABANEGF@SetupRenderState?3?5Unsupported?5cu@ 1000d918     validate.obj
 0001:0000c940       ??_C@_0BN@JKBCOODJ@EmitState?3?5Couldn?8t?5flush?5HW?$AA@ 1000d940     validate.obj
 0001:0000c960       ??_C@_0EG@IEOFOHFA@WritePDSPixelShaderProgram?3?5Fail@ 1000d960     validate.obj
 0001:0000c9a8       ??_C@_0DL@CJHDICNK@WritePDSPixelShaderProgram?3?5Fail@ 1000d9a8     validate.obj
 0001:0000c9e8       ??_C@_0EF@IPMONPAI@WritePDSPixelShaderProgram?3?5Fail@ 1000d9e8     validate.obj
 0001:0000ca30       ??_C@_0CN@FDAPAIPG@WritePDSPixelShaderProgram?3?5No?5p@ 1000da30     validate.obj
 0001:0000ca60       ??_C@_0GN@GOEOAKGI@PatchAuxiliaryPDSVertexShaderPro@ 1000da60     validate.obj
 0001:0000cad0       ??_C@_0DN@DIKEGBLO@PatchAuxiliaryPDSVertexShaderPro@ 1000dad0     validate.obj
 0001:0000cb10       ??_C@_0GK@IMANMPHI@WritePDSStaticVertexShaderProgra@ 1000db10     validate.obj
 0001:0000cb80       ??_C@_0FD@NMJHCPOO@WritePDSStaticVertexShaderProgra@ 1000db80     validate.obj
 0001:0000cbd4       ??_C@_0DF@MFGKEJHH@WritePDSStaticVertexShaderProgra@ 1000dbd4     validate.obj
 0001:0000cc10       ??_C@_0ED@EEPGBJJC@WritePDSVertexShaderProgramWithV@ 1000dc10     validate.obj
 0001:0000cc58       ??_C@_0GL@ICMPCEAM@WritePDSVertexShaderProgramWithV@ 1000dc58     validate.obj
 0001:0000ccc4       ??_C@_0DG@BLEEGCIE@WritePDSVertexShaderProgramWithV@ 1000dcc4     validate.obj
 0001:0000ccfc       __real@37800080            1000dcfc     validate.obj
 0001:0000cd00       __real@38000080            1000dd00     validate.obj
 0001:0000cd04       __real@3c008081            1000dd04     validate.obj
 0001:0000cd08       ??_C@_0DG@KFDDIJN@WritePDSPixelSAProgram?3?5UCH_Code@ 1000dd08     validate.obj
 0001:0000cd40       ??_C@_0CI@JFNNHOHH@WritePDSPixelSAProgram?3?5malloc?$CI?$CJ@ 1000dd40     validate.obj
 0001:0000cd68       __real@3727c5ac            1000dd68     validate.obj
 0001:0000ced8       CopyData                   1000ded8     vertex.obj
 0001:0000cf48       MemCopyData                1000df48     vertex.obj
 0001:0000cfb8       ??_C@_0FF@NPLIPKGA@c?3?2data?2jatin?2powervr_build?2ddk1@ 1000dfb8     vertex.obj
 0001:0000d010       ??_C@_0BG@EGKOMLFO@glClientActiveTexture?$AA@ 1000e010     vertex.obj
 0001:0000d028       ??_C@_0BE@KECPKGNE@glEnableClientState?$AA@ 1000e028     vertex.obj
 0001:0000d03c       ??_C@_0BF@LJDHBNBP@glDisableClientState?$AA@ 1000e03c     vertex.obj
 0001:0000d054       ??_C@_09PKFCMFPF@glColor4f?$AA@ 1000e054     vertex.obj
 0001:0000d060       ??_C@_09COBDPKCK@glColor4x?$AA@ 1000e060     vertex.obj
 0001:0000d06c       ??_C@_0L@IEIGEAFK@glColor4ub?$AA@ 1000e06c     vertex.obj
 0001:0000d078       ??_C@_0BC@LDICFFJG@glMultiTexCoord4f?$AA@ 1000e078     vertex.obj
 0001:0000d08c       ??_C@_0BC@GHMDGKEJ@glMultiTexCoord4x?$AA@ 1000e08c     vertex.obj
 0001:0000d0a0       ??_C@_0L@DGGCBPPM@glNormal3f?$AA@ 1000e0a0     vertex.obj
 0001:0000d0ac       ??_C@_0L@OCCDCACD@glNormal3x?$AA@ 1000e0ac     vertex.obj
 0001:0000d0b8       ??_C@_0P@DPKEGLKI@glColorPointer?$AA@ 1000e0b8     vertex.obj
 0001:0000d0c8       ??_C@_0BA@DCLMCEOP@glNormalPointer?$AA@ 1000e0c8     vertex.obj
 0001:0000d0d8       ??_C@_0BC@DAOMILMO@glTexCoordPointer?$AA@ 1000e0d8     vertex.obj
 0001:0000d0ec       ??_C@_0BA@HAHECJNK@glVertexPointer?$AA@ 1000e0ec     vertex.obj
 0001:0000d264       ??_C@_0DI@OADLFCPN@CreateExternalTextureState?3?5Unsu@ 1000e264     texyuv.obj
 0001:0000d29c       ??_C@_0CP@KIBGGMPG@CreateExternalTextureState?3?5Unsu@ 1000e29c     texyuv.obj
 0001:0000d2cc       ??_C@_0BF@OGHMHJPC@?3?5Unsupported?5stride?$AA@ 1000e2cc     texyuv.obj
 0001:0000d2e4       ??_C@_0CP@KIGJHOCI@CreateExternalTextureState?3?5Unsu@ 1000e2e4     texyuv.obj
 0001:0000d318       ??_C@_0FF@GJJPHOMH@c?3?2data?2jatin?2powervr_build?2ddk1@ 1000e318     texyuv.obj
 0001:0000d370       ??_C@_0CO@ICLDFADD@CreateExternalTextureState?3?5Unsu@ 1000e370     texyuv.obj
 0001:0000d508       ??_C@_0EH@GHCBGFFA@glGetTexStreamDeviceAttributeivI@ 1000e508     texstream.obj
 0001:0000d550       ??_C@_0FI@ECDHCBIN@c?3?2data?2jatin?2powervr_build?2ddk1@ 1000e550     texstream.obj
 0001:0000d5a8       ??_C@_0DE@IDHOANIL@Unsupported?5buffer?5class?5buffer?5@ 1000e5a8     texstream.obj
 0001:0000d5dc       ??_C@_0CP@MINNLHGM@AddBufferDevice?3?5Failed?5to?5alloc@ 1000e5dc     texstream.obj
 0001:0000d60c       ??_C@_0DB@EFIADAPC@AddBufferDevice?3?5CreateTextureSt@ 1000e60c     texstream.obj
 0001:0000d640       ??_C@_0CK@GFHJKOBH@AddBufferDevice?3?5Invalid?5buffer?5@ 1000e640     texstream.obj
 0001:0000d66c       ??_C@_0CP@JEIDOGNL@AddBufferDevice?3?5CloseBufferClas@ 1000e66c     texstream.obj
 0001:0000d69c       ??_C@_0DB@EPLGMDNI@AddBufferDevice?3?5BufferClassGetB@ 1000e69c     texstream.obj
 0001:0000d6d0       ??_C@_0CO@FIIPPMOK@AddBufferDevice?3?5OpenBufferClass@ 1000e6d0     texstream.obj
 0001:0000d700       ??_C@_0CN@KJPFDNDH@AddBufferDevice?3?5EnumerateDevice@ 1000e700     texstream.obj
 0001:0000d730       ??_C@_0CP@JDNCPCBH@AddBufferDevice?3?5Failed?5to?5alloc@ 1000e730     texstream.obj
 0001:0000d760       ??_C@_0CJ@IDOHAJCG@AddBufferDevice?3?5No?5buffer?5class@ 1000e760     texstream.obj
 0001:0000d78c       ??_C@_0DI@LLBDCGML@AddBufferDevice?3?5Failed?5to?5alloc@ 1000e78c     texstream.obj
 0001:0000d7c4       ??_C@_0CP@BEACIFAC@AddBufferDevice?3?5Failed?5to?5alloc@ 1000e7c4     texstream.obj
 0001:0000d7f4       ??_C@_0CL@IFEKNHKC@AddBufferDevice?3?5device?5?$CFd?5alrea@ 1000e7f4     texstream.obj
 0001:0000d820       ??_C@_0DF@FCOKMNPG@glTexBindStreamIMG?3?5Bad?5offset?5?$CI@ 1000e820     texstream.obj
 0001:0000d858       ??_C@_0DH@LGANAJPI@glTexBindStreamIMG?3?5Can?8t?5find?5o@ 1000e858     texstream.obj
 0001:0000d890       ??_C@_0EA@ECHHDHFO@glGetTexStreamDeviceNameIMG?3?5Can@ 1000e890     texstream.obj
 0001:0000da38       ??_C@_0DE@EOLNCBO@ReleaseImageFromTexture?3?5Invalid@ 1000ea38     eglimage.obj
 0001:0000da6c       ??_C@_0DC@HNGCPKCE@ReleaseImageFromTexture?3?5Unsuppo@ 1000ea6c     eglimage.obj
 0001:0000daa0       ??_C@_0EM@HKHIMFAH@ReleaseImageFromTexture?3?5PVRTCII@ 1000eaa0     eglimage.obj
 0001:0000daf0       ??_C@_0EM@IGIIFEEL@ReleaseImageFromTexture?3?5PVRTCII@ 1000eaf0     eglimage.obj
 0001:0000db40       ??_C@_0FH@JDHFELKN@c?3?2data?2jatin?2powervr_build?2ddk1@ 1000eb40     eglimage.obj
 0001:0000db98       ??_C@_0DG@BNENAALG@glEGLImageTargetTexture2DOES?3?5Ca@ 1000eb98     eglimage.obj
 0001:0000dbd0       ??_C@_0CL@GHMCDIMA@glEGLImageTargetTexture2DOES?3?5In@ 1000ebd0     eglimage.obj
 0001:0000dc00       ??_C@_0EA@JCPPELOI@glEGLImageTargetRenderbufferStor@ 1000ec00     eglimage.obj
 0001:0000dc40       ??_C@_0DF@EMJMGEPC@glEGLImageTargetRenderbufferStor@ 1000ec40     eglimage.obj
 0001:0000dc78       ??_C@_0CD@DODEAALL@GLESGetImageSource?3?5Invalid?5sour@ 1000ec78     eglimage.obj
 0001:0000dc9c       ??_C@_0DN@NPJOHFLN@GLESGetImageSource?3?5Format?5misma@ 1000ec9c     eglimage.obj
 0001:0000dcdc       ??_C@_0DF@IGBHKDBA@GLESGetImageSource?3?5Renderbuffer@ 1000ecdc     eglimage.obj
 0001:0000dd14       ??_C@_0DB@HFLNHMLK@GLESGetImageSource?3?5Format?5misma@ 1000ed14     eglimage.obj
 0001:0000dd48       ??_C@_0CO@MFIPHHKH@GLESGetImageSource?3?5Unknown?5comp@ 1000ed48     eglimage.obj
 0001:0000dd78       ??_C@_0DA@HKKMBBDC@GLESGetImageSource?3?5Can?8t?5make?5t@ 1000ed78     eglimage.obj
 0001:0000dda8       ??_C@_0CO@ILIIMHEE@GLESGetImageSource?3?5Mipmap?5level@ 1000eda8     eglimage.obj
 0001:0000ddd8       ??_C@_0CJ@BFKIGCMJ@GLESGetImageSource?3?5Inconsistent@ 1000edd8     eglimage.obj
 0001:0000de04       ??_C@_0DH@PAGJKANO@GLESGetImageSource?3?5Texture?5sour@ 1000ee04     eglimage.obj
 0001:0000de3c       ??_C@_0DA@EFKNCPAK@GLESGetImageSource?3?5Texture?5sour@ 1000ee3c     eglimage.obj
 0001:0000de6c       ??_C@_0CB@MJBNJOCH@GLESGetImageSource?3?5Invalid?5name@ 1000ee6c     eglimage.obj
 0001:0000dff8       ??_C@_0FL@KMGGLCPE@c?3?2data?2jatin?2powervr_build?2ddk1@ 1000eff8     vertexarrobj.obj
 0001:0000e054       ??_C@_0BJ@PPNIKIML@ReclaimVAOMemKRM?3?5Called?$AA@ 1000f054     vertexarrobj.obj
 0001:0000e070       ??_C@_0BL@DJJGAEJI@DestroyVAOGhostKRM?3?5Called?$AA@ 1000f070     vertexarrobj.obj
 0001:0000e090       ??_C@_0EF@INEDCPMN@FreeVertexArrayObjectInternalPoi@ 1000f090     vertexarrobj.obj
 0001:0000e0d8       ??_C@_0DF@CPEJAKKP@glBindVertexArrayOES?3?5CreateVert@ 1000f0d8     vertexarrobj.obj
 0001:0000e258       ??_C@_0EJ@GCGBCHNI@c?3?2data?2jatin?2powervr_build?2ddk1@ 1000f258     pds.obj
 0001:0000e2a4       ??_C@_0BP@NFBGHLCM@PDSGeneratePixelEventProgram?$CI?$CJ?$AA@ 1000f2a4     pds.obj
 0001:0000e2c4       ??_C@_0CC@PGCKEBHB@PDSGeneratePixelShaderSAProgram?$CI@ 1000f2c4     pds.obj
 0001:0000e2e8       ??_C@_0CI@MECGHJNF@PDSGenerateStaticPixelShaderSAPr@ 1000f2e8     pds.obj
 0001:0000e310       ??_C@_0CA@BNMMMKJA@PDSGeneratePixelShaderProgram?$CI?$CJ?$AA@ 1000f310     pds.obj
 0001:0000e330       ??_C@_0BO@LFANJAEO@PDSGenerateStateCopyProgram?$CI?$CJ?$AA@ 1000f330     pds.obj
 0001:0000e350       ??_C@_0CD@DHPMMCBB@PDSGenerateVertexShaderSAProgram@ 1000f350     pds.obj
 0001:0000e374       ??_C@_0CH@OKAPIIMC@PDSGenerateStaticVertexShaderPro@ 1000f374     pds.obj
 0001:0000e39c       ??_C@_0CB@DOFLMPOO@PDSGenerateVertexShaderProgram?$CI?$CJ@ 1000f39c     pds.obj
 0001:0000e3c0       ??_C@_0CA@DLBJABAO@PDSGenerateConstUploadProgram?$CI?$CJ?$AA@ 1000f3c0     pds.obj
 0001:0000e3e0       ??_C@_0CD@JNNANOAP@PDSGenerateTerminateStateProgram@ 1000f3e0     pds.obj
 0001:0000e404       ??_C@_0CA@JFFAOOOI@PDSPatchTerminateStateProgram?$CI?$CJ?$AA@ 1000f404     pds.obj
 0001:0000e590       asSGXPixelFormat           1000f590     sgxpixfmts.obj
 0001:00014438       ??_C@_0EP@OABGIJPN@c?3?2data?2jatin?2powervr_build?2ddk1@ 10015438     usegen.obj
 0001:00014488       ??_C@_0BF@NKGAPKNK@USSE?5Fragment?5buffer?$AA@ 10015488     buffers.obj
 0001:000144a0       ??_C@_0BF@BHJKIFJA@PDS?5Fragment?5shader?5?$AA@ 100154a0     buffers.obj
 0001:000144b8       ??_C@_0BF@NKOGCMOH@PreGen?5Aux?5PDS?5Copy?5?$AA@ 100154b8     buffers.obj
 0001:000144d0       ??_C@_0BF@BEHNBIFA@PreGen?5MTE?5PDS?5Copy?5?$AA@ 100154d0     buffers.obj
 0001:000144e8       ??_C@_0BF@GMKIJELK@PreGen?5Vtx?5PDS?5Sec?5?5?$AA@ 100154e8     buffers.obj
 0001:00014500       ??_C@_0BF@NBDIKPLA@PDS?5Vertex?5shader?5?5?5?$AA@ 10015500     buffers.obj
 0001:00014518       ??_C@_0BF@IDFGBKIM@Dynamic?5Index?5data?5?5?$AA@ 10015518     buffers.obj
 0001:00014530       ??_C@_0BF@GKMGPMBH@Dynamic?5Vertex?5data?5?$AA@ 10015530     buffers.obj
 0001:00014548       ??_C@_0BF@FLGLMJAI@VDM?5Control?5Stream?5?5?$AA@ 10015548     buffers.obj
 0001:00014560       ??_C@_09EAACOHBK@USSE_FRAG?$AA@ 10015560     buffers.obj
 0001:0001456c       ??_C@_08FBEBHLMN@PDS_FRAG?$AA@ 1001556c     buffers.obj
 0001:00014578       ??_C@_0P@OFJAKNHD@PDS_AUX_PREGEN?$AA@ 10015578     buffers.obj
 0001:00014588       ??_C@_0BE@LODODMJH@PDS_MTE_COPY_PREGEN?$AA@ 10015588     buffers.obj
 0001:0001459c       ??_C@_0BE@EOHKDACO@PDS_VERT_SEC_PREGEN?$AA@ 1001559c     buffers.obj
 0001:000145b0       ??_C@_08IDOANPNC@PDS_VERT?$AA@ 100155b0     buffers.obj
 0001:000145bc       ??_C@_0L@LKODOEOD@INDEX_DATA?$AA@ 100155bc     buffers.obj
 0001:000145c8       ??_C@_0M@OCLPNNFM@VERTEX_DATA?$AA@ 100155c8     buffers.obj
 0001:000145d4       ??_C@_08FKFPBJK@VDM_CTRL?$AA@ 100155d4     buffers.obj
 0001:00014604       pszBufferNames             10015604     buffers.obj
 0001:00014628       ??_C@_0EI@OCAJGJGC@CBUF_GetBufferSpace?3?5Space?5requi@ 10015628     buffers.obj
 0001:00014670       ??_C@_0DC@FAHGPGHK@CBUF_GetBufferSpace?3?5PVRSRVEvent@ 10015670     buffers.obj
 0001:000146a8       ??_C@_0FD@OFAHCHIC@CBUF_GetBufferSpace?3?5Run?5out?5of?5@ 100156a8     buffers.obj
 0001:00014700       ??_C@_0FD@BPJDGBGC@c?3?2data?2jatin?2powervr_build?2ddk1@ 10015700     buffers.obj
 0001:00014754       ??_C@_0DA@CPLPAHP@CBUF_GetBufferSpace?3?5Buffer?5is?5a@ 10015754     buffers.obj
 0001:00014784       ??_C@_0CF@HPEOJHMK@CheckPDSBufferSpace?3?5?$CFs?5buffer?5w@ 10015784     buffers.obj
 0001:000147ac       ??_C@_0CE@MBNIKMPE@CheckVIBufferSpace?3?5?$CFs?5buffer?5wr@ 100157ac     buffers.obj
 0001:000147d0       ??_C@_0EC@NEDBIKBE@CheckTACtrlBufferSpace?3?5TA?5ctrl?5@ 100157d0     buffers.obj
 0001:00014814       ??_C@_0CH@FKKEHHDE@CBUF_UpdateBufferPos?3?5?$CFs?5buffer?5@ 10015814     buffers.obj
 0001:00014840       ??_C@_0EG@GGPKLNEO@CBUF_UpdateBufferPos?3?5Free?5space@ 10015840     buffers.obj
 0001:00014888       ??_C@_0FB@CFFCNFKF@CBUF_UpdateBufferPos?3?5Number?5of?5@ 10015888     buffers.obj
 0001:000148e0       ??_C@_0EJ@OMIAMBLO@CBUF_UpdateBufferPos?3?5More?5dword@ 100158e0     buffers.obj
 0001:0001492c       ??_C@_0DO@KEMAGFPL@CBUF_UpdateBufferPos?3?5Buffer?5is?5@ 1001592c     buffers.obj
 0001:0001496c       ??_C@_0CI@MONMBOMA@Kicking?5render?5due?5to?5frag?5buffe@ 1001596c     buffers.obj
 0001:00014998       ??_C@_0FI@MMMJIKOK@CBUF_UpdateTACtrlKickBase?3?5Shoul@ 10015998     buffers.obj
 0001:000149f0       ??_C@_0EF@MOHOIDDC@CBUF_CreateBuffer?3?5Failed?5to?5all@ 100159f0     buffers.obj
 0001:00014a38       ??_C@_0EA@PCFNHLGI@CBUF_CreateBuffer?3?5DeviceMem?5all@ 10015a38     buffers.obj
 0001:00014a78       ??_C@_0CK@PLJCNDJM@CBUF_CreateBuffer?3?5Invalid?5buffe@ 10015a78     buffers.obj
 0001:00014aa8       ??_C@_0FB@BCGMFJP@CBUF_CreateBuffer?3?5Requested?5buf@ 10015aa8     buffers.obj
 0001:00014b00       ??_C@_0FB@DKGMPPAG@CBUF_CreateBuffer?3?5Requested?5buf@ 10015b00     buffers.obj
 0001:00014b54       ??_C@_0CO@IKKALMBO@CBUF_CreateBuffer?3?5psBuffer?5allo@ 10015b54     buffers.obj
 0001:00014b84       ??_C@_0CG@DBCFPGAD@UCH_CodeHeapCreate?3?5Out?5of?5host?5@ 10015b84     codeheap.obj
 0001:00014bac       ??_C@_0CG@MDOFKBLI@UCH_CodeHeapCreate?3?5Out?5of?5devic@ 10015bac     codeheap.obj
 0001:00014bd8       ??_C@_0FE@IKLMLLPG@c?3?2data?2jatin?2powervr_build?2ddk1@ 10015bd8     codeheap.obj
 0001:00014c2c       ??_C@_0CE@EHFGMJNP@UCH_CodeHeapCreate?3?5Out?5of?5host?5@ 10015c2c     codeheap.obj
 0001:00014c50       ??_C@_0EJ@FELHKEMJ@UCH_CodeHeapDestroy?3?5In?5heap?5?$CFp?5@ 10015c50     codeheap.obj
 0001:00014ca0       ??_C@_0GP@FFBDPAAH@UCH_CodeHeapDestroy?3?5In?5heap?5?$CFp?5@ 10015ca0     codeheap.obj
 0001:00014d10       ??_C@_0DF@PCCHIHBO@CodeHeapIsSane?3?5Some?5blocks?5in?5t@ 10015d10     codeheap.obj
 0001:00014d48       ??_C@_0CM@OPEPOHOE@CodeHeapIsSane?3?5The?5free?5list?5is@ 10015d48     codeheap.obj
 0001:00014d78       ??_C@_0EE@NEBABOKO@CodeHeapInsertBlockInFreeList?3?5F@ 10015d78     codeheap.obj
 0001:00014dc0       ??_C@_0EE@NJCAMENL@CodeHeapInsertBlockInFreeList?3?5B@ 10015dc0     codeheap.obj
 0001:00014e08       ??_C@_0EO@NCIFCHOE@CodeHeapInsertBlockInFreeList?3?5R@ 10015e08     codeheap.obj
 0001:00014e58       ??_C@_0EF@FPCPHONP@UCH_TrackCodeHeapAllocate?3?5The?5r@ 10015e58     codeheap.obj
 0001:00014ea0       ??_C@_0FC@ECEFHNCF@UCH_TrackCodeHeapAllocate?3?5The?5r@ 10015ea0     codeheap.obj
 0001:00014ef8       ??_C@_0ED@MIDMBJEL@UCH_TrackCodeHeapFree?3?5Maybe?5it?5@ 10015ef8     codeheap.obj
 0001:00014f40       ??_C@_0EJ@EOOMIGBO@UCH_TrackCodeHeapFree?3?5Block?5at?5@ 10015f40     codeheap.obj
 0001:00015fa0       ??_C@_0DD@EKCNNEMG@KRM_Initialize?3?5Could?5not?5alloca@ 10016fa0     kickresource.obj
 0001:00015fd4       ??_C@_0CH@FDBLCGKA@KRM_Initialize?3?5Invalid?5type?5par@ 10016fd4     kickresource.obj
 0001:00015ffc       ??_C@_0CL@MDCOPNBM@KRM_Initialize?3?5Invalid?5callback@ 10016ffc     kickresource.obj
 0001:00016028       ??_C@_0CI@MGOKDFFN@KRM_Initialize?3?5Invalid?5mutex?5pa@ 10017028     kickresource.obj
 0001:00016050       ??_C@_0FI@KANHGBBJ@c?3?2data?2jatin?2powervr_build?2ddk1@ 10017050     kickresource.obj
 0001:000160a8       ??_C@_0CM@EACCCOOM@FRM_Attach?3?5Unable?5to?5get?5a?5new?5@ 100170a8     kickresource.obj
 0001:000160d4       ??_C@_0CN@CLBGJENG@AllocAttachment?3?5Out?5of?5memory?4?5@ 100170d4     kickresource.obj
 0001:00016104       ??_C@_0CH@FPADECMJ@IsResourceInUse?3?5Invalid?5manager@ 10017104     kickresource.obj
 0001:0001612c       ??_C@_0CF@PCKLEEID@IsKickFinished?3?5Invalid?5manager?5@ 1001712c     kickresource.obj
 0001:00016154       ??_C@_0DL@KGFPCHNO@WaitUntilResourceIsNotNeeded?3?5PV@ 10017154     kickresource.obj
 0001:00016190       ??_C@_0EI@JEKCJKLK@KRM_Destroy?3?5Destroying?5a?5ghost?5@ 10017190     kickresource.obj
 0001:000161d8       ??_C@_0DJ@EDCHFHMJ@KRM_FlushUnKickedResource?3?5Inval@ 100171d8     kickresource.obj
 0001:00016218       ??_C@_0FA@LNCIBOFF@c?3?2data?2jatin?2powervr_build?2ddk1@ 10017218     dmscalc.obj
 0001:00016268       auLightSourceMemberSizes   10017268     libffgen:ffgen.obj
 0001:0001629c       auPointParamsMemberSizes   1001729c     libffgen:ffgen.obj
 0001:000162b8       auMaterialMemberSizes      100172b8     libffgen:ffgen.obj
 0001:000162cc       auLightProductMemberSizes  100172cc     libffgen:ffgen.obj
 0001:000162d8       auLightModelMemberSizes    100172d8     libffgen:ffgen.obj
 0001:000162dc       auLightModelProductMemberSizes 100172dc     libffgen:ffgen.obj
 0001:000162e0       ??_C@_08IMHIDPAO@?6?$CDendif?6?$AA@ 100172e0     libffgen:ffgen.obj
 0001:000162ec       ??_C@_0BB@KKCKEKHI@?$CF?$CKu?3?50x?$CF?48X?$CF?48X?7?$AA@ 100172ec     libffgen:ffgen.obj
 0001:00016300       ??_C@_0CJ@JLLGIAIA@?6?$CDif?50?6?6?1?$CK?5Dissasembled?5source?5c@ 10017300     libffgen:ffgen.obj
 0001:0001632c       ??_C@_02DKCKIIND@?$CFs?$AA@ 1001732c     libffgen:ffgen.obj
 0001:00016330       ??_C@_0CG@HEHGGNFE@DumpDisassembly?3?5Failed?5to?5open?5@ 10017330     libffgen:ffgen.obj
 0001:00016358       ??_C@_03CCGKKFHG@a?$CLt?$AA@ 10017358     libffgen:ffgen.obj
 0001:00016360       ??_C@_0EN@CBCFEEFP@c?3?2data?2jatin?2powervr_build?2ddk1@ 10017360     libffgen:ffgen.obj
 0001:000163b0       ??_C@_0CH@HCOMCNDK@FFGenGenerateTNLProgram?3?5Malloc?5@ 100173b0     libffgen:ffgen.obj
 0001:000163d8       ??_C@_0EM@OHABFEMC@FFGenGenerateTNLProgram?3?5Failed?5@ 100173d8     libffgen:ffgen.obj
 0001:00016428       ??_C@_0EF@EALKCGNI@FFGenGenerateTNLProgram?3?5Failed?5@ 10017428     libffgen:ffgen.obj
 0001:00016470       ??_C@_0BI@KOKDJJDB@?1?$CK?5Runtime?5code?5log?5?$CK?1?6?$AA@ 10017470     libffgen:ffgen.obj
 0001:00016488       ??_C@_02CHHAKFFB@w?$CL?$AA@ 10017488     libffgen:ffgen.obj
 0001:0001648c       ??_C@_0BH@PJGECPOH@invalid_ldst_atomic_op?$AA@ 1001748c     libffgen:usedisasm.obj
 0001:000164a4       ??_C@_0BB@DAGDOGGI@invalid_cnd_pcnd?$AA@ 100174a4     libffgen:usedisasm.obj
 0001:000164b8       ??_C@_0BA@JMNCGMBG@invalid_cnd_op2?$AA@ 100174b8     libffgen:usedisasm.obj
 0001:000164c8       ??_C@_0BE@CGLJNCMB@invalid_emit_target?$AA@ 100174c8     libffgen:usedisasm.obj
 0001:000164dc       ??_C@_0BG@GIKOAOGJ@invalid_special_opcat?$AA@ 100174dc     libffgen:usedisasm.obj
 0001:000164f4       ??_C@_0BE@BPPACHDP@invalid_vistest_op2?$AA@ 100174f4     libffgen:usedisasm.obj
 0001:00016508       ??_C@_0BH@OELEFGLH@invalid_monitor_number?$AA@ 10017508     libffgen:usedisasm.obj
 0001:00016520       ??_C@_0BJ@JJBNJIEK@invalid_emit_mte_control?$AA@ 10017520     libffgen:usedisasm.obj
 0001:0001653c       ??_C@_0BF@GPBHEDJB@invalid_mutex_number?$AA@ 1001753c     libffgen:usedisasm.obj
 0001:00016554       ??_C@_0BD@CJGAFCKK@invalid_ima32_step?$AA@ 10017554     libffgen:usedisasm.obj
 0001:00016568       ??_C@_0P@JECKMKJP@invalid_opcode?$AA@ 10017568     libffgen:usedisasm.obj
 0001:00016578       ??_C@_0BM@MCJBHKN@invalid_bilin_source_format?$AA@ 10017578     libffgen:usedisasm.obj
 0001:00016594       ??_C@_0BM@FMOACAAM@invalid_adiffirvbilin_opsel?$AA@ 10017594     libffgen:usedisasm.obj
 0001:000165b0       ??_C@_0BK@JCPFHADM@invalid_ssum16_round_mode?$AA@ 100175b0     libffgen:usedisasm.obj
 0001:000165cc       ??_C@_0BC@JJIEKHHB@invalid_firv_flag?$AA@ 100175cc     libffgen:usedisasm.obj
 0001:000165e0       ??_C@_0BH@FAFFCFPJ@invalid_imae_src2_type?$AA@ 100175e0     libffgen:usedisasm.obj
 0001:000165f8       ??_C@_0BD@IHAGDLFB@invalid_sopwm_sel2?$AA@ 100175f8     libffgen:usedisasm.obj
 0001:0001660c       ??_C@_0BD@KMCLGIJC@invalid_sopwm_sel1?$AA@ 1001760c     libffgen:usedisasm.obj
 0001:00016620       ??_C@_0BD@KKDPIEHF@invalid_sop2_csel2?$AA@ 10017620     libffgen:usedisasm.obj
 0001:00016634       ??_C@_0BD@IBBCNHLG@invalid_sop2_csel1?$AA@ 10017634     libffgen:usedisasm.obj
 0001:00016648       ??_C@_0BH@POFKDGCO@invalid_test_mask_type?$AA@ 10017648     libffgen:usedisasm.obj
 0001:00016660       ??_C@_0BH@BFHBKMFA@invalid_test_zero_test?$AA@ 10017660     libffgen:usedisasm.obj
 0001:00016678       ??_C@_0BH@JNHMEAHF@invalid_test_sign_test?$AA@ 10017678     libffgen:usedisasm.obj
 0001:00016690       ??_C@_0BD@HNDBJDIJ@invalid_test_aluop?$AA@ 10017690     libffgen:usedisasm.obj
 0001:000166a4       ??_C@_0BE@FEJKBCHB@invalid_bitwise_op2?$AA@ 100176a4     libffgen:usedisasm.obj
 0001:000166b8       ??_C@_0BP@LNPMNIB@invalid_pck_format_combination?$AA@ 100176b8     libffgen:usedisasm.obj
 0001:000166d8       ??_C@_0BL@LBFPCHKP@invalid_firh_source_format?$AA@ 100176d8     libffgen:usedisasm.obj
 0001:000166f4       ??_C@_0BO@EBBGNAOO@invalid_smp_format_conversion?$AA@ 100176f4     libffgen:usedisasm.obj
 0001:00016714       ??_C@_0BG@PNBAIBK@invalid_smp_data_type?$AA@ 10017714     libffgen:usedisasm.obj
 0001:0001672c       ??_C@_0BF@OOKDKJOL@invalid_smp_pcf_mode?$AA@ 1001772c     libffgen:usedisasm.obj
 0001:00016744       ??_C@_0BF@PAKALFLC@invalid_smp_srd_mode?$AA@ 10017744     libffgen:usedisasm.obj
 0001:0001675c       ??_C@_0BF@GEGHBMOI@invalid_smp_lod_mode?$AA@ 1001775c     libffgen:usedisasm.obj
 0001:00016774       ??_C@_0CA@PDMHDIFN@invalid_vpck_format_combination?$AA@ 10017774     libffgen:usedisasm.obj
 0001:00016794       ??_C@_0BJ@CPIPOIJE@invalid_vecmov_data_type?$AA@ 10017794     libffgen:usedisasm.obj
 0001:000167b0       ??_C@_0BE@KKCNNLGF@invalid_vecmov_type?$AA@ 100177b0     libffgen:usedisasm.obj
 0001:000167c4       ??_C@_0CE@DECDDPKC@invalid_veccomplex_source_data_t@ 100177c4     libffgen:usedisasm.obj
 0001:000167e8       ??_C@_0CC@LAAAAACA@invalid_veccomplex_dest_data_typ@ 100177e8     libffgen:usedisasm.obj
 0001:0001680c       ??_C@_0BE@BDPIIKAC@invalid_dvec_srccfg?$AA@ 1001780c     libffgen:usedisasm.obj
 0001:00016820       ??_C@_0BB@NNINBOJI@invalid_dvec_op2?$AA@ 10017820     libffgen:usedisasm.obj
 0001:00016834       ??_C@_0BB@PGKAENFL@invalid_dvec_op1?$AA@ 10017834     libffgen:usedisasm.obj
 0001:00016848       ??_C@_0BH@CJHCKOGI@invalid_movc_data_type?$AA@ 10017848     libffgen:usedisasm.obj
 0001:00016860       ??_C@_0BC@JPBDIEDO@invalid_float_op2?$AA@ 10017860     libffgen:usedisasm.obj
 0001:00016874       ??_C@_0BK@KDHFJNJG@invalid_complex_data_type?$AA@ 10017874     libffgen:usedisasm.obj
 0001:00016890       ??_C@_0BE@GLPGOFGD@invalid_complex_op2?$AA@ 10017890     libffgen:usedisasm.obj
 0001:000168a4       ??_C@_0BG@OCNEJEHH@invalid_fdual_mov_src?$AA@ 100178a4     libffgen:usedisasm.obj
 0001:000168bc       ??_C@_0BA@OEHDKGDF@invalid_moe_op2?$AA@ 100178bc     libffgen:usedisasm.obj
 0001:000168cc       ??_C@_0BF@INBCDHAC@invalid_fnrm_swizzle?$AA@ 100178cc     libffgen:usedisasm.obj
 0001:000168e4       ??_C@_0BC@FMMNIBIK@invalid_other_op2?$AA@ 100178e4     libffgen:usedisasm.obj
 0001:000168f8       ??_C@_0BB@EEHLMEAB@invalid_cfi_mode?$AA@ 100178f8     libffgen:usedisasm.obj
 0001:0001690c       ??_C@_0BM@OJKDNCDE@invalid_phas_wait_condition?$AA@ 1001790c     libffgen:usedisasm.obj
 0001:00016928       ??_C@_0BC@ELJCLBHE@invalid_phas_rate?$AA@ 10017928     libffgen:usedisasm.obj
 0001:0001693c       ??_C@_0BJ@HMCPEBBA@invalid_flow_control_op2?$AA@ 1001793c     libffgen:usedisasm.obj
 0001:00016958       ??_C@_0BH@FFLAPHFE@invalid_ldst_data_size?$AA@ 10017958     libffgen:usedisasm.obj
 0001:00016970       ??_C@_0BL@HLHLOHP@invalid_dsxscr_source_bank?$AA@ 10017970     libffgen:usedisasm.obj
 0001:0001698c       ??_C@_0CA@EIDCALG@invalid_idxscw_destination_bank?$AA@ 1001798c     libffgen:usedisasm.obj
 0001:000169ac       ??_C@_0BE@NBDEMIMG@invalid_instruction?$AA@ 100179ac     libffgen:usedisasm.obj
 0001:000169c0       ??_C@_08BFJOEIBG@no_error?$AA@ 100179c0     libffgen:usedisasm.obj
 0001:000169cc       ??_C@_0N@KFMGENLN@reserved?$CI?$DN3?$CJ?$AA@ 100179cc     libffgen:usedisasm.obj
 0001:000169dc       ??_C@_0N@KEAECHIK@reserved?$CI?$DN2?$CJ?$AA@ 100179dc     libffgen:usedisasm.obj
 0001:000169ec       ??_C@_07LMCJAHLG@pixelbe?$AA@ 100179ec     libffgen:usedisasm.obj
 0001:000169f4       ??_C@_03DLDFCDOF@bif?$AA@  100179f4     libffgen:usedisasm.obj
 0001:000169f8       ??_C@_0BH@CNCKKCDD@m0?$DNsrc1?$CKi0?0?5m1?$DNsrc0?$CKi1?$AA@ 100179f8     libffgen:usedisasm.obj
 0001:00016a10       ??_C@_0BL@PFJDCKPE@m0?$DNsrc1?$CKsrc2?0?5m1?$DNsrc0?$CKsrc0?$AA@ 10017a10     libffgen:usedisasm.obj
 0001:00016a2c       ??_C@_0BL@EDIBBNJI@m0?$DNsrc0?$CKsrc1?0?5m1?$DNsrc0?$CKsrc0?$AA@ 10017a2c     libffgen:usedisasm.obj
 0001:00016a48       ??_C@_0BL@HBLHHPBK@m0?$DNsrc0?$CKsrc1?0?5m1?$DNsrc0?$CKsrc2?$AA@ 10017a48     libffgen:usedisasm.obj
 0001:00016a64       ??_C@_0BM@HMACCADH@a0?$DNsrc0?$CLsrc1?5a1?$DN?$CFssrc2?$CLsrc0?$AA@ 10017a64     libffgen:usedisasm.obj
 0001:00016a80       ??_C@_0BF@BCMKBPDO@a0?$DNi0?$CLm0?0?5a1?$DN?$CFsi1?$CLm1?$AA@ 10017a80     libffgen:usedisasm.obj
 0001:00016a98       ??_C@_0BH@PGLILABC@a0?$DNm0?$CLsrc2?0?5a1?$DN?$CFsi1?$CLi0?$AA@ 10017a98     libffgen:usedisasm.obj
 0001:00016ab0       ??_C@_0BF@JKHPLAND@a0?$DNm0?$CLm1?0?5a1?$DN?$CFsi1?$CLi0?$AA@ 10017ab0     libffgen:usedisasm.obj
 0001:00016ac8       ??_C@_02IGOMHJCM@m1?$AA@   10017ac8     libffgen:usedisasm.obj
 0001:00016acc       ??_C@_02JPPHEIGN@m0?$AA@   10017acc     libffgen:usedisasm.obj
 0001:00016ad0       ??_C@_02IPPGIAEI@a1?$AA@   10017ad0     libffgen:usedisasm.obj
 0001:00016ad4       ??_C@_02JGONLBAJ@a0?$AA@   10017ad4     libffgen:usedisasm.obj
 0001:00016ad8       ??_C@_02IBOFNBPA@i1?$AA@   10017ad8     libffgen:usedisasm.obj
 0001:00016adc       ??_C@_02JIPOOALB@i0?$AA@   10017adc     libffgen:usedisasm.obj
 0001:00016ae0       ??_C@_08OKBPIGAD@?4anyinst?$AA@ 10017ae0     libffgen:usedisasm.obj
 0001:00016aec       ??_C@_08COJLAEAC@?4allinst?$AA@ 10017aec     libffgen:usedisasm.obj
 0001:00016af8       ??_C@_06MNHFEKKE@?4freep?$AA@ 10017af8     libffgen:usedisasm.obj
 0001:00016b00       ??_C@_05NEBLOLLO@?4smsk?$AA@ 10017b00     libffgen:usedisasm.obj
 0001:00016b08       ??_C@_03CFJBHKJG@?4s2?$AA@ 10017b08     libffgen:usedisasm.obj
 0001:00016b0c       ??_C@_03OLMCJFF@?4s1?$AA@  10017b0c     libffgen:usedisasm.obj
 0001:00016b10       ??_C@_05DJGBKOLD@?4minp?$AA@ 10017b10     libffgen:usedisasm.obj
 0001:00016b18       ??_C@_05HBKJDPJL@?4irsd?$AA@ 10017b18     libffgen:usedisasm.obj
 0001:00016b20       ??_C@_06DCAOIPGF@?4pwait?$AA@ 10017b20     libffgen:usedisasm.obj
 0001:00016b28       ??_C@_07JDGEGBOP@?4noread?$AA@ 10017b28     libffgen:usedisasm.obj
 0001:00016b30       ??_C@_0M@LHJKLKEK@?4dm_nomatch?$AA@ 10017b30     libffgen:usedisasm.obj
 0001:00016b3c       ??_C@_07ENBGLHBA@?4global?$AA@ 10017b3c     libffgen:usedisasm.obj
 0001:00016b44       ??_C@_07LKHJLIEP@?4gpiext?$AA@ 10017b44     libffgen:usedisasm.obj
 0001:00016b4c       ??_C@_09ODMDCLDM@?4bypassl1?$AA@ 10017b4c     libffgen:usedisasm.obj
 0001:00016b58       ??_C@_04HHNGNHCD@?4cut?$AA@ 10017b58     libffgen:usedisasm.obj
 0001:00016b60       ??_C@_0L@FBCHPHLP@?4threepart?$AA@ 10017b60     libffgen:usedisasm.obj
 0001:00016b6c       ??_C@_08MNNMAOEF@?4twopart?$AA@ 10017b6c     libffgen:usedisasm.obj
 0001:00016b78       ??_C@_08PBCFMEMC@?4trigger?$AA@ 10017b78     libffgen:usedisasm.obj
 0001:00016b84       ??_C@_08OBGEIPLF@?4syncent?$AA@ 10017b84     libffgen:usedisasm.obj
 0001:00016b90       ??_C@_05PKCJDCIH@?4sinf?$AA@ 10017b90     libffgen:usedisasm.obj
 0001:00016b98       ??_C@_04NBDMIJDK@?4rsd?$AA@ 10017b98     libffgen:usedisasm.obj
 0001:00016ba0       ??_C@_07LAKDMJMN@?4pcff16?$AA@ 10017ba0     libffgen:usedisasm.obj
 0001:00016ba8       ??_C@_04FFCFIAED@?4pcf?$AA@ 10017ba8     libffgen:usedisasm.obj
 0001:00016bb0       ??_C@_08NIIGNJMG@?4moepoff?$AA@ 10017bb0     libffgen:usedisasm.obj
 0001:00016bbc       ??_C@_04MKEGNPDB@?4tog?$AA@ 10017bbc     libffgen:usedisasm.obj
 0001:00016bc4       ??_C@_05JLDHJKOF@?4fsel?$AA@ 10017bc4     libffgen:usedisasm.obj
 0001:00016bcc       ??_C@_04PLONJIFK@?4i10?$AA@ 10017bcc     libffgen:usedisasm.obj
 0001:00016bd4       ??_C@_06BPEIIGLB@?4tpres?$AA@ 10017bd4     libffgen:usedisasm.obj
 0001:00016bdc       ??_C@_04FDPPLPOO@?4flt?$AA@ 10017bdc     libffgen:usedisasm.obj
 0001:00016be4       ??_C@_04MKFPCOLG@?4i32?$AA@ 10017be4     libffgen:usedisasm.obj
 0001:00016bec       ??_C@_04KNLHDPNM@?4i16?$AA@ 10017bec     libffgen:usedisasm.obj
 0001:00016bf4       ??_C@_06HEOICNHC@?4scale?$AA@ 10017bf4     libffgen:usedisasm.obj
 0001:00016bfc       ??_C@_06OMHCMHDL@?4taske?$AA@ 10017bfc     libffgen:usedisasm.obj
 0001:00016c04       ??_C@_06PAOKHCOM@?4tasks?$AA@ 10017c04     libffgen:usedisasm.obj
 0001:00016c0c       ??_C@_07MIPOHIFC@?4fcfill?$AA@ 10017c0c     libffgen:usedisasm.obj
 0001:00016c14       ??_C@_08HAIMLLBD@?4bpcache?$AA@ 10017c14     libffgen:usedisasm.obj
 0001:00016c20       ??_C@_09JGJGAANA@?4onceonly?$AA@ 10017c20     libffgen:usedisasm.obj
 0001:00016c2c       ??_C@_08DKPKOFDG@?4renable?$AA@ 10017c2c     libffgen:usedisasm.obj
 0001:00016c38       ??_C@_04DGJFHMGN@?4mon?$AA@ 10017c38     libffgen:usedisasm.obj
 0001:00016c40       ??_C@_05EBBNHNOF@?4mask?$AA@ 10017c40     libffgen:usedisasm.obj
 0001:00016c48       ??_C@_08FOJPLDFB@?4partial?$AA@ 10017c48     libffgen:usedisasm.obj
 0001:00016c54       ??_C@_09JBKDPGKE@?4savelink?$AA@ 10017c54     libffgen:usedisasm.obj
 0001:00016c60       ??_C@_06NIHPFDK@?4synce?$AA@ 10017c60     libffgen:usedisasm.obj
 0001:00016c68       ??_C@_04IAMNGDP@?4end?$AA@ 10017c68     libffgen:usedisasm.obj
 0001:00016c70       ??_C@_08JGBDGJD@?4nosched?$AA@ 10017c70     libffgen:usedisasm.obj
 0001:00016c7c       ??_C@_06BBBPEAON@?4syncs?$AA@ 10017c7c     libffgen:usedisasm.obj
 0001:00016c84       ??_C@_08FDIAACIC@?4skipinv?$AA@ 10017c84     libffgen:usedisasm.obj
 0001:00016c90       ??_C@_04BOLMKGOG@?4num?$AA@ 10017c90     libffgen:usedisasm.obj
 0001:00016c98       ??_C@_04FONONCDM@?4msk?$AA@ 10017c98     libffgen:usedisasm.obj
 0001:00016ca0       ??_C@_05GNLKACM@?4dmsk?$AA@ 10017ca0     libffgen:usedisasm.obj
 0001:00016ca8       ??_C@_05CBJLENHO@?4wmsk?$AA@ 10017ca8     libffgen:usedisasm.obj
 0001:00016cb0       ??_C@_05IJJLFFIM@?4bmsk?$AA@ 10017cb0     libffgen:usedisasm.obj
 0001:00016cb8       ??_C@_09IJFAHCNM@?4cperchan?$AA@ 10017cb8     libffgen:usedisasm.obj
 0001:00016cc4       ??_C@_05GANEADHA@?4or02?$AA@ 10017cc4     libffgen:usedisasm.obj
 0001:00016ccc       ??_C@_06GFOEKGCG@?4and02?$AA@ 10017ccc     libffgen:usedisasm.obj
 0001:00016cd4       ??_C@_06IMLOOKOJ@?4orall?$AA@ 10017cd4     libffgen:usedisasm.obj
 0001:00016cdc       ??_C@_07OLDCOIN@?4andall?$AA@ 10017cdc     libffgen:usedisasm.obj
 0001:00016ce4       ??_C@_06OPILDAEE@?4chan3?$AA@ 10017ce4     libffgen:usedisasm.obj
 0001:00016cec       ??_C@_06PGJAABAF@?4chan2?$AA@ 10017cec     libffgen:usedisasm.obj
 0001:00016cf4       ??_C@_06NNLNFCMG@?4chan1?$AA@ 10017cf4     libffgen:usedisasm.obj
 0001:00016cfc       ??_C@_06MEKGGDIH@?4chan0?$AA@ 10017cfc     libffgen:usedisasm.obj
 0001:00016d04       ??_C@_0BC@DKNMAMKK@reserved_signtest?$AA@ 10017d04     libffgen:usedisasm.obj
 0001:00016d18       ??_C@_01EFFIKLCJ@n?$AA@    10017d18     libffgen:usedisasm.obj
 0001:00016d1c       ??_C@_0BC@DPGKMPHC@reserved_zerotest?$AA@ 10017d1c     libffgen:usedisasm.obj
 0001:00016d30       ??_C@_02JHCHFBLL@nz?$AA@   10017d30     libffgen:usedisasm.obj
 0001:00016d34       ??_C@_01PFHFFBPC@t?$AA@    10017d34     libffgen:usedisasm.obj
 0001:00016d38       ??_C@_04BMCILLJG@?$CBp2?5?$AA@ 10017d38     libffgen:usedisasm.obj
 0001:00016d40       ??_C@_03MCHLONMJ@Pn?5?$AA@ 10017d40     libffgen:usedisasm.obj
 0001:00016d44       ??_C@_03GCNPPBE@p3?5?$AA@  10017d44     libffgen:usedisasm.obj
 0001:00016d48       ??_C@_03HOPJFCD@p2?5?$AA@  10017d48     libffgen:usedisasm.obj
 0001:00016d4c       ??_C@_04BOGOAFMP@?$CBp1?5?$AA@ 10017d4c     libffgen:usedisasm.obj
 0001:00016d54       ??_C@_04BPKMGPPI@?$CBp0?5?$AA@ 10017d54     libffgen:usedisasm.obj
 0001:00016d5c       ??_C@_03FKJCLHK@p1?5?$AA@  10017d5c     libffgen:usedisasm.obj
 0001:00016d60       ??_C@_03EGLEBEN@p0?5?$AA@  10017d60     libffgen:usedisasm.obj
 0001:00016d64       ??_C@_08FINKBBAF@reserved?$AA@ 10017d64     libffgen:usedisasm.obj
 0001:00016d70       ??_C@_03BGPJFEKF@mdc?$AA@  10017d70     libffgen:usedisasm.obj
 0001:00016d74       ??_C@_03PJAOBFA@msc?$AA@   10017d74     libffgen:usedisasm.obj
 0001:00016d78       ??_C@_03HOKODIMJ@rep?$AA@  10017d78     libffgen:usedisasm.obj
 0001:00016d7c       ??_C@_04GPFABKGK@umax?$AA@ 10017d7c     libffgen:usedisasm.obj
 0001:00016d84       ??_C@_04HNNLPOAF@umin?$AA@ 10017d84     libffgen:usedisasm.obj
 0001:00016d8c       ??_C@_04MKEAGAOJ@imax?$AA@ 10017d8c     libffgen:usedisasm.obj
 0001:00016d94       ??_C@_04NIMLIEIG@imin?$AA@ 10017d94     libffgen:usedisasm.obj
 0001:00016d9c       ??_C@_05LAPONLG@false?$AA@ 10017d9c     libffgen:usedisasm.obj
 0001:00016da4       ??_C@_04LOAJBDKD@true?$AA@ 10017da4     libffgen:usedisasm.obj
 0001:00016dac       ??_C@_04LFJEJMPJ@xchg?$AA@ 10017dac     libffgen:usedisasm.obj
 0001:00016db4       ??_C@_06ELLEMGOJ@revsub?$AA@ 10017db4     libffgen:usedisasm.obj
 0001:00016dbc       ??_C@_03BOPJPIAM@and?$AA@  10017dbc     libffgen:usedisasm.obj
 0001:00016dc0       ??_C@_03COLCDPPJ@xor?$AA@  10017dc0     libffgen:usedisasm.obj
 0001:00016dc4       ??_C@_02FODMLBIE@or?$AA@   10017dc4     libffgen:usedisasm.obj
 0001:00016dc8       ??_C@_03GMEDJGOO@f16?$AA@  10017dc8     libffgen:usedisasm.obj
 0001:00016dcc       ??_C@_03LKLIHIE@f32?$AA@   10017dcc     libffgen:usedisasm.obj
 0001:00016dd0       ??_C@_07ENLCFGOJ@incs1s2?$AA@ 10017dd0     libffgen:usedisasm.obj
 0001:00016dd8       ??_C@_05NFJABDHH@incs2?$AA@ 10017dd8     libffgen:usedisasm.obj
 0001:00016de0       ??_C@_05POLNEALE@incs1?$AA@ 10017de0     libffgen:usedisasm.obj
 0001:00016de8       ??_C@_06JLMOMMIJ@incall?$AA@ 10017de8     libffgen:usedisasm.obj
 0001:00016df0       ??_C@_03EMPGBMMC@moe?$AA@  10017df0     libffgen:usedisasm.obj
 0001:00016df4       ??_C@_07HOPLDDBB@incboth?$AA@ 10017df4     libffgen:usedisasm.obj
 0001:00016dfc       ??_C@_06NGOODNAE@incgpi?$AA@ 10017dfc     libffgen:usedisasm.obj
 0001:00016e04       ??_C@_06JOJFOGJC@incuss?$AA@ 10017e04     libffgen:usedisasm.obj
 0001:00016e0c       ??_C@_06OLLAOOHN@srcabs?$AA@ 10017e0c     libffgen:usedisasm.obj
 0001:00016e14       ??_C@_06JIDCDPPL@srcneg?$AA@ 10017e14     libffgen:usedisasm.obj
 0001:00016e1c       ??_C@_0M@CGHNODPK@perinstance?$AA@ 10017e1c     libffgen:usedisasm.obj
 0001:00016e28       ??_C@_08OHCNGKML@parallel?$AA@ 10017e28     libffgen:usedisasm.obj
 0001:00016e34       ??_C@_03JBJLGPFL@end?$AA@  10017e34     libffgen:usedisasm.obj
 0001:00016e38       ??_C@_05JJLAPLFM@vcull?$AA@ 10017e38     libffgen:usedisasm.obj
 0001:00016e40       ??_C@_02BPBMPCEP@pt?$AA@   10017e40     libffgen:usedisasm.obj
 0001:00016e44       ??_C@_09MFNPLDDN@selective?$AA@ 10017e44     libffgen:usedisasm.obj
 0001:00016e50       ??_C@_06CPGBIIAO@sample?$AA@ 10017e50     libffgen:usedisasm.obj
 0001:00016e58       ??_C@_05PIOCODLC@pixel?$AA@ 10017e58     libffgen:usedisasm.obj
 0001:00016e60       ??_C@_02HNLLPFKA@up?$AA@   10017e60     libffgen:usedisasm.obj
 0001:00016e64       ??_C@_07NHJEPDMH@nearest?$AA@ 10017e64     libffgen:usedisasm.obj
 0001:00016e6c       ??_C@_04JMOKAGMG@down?$AA@ 10017e6c     libffgen:usedisasm.obj
 0001:00016e74       ??_C@_04EFPBHHB@idst?$AA@  10017e74     libffgen:usedisasm.obj
 0001:00016e7c       ??_C@_06PMHGOHGB@optdwd?$AA@ 10017e7c     libffgen:usedisasm.obj
 0001:00016e84       ??_C@_03BONDBOGE@nfb?$AA@  10017e84     libffgen:usedisasm.obj
 0001:00016e88       ??_C@_02BLCPJIFK@fb?$AA@   10017e88     libffgen:usedisasm.obj
 0001:00016e8c       ??_C@_08INIPHAGC@twosided?$AA@ 10017e8c     libffgen:usedisasm.obj
 0001:00016e98       ??_C@_03FMFFAAHN@rnd?$AA@  10017e98     libffgen:usedisasm.obj
 0001:00016e9c       ??_C@_05FEPDOKAK@dst23?$AA@ 10017e9c     libffgen:usedisasm.obj
 0001:00016ea4       ??_C@_05GFEBFMOG@dst01?$AA@ 10017ea4     libffgen:usedisasm.obj
 0001:00016eac       ??_C@_05LKIOJOLP@src23?$AA@ 10017eac     libffgen:usedisasm.obj
 0001:00016eb4       ??_C@_05ILDMCIFD@src01?$AA@ 10017eb4     libffgen:usedisasm.obj
 0001:00016ebc       ??_C@_06NKHKFLCF@planar?$AA@ 10017ebc     libffgen:usedisasm.obj
 0001:00016ec4       ??_C@_0M@IFPEBLHO@interleaved?$AA@ 10017ec4     libffgen:usedisasm.obj
 0001:00016ed0       ??_C@_03KMCJGLPB@coe?$AA@  10017ed0     libffgen:usedisasm.obj
 0001:00016ed4       ??_C@_03KIKEBHED@cie?$AA@  10017ed4     libffgen:usedisasm.obj
 0001:00016ed8       ??_C@_03EJAHHPPF@u32?$AA@  10017ed8     libffgen:usedisasm.obj
 0001:00016edc       ??_C@_03COOPGOJP@u16?$AA@  10017edc     libffgen:usedisasm.obj
 0001:00016ee0       ??_C@_03HGIMHOMJ@z16?$AA@  10017ee0     libffgen:usedisasm.obj
 0001:00016ee4       ??_C@_0O@OMNHFPNA@reserved?$CI?$DN38?$CJ?$AA@ 10017ee4     libffgen:usedisasm.obj
 0001:00016ef4       ??_C@_0O@OHILBION@reserved?$CI?$DN37?$CJ?$AA@ 10017ef4     libffgen:usedisasm.obj
 0001:00016f04       ??_C@_0O@OGEJHCNK@reserved?$CI?$DN36?$CJ?$AA@ 10017f04     libffgen:usedisasm.obj
 0001:00016f14       ??_C@_0O@OEAPMMID@reserved?$CI?$DN35?$CJ?$AA@ 10017f14     libffgen:usedisasm.obj
 0001:00016f24       ??_C@_0O@OFMNKGLE@reserved?$CI?$DN34?$CJ?$AA@ 10017f24     libffgen:usedisasm.obj
 0001:00016f34       ??_C@_0O@OAICLADB@reserved?$CI?$DN33?$CJ?$AA@ 10017f34     libffgen:usedisasm.obj
 0001:00016f44       ??_C@_02FEKKBGAL@o8?$AA@   10017f44     libffgen:usedisasm.obj
 0001:00016f48       ??_C@_02EBJGEMBP@s8?$AA@   10017f48     libffgen:usedisasm.obj
 0001:00016f4c       ??_C@_02EFBLDAKN@u8?$AA@   10017f4c     libffgen:usedisasm.obj
 0001:00016f50       ??_C@_05MHMEBBGO@scale?$AA@ 10017f50     libffgen:usedisasm.obj
 0001:00016f58       ??_C@_04GACKEAOH@iadd?$AA@ 10017f58     libffgen:usedisasm.obj
 0001:00016f60       ??_C@_07POLIDKMG@?$CLsrc2?42?$AA@ 10017f60     libffgen:usedisasm.obj
 0001:00016f68       ??_C@_04OLDKMDKP@comp?$AA@ 10017f68     libffgen:usedisasm.obj
 0001:00016f70       ??_C@_05DDPJEGPJ@zeros?$AA@ 10017f70     libffgen:usedisasm.obj
 0001:00016f78       ??_C@_07OAHENKM@s2scale?$AA@ 10017f78     libffgen:usedisasm.obj
 0001:00016f80       ??_C@_03LJAEFNNE@max?$AA@  10017f80     libffgen:usedisasm.obj
 0001:00016f84       ??_C@_03KLIPLJLL@min?$AA@  10017f84     libffgen:usedisasm.obj
 0001:00016f88       ??_C@_04CGFJFPFD@none?$AA@ 10017f88     libffgen:usedisasm.obj
 0001:00016f90       ??_C@_03GBOCFEHI@neg?$AA@  10017f90     libffgen:usedisasm.obj
 0001:00016f94       ??_C@_03KCMAIMAP@sub?$AA@  10017f94     libffgen:usedisasm.obj
 0001:00016f98       ??_C@_03BDGOHNNK@add?$AA@  10017f98     libffgen:usedisasm.obj
 0001:00016f9c       ??_C@_03LAGOJKKI@Ax8?$AA@  10017f9c     libffgen:usedisasm.obj
 0001:00016fa0       ??_C@_03BMNLNFKE@Ax4?$AA@  10017fa0     libffgen:usedisasm.obj
 0001:00016fa4       ??_C@_03EKIBHCCC@Ax2?$AA@  10017fa4     libffgen:usedisasm.obj
 0001:00016fa8       ??_C@_03GBKMCBOB@Ax1?$AA@  10017fa8     libffgen:usedisasm.obj
 0001:00016fac       ??_C@_03BKGHFCCD@Cx8?$AA@  10017fac     libffgen:usedisasm.obj
 0001:00016fb0       ??_C@_03LGNCBNCP@Cx4?$AA@  10017fb0     libffgen:usedisasm.obj
 0001:00016fb4       ??_C@_03OAIILKKJ@Cx2?$AA@  10017fb4     libffgen:usedisasm.obj
 0001:00016fb8       ??_C@_03MLKFOJGK@Cx1?$AA@  10017fb8     libffgen:usedisasm.obj
 0001:00016fbc       ??_C@_03PMDIEEIJ@s2a?$AA@  10017fbc     libffgen:usedisasm.obj
 0001:00016fc0       ??_C@_03POHOPKNA@s1a?$AA@  10017fc0     libffgen:usedisasm.obj
 0001:00016fc4       ??_C@_03PPLMJAOH@s0a?$AA@  10017fc4     libffgen:usedisasm.obj
 0001:00016fc8       ??_C@_02LLHJKEJF@s2?$AA@   10017fc8     libffgen:usedisasm.obj
 0001:00016fcc       ??_C@_02JAFEPHFG@s1?$AA@   10017fcc     libffgen:usedisasm.obj
 0001:00016fd0       ??_C@_02IJEPMGBH@s0?$AA@   10017fd0     libffgen:usedisasm.obj
 0001:00016fd4       ??_C@_05NHEJLOPM@rasat?$AA@ 10017fd4     libffgen:usedisasm.obj
 0001:00016fdc       ??_C@_04OGEDEEII@asat?$AA@ 10017fdc     libffgen:usedisasm.obj
 0001:00016fe4       ??_C@_03OHDNLOHO@one?$AA@  10017fe4     libffgen:usedisasm.obj
 0001:00016fe8       ??_C@_04DDFHDMOL@zero?$AA@ 10017fe8     libffgen:usedisasm.obj
 0001:00016ff0       ??_C@_04NFGBKFKG@?4moe?$AA@ 10017ff0     libffgen:usedisasm.obj
 0001:00016ff8       ??_C@_04JEFAHIDO@?4c10?$AA@ 10017ff8     libffgen:usedisasm.obj
 0001:00017000       ??_C@_03NLPDOOKO@?4u8?$AA@ 10018000     libffgen:usedisasm.obj
 0001:00017004       ??_C@_06DHJGDNFC@?4flt16?$AA@ 10018004     libffgen:usedisasm.obj
 0001:0001700c       ??_C@_06FAHOCMDI@?4flt32?$AA@ 1001800c     libffgen:usedisasm.obj
 0001:00017014       ??_C@_05KBHMPBFH@?4comp?$AA@ 10018014     libffgen:usedisasm.obj
 0001:0001701c       ??_C@_06DDGGEEBB@?4alpha?$AA@ 1001801c     libffgen:usedisasm.obj
 0001:00017024       ??_C@_05HMELICBF@?4high?$AA@ 10018024     libffgen:usedisasm.obj
 0001:0001702c       ??_C@_04BFCJLCBA@?4low?$AA@ 1001802c     libffgen:usedisasm.obj
 0001:00017034       ??_C@_04ILPHDMJK@?4abs?$AA@ 10018034     libffgen:usedisasm.obj
 0001:0001703c       ??_C@_04PIHFONBM@?4neg?$AA@ 1001803c     libffgen:usedisasm.obj
 0001:00017044       ??_C@_01BDACAMKP@h?$AA@    10018044     libffgen:usedisasm.obj
 0001:00017048       ??_C@_01FDFGLJHB@2?$AA@    10018048     libffgen:usedisasm.obj
 0001:0001704c       ??_C@_01HIHLOKLC@1?$AA@    1001804c     libffgen:usedisasm.obj
 0001:00017050       ??_C@_01GBGANLPD@0?$AA@    10018050     libffgen:usedisasm.obj
 0001:00017054       ??_C@_01NOFIACDB@w?$AA@    10018054     libffgen:usedisasm.obj
 0001:00017058       ??_C@_01GLPGHMHM@z?$AA@    10018058     libffgen:usedisasm.obj
 0001:0001705c       ??_C@_01EANLCPLP@y?$AA@    1001805c     libffgen:usedisasm.obj
 0001:00017060       ??_C@_01FJMABOPO@x?$AA@    10018060     libffgen:usedisasm.obj
 0001:00017064       ??_C@_09DPMBDOD@?$DMinvalid?$DO?$AA@ 10018064     libffgen:usedisasm.obj
 0001:00017070       ??_C@_03GCDGINBO@ref?$AA@  10018070     libffgen:usedisasm.obj
 0001:00017074       ??_C@_0P@OHFOHFGJ@floatimmediate?$AA@ 10018074     libffgen:usedisasm.obj
 0001:00017084       ??_C@_0L@CJMBHGAK@temp_named?$AA@ 10018084     libffgen:usedisasm.obj
 0001:00017090       ??_C@_0BC@PGKPHNHG@label_with_offset?$AA@ 10018090     libffgen:usedisasm.obj
 0001:000170a4       ??_C@_03IOHFNHHA@fcs?$AA@  100180a4     libffgen:usedisasm.obj
 0001:000170a8       ??_C@_09DGBKDEJM@intsrcsel?$AA@ 100180a8     libffgen:usedisasm.obj
 0001:000170b4       ??_C@_07FAJBBDOC@swizzle?$AA@ 100180b4     libffgen:usedisasm.obj
 0001:000170bc       ??_C@_0M@EMAHAAKF@addressmode?$AA@ 100180bc     libffgen:usedisasm.obj
 0001:000170c8       ??_C@_02GFBACKGC@cp?$AA@   100180c8     libffgen:usedisasm.obj
 0001:000170cc       ??_C@_01JBBJJEPG@p?$AA@    100180cc     libffgen:usedisasm.obj
 0001:000170d0       ??_C@_05IDCCNNGI@label?$AA@ 100180d0     libffgen:usedisasm.obj
 0001:000170d8       ??_C@_03HDFKMEON@drc?$AA@  100180d8     libffgen:usedisasm.obj
 0001:000170dc       ??_C@_06NODHPLNN@pclink?$AA@ 100180dc     libffgen:usedisasm.obj
 0001:000170e4       ??_C@_01IPJKGB@?$CD?$AA@   100180e4     libffgen:usedisasm.obj
 0001:000170e8       ??_C@_01KBJDNOO@i?$AA@     100180e8     libffgen:usedisasm.obj
 0001:000170ec       ??_C@_01PAPGNFGE@c?$AA@    100180ec     libffgen:usedisasm.obj
 0001:000170f0       ??_C@_01JEJKBAGA@g?$AA@    100180f0     libffgen:usedisasm.obj
 0001:000170f4       ??_C@_05FKHKFDID@index?$AA@ 100180f4     libffgen:usedisasm.obj
 0001:000170fc       ??_C@_02CKOPKKAC@sa?$AA@   100180fc     libffgen:usedisasm.obj
 0001:00017100       ??_C@_02CIKJBEFL@pa?$AA@   10018100     libffgen:usedisasm.obj
 0001:00017104       ??_C@_01FMEDJKGI@o?$AA@    10018104     libffgen:usedisasm.obj
 0001:00017108       ??_C@_01KDCPPGHE@r?$AA@    10018108     libffgen:usedisasm.obj
 0001:00017d28       ??_C@_1BFA@DHMMPHNA@?$AA?$AN?$AA?6?$AA?$CK?$AA?$CK?$AA?$CK?$AA?5?$AAA?$AAS?$AAS?$AAE?$AAR?$AAT?$AAI?$AAO?$AAN?$AA?5?$AAF?$AAA?$AAI?$AAL?$AAE?$AAD?$AA?5?$AAi?$AAn?$AA?5?$AAc?$AA?3?$AA?2?$AAd?$AAa?$AAt@ 10018d28     libffgen:usedisasm.obj
 0001:00017e78       ??_C@_1BGO@EFNLIPJO@?$AA?$AN?$AA?6?$AA?$CK?$AA?$CK?$AA?$CK?$AA?5?$AAA?$AAS?$AAS?$AAE?$AAR?$AAT?$AAI?$AAO?$AAN?$AA?5?$AAF?$AAA?$AAI?$AAL?$AAE?$AAD?$AA?5?$AAi?$AAn?$AA?5?$AAc?$AA?3?$AA?2?$AAd?$AAa?$AAt@ 10018e78     libffgen:usedisasm.obj
 0001:00017fe8       ??_C@_01MIFGBAGJ@?$CL?$AA@ 10018fe8     libffgen:usedisasm.obj
 0001:00017fec       ??_C@_0O@PLCPAMI@unknown_error?$AA@ 10018fec     libffgen:usedisasm.obj
 0001:00017ffc       ??_C@_02KEGNLNML@?0?5?$AA@ 10018ffc     libffgen:usedisasm.obj
 0001:00018000       ??_C@_03KBEBNCEG@?4?$CFd?$AA@ 10019000     libffgen:usedisasm.obj
 0001:00018004       ??_C@_0BC@PJEPNGEP@?4bytemask?$CFs?$CFs?$CFs?$CFs?$AA@ 10019004     libffgen:usedisasm.obj
 0001:00018018       ??_C@_02DPKJAMEF@?$CFd?$AA@ 10019018     libffgen:usedisasm.obj
 0001:0001801c       ??_C@_0BD@JNPMBKBM@reservedregtype?$CFd_?$AA@ 1001901c     libffgen:usedisasm.obj
 0001:00018030       ??_C@_1BIC@GONFBGDB@?$AA?$AN?$AA?6?$AA?$CK?$AA?$CK?$AA?$CK?$AA?5?$AAA?$AAS?$AAS?$AAE?$AAR?$AAT?$AAI?$AAO?$AAN?$AA?5?$AAF?$AAA?$AAI?$AAL?$AAE?$AAD?$AA?5?$AAi?$AAn?$AA?5?$AAc?$AA?3?$AA?2?$AAd?$AAa?$AAt@ 10019030     libffgen:usedisasm.obj
 0001:000181b8       ??_C@_1BFA@CLBDBLKH@?$AA?$AN?$AA?6?$AA?$CK?$AA?$CK?$AA?$CK?$AA?5?$AAA?$AAS?$AAS?$AAE?$AAR?$AAT?$AAI?$AAO?$AAN?$AA?5?$AAF?$AAA?$AAI?$AAL?$AAE?$AAD?$AA?5?$AAi?$AAn?$AA?5?$AAc?$AA?3?$AA?2?$AAd?$AAa?$AAt@ 100191b8     libffgen:usedisasm.obj
 0001:00018308       ??_C@_08EDHFNKOD@?9?$CD0x?$CF?48X?$AA@ 10019308     libffgen:usedisasm.obj
 0001:00018314       ??_C@_0O@BNDIKCLF@incrementmode?$AA@ 10019314     libffgen:usedisasm.obj
 0001:00018324       ??_C@_0M@DEJENGIC@swizzlemode?$AA@ 10019324     libffgen:usedisasm.obj
 0001:00018330       ??_C@_07LDOAHENA@?$CD0x?$CF?48X?$AA@ 10019330     libffgen:usedisasm.obj
 0001:00018338       ??_C@_0BN@KOGDMPKG@addressmode_undefinedvalue?$CFd?$AA@ 10019338     libffgen:usedisasm.obj
 0001:00018358       ??_C@_05HADFAIAH@clamp?$AA@ 10019358     libffgen:usedisasm.obj
 0001:00018360       ??_C@_06LGDBIFHB@repeat?$AA@ 10019360     libffgen:usedisasm.obj
 0001:00018368       ??_C@_06LLKPBPOH@mirror?$AA@ 10019368     libffgen:usedisasm.obj
 0001:00018370       ??_C@_0BB@DNAJPIJJ@reservedsrcsel?$CFd?$AA@ 10019370     libffgen:usedisasm.obj
 0001:00018384       ??_C@_06LCEEMMJ@i?4?$CFs?$CFs?$AA@ 10019384     libffgen:usedisasm.obj
 0001:0001838c       ??_C@_0O@ELBKBMH@?$CFs?$FLi?$CFs?5?$CL?5?$CD?$CFd?$FN?$AA@ 1001938c     libffgen:usedisasm.obj
 0001:0001839c       ??_C@_01HHGOMJKL@l?$AA@    1001939c     libffgen:usedisasm.obj
 0001:000183a0       ??_C@_01DCLJPIOD@?$CB?$AA@ 100193a0     libffgen:usedisasm.obj
 0001:000183a4       ??_C@_01PJKLJHI@?$HO?$AA@  100193a4     libffgen:usedisasm.obj
 0001:000183a8       ??_C@_01PKGAHCOL@?$CJ?$AA@ 100193a8     libffgen:usedisasm.obj
 0001:000183ac       ??_C@_01LFCBOECM@?4?$AA@   100193ac     libffgen:usedisasm.obj
 0001:000183b0       ??_C@_08BDAJLMON@swizzle?$CI?$AA@ 100193b0     libffgen:usedisasm.obj
 0001:000183bc       ??_C@_07NLPEPIDE@?4swzf32?$AA@ 100193bc     libffgen:usedisasm.obj
 0001:000183c4       ??_C@_06NEDHBKDP@?4swzhh?$AA@ 100193c4     libffgen:usedisasm.obj
 0001:000183cc       ??_C@_06LHFCHHOH@?4swzll?$AA@ 100193cc     libffgen:usedisasm.obj
 0001:000183d4       ??_C@_03MOMPLELK@?4i8?$AA@ 100193d4     libffgen:usedisasm.obj
 0001:000183d8       ??_C@_0M@IMKAOOHG@?4incs?$CFs?$CFs?$CFs?$AA@ 100193d8     libffgen:usedisasm.obj
 0001:000183e4       ??_C@_05LGBEKMGP@?4rs?$CFd?$AA@ 100193e4     libffgen:usedisasm.obj
 0001:000183ec       ??_C@_04DMOAILBA@?4sat?$AA@ 100193ec     libffgen:usedisasm.obj
 0001:000183f4       ??_C@_03KFHHDCHE@sat?$AA@  100193f4     libffgen:usedisasm.obj
 0001:000183f8       ??_C@_02DGHPGHDC@?4s?$AA@  100193f8     libffgen:usedisasm.obj
 0001:000183fc       ??_C@_02GACFMALE@?4u?$AA@  100193fc     libffgen:usedisasm.obj
 0001:00018400       ??_C@_09MAPGOMDK@?4repeat?$CFd?$AA@ 10019400     libffgen:usedisasm.obj
 0001:0001840c       ??_C@_08BDGLMPBA@?4fetch?$CFd?$AA@ 1001940c     libffgen:usedisasm.obj
 0001:00018418       ??_C@_0N@IFFBPGB@?4rangeenable?$AA@ 10019418     libffgen:usedisasm.obj
 0001:00018428       ??_C@_0BG@KPEJMKJB@?4reservedmasktype?$CI?$CFd?$CJ?$AA@ 10019428     libffgen:usedisasm.obj
 0001:00018440       ??_C@_0BF@ECPKBDBN@?4reservedchansel?$CI?$CFd?$CJ?$AA@ 10019440     libffgen:usedisasm.obj
 0001:00018458       ??_C@_0M@LHCHNHCF@?4test?$CFs?$CFs?$CFs?$AA@ 10019458     libffgen:usedisasm.obj
 0001:00018464       ??_C@_01MCMALHOG@a?$AA@    10019464     libffgen:usedisasm.obj
 0001:00018468       ??_C@_05JMMNNMMB@?4tp?$HMz?$AA@ 10019468     libffgen:usedisasm.obj
 0001:00018470       ??_C@_04DEOINJBK@?4tnz?$AA@ 10019470     libffgen:usedisasm.obj
 0001:00018478       ??_C@_03BIHOKJBO@?4tz?$AA@ 10019478     libffgen:usedisasm.obj
 0001:0001847c       ??_C@_05CMALPMGN@?4tn?$HMz?$AA@ 1001947c     libffgen:usedisasm.obj
 0001:00018484       ??_C@_03DGNAHOEL@?4tn?$AA@ 10019484     libffgen:usedisasm.obj
 0001:00018488       ??_C@_02HAOIJKIC@?$CFc?$AA@ 10019488     libffgen:usedisasm.obj
 0001:0001848c       ??_C@_03EDAPGMLK@?$FN?0?5?$AA@ 1001948c     libffgen:usedisasm.obj
 0001:00018490       ??_C@_01JOAMLHOP@?9?$AA@   10019490     libffgen:usedisasm.obj
 0001:00018494       ??_C@_02ECNGHCIF@?$CL?$CL?$AA@ 10019494     libffgen:usedisasm.obj
 0001:00018498       ??_C@_02BAABKJLB@?9?9?$AA@ 10019498     libffgen:usedisasm.obj
 0001:0001849c       ??_C@_01IHBHIGKO@?0?$AA@   1001949c     libffgen:usedisasm.obj
 0001:000184a0       ??_C@_01OHGJGJJP@?$FL?$AA@ 100194a0     libffgen:usedisasm.obj
 0001:000184a4       ??_C@_01KMDKNFGN@?1?$AA@   100194a4     libffgen:usedisasm.obj
 0001:000184a8       ??_C@_04KHEKMLOH@?0?5?$CFs?$AA@ 100194a8     libffgen:usedisasm.obj
 0001:000184b0       ??_C@_0BH@FDMNPMPO@?$CFsi0?5?$DN?5?$CFs?0?5?$CFsi1?5?$DN?5?$CFs?0?5?$AA@ 100194b0     libffgen:usedisasm.obj
 0001:000184c8       ??_C@_06HIPDNFAF@?$DN?5?$CFs?0?5?$AA@ 100194c8     libffgen:usedisasm.obj
 0001:000184d0       ??_C@_1BEK@MADKMBPM@?$AA?$AN?$AA?6?$AA?$CK?$AA?$CK?$AA?$CK?$AA?5?$AAA?$AAS?$AAS?$AAE?$AAR?$AAT?$AAI?$AAO?$AAN?$AA?5?$AAF?$AAA?$AAI?$AAL?$AAE?$AAD?$AA?5?$AAi?$AAn?$AA?5?$AAc?$AA?3?$AA?2?$AAd?$AAa?$AAt@ 100194d0     libffgen:usedisasm.obj
 0001:0001861c       ??_C@_0P@FKJPKKH@?$CD?$CFd?5?1?$CK?5incp?5?$CK?1?$AA@ 1001961c     libffgen:usedisasm.obj
 0001:00018630       ??_C@_1BFO@EPKIBGMO@?$AA?$AN?$AA?6?$AA?$CK?$AA?$CK?$AA?$CK?$AA?5?$AAA?$AAS?$AAS?$AAE?$AAR?$AAT?$AAI?$AAO?$AAN?$AA?5?$AAF?$AAA?$AAI?$AAL?$AAE?$AAD?$AA?5?$AAi?$AAn?$AA?5?$AAc?$AA?3?$AA?2?$AAd?$AAa?$AAt@ 10019630     libffgen:usedisasm.obj
 0001:00018790       ??_C@_1BHM@DGBFECBC@?$AA?$AN?$AA?6?$AA?$CK?$AA?$CK?$AA?$CK?$AA?5?$AAA?$AAS?$AAS?$AAE?$AAR?$AAT?$AAI?$AAO?$AAN?$AA?5?$AAF?$AAA?$AAI?$AAL?$AAE?$AAD?$AA?5?$AAi?$AAn?$AA?5?$AAc?$AA?3?$AA?2?$AAd?$AAa?$AAt@ 10019790     libffgen:usedisasm.obj
 0001:00018910       ??_C@_1BFO@HGOCJNKJ@?$AA?$AN?$AA?6?$AA?$CK?$AA?$CK?$AA?$CK?$AA?5?$AAA?$AAS?$AAS?$AAE?$AAR?$AAT?$AAI?$AAO?$AAN?$AA?5?$AAF?$AAA?$AAI?$AAL?$AAE?$AAD?$AA?5?$AAi?$AAn?$AA?5?$AAc?$AA?3?$AA?2?$AAd?$AAa?$AAt@ 10019910     libffgen:usedisasm.obj
 0001:00018a70       ??_C@_0BB@FHLDAONP@?$CF?$CKd?3?50x?$CF?48X?$CF?48X?7?$AA@ 10019a70     libffgen:usedisasm.obj
 0001:00018a84       ??_C@_06FEAOAINM@SGX530?$AA@ 10019a84     libffgen:utils.obj
 0001:00018b30       ??_C@_08CGPOONCN@source?52?$AA@ 10019b30     libffgen:useasm.obj
 0001:00018b3c       ??_C@_08NNDLOOO@source?51?$AA@ 10019b3c     libffgen:useasm.obj
 0001:00018b48       ??_C@_08BEMIIPKP@source?50?$AA@ 10019b48     libffgen:useasm.obj
 0001:00018b54       ??_C@_0M@BLMAJMLK@destination?$AA@ 10019b54     libffgen:useasm.obj
 0001:00018b98       ??_C@_0BE@CMNIOOMH@Unknown?5instruction?$AA@ 10019b98     libffgen:useasm.obj
 0001:00018bac       ??_C@_0BN@FNBEMNH@?$CFs?5should?5have?5been?5coissued?$AA@ 10019bac     libffgen:useasm.obj
 0001:00018bd0       ??_C@_0EL@CEJMDIFD@Branch?5destination?5is?5out?5of?5ran@ 10019bd0     libffgen:useasm.obj
 0001:00018c20       ??_C@_0EM@IGAKCAGC@Branch?5destination?5is?5out?5of?5ran@ 10019c20     libffgen:useasm.obj
 0001:00018c70       ??_C@_0JC@CGJAIGHK@The?5destination?5label?5for?5a?5bran@ 10019c70     libffgen:useasm.obj
 0001:00018d04       ??_C@_0DN@GHBJDHKE@The?5third?5argument?5to?5dot3?1dot4?5@ 10019d04     libffgen:useasm.obj
 0001:00018d44       ??_C@_0DH@BBGJEJBC@No?5flags?5are?5valid?5for?5the?5third@ 10019d44     libffgen:useasm.obj
 0001:00018d80       ??_C@_0EE@JPJEDBPB@The?5third?5argument?5to?5dot3?1dot4?5@ 10019d80     libffgen:useasm.obj
 0001:00018dc4       ??_C@_0DP@MPNPCIOH@The?5second?5argument?5to?5dot3?1dot4@ 10019dc4     libffgen:useasm.obj
 0001:00018e04       ??_C@_0DI@NLNHCCFG@No?5flags?5are?5valid?5for?5the?5secon@ 10019e04     libffgen:useasm.obj
 0001:00018e40       ??_C@_0EF@EFCBABKE@The?5second?5argument?5to?5dot3?1dot4@ 10019e40     libffgen:useasm.obj
 0001:00018e88       ??_C@_0CM@NAFINKIH@The?5fifth?5argument?5to?5aadd?1asub?5@ 10019e88     libffgen:useasm.obj
 0001:00018eb4       ??_C@_0DH@LBMFOABC@No?5flags?5are?5valid?5for?5the?5fifth@ 10019eb4     libffgen:useasm.obj
 0001:00018ef0       ??_C@_0EE@NHDHBHPH@The?5fifth?5argument?5to?5aadd?1asub?5@ 10019ef0     libffgen:useasm.obj
 0001:00018f38       ??_C@_0EH@BNLGGDIJ@Only?5the?5complement?5flag?5is?5vali@ 10019f38     libffgen:useasm.obj
 0001:00018f80       ??_C@_0EF@BHNJGLAO@The?5fourth?5argument?5to?5aadd?1asub@ 10019f80     libffgen:useasm.obj
 0001:00018fc8       ??_C@_0CM@LAIDNOIF@The?5third?5argument?5to?5aadd?1asub?5@ 10019fc8     libffgen:useasm.obj
 0001:00018ff8       ??_C@_0EG@KPNPAEGJ@Only?5the?5complement?5flag?5is?5vali@ 10019ff8     libffgen:useasm.obj
 0001:00019040       ??_C@_0EE@HCICJMII@The?5third?5argument?5to?5aadd?1asub?5@ 1001a040     libffgen:useasm.obj
 0001:00019088       ??_C@_0FM@FCNEOKCI@Invalid?5choice?5for?5the?5second?5ar@ 1001a088     libffgen:useasm.obj
 0001:000190e8       ??_C@_0EH@COHNMHNB@Only?5the?5complement?5flag?5is?5vali@ 1001a0e8     libffgen:useasm.obj
 0001:00019130       ??_C@_0EF@KIDHKMNN@The?5second?5argument?5to?5aadd?1asub@ 1001a130     libffgen:useasm.obj
 0001:00019178       ??_C@_0DO@NPGGCMGL@The?5first?5argument?5to?5aadd?1asub?5@ 1001a178     libffgen:useasm.obj
 0001:000191b8       ??_C@_0DH@DLDDAMMA@No?5flags?5are?5valid?5for?5the?5first@ 1001a1b8     libffgen:useasm.obj
 0001:000191f0       ??_C@_0EE@BEBPNCHP@The?5first?5argument?5to?5aadd?1asub?5@ 1001a1f0     libffgen:useasm.obj
 0001:00019234       ??_C@_0DJ@JGDEEONP@Invalid?5integer?5source?5for?5the?5t@ 1001a234     libffgen:useasm.obj
 0001:00019270       ??_C@_0EE@ELFDABMP@Only?5the?5complement?5flag?5is?5vali@ 1001a270     libffgen:useasm.obj
 0001:000192b8       ??_C@_0EC@DANPAEGJ@The?5third?5argument?5to?5aintrp1?5mu@ 1001a2b8     libffgen:useasm.obj
 0001:000192fc       ??_C@_0DK@OPCNMALF@Invalid?5integer?5source?5for?5the?5s@ 1001a2fc     libffgen:useasm.obj
 0001:00019338       ??_C@_0CN@JFFLIFPF@An?5integer?5source?5selection?5is?5n@ 1001a338     libffgen:useasm.obj
 0001:00019368       ??_C@_0DG@NPKDEALG@No?5flags?5are?5valid?5for?5the?5secon@ 1001a368     libffgen:useasm.obj
 0001:000193a0       ??_C@_0ED@NIBLILEL@The?5second?5argument?5to?5aintrp1?5m@ 1001a3a0     libffgen:useasm.obj
 0001:000193e4       ??_C@_0CN@IACABJMC@Coissued?5instruction?5with?5no?5alp@ 1001a3e4     libffgen:useasm.obj
 0001:00019414       ??_C@_0BP@IIAMCHDC@Integer?5dot4?5can?8t?5be?5coissued?$AA@ 1001a414     libffgen:useasm.obj
 0001:00019434       ??_C@_0DF@OBCJJOLL@Maximum?5repeat?5count?5on?5an?5integ@ 1001a434     libffgen:useasm.obj
 0001:0001946c       ??_C@_0DK@NIFCHDCD@A?5swizzle?5is?5invalid?5for?5argumen@ 1001a46c     libffgen:useasm.obj
 0001:000194a8       ??_C@_0EC@FENPMIAM@The?5modifiers?5?4flt32?0?5?4flt16?0?5?4c@ 1001a4a8     libffgen:useasm.obj
 0001:000194ec       ??_C@_0DC@LCFHLKAM@?$HO?5is?5invalid?5for?5argument?5?$CFd?5for@ 1001a4ec     libffgen:useasm.obj
 0001:00019520       ??_C@_0DM@PBIINBBE@?4requiremoe?5is?5invalid?5for?5argum@ 1001a520     libffgen:useasm.obj
 0001:0001955c       ??_C@_0DE@EJENDBGB@?4u8?5is?5invalid?5for?5argument?5?$CFd?5f@ 1001a55c     libffgen:useasm.obj
 0001:00019590       ??_C@_0DF@KNCENLBB@?4c10?5is?5invalid?5for?5argument?5?$CFd?5@ 1001a590     libffgen:useasm.obj
 0001:000195c8       ??_C@_0DH@LCLAOIMP@?4flt16?5is?5invalid?5for?5argument?5?$CF@ 1001a5c8     libffgen:useasm.obj
 0001:00019600       ??_C@_0DH@IAOLGEKP@?4flt32?5is?5invalid?5for?5argument?5?$CF@ 1001a600     libffgen:useasm.obj
 0001:00019638       ??_C@_0EC@LIBCAICE@Disable?5writeback?5is?5invalid?5for@ 1001a638     libffgen:useasm.obj
 0001:0001967c       ??_C@_0DG@MICEFMNE@?4comp?5is?5invalid?5for?5argument?5?$CFd@ 1001a67c     libffgen:useasm.obj
 0001:000196b4       ??_C@_0DH@BJDJAOJN@?4alpha?5is?5invalid?5for?5argument?5?$CF@ 1001a6b4     libffgen:useasm.obj
 0001:000196ec       ??_C@_0DG@NIHNAGBL@?4high?5is?5invalid?5for?5argument?5?$CFd@ 1001a6ec     libffgen:useasm.obj
 0001:00019724       ??_C@_0DF@HFACOLNL@?4low?5is?5invalid?5for?5argument?5?$CFd?5@ 1001a724     libffgen:useasm.obj
 0001:0001975c       ??_C@_0DI@BMAPILCJ@?4invert?5is?5invalid?5for?5argument?5@ 1001a75c     libffgen:useasm.obj
 0001:00019794       ??_C@_0DK@PJAHFLKI@A?5bytemask?5is?5invalid?5for?5argume@ 1001a794     libffgen:useasm.obj
 0001:000197d0       ??_C@_0EC@IJJBJBBP@A?5component?5select?5is?5invalid?5fo@ 1001a7d0     libffgen:useasm.obj
 0001:00019814       ??_C@_0DE@NBGIMLFH@?4abs?5is?5invalid?5for?5argument?5?$CFd?5@ 1001a814     libffgen:useasm.obj
 0001:00019848       ??_C@_0DE@MPDILDBH@?4neg?5is?5invalid?5for?5argument?5?$CFd?5@ 1001a848     libffgen:useasm.obj
 0001:0001987c       ??_C@_0CJ@EOFBMGJB@?4anyinst?5is?5invalid?5for?5this?5ins@ 1001a87c     libffgen:useasm.obj
 0001:000198a8       ??_C@_0CJ@LAMJCCAH@?4allinst?5is?5invalid?5for?5this?5ins@ 1001a8a8     libffgen:useasm.obj
 0001:000198d4       ??_C@_0CH@OGBNJBLO@?4freep?5is?5invalid?5for?5this?5instr@ 1001a8d4     libffgen:useasm.obj
 0001:000198fc       ??_C@_0CG@DEPAAINN@?4smsk?5is?5invalid?5for?5this?5instru@ 1001a8fc     libffgen:useasm.obj
 0001:00019924       ??_C@_0CG@HDBABLGF@?4minp?5is?5invalid?5for?5this?5instru@ 1001a924     libffgen:useasm.obj
 0001:0001994c       ??_C@_0CG@JNEGBJAJ@?4irsd?5is?5invalid?5for?5this?5instru@ 1001a94c     libffgen:useasm.obj
 0001:00019974       ??_C@_0CH@MOFKMNFF@?4pwait?5is?5invalid?5for?5this?5instr@ 1001a974     libffgen:useasm.obj
 0001:0001999c       ??_C@_0CI@FJKAAMII@?4noread?5is?5invalid?5for?5this?5inst@ 1001a99c     libffgen:useasm.obj
 0001:000199c4       ??_C@_0CM@BKAEHGEJ@?4dm_nomatch?5is?5invalid?5for?5this?5@ 1001a9c4     libffgen:useasm.obj
 0001:000199f0       ??_C@_0CI@LAPAEMDG@?4global?5is?5invalid?5for?5this?5inst@ 1001a9f0     libffgen:useasm.obj
 0001:00019a18       ??_C@_0CI@JBBFIBPL@?4gpiext?5is?5invalid?5for?5this?5inst@ 1001aa18     libffgen:useasm.obj
 0001:00019a40       ??_C@_0CK@DEEAJLON@?4bypassl1?5is?5invalid?5for?5this?5in@ 1001aa40     libffgen:useasm.obj
 0001:00019a6c       ??_C@_0CF@EHCJCPGO@?4cut?5is?5invalid?5for?5this?5instruc@ 1001aa6c     libffgen:useasm.obj
 0001:00019a94       ??_C@_0CL@OGDOHFNH@?4threepart?5is?5invalid?5for?5this?5i@ 1001aa94     libffgen:useasm.obj
 0001:00019ac0       ??_C@_0CJ@FCBBHHDD@?4twopart?5is?5invalid?5for?5this?5ins@ 1001aac0     libffgen:useasm.obj
 0001:00019aec       ??_C@_0CJ@GOGNFJGL@?4trigger?5is?5invalid?5for?5this?5ins@ 1001aaec     libffgen:useasm.obj
 0001:00019b18       ??_C@_0CJ@GIKGIFLP@?4syncend?5is?5invalid?5for?5this?5ins@ 1001ab18     libffgen:useasm.obj
 0001:00019b44       ??_C@_0CG@IHPDGLHB@?4sinf?5is?5invalid?5for?5this?5instru@ 1001ab44     libffgen:useasm.obj
 0001:00019b6c       ??_C@_0CF@NKHJPKHH@?4rsd?5is?5invalid?5for?5this?5instruc@ 1001ab6c     libffgen:useasm.obj
 0001:00019b94       ??_C@_0CI@NKNMDDOG@?4pcff16?5is?5invalid?5for?5this?5inst@ 1001ab94     libffgen:useasm.obj
 0001:00019bbc       ??_C@_0CF@CNBHLDDL@?4pcf?5is?5invalid?5for?5this?5instruc@ 1001abbc     libffgen:useasm.obj
 0001:00019be4       ??_C@_0CG@KBDEHIIG@?4incs?5is?5invalid?5for?5this?5instru@ 1001abe4     libffgen:useasm.obj
 0001:00019c0c       ??_C@_0CF@HDBKEIDN@?4tog?5is?5invalid?5for?5this?5instruc@ 1001ac0c     libffgen:useasm.obj
 0001:00019c34       ??_C@_0CF@CPPKEJPF@?4c10?5is?5invalid?5for?5this?5instruc@ 1001ac34     libffgen:useasm.obj
 0001:00019c5c       ??_C@_0CH@JJCJAFEG@?4tpres?5is?5invalid?5for?5this?5instr@ 1001ac5c     libffgen:useasm.obj
 0001:00019c84       ??_C@_0CF@KOMKFHLA@?4i10?5is?5invalid?5for?5this?5instruc@ 1001ac84     libffgen:useasm.obj
 0001:00019cac       ??_C@_0CF@KACIFBOK@?4flt?5is?5invalid?5for?5this?5instruc@ 1001acac     libffgen:useasm.obj
 0001:00019cd4       ??_C@_0CF@KDIDNMAN@?4i32?5is?5invalid?5for?5this?5instruc@ 1001acd4     libffgen:useasm.obj
 0001:00019cfc       ??_C@_0CF@HFMHLBAE@?4i16?5is?5invalid?5for?5this?5instruc@ 1001acfc     libffgen:useasm.obj
 0001:00019d24       ??_C@_0CF@GBAIFKNL@?4sat?5is?5invalid?5for?5this?5instruc@ 1001ad24     libffgen:useasm.obj
 0001:00019d4c       ??_C@_0DE@KONNOGII@pre?9?1post?9increment?5is?5invalid?5f@ 1001ad4c     libffgen:useasm.obj
 0001:00019d80       ??_C@_0CH@MJONMLMP@?4scale?5is?5invalid?5for?5this?5instr@ 1001ad80     libffgen:useasm.obj
 0001:00019da8       ??_C@_0CH@BGLMLOBA@?4taske?5is?5invalid?5for?5this?5instr@ 1001ada8     libffgen:useasm.obj
 0001:00019dd0       ??_C@_0CH@OIAHEBAH@?4tasks?5is?5invalid?5for?5this?5instr@ 1001add0     libffgen:useasm.obj
 0001:00019df8       ??_C@_0CI@JKBHNFPL@?4fcfill?5is?5invalid?5for?5this?5inst@ 1001adf8     libffgen:useasm.obj
 0001:00019e20       ??_C@_0CJ@POAKEGNN@?4bpcache?5is?5invalid?5for?5this?5ins@ 1001ae20     libffgen:useasm.obj
 0001:00019e4c       ??_C@_0CK@NHGHHGDI@?4onceonly?5is?5invalid?5for?5this?5in@ 1001ae4c     libffgen:useasm.obj
 0001:00019e78       ??_C@_0CH@NCCAPODE@?4fetch?5is?5invalid?5for?5this?5instr@ 1001ae78     libffgen:useasm.obj
 0001:00019ea0       ??_C@_0CL@BFLFDPDE@testenable?5is?5invalid?5for?5this?5i@ 1001aea0     libffgen:useasm.obj
 0001:00019ecc       ??_C@_0CM@GBLJGDF@rangeneable?5is?5invalid?5for?5this?5@ 1001aecc     libffgen:useasm.obj
 0001:00019ef8       ??_C@_0CO@LDDPCEIK@postincrement?5is?5invalid?5for?5thi@ 1001aef8     libffgen:useasm.obj
 0001:00019f28       ??_C@_0CN@ILKEEOL@preincrement?5is?5invalid?5for?5this@ 1001af28     libffgen:useasm.obj
 0001:00019f58       ??_C@_0CH@PGFJCIMI@?4flt16?5is?5invalid?5for?5this?5instr@ 1001af58     libffgen:useasm.obj
 0001:00019f80       ??_C@_0DD@MCGMIGNN@This?5instruction?5can?8t?5be?5part?5o@ 1001af80     libffgen:useasm.obj
 0001:00019fb4       ??_C@_0CJ@OKDELEHB@?4renable?5is?5invalid?5for?5this?5ins@ 1001afb4     libffgen:useasm.obj
 0001:00019fe0       ??_C@_0CF@FIFBOHH@?4abs?5is?5invalid?5for?5this?5instruc@ 1001afe0     libffgen:useasm.obj
 0001:0001a008       ??_C@_0CF@KMGKJBBN@?4mon?5is?5invalid?5for?5this?5instruc@ 1001b008     libffgen:useasm.obj
 0001:0001a030       ??_C@_0CG@HGFIGOGH@?4mask?5is?5invalid?5for?5this?5instru@ 1001b030     libffgen:useasm.obj
 0001:0001a058       ??_C@_0CJ@BJIFKGIO@?4partial?5is?5invalid?5for?5this?5ins@ 1001b058     libffgen:useasm.obj
 0001:0001a084       ??_C@_0CK@IEFIOMMP@?4savelink?5is?5invalid?5for?5this?5in@ 1001b084     libffgen:useasm.obj
 0001:0001a0b0       ??_C@_0CH@EIPKEMIK@?4synce?5is?5invalid?5for?5this?5instr@ 1001b0b0     libffgen:useasm.obj
 0001:0001a0d8       ??_C@_0CF@KFDDBKGG@?4end?5is?5invalid?5for?5this?5instruc@ 1001b0d8     libffgen:useasm.obj
 0001:0001a100       ??_C@_0CM@ONJAAFFM@A?5predicate?5is?5invalid?5for?5this?5@ 1001b100     libffgen:useasm.obj
 0001:0001a12c       ??_C@_0CO@HKFMBEAO@A?5repeat?5mask?5is?5invalid?5for?5thi@ 1001b12c     libffgen:useasm.obj
 0001:0001a15c       ??_C@_0CI@BKLOOKDP@?4repeat?5is?5invalid?5for?5this?5inst@ 1001b15c     libffgen:useasm.obj
 0001:0001a184       ??_C@_0CJ@JOPLONOF@?4nosched?5is?5invalid?5for?5this?5ins@ 1001b184     libffgen:useasm.obj
 0001:0001a1b0       ??_C@_0CH@LGEBLDJN@?4syncs?5is?5invalid?5for?5this?5instr@ 1001b1b0     libffgen:useasm.obj
 0001:0001a1d8       ??_C@_0CE@LNKCCLIM@?4i8?5is?5invalid?5for?5this?5instruct@ 1001b1d8     libffgen:useasm.obj
 0001:0001a1fc       ??_C@_0CJ@MMEFPBHM@?4skipinv?5is?5invalid?5for?5this?5ins@ 1001b1fc     libffgen:useasm.obj
 0001:0001a228       ??_C@_0CK@BPJMEOGN@?$CFs?5is?5not?5a?5valid?5destination?5ty@ 1001b228     libffgen:useasm.obj
 0001:0001a254       ??_C@_0CK@FBILJLCJ@Destination?5must?5be?5a?5modifiable@ 1001b254     libffgen:useasm.obj
 0001:0001a280       ??_C@_0DJ@BHIIGCLJ@Indexed?5registers?5aren?8t?5a?5valid@ 1001b280     libffgen:useasm.obj
 0001:0001a2bc       ??_C@_07MALOAKCI@invalid?$AA@ 1001b2bc     libffgen:useasm.obj
 0001:0001a2c4       ??_C@_0DC@JLMEGCKC@Argument?5?$CFd?5type?5can?8t?5be?5?$CFs?5for@ 1001b2c4     libffgen:useasm.obj
 0001:0001a2f8       ??_C@_0BN@HHKHJGCN@Argument?5?$CFd?5can?8t?5be?5indexed?$AA@ 1001b2f8     libffgen:useasm.obj
 0001:0001a318       ??_C@_0BN@JEIEJKM@Argument?5?$CFd?5type?5can?8t?5be?5?$CFs?$AA@ 1001b318     libffgen:useasm.obj
 0001:0001a338       ??_C@_0BK@NIKBIDKC@Argument?5?$CFd?5can?8t?5indexed?$AA@ 1001b338     libffgen:useasm.obj
 0001:0001a354       ??_C@_0CK@INEOLDIC@Invalid?5constant?5register?5specif@ 1001b354     libffgen:useasm.obj
 0001:0001a380       ??_C@_0CO@LBPJMKJE@Invalid?5fp?5internal?5register?5spe@ 1001b380     libffgen:useasm.obj
 0001:0001a3b0       ??_C@_0CK@JGFFOFI@Invalid?5internal?5register?5specif@ 1001b3b0     libffgen:useasm.obj
 0001:0001a3dc       ??_C@_0CH@OHEKEBML@Invalid?5index?5mask?5specified?5?$CIwa@ 1001b3dc     libffgen:useasm.obj
 0001:0001a404       ??_C@_0DG@PBPNOJGF@Invalid?5secondary?5attribute?5regi@ 1001b404     libffgen:useasm.obj
 0001:0001a43c       ??_C@_0DE@LFLBECCD@Invalid?5primary?5attribute?5regist@ 1001b43c     libffgen:useasm.obj
 0001:0001a470       ??_C@_0CI@JCGMLMHK@Invalid?5output?5register?5specifie@ 1001b470     libffgen:useasm.obj
 0001:0001a498       ??_C@_0CL@BINLLFEH@Invalid?5temporary?5register?5speci@ 1001b498     libffgen:useasm.obj
 0001:0001a4c8       ??_C@_1BGE@EAOOIHGO@?$AA?$AN?$AA?6?$AA?$CK?$AA?$CK?$AA?$CK?$AA?5?$AAA?$AAS?$AAS?$AAE?$AAR?$AAT?$AAI?$AAO?$AAN?$AA?5?$AAF?$AAA?$AAI?$AAL?$AAE?$AAD?$AA?5?$AAi?$AAn?$AA?5?$AAc?$AA?3?$AA?2?$AAd?$AAa?$AAt@ 1001b4c8     libffgen:useasm.obj
 0001:0001a62c       ??_C@_0DP@KIFGKPIF@Offset?5into?5indexed?5register?5ban@ 1001b62c     libffgen:useasm.obj
 0001:0001a66c       ??_C@_0CC@LJGIDMA@Register?5type?5?$CFs?5is?5not?5indexabl@ 1001b66c     libffgen:useasm.obj
 0001:0001a690       ??_C@_0DA@DBENONDM@g?$CFd?5can?5only?5be?5accessed?5in?5bitw@ 1001b690     libffgen:useasm.obj
 0001:0001a6c0       ??_C@_0DK@LCPGEMNK@Task?5queue?5data?5?$CIg?$CFd?5to?5g?$CFd?$CJ?5can@ 1001b6c0     libffgen:useasm.obj
 0001:0001a6fc       ??_C@_0CI@BLCMIAIL@Invalid?5global?5register?5specifie@ 1001b6fc     libffgen:useasm.obj
 0001:0001a724       ??_C@_0CN@LAECMJLC@?$CFs?5type?5can?8t?5be?5global?5for?5this@ 1001b724     libffgen:useasm.obj
 0001:0001a754       ??_C@_0DL@PKMEEOIP@Source?51?5immediate?5value?5is?5too?5@ 1001b754     libffgen:useasm.obj
 0001:0001a790       ??_C@_08IPCCDMEN@Source?51?$AA@ 1001b790     libffgen:useasm.obj
 0001:0001a79c       ??_C@_0DG@NFHFDDMG@?$CFs?5immediate?5value?5is?5too?5small?5@ 1001b79c     libffgen:useasm.obj
 0001:0001a7d4       ??_C@_0DF@HLDFHJJG@?$CFs?5immediate?5value?5is?5too?5large?5@ 1001b7d4     libffgen:useasm.obj
 0001:0001a80c       ??_C@_0CM@IBHBOODC@Invalid?5predicate?5type?5for?5this?5@ 1001b80c     libffgen:useasm.obj
 0001:0001a838       ??_C@_0FD@DCBOAODI@A?5C10?5format?5destination?5isn?8t?5s@ 1001b838     libffgen:useasm.obj
 0001:0001a88c       ??_C@_0CM@JIFBLGFL@The?5maximum?5predicate?5register?5n@ 1001b88c     libffgen:useasm.obj
 0001:0001a8b8       ??_C@_0CG@GNGAJDLD@Predicate?5registers?5are?5not?5inde@ 1001b8b8     libffgen:useasm.obj
 0001:0001a8e0       ??_C@_0EL@MGFIGPBH@The?5second?5destination?5for?5a?5tes@ 1001b8e0     libffgen:useasm.obj
 0001:0001a92c       ??_C@_0DM@JKJAHMJO@No?5flags?5are?5valid?5for?5the?5predi@ 1001b92c     libffgen:useasm.obj
 0001:0001a968       ??_C@_0BH@CFEGILC@Unknown?5test?5mask?5type?$AA@ 1001b968     libffgen:useasm.obj
 0001:0001a980       ??_C@_0BP@LBJMFOHM@Unknown?5channel?5combine?5option?$AA@ 1001b980     libffgen:useasm.obj
 0001:0001a9a0       ??_C@_0CO@KFAIKBA@?4cperchan?5isn?8t?5supported?5on?5thi@ 1001b9a0     libffgen:useasm.obj
 0001:0001a9d0       ??_C@_0DL@CIAFLBE@Partial?5modifier?5is?5only?5availab@ 1001b9d0     libffgen:useasm.obj
 0001:0001aa10       ??_C@_0EP@HBANCFBC@Saturation?5modifier?5is?5only?5avai@ 1001ba10     libffgen:useasm.obj
 0001:0001aa60       ??_C@_1BBO@MEKGBGKH@?$AA?$AN?$AA?6?$AA?$CK?$AA?$CK?$AA?$CK?$AA?5?$AAA?$AAS?$AAS?$AAE?$AAR?$AAT?$AAI?$AAO?$AAN?$AA?5?$AAF?$AAA?$AAI?$AAL?$AAE?$AAD?$AA?5?$AAi?$AAn?$AA?5?$AAc?$AA?3?$AA?2?$AAd?$AAa?$AAt@ 1001ba60     libffgen:useasm.obj
 0001:0001ab80       ??_C@_0DM@GCKABEIE@Conditional?5code?5update?5isn?8t?5av@ 1001bb80     libffgen:useasm.obj
 0001:0001abc0       ??_C@_0EP@POLKDPLI@For?5a?5test?5instruction?5with?5a?5re@ 1001bbc0     libffgen:useasm.obj
 0001:0001ac10       ??_C@_0EC@NOAGCNPB@A?5repeated?5dotproduct?5with?5test?5@ 1001bc10     libffgen:useasm.obj
 0001:0001ac54       ??_C@_0DO@IKLPLKIL@A?5repeated?5test?5instruction?5isn?8@ 1001bc54     libffgen:useasm.obj
 0001:0001ac94       ??_C@_0DE@KBHBIIMG@The?5maximum?5repeat?5count?5for?5thi@ 1001bc94     libffgen:useasm.obj
 0001:0001acc8       ??_C@_0DB@JAOCBPNH@A?5repeat?5count?5is?5not?5valid?5for?5@ 1001bcc8     libffgen:useasm.obj
 0001:0001acfc       ??_C@_0DA@INBPMMOK@A?5repeat?5mask?5is?5not?5valid?5for?5t@ 1001bcfc     libffgen:useasm.obj
 0001:0001ad30       ??_C@_0GO@JJLBEPIH@For?5?$CFs?5with?5test?5the?5type?5of?5?$CFs?5@ 1001bd30     libffgen:useasm.obj
 0001:0001ada0       ??_C@_0FG@HDDPHDFM@Only?5?40?5is?5a?5valid?5component?5sel@ 1001bda0     libffgen:useasm.obj
 0001:0001adf8       ??_C@_0FM@BHACNAEE@Only?5?40?5and?5?42?5are?5valid?5compone@ 1001bdf8     libffgen:useasm.obj
 0001:0001ae54       ??_C@_0DD@JKMDHDLF@A?5?$CFs?5instruction?5must?5have?5at?5le@ 1001be54     libffgen:useasm.obj
 0001:0001ae88       ??_C@_0EP@OFCLCBOD@Invalid?5choice?5for?5the?5fifth?5arg@ 1001be88     libffgen:useasm.obj
 0001:0001aed8       ??_C@_0DC@FMNAGAJ@No?5flags?5are?5valid?5for?5the?5fifth@ 1001bed8     libffgen:useasm.obj
 0001:0001af10       ??_C@_0FK@HNEAMMLH@Invalid?5choice?5for?5the?5fourth?5ar@ 1001bf10     libffgen:useasm.obj
 0001:0001af6c       ??_C@_0DE@HFBEDGPO@No?5flags?5are?5valid?5for?5the?5fourt@ 1001bf6c     libffgen:useasm.obj
 0001:0001afa0       ??_C@_0EC@PPEKPMIP@The?5fourth?5argument?5to?5asop2?5sho@ 1001bfa0     libffgen:useasm.obj
 0001:0001afe8       ??_C@_0FO@OLALHECM@Invalid?5choice?5for?5the?5third?5arg@ 1001bfe8     libffgen:useasm.obj
 0001:0001b048       ??_C@_0DE@CMCBMCHC@Only?5?4comp?5is?5valid?5for?5the?5thir@ 1001c048     libffgen:useasm.obj
 0001:0001b080       ??_C@_0EB@OGKIIKPK@The?5third?5argument?5to?5asop2?5shou@ 1001c080     libffgen:useasm.obj
 0001:0001b0c8       ??_C@_0GB@FOOKGLAG@Invalid?5choice?5for?5the?5second?5ar@ 1001c0c8     libffgen:useasm.obj
 0001:0001b12c       ??_C@_0DF@BKFNFPMB@Only?5?4comp?5is?5valid?5for?5the?5seco@ 1001c12c     libffgen:useasm.obj
 0001:0001b168       ??_C@_0EC@JKPDJLLN@The?5second?5argument?5to?5asop2?5sho@ 1001c168     libffgen:useasm.obj
 0001:0001b1ac       ??_C@_0DD@KLICCPHA@No?5flags?5are?5valid?5for?5the?5first@ 1001c1ac     libffgen:useasm.obj
 0001:0001b1e0       ??_C@_0EB@BIMJBGCB@The?5first?5argument?5to?5asop2?5shou@ 1001c1e0     libffgen:useasm.obj
 0001:0001b224       ??_C@_0CB@PNFMFKCL@sop2?5must?5be?5coissued?5with?5asop2@ 1001c224     libffgen:useasm.obj
 0001:0001b248       ??_C@_0BG@BCKONFFM@sop2?5must?5be?5coissued?$AA@ 1001c248     libffgen:useasm.obj
 0001:0001b260       ??_C@_0FJ@BADDHEFO@Invalid?5choice?5for?5the?5seventh?5a@ 1001c260     libffgen:useasm.obj
 0001:0001b2bc       ??_C@_0DE@KEDJMMFI@No?5flags?5are?5valid?5for?5the?5seven@ 1001c2bc     libffgen:useasm.obj
 0001:0001b2f0       ??_C@_0EC@HGMCGKBA@The?5seventh?5argument?5to?5sop2?5sho@ 1001c2f0     libffgen:useasm.obj
 0001:0001b338       ??_C@_0HE@GKGLGGOL@Invalid?5choice?5for?5the?5sixth?5arg@ 1001c338     libffgen:useasm.obj
 0001:0001b3ac       ??_C@_0DM@OGJGMIAI@Only?5the?5?4comp?5flag?5is?5valid?5for@ 1001c3ac     libffgen:useasm.obj
 0001:0001b3e8       ??_C@_0EA@JBHMMHBL@The?5sixth?5argument?5to?5sop2?5shoul@ 1001c3e8     libffgen:useasm.obj
 0001:0001b428       ??_C@_0HG@HJBDHCLG@Invalid?5choice?5for?5the?5fifth?5arg@ 1001c428     libffgen:useasm.obj
 0001:0001b4a0       ??_C@_0DM@OEOABLFP@Only?5the?5?4comp?5flag?5is?5valid?5for@ 1001c4a0     libffgen:useasm.obj
 0001:0001b4e0       ??_C@_0EA@PEDOBCNH@The?5fifth?5argument?5to?5sop2?5shoul@ 1001c4e0     libffgen:useasm.obj
 0001:0001b520       ??_C@_0FB@HBOJEBLF@Invalid?5choices?5for?5the?5fourth?5a@ 1001c520     libffgen:useasm.obj
 0001:0001b574       ??_C@_0CK@DBEGJBPP@Integer?5source?5selectors?5aren?8t?5@ 1001c574     libffgen:useasm.obj
 0001:0001b5a0       ??_C@_0DD@GDJINGEN@No?5flags?5are?5valid?5for?5the?5fourt@ 1001c5a0     libffgen:useasm.obj
 0001:0001b5d8       ??_C@_0EB@JLEKLKIL@The?5fourth?5argument?5to?5sop2?5shou@ 1001c5d8     libffgen:useasm.obj
 0001:0001b61c       ??_C@_0DF@CEJLKMBG@Only?5nearest?5rounding?5is?5support@ 1001c61c     libffgen:useasm.obj
 0001:0001b654       ??_C@_0CM@OHMDJNLO@An?5integer?5source?5selector?5can?8t@ 1001c654     libffgen:useasm.obj
 0001:0001b680       ??_C@_0DC@PDLMCMGO@No?5flags?5are?5valid?5for?5an?5intege@ 1001c680     libffgen:useasm.obj
 0001:0001b6b8       ??_C@_0EP@KFBPJKBI@The?5fourth?5argument?5to?5a?5pack?5in@ 1001c6b8     libffgen:useasm.obj
 0001:0001b708       ??_C@_0DM@CMGEAEEG@Invalid?5bytemask?5specified?5?$CIlega@ 1001c708     libffgen:useasm.obj
 0001:0001b748       ??_C@_0FK@IMCFLHOE@Invalid?5bytemask?5specified?5?$CIlega@ 1001c748     libffgen:useasm.obj
 0001:0001b7a4       ??_C@_0DD@DLOGHDFD@The?5renable?5flag?5isn?8t?5supported@ 1001c7a4     libffgen:useasm.obj
 0001:0001b7d8       ??_C@_0EO@CDMEKOCM@The?5renable?5flag?5is?5only?5valid?5w@ 1001c7d8     libffgen:useasm.obj
 0001:0001b828       ??_C@_0FI@FHLKJJEN@The?5scale?5flag?5is?5only?5valid?5whe@ 1001c828     libffgen:useasm.obj
 0001:0001b880       ??_C@_0EN@JPNNFBOP@Only?5?4bytemask1111?5is?5supported?5@ 1001c880     libffgen:useasm.obj
 0001:0001b8d0       ??_C@_0FG@MFNCNONI@Only?5?4bytemask1111?5is?5supported?5@ 1001c8d0     libffgen:useasm.obj
 0001:0001b928       ??_C@_0CD@GKODKEJP@The?5maximum?5predicate?5number?5is?5@ 1001c928     libffgen:useasm.obj
 0001:0001b94c       ??_C@_0CF@LNBFBGED@Predicate?5registers?5can?8t?5be?5ind@ 1001c94c     libffgen:useasm.obj
 0001:0001b974       ??_C@_0DF@HMHEIKHA@No?5flags?5are?5valid?5for?5the?5predi@ 1001c974     libffgen:useasm.obj
 0001:0001b9ac       ??_C@_0CP@OJDGHEAF@The?5second?5argument?5to?5rlp?5must?5@ 1001c9ac     libffgen:useasm.obj
 0001:0001b9e0       ??_C@_0IC@NPHCGHMI@An?5immediate?5source?5argument?5to?5@ 1001c9e0     libffgen:useasm.obj
 0001:0001ba64       ??_C@_0DA@KAKEJMDJ@A?5mask?5is?5not?5valid?5on?5a?5dotprod@ 1001ca64     libffgen:useasm.obj
 0001:0001ba94       ??_C@_0DC@PDHCBKCD@A?5repeat?5is?5not?5valid?5on?5a?5dotpr@ 1001ca94     libffgen:useasm.obj
 0001:0001bac8       ??_C@_0EI@JILLLJML@This?5instruction?5isn?8t?5available@ 1001cac8     libffgen:useasm.obj
 0001:0001bb10       ??_C@_0DC@NCLFMCHI@fpadd8?1fpsub8?5is?5only?5valid?5with@ 1001cb10     libffgen:useasm.obj
 0001:0001bb44       ??_C@_0DB@JHGOCNIO@imul8?1imulu8?5is?5only?5valid?5with?5@ 1001cb44     libffgen:useasm.obj
 0001:0001bb78       ??_C@_0CE@PCBCMLOI@The?5maximum?5clip?5plane?5number?5is@ 1001cb78     libffgen:useasm.obj
 0001:0001bb9c       ??_C@_0CH@BBGNDHF@A?5clip?5plane?5argument?5is?5not?5ind@ 1001cb9c     libffgen:useasm.obj
 0001:0001bbc4       ??_C@_0CM@KGNDPEIK@No?5flags?5are?5valid?5for?5a?5clippla@ 1001cbc4     libffgen:useasm.obj
 0001:0001bbf0       ??_C@_0EL@OICFHNIF@The?5second?5argument?5to?5a?5fdpc?5in@ 1001cbf0     libffgen:useasm.obj
 0001:0001bc3c       ??_C@_0DI@HLMNAEHK@Only?5i0?5and?5i1?5may?5be?5destinatio@ 1001cc3c     libffgen:useasm.obj
 0001:0001bc74       ??_C@_0CF@KCFJPPBJ@Internal?5registers?5are?5not?5index@ 1001cc74     libffgen:useasm.obj
 0001:0001bc9c       ??_C@_0DF@KGNOHAA@No?5flags?5are?5valid?5for?5an?5intern@ 1001cc9c     libffgen:useasm.obj
 0001:0001bcd8       ??_C@_0FC@GFPCKLPP@The?5second?5argument?5to?5a?5fddp?5in@ 1001ccd8     libffgen:useasm.obj
 0001:0001bd30       ??_C@_0EL@NPBIKIOJ@The?5fourth?5argument?5to?5a?5fdpc?5in@ 1001cd30     libffgen:useasm.obj
 0001:0001bd80       ??_C@_0EL@DBBJIGNF@The?5third?5argument?5to?5a?5fddpc?5in@ 1001cd80     libffgen:useasm.obj
 0001:0001bdd0       ??_C@_0FD@HOIBEICL@The?5second?5argument?5to?5a?5fddpc?5i@ 1001cdd0     libffgen:useasm.obj
 0001:0001be28       ??_C@_0EG@LBAJMGGK@A?5movc?5instruction?5must?5specify?5@ 1001ce28     libffgen:useasm.obj
 0001:0001be70       ??_C@_0GA@OJMMLLIA@On?5this?5processor?5MOVC?5on?5C10?5fo@ 1001ce70     libffgen:useasm.obj
 0001:0001bed0       ??_C@_0DP@CLFDAIAM@A?5movc?5instruction?5must?5include?5@ 1001ced0     libffgen:useasm.obj
 0001:0001bf10       ??_C@_0DG@EDCHLIHP@Only?5?4tz?0?5?4t?$CBz?0?5?4tn?5or?5?4tp?$HMz?5are@ 1001cf10     libffgen:useasm.obj
 0001:0001bf48       ??_C@_0FL@OJDHBDDM@The?5instruction?5is?5affected?5by?5B@ 1001cf48     libffgen:useasm.obj
 0001:0001bfa8       ??_C@_0IC@ONGMFPGB@The?5instruction?5is?5affected?5by?5B@ 1001cfa8     libffgen:useasm.obj
 0001:0001c02c       ??_C@_0DP@GHIBIMHL@The?5maximum?5repeat?5count?5for?5an?5@ 1001d02c     libffgen:useasm.obj
 0001:0001c070       ??_C@_0EC@JJHLNPNF@The?5seventh?5argument?5to?5sop2wm?5i@ 1001d070     libffgen:useasm.obj
 0001:0001c0b4       ??_C@_0DG@GBFNJGMB@No?5flags?5are?5valid?5for?5the?5seven@ 1001d0b4     libffgen:useasm.obj
 0001:0001c0f0       ??_C@_0EE@EGJILBFH@The?5seventh?5argument?5to?5sop2wm?5s@ 1001d0f0     libffgen:useasm.obj
 0001:0001c138       ??_C@_0EA@HOMFHCNO@The?5sixth?5argument?5to?5sop2wm?5is?5@ 1001d138     libffgen:useasm.obj
 0001:0001c178       ??_C@_0DE@FDGMDKAF@No?5flags?5are?5valid?5for?5the?5sixth@ 1001d178     libffgen:useasm.obj
 0001:0001c1b0       ??_C@_0EC@NALFAHH@The?5sixth?5argument?5to?5sop2wm?5sho@ 1001d1b0     libffgen:useasm.obj
 0001:0001c1f4       ??_C@_0DP@BGLACGDG@The?5fifth?5argument?5to?5sop2wm?5is?5@ 1001d1f4     libffgen:useasm.obj
 0001:0001c234       ??_C@_0DM@MLIHGKIL@Only?5?4comp?5is?5a?5valid?5flag?5for?5t@ 1001d234     libffgen:useasm.obj
 0001:0001c270       ??_C@_0EC@JMPNILCM@The?5fifth?5argument?5to?5sop2wm?5sho@ 1001d270     libffgen:useasm.obj
 0001:0001c2b8       ??_C@_0EA@NCGPJLOA@The?5fourth?5argument?5to?5sop2wm?5is@ 1001d2b8     libffgen:useasm.obj
 0001:0001c2f8       ??_C@_0DN@NLJCHBJL@Only?5?4comp?5is?5a?5valid?5flag?5for?5t@ 1001d2f8     libffgen:useasm.obj
 0001:0001c338       ??_C@_0ED@FCPONNNK@The?5fourth?5argument?5to?5sop2wm?5sh@ 1001d338     libffgen:useasm.obj
 0001:0001c380       ??_C@_0EN@MDJOPIF@Invalid?5choice?5for?5the?5third?5arg@ 1001d380     libffgen:useasm.obj
 0001:0001c3d0       ??_C@_0DC@DCENAPP@No?5flags?5are?5valid?5for?5the?5third@ 1001d3d0     libffgen:useasm.obj
 0001:0001c404       ??_C@_0DO@EELLDBBD@The?5third?5argument?5to?5asop?5must?5@ 1001d404     libffgen:useasm.obj
 0001:0001c448       ??_C@_0HF@CBIPLOPP@Invalid?5choice?5for?5the?5second?5ar@ 1001d448     libffgen:useasm.obj
 0001:0001c4c0       ??_C@_0DL@GPHBDAAM@Only?5?4comp?5is?5a?5valid?5flag?5for?5t@ 1001d4c0     libffgen:useasm.obj
 0001:0001c4fc       ??_C@_0DP@KOIBPLMG@The?5second?5argument?5to?5asop?5must@ 1001d4fc     libffgen:useasm.obj
 0001:0001c540       ??_C@_0HE@JFMMNFAC@Invalid?5choice?5for?5the?5first?5arg@ 1001d540     libffgen:useasm.obj
 0001:0001c5b4       ??_C@_0DK@OKDCCLBL@Only?5?4comp?5is?5a?5valid?5flag?5for?5t@ 1001d5b4     libffgen:useasm.obj
 0001:0001c5f0       ??_C@_0DO@EOKHKJGH@The?5first?5argument?5to?5asop?5must?5@ 1001d5f0     libffgen:useasm.obj
 0001:0001c630       ??_C@_0CA@LJJNKDND@lrp1?5must?5be?5coissued?5with?5asop?$AA@ 1001d630     libffgen:useasm.obj
 0001:0001c650       ??_C@_0BH@DOCDFOCO@lrp1?5must?5be?5coisssued?$AA@ 1001d650     libffgen:useasm.obj
 0001:0001c668       ??_C@_0BG@CHKAJNEL@lrp1?5must?5be?5coissued?$AA@ 1001d668     libffgen:useasm.obj
 0001:0001c680       ??_C@_0EO@FKMJCGBG@Invalid?5choice?5for?5the?5seventh?5a@ 1001d680     libffgen:useasm.obj
 0001:0001c6d0       ??_C@_0DE@MPNHBAIK@No?5flags?5are?5valid?5for?5the?5seven@ 1001d6d0     libffgen:useasm.obj
 0001:0001c708       ??_C@_0EB@NCENCBNO@The?5seventh?5argument?5to?5lrp1?5mus@ 1001d708     libffgen:useasm.obj
 0001:0001c750       ??_C@_0EN@NGJPOHKM@Invalid?5choice?5for?5the?5sixth?5arg@ 1001d750     libffgen:useasm.obj
 0001:0001c7a0       ??_C@_0DM@INHIBENK@Only?5the?5?4comp?5flag?5is?5valid?5for@ 1001d7a0     libffgen:useasm.obj
 0001:0001c7dc       ??_C@_0DP@NEMNCNNA@The?5sixth?5argument?5to?5lrp1?5must?5@ 1001d7dc     libffgen:useasm.obj
 0001:0001c820       ??_C@_0FA@BCOHELNN@Invalid?5choice?5for?5the?5fifth?5arg@ 1001d820     libffgen:useasm.obj
 0001:0001c870       ??_C@_0CM@KDAMEKKC@An?5integer?5source?5selector?5is?5no@ 1001d870     libffgen:useasm.obj
 0001:0001c89c       ??_C@_0DM@IPAOMHIN@Only?5the?5?4comp?5flag?5is?5valid?5for@ 1001d89c     libffgen:useasm.obj
 0001:0001c8d8       ??_C@_0DP@CGMBCHII@The?5fifth?5argument?5to?5lrp1?5must?5@ 1001d8d8     libffgen:useasm.obj
 0001:0001c918       ??_C@_0EJ@KJLKFMN@Only?5zero?0?5one?5and?5s2a?5are?5valid@ 1001d918     libffgen:useasm.obj
 0001:0001c964       ??_C@_0DE@FDNIJKHO@Only?5?4comp?5is?5valid?5for?5the?5seco@ 1001d964     libffgen:useasm.obj
 0001:0001c998       ??_C@_0DP@GCMJDOBH@The?5second?5argument?5to?5alrp?5must@ 1001d998     libffgen:useasm.obj
 0001:0001c9d8       ??_C@_0EI@POLJNHOP@Only?5zero?0?5one?5and?5s1a?5are?5valid@ 1001d9d8     libffgen:useasm.obj
 0001:0001ca20       ??_C@_0DD@LEOOHHIE@Only?5?4comp?5is?5valid?5for?5the?5firs@ 1001da20     libffgen:useasm.obj
 0001:0001ca54       ??_C@_0DO@ICOPGMLG@The?5first?5argument?5to?5alrp?5must?5@ 1001da54     libffgen:useasm.obj
 0001:0001ca94       ??_C@_0CA@BBLPFF@lrp2?5must?5be?5coissued?5with?5alrp?$AA@ 1001da94     libffgen:useasm.obj
 0001:0001cab4       ??_C@_0BG@IEPGBLOC@lrp2?5must?5be?5coissued?$AA@ 1001dab4     libffgen:useasm.obj
 0001:0001cad0       ??_C@_0FD@JFBMKMNH@Invalid?5choice?5for?5the?5seventh?5a@ 1001dad0     libffgen:useasm.obj
 0001:0001cb28       ??_C@_0EN@GMGJLELO@If?5the?5seventh?5argument?5to?5lrp2?5@ 1001db28     libffgen:useasm.obj
 0001:0001cb78       ??_C@_0FB@FJHLFMAN@If?5the?5seventh?5argument?5to?5lrp2?5@ 1001db78     libffgen:useasm.obj
 0001:0001cbd0       ??_C@_0EP@GBKEKGGN@If?5the?5seventh?5argument?5to?5lrp2?5@ 1001dbd0     libffgen:useasm.obj
 0001:0001cc20       ??_C@_0EK@MPPLIHCI@If?5the?5seventh?5argument?5to?5lrp2?5@ 1001dc20     libffgen:useasm.obj
 0001:0001cc6c       ??_C@_0DN@BJBDMCPE@Only?5the?5?4comp?5flag?5is?5valid?5for@ 1001dc6c     libffgen:useasm.obj
 0001:0001ccb0       ??_C@_0EA@MACNPBPH@The?5eighth?5argument?5to?5lrp2?5must@ 1001dcb0     libffgen:useasm.obj
 0001:0001ccf0       ??_C@_0DO@GLBNDEGP@Only?5the?5?4comp?5flag?5is?5valid?5for@ 1001dcf0     libffgen:useasm.obj
 0001:0001cd30       ??_C@_0EB@JPKFCBLJ@The?5seventh?5argument?5to?5lrp2?5mus@ 1001dd30     libffgen:useasm.obj
 0001:0001cd78       ??_C@_0HH@IBAGBKNH@Invalid?5choice?5for?5the?5sixth?5arg@ 1001dd78     libffgen:useasm.obj
 0001:0001cdf0       ??_C@_0DM@KGFFEHBJ@Only?5the?5?4comp?5flag?5is?5valid?5for@ 1001ddf0     libffgen:useasm.obj
 0001:0001ce2c       ??_C@_0DP@JJCFCNLH@The?5sixth?5argument?5to?5lrp2?5must?5@ 1001de2c     libffgen:useasm.obj
 0001:0001ce70       ??_C@_0HI@KGJMFIGE@Invalid?5choice?5for?5the?5fifth?5arg@ 1001de70     libffgen:useasm.obj
 0001:0001cee8       ??_C@_0DM@PNPLCKBO@Only?5the?5?4comp?5flag?5is?5valid?5for@ 1001dee8     libffgen:useasm.obj
 0001:0001cf24       ??_C@_0DP@JFIMNECE@The?5fifth?5argument?5to?5sop3?5must?5@ 1001df24     libffgen:useasm.obj
 0001:0001cf68       ??_C@_0EP@LFLPCFJM@Invalid?5choice?5for?5the?5second?5ar@ 1001df68     libffgen:useasm.obj
 0001:0001cfb8       ??_C@_0DE@GEPIHLDC@No?5flags?5are?5valid?5for?5the?5secon@ 1001dfb8     libffgen:useasm.obj
 0001:0001cff0       ??_C@_0EA@CILJPHKB@The?5second?5argument?5to?5arsop?5mus@ 1001dff0     libffgen:useasm.obj
 0001:0001d030       ??_C@_0FO@BGCOGJJP@Invalid?5choice?5for?5the?5first?5arg@ 1001e030     libffgen:useasm.obj
 0001:0001d090       ??_C@_0DE@LFEIHKHD@Only?5?4comp?5is?5valid?5for?5the?5firs@ 1001e090     libffgen:useasm.obj
 0001:0001d0c4       ??_C@_0DP@IJIIECIN@The?5first?5argument?5to?5arsop?5must@ 1001e0c4     libffgen:useasm.obj
 0001:0001d108       ??_C@_0EK@DIJKPKNM@SOP3?5with?5ARSOP?5and?5a?5complement@ 1001e108     libffgen:useasm.obj
 0001:0001d158       ??_C@_0EO@BNBKMGBP@Invalid?5choice?5for?5the?5second?5ar@ 1001e158     libffgen:useasm.obj
 0001:0001d1a8       ??_C@_0DD@KDAMLAMK@No?5flags?5are?5valid?5for?5the?5secon@ 1001e1a8     libffgen:useasm.obj
 0001:0001d1e0       ??_C@_0FN@ONPCNNEO@Invalid?5choice?5for?5the?5first?5arg@ 1001e1e0     libffgen:useasm.obj
 0001:0001d240       ??_C@_0DD@KIGKAAGO@Only?5?4comp?5is?5valid?5for?5the?5firs@ 1001e240     libffgen:useasm.obj
 0001:0001d278       ??_C@_0FE@LNCOBNA@Invalid?5choice?5for?5the?5first?5arg@ 1001e278     libffgen:useasm.obj
 0001:0001d2d0       ??_C@_0FE@JJEFPIJ@Invalid?5choice?5for?5the?5first?5arg@ 1001e2d0     libffgen:useasm.obj
 0001:0001d328       ??_C@_0ED@PGOFNOAD@sop3?5with?5a?5negate?5destination?5m@ 1001e328     libffgen:useasm.obj
 0001:0001d36c       ??_C@_0CE@OHCGBBLC@sop3?5without?5a?5coissued?5instruct@ 1001e36c     libffgen:useasm.obj
 0001:0001d390       ??_C@_0BG@MFEMFFAE@sop3?5must?5be?5coissued?$AA@ 1001e390     libffgen:useasm.obj
 0001:0001d3a8       ??_C@_0EL@GLFHPIPJ@Invalid?5choice?5for?5eighth?5argume@ 1001e3a8     libffgen:useasm.obj
 0001:0001d3f8       ??_C@_0EA@DOIIACDM@The?5eighth?5argument?5to?5sop3?5must@ 1001e3f8     libffgen:useasm.obj
 0001:0001d438       ??_C@_0EP@LLOJFENH@Invalid?5choice?5for?5the?5seventh?5a@ 1001e438     libffgen:useasm.obj
 0001:0001d488       ??_C@_0DE@LNCCPNBJ@No?5flags?5are?5valid?5for?5the?5seven@ 1001e488     libffgen:useasm.obj
 0001:0001d4c0       ??_C@_0EB@GBAANCHC@The?5seventh?5argument?5to?5sop3?5mus@ 1001e4c0     libffgen:useasm.obj
 0001:0001d508       ??_C@_0HE@NOFOGDCI@Invalid?5choice?5for?5the?5sixth?5arg@ 1001e508     libffgen:useasm.obj
 0001:0001d57c       ??_C@_0DK@GPFHLHKL@Only?5?4comp?5is?5a?5valid?5flag?5for?5t@ 1001e57c     libffgen:useasm.obj
 0001:0001d5b8       ??_C@_0DP@GHIANOHM@The?5sixth?5argument?5to?5sop3?5must?5@ 1001e5b8     libffgen:useasm.obj
 0001:0001d5f8       ??_C@_0HE@OENIBECC@Invalid?5choice?5for?5the?5fifth?5arg@ 1001e5f8     libffgen:useasm.obj
 0001:0001d66c       ??_C@_0DK@GNCBGEPM@Only?5?4comp?5is?5a?5valid?5flag?5for?5t@ 1001e66c     libffgen:useasm.obj
 0001:0001d6a8       ??_C@_0BH@NMPINIEC@sop3?5can?8t?5be?5repeated?$AA@ 1001e6a8     libffgen:useasm.obj
 0001:0001d6c0       ??_C@_0DK@OMANMEPM@Only?5s2a?5is?5a?5valid?5choice?5for?5t@ 1001e6c0     libffgen:useasm.obj
 0001:0001d6fc       ??_C@_0DK@DPJMNKAL@Only?5?4comp?5is?5a?5valid?5flag?5for?5t@ 1001e6fc     libffgen:useasm.obj
 0001:0001d738       ??_C@_0DP@BFGILNHD@The?5tenth?5argument?5to?5ima8?5must?5@ 1001e738     libffgen:useasm.obj
 0001:0001d778       ??_C@_0DL@FMNMANPN@Only?5s1a?5is?5a?5valid?5choice?5for?5t@ 1001e778     libffgen:useasm.obj
 0001:0001d7b4       ??_C@_0DL@PMLPCLJP@Only?5?4comp?5is?5a?5valid?5flag?5for?5t@ 1001e7b4     libffgen:useasm.obj
 0001:0001d7f0       ??_C@_0EA@OKAGHCFL@The?5nineth?5argument?5to?5ima8?5must@ 1001e7f0     libffgen:useasm.obj
 0001:0001d830       ??_C@_0ED@FKCOCDED@Only?5s0a?5and?5s1a?5are?5valid?5choic@ 1001e830     libffgen:useasm.obj
 0001:0001d874       ??_C@_0DL@HABGHCJK@Only?5?4comp?5is?5a?5valid?5flag?5for?5t@ 1001e874     libffgen:useasm.obj
 0001:0001d8b0       ??_C@_0EA@EABBPNKK@The?5eighth?5argument?5to?5ima8?5must@ 1001e8b0     libffgen:useasm.obj
 0001:0001d8f0       ??_C@_0ED@FDKGPKDC@Only?5s2?5and?5s2a?5are?5valid?5choice@ 1001e8f0     libffgen:useasm.obj
 0001:0001d934       ??_C@_0DM@LBKALADI@Only?5?4comp?5is?5a?5valid?5flag?5for?5t@ 1001e934     libffgen:useasm.obj
 0001:0001d970       ??_C@_0EB@BPJJCNOE@The?5seventh?5argument?5to?5ima8?5mus@ 1001e970     libffgen:useasm.obj
 0001:0001d9b8       ??_C@_0EB@CLJBDDPJ@Only?5s1?5and?5s1a?5are?5valid?5choice@ 1001e9b8     libffgen:useasm.obj
 0001:0001d9fc       ??_C@_0DK@BBBOOAIP@Only?5?4comp?5is?5a?5valid?5flag?5for?5t@ 1001e9fc     libffgen:useasm.obj
 0001:0001da38       ??_C@_0DP@BJBJCBOK@The?5sixth?5argument?5to?5ima8?5must?5@ 1001ea38     libffgen:useasm.obj
 0001:0001da78       ??_C@_0EK@KADHKBHD@Only?5s0?0?5s1?0?5s0a?5and?5s1a?5are?5val@ 1001ea78     libffgen:useasm.obj
 0001:0001dac4       ??_C@_0DK@BDGIDDNI@Only?5?4comp?5is?5a?5valid?5flag?5for?5t@ 1001eac4     libffgen:useasm.obj
 0001:0001db00       ??_C@_0DP@OLBFCLLC@The?5fifth?5argument?5to?5ima8?5must?5@ 1001eb00     libffgen:useasm.obj
 0001:0001db40       ??_C@_0EK@HCFFGHCH@Third?5argument?5to?5ima16?5is?58?9bit@ 1001eb40     libffgen:useasm.obj
 0001:0001db90       ??_C@_0EL@EFNHNPFP@Second?5argument?5to?5ima16?5is?58?9bi@ 1001eb90     libffgen:useasm.obj
 0001:0001dbdc       ??_C@_0DD@DHKGKKGN@No?5flags?5are?5valid?5for?5the?5sixth@ 1001ebdc     libffgen:useasm.obj
 0001:0001dc10       ??_C@_0CM@KFKJJGEN@The?5sixth?5argument?5to?5ima16?5isn?8@ 1001ec10     libffgen:useasm.obj
 0001:0001dc3c       ??_C@_0DC@FLFMKFFD@The?5sixth?5argument?5to?5ima16?5must@ 1001ec3c     libffgen:useasm.obj
 0001:0001dc70       ??_C@_0EN@LDKLHMAN@Invalid?5source?5data?5format?5for?5i@ 1001ec70     libffgen:useasm.obj
 0001:0001dcc0       ??_C@_0DD@MCKLBIOJ@No?5flags?5are?5valid?5for?5the?5fifth@ 1001ecc0     libffgen:useasm.obj
 0001:0001dcf4       ??_C@_0CM@LHIIENBO@The?5fifth?5argument?5to?5ima16?5isn?8@ 1001ecf4     libffgen:useasm.obj
 0001:0001dd20       ??_C@_0DC@CIEPCOAH@The?5fifth?5argument?5to?5ima16?5must@ 1001ed20     libffgen:useasm.obj
 0001:0001dd54       ??_C@_0DJ@KMFCNFLN@Only?5one?5of?5?4s?5and?5?4u?5can?5be?5spe@ 1001ed54     libffgen:useasm.obj
 0001:0001dd90       ??_C@_0DN@LMMEBOND@The?5maximum?5destination?5shift?5fo@ 1001ed90     libffgen:useasm.obj
 0001:0001ddd0       ??_C@_0EA@BEAJFKLN@The?5maximum?5register?5number?5for?5@ 1001edd0     libffgen:useasm.obj
 0001:0001de10       ??_C@_0CL@DOOAPBOB@The?5eighth?5source?5to?5imae?5can?8t?5@ 1001ee10     libffgen:useasm.obj
 0001:0001de3c       ??_C@_0DB@PKHIFEJJ@No?5flags?5are?5valid?5for?5the?5eight@ 1001ee3c     libffgen:useasm.obj
 0001:0001de70       ??_C@_0EI@OMIBHEJN@The?5eighth?5source?5to?5imae?5should@ 1001ee70     libffgen:useasm.obj
 0001:0001deb8       ??_C@_0EH@DLKGLNI@Only?5cie?5or?5nothing?5are?5valid?5ch@ 1001eeb8     libffgen:useasm.obj
 0001:0001df00       ??_C@_0DE@MMHOIJCE@No?5flags?5are?5valid?5for?5the?5seven@ 1001ef00     libffgen:useasm.obj
 0001:0001df34       ??_C@_0CN@IKCGDAFI@The?5seventh?5argument?5to?5imae?5isn@ 1001ef34     libffgen:useasm.obj
 0001:0001df64       ??_C@_0DE@IAOPODPF@The?5seventh?5argument?5to?5imae?5mus@ 1001ef64     libffgen:useasm.obj
 0001:0001df98       ??_C@_0EF@JBDPGDKG@Only?5coe?5or?5nothing?5are?5valid?5ch@ 1001ef98     libffgen:useasm.obj
 0001:0001dfe0       ??_C@_0DC@GPPMJACC@No?5flags?5are?5valid?5for?5the?5sixth@ 1001efe0     libffgen:useasm.obj
 0001:0001e014       ??_C@_0CL@CDIKAGGM@The?5sixth?5argument?5to?5imae?5isn?8t@ 1001f014     libffgen:useasm.obj
 0001:0001e040       ??_C@_0DC@HDJGOJKK@The?5sixth?5argument?5to?5imae?5must?5@ 1001f040     libffgen:useasm.obj
 0001:0001e074       ??_C@_0DD@DNBAOKIA@?4low?5and?5?4high?5are?5meaningless?5f@ 1001f074     libffgen:useasm.obj
 0001:0001e0a8       ??_C@_0EG@PNOIEBGC@One?5of?5?4low?5or?5?4high?5should?5be?5s@ 1001f0a8     libffgen:useasm.obj
 0001:0001e0f0       ??_C@_0EH@DLDLJEEK@One?5of?5?4low?5or?5?4high?5should?5be?5s@ 1001f0f0     libffgen:useasm.obj
 0001:0001e138       ??_C@_0EG@HGBJOGAP@One?5of?5?4low?5or?5?4high?5should?5be?5s@ 1001f138     libffgen:useasm.obj
 0001:0001e180       ??_C@_0BN@MCMCHHHO@Invalid?5data?5format?5for?5imae?$AA@ 1001f180     libffgen:useasm.obj
 0001:0001e1a0       ??_C@_0DC@GNIKEDHF@No?5flags?5are?5valid?5for?5the?5fifth@ 1001f1a0     libffgen:useasm.obj
 0001:0001e1d4       ??_C@_0CL@LFLIAFDF@The?5fifth?5argument?5to?5imae?5isn?8t@ 1001f1d4     libffgen:useasm.obj
 0001:0001e200       ??_C@_0DB@NOAIOELF@The?5fifth?5argument?5to?5imae?5must?5@ 1001f200     libffgen:useasm.obj
 0001:0001e234       ??_C@_0DM@EHOELKCO@The?5maximum?5destination?5shift?5fo@ 1001f234     libffgen:useasm.obj
 0001:0001e270       ??_C@_0DE@JCLFGKBG@Maximum?5repeat?5count?5on?5an?5integ@ 1001f270     libffgen:useasm.obj
 0001:0001e2a8       ??_C@_0EG@JFIEFIAN@Only?5u8?5or?5s8?5are?5valid?5as?5a?5cho@ 1001f2a8     libffgen:useasm.obj
 0001:0001e2f0       ??_C@_0DF@BFAJNMNE@No?5flags?5are?5valid?5for?5the?5ninet@ 1001f2f0     libffgen:useasm.obj
 0001:0001e328       ??_C@_0EB@EPNJCIMP@The?5nineth?5argument?5to?5ssum16?5mu@ 1001f328     libffgen:useasm.obj
 0001:0001e370       ??_C@_0EM@CDDPPEDE@Only?5iadd?5or?5nothing?5is?5valid?5as@ 1001f370     libffgen:useasm.obj
 0001:0001e3bc       ??_C@_0DF@HKMJENGI@No?5flags?5are?5valid?5for?5the?5eight@ 1001f3bc     libffgen:useasm.obj
 0001:0001e3f8       ??_C@_0EB@IFMJPNMK@The?5eighth?5argument?5to?5ssum16?5mu@ 1001f3f8     libffgen:useasm.obj
 0001:0001e440       ??_C@_0ED@OAGGGGIH@Only?5i0?5or?5r1?5valid?5as?5a?5choice?5@ 1001f440     libffgen:useasm.obj
 0001:0001e484       ??_C@_0CF@BGFEHLBP@An?5internal?5register?5isn?8t?5index@ 1001f484     libffgen:useasm.obj
 0001:0001e4ac       ??_C@_0DG@GDJPLBEI@No?5flags?5are?5valid?5for?5the?5seven@ 1001f4ac     libffgen:useasm.obj
 0001:0001e4e8       ??_C@_0EC@BEPCBJIN@The?5seventh?5argument?5to?5ssum16?5m@ 1001f4e8     libffgen:useasm.obj
 0001:0001e530       ??_C@_0EL@BECKFGPA@Only?5iadd?5or?5nothing?5is?5valid?5as@ 1001f530     libffgen:useasm.obj
 0001:0001e57c       ??_C@_0DE@FBKOBNIM@No?5flags?5are?5valid?5for?5the?5sixth@ 1001f57c     libffgen:useasm.obj
 0001:0001e5b0       ??_C@_0EA@PDEMLEIG@The?5sixth?5argument?5to?5ssum16?5mus@ 1001f5b0     libffgen:useasm.obj
 0001:0001e5f0       ??_C@_0EL@HFHGKGHC@Only?5idst?5or?5nothing?5is?5valid?5as@ 1001f5f0     libffgen:useasm.obj
 0001:0001e63c       ??_C@_0CL@KCGNBGBH@An?5integer?5source?5selector?5isn?8t@ 1001f63c     libffgen:useasm.obj
 0001:0001e668       ??_C@_0DE@LLIOFHAH@No?5flags?5are?5valid?5for?5the?5fifth@ 1001f668     libffgen:useasm.obj
 0001:0001e6a0       ??_C@_0EA@JGAOGBEK@The?5fifth?5argument?5to?5ssum16?5mus@ 1001f6a0     libffgen:useasm.obj
 0001:0001e6e0       ??_C@_0DE@IJOOAFAA@Maximum?5repeat?5count?5on?5an?5SSUM1@ 1001f6e0     libffgen:useasm.obj
 0001:0001e714       ??_C@_0CJ@EGABLJED@ssum16?5isn?8t?5available?5on?5this?5p@ 1001f714     libffgen:useasm.obj
 0001:0001e740       ??_C@_0EL@LEHINHKP@Only?5scale?5or?5nothing?5is?5valid?5a@ 1001f740     libffgen:useasm.obj
 0001:0001e78c       ??_C@_0DD@MBMDINHI@No?5flags?5are?5valid?5for?5the?5eight@ 1001f78c     libffgen:useasm.obj
 0001:0001e7c0       ??_C@_0DP@DNLIJOFH@The?5eighth?5argument?5to?5firv?5must@ 1001f7c0     libffgen:useasm.obj
 0001:0001e800       ??_C@_0EL@PLEHJOGF@Only?5iadd?5or?5nothing?5is?5valid?5as@ 1001f800     libffgen:useasm.obj
 0001:0001e84c       ??_C@_0DE@LOMDNFBJ@No?5flags?5are?5valid?5for?5the?5seven@ 1001f84c     libffgen:useasm.obj
 0001:0001e880       ??_C@_0EA@LAOANIGO@The?5seventh?5argument?5to?5firv?5mus@ 1001f880     libffgen:useasm.obj
 0001:0001e8c0       ??_C@_0EM@PPMBHMLB@Only?5?$CLsrc2?42?5or?5nothing?5is?5valid@ 1001f8c0     libffgen:useasm.obj
 0001:0001e90c       ??_C@_0DC@BNEBMMBP@No?5flags?5are?5valid?5for?5the?5sixth@ 1001f90c     libffgen:useasm.obj
 0001:0001e940       ??_C@_0DO@IGFJMJCL@The?5sixth?5argument?5to?5firv?5must?5@ 1001f940     libffgen:useasm.obj
 0001:0001e980       ??_C@_0CL@MDHBFNJL@The?5fifth?5argument?5to?5firv?5isn?8t@ 1001f980     libffgen:useasm.obj
 0001:0001e9ac       ??_C@_0DC@BPDHBPEI@No?5flags?5are?5valid?5for?5the?5fifth@ 1001f9ac     libffgen:useasm.obj
 0001:0001e9e0       ??_C@_0DP@LCJNOCNN@The?5fifth?5argument?5to?5firv?5must?5@ 1001f9e0     libffgen:useasm.obj
 0001:0001ea20       ??_C@_0HP@FKECLPEM@The?5register?5bank?5for?5firv?5sourc@ 1001fa20     libffgen:useasm.obj
 0001:0001eaa0       ??_C@_0EG@NEGMNEOD@The?5register?5banks?5for?5source?50?5@ 1001faa0     libffgen:useasm.obj
 0001:0001eae8       ??_C@_0CD@BDBMNPHP@Maximum?5repeat?5count?5on?5firv?5is?5@ 1001fae8     libffgen:useasm.obj
 0001:0001eb10       ??_C@_0EK@MMLIIHNN@Only?5scale?5or?5nothing?5is?5valid?5a@ 1001fb10     libffgen:useasm.obj
 0001:0001eb60       ??_C@_0EJ@NGJACPPH@Only?5iadd?5or?5nothing?5is?5valid?5as@ 1001fb60     libffgen:useasm.obj
 0001:0001ebac       ??_C@_0DO@OIFDNPHI@The?5fifth?5argument?5to?5firv?5must?5@ 1001fbac     libffgen:useasm.obj
 0001:0001ebf0       ??_C@_0EN@EIOOMBFD@Only?5?$CLsrc2?42?5or?5nothing?5is?5valid@ 1001fbf0     libffgen:useasm.obj
 0001:0001ec40       ??_C@_0DP@FGKELBIB@The?5fourth?5argument?5to?5firv?5must@ 1001fc40     libffgen:useasm.obj
 0001:0001ec80       ??_C@_0EE@EGNLBLOB@The?5register?5bank?5for?5firvh?5sour@ 1001fc80     libffgen:useasm.obj
 0001:0001ecc4       ??_C@_0CE@HBKLLEAA@Maximum?5repeat?5count?5on?5firvh?5is@ 1001fcc4     libffgen:useasm.obj
 0001:0001ece8       ??_C@_0CI@CFGKFHCM@firvh?5isn?8t?5available?5on?5this?5pr@ 1001fce8     libffgen:useasm.obj
 0001:0001ed10       ??_C@_0EA@CNFLJPLE@The?5nineth?5argument?5to?5bilin?5mus@ 1001fd10     libffgen:useasm.obj
 0001:0001ed50       ??_C@_0DE@OJKKKHIL@No?5flags?5are?5valid?5for?5the?5ninet@ 1001fd50     libffgen:useasm.obj
 0001:0001ed84       ??_C@_0CN@DJDNLEIC@The?5nineth?5argument?5to?5bilin?5isn@ 1001fd84     libffgen:useasm.obj
 0001:0001edb4       ??_C@_0DH@HFBBMNAM@The?5nineth?5argument?5to?5bilin?5mus@ 1001fdb4     libffgen:useasm.obj
 0001:0001edf0       ??_C@_0EA@OPFHNAEG@The?5eighth?5argument?5to?5bilin?5mus@ 1001fdf0     libffgen:useasm.obj
 0001:0001ee30       ??_C@_0DE@JJEMPKFN@No?5flags?5are?5valid?5for?5the?5eight@ 1001fe30     libffgen:useasm.obj
 0001:0001ee64       ??_C@_0CN@MBAHDJDB@The?5eighth?5argument?5to?5bilin?5isn@ 1001fe64     libffgen:useasm.obj
 0001:0001ee98       ??_C@_0EJ@BIMEJMPB@The?5eighth?5argument?5to?5bilin?5mus@ 1001fe98     libffgen:useasm.obj
 0001:0001eee8       ??_C@_0EB@LANPAAAI@The?5seventh?5argument?5to?5bilin?5mu@ 1001fee8     libffgen:useasm.obj
 0001:0001ef2c       ??_C@_0DF@KDIGKLML@No?5flags?5are?5valid?5for?5the?5seven@ 1001ff2c     libffgen:useasm.obj
 0001:0001ef64       ??_C@_0CO@HELDAPEL@The?5seventh?5argument?5to?5bilin?5is@ 1001ff64     libffgen:useasm.obj
 0001:0001ef98       ??_C@_0EF@CJMNJFOI@The?5seventh?5argument?5to?5bilin?5mu@ 1001ff98     libffgen:useasm.obj
 0001:0001efe0       ??_C@_0EG@CPMAHDPO@The?5sixth?5argument?5to?5bilin?5must@ 1001ffe0     libffgen:useasm.obj
 0001:0001f028       ??_C@_0DD@EKEGIMOH@No?5flags?5are?5valid?5for?5the?5sixth@ 10020028     libffgen:useasm.obj
 0001:0001f05c       ??_C@_0CM@FFKOFHMI@The?5sixth?5argument?5to?5bilin?5isn?8@ 1002005c     libffgen:useasm.obj
 0001:0001f088       ??_C@_0EA@HDMMDEFM@The?5sixth?5argument?5to?5bilin?5must@ 10020088     libffgen:useasm.obj
 0001:0001f0c8       ??_C@_0EA@BGIOOBJA@The?5fifth?5argument?5to?5bilin?5must@ 100200c8     libffgen:useasm.obj
 0001:0001f108       ??_C@_0DD@LPELDOGD@No?5flags?5are?5valid?5for?5the?5fifth@ 10020108     libffgen:useasm.obj
 0001:0001f13c       ??_C@_0CM@EHIPIMJL@The?5fifth?5argument?5to?5bilin?5isn?8@ 1002013c     libffgen:useasm.obj
 0001:0001f168       ??_C@_0EB@ILBDCOKI@The?5fifth?5argument?5to?5bilin?5must@ 10020168     libffgen:useasm.obj
 0001:0001f1ac       ??_C@_0CE@PONMLKAD@Maximum?5repeat?5count?5on?5bilin?5is@ 100201ac     libffgen:useasm.obj
 0001:0001f1d0       ??_C@_0DE@JHKIEKPM@The?5range?5of?5the?5nineth?5argument@ 100201d0     libffgen:useasm.obj
 0001:0001f204       ??_C@_0DH@KHNFKIAG@The?5nineth?5argument?5to?5firh?5must@ 10020204     libffgen:useasm.obj
 0001:0001f23c       ??_C@_0DF@JCFPNCKH@The?5range?5of?5the?5eighth?5argument@ 1002023c     libffgen:useasm.obj
 0001:0001f274       ??_C@_0DH@BGJCEECP@The?5eighth?5argument?5to?5firh?5must@ 10020274     libffgen:useasm.obj
 0001:0001f2ac       ??_C@_0CI@HEOOLMFP@The?5maximum?5filter?5coefficent?5se@ 100202ac     libffgen:useasm.obj
 0001:0001f2d4       ??_C@_0DC@CJJPPKOA@No?5flags?5are?5valid?5for?5a?5filter?5@ 100202d4     libffgen:useasm.obj
 0001:0001f308       ??_C@_0CI@BPHBGDKA@Filter?5coefficent?5sets?5aren?8t?5in@ 10020308     libffgen:useasm.obj
 0001:0001f330       ??_C@_0DN@NIIJMAFI@The?5seventh?5argument?5to?5firh?5mus@ 10020330     libffgen:useasm.obj
 0001:0001f370       ??_C@_0CK@MCCCMAME@No?5flags?5are?5valid?5for?5an?5immedi@ 10020370     libffgen:useasm.obj
 0001:0001f39c       ??_C@_0CE@BOJPMEGF@An?5immediate?5value?5is?5not?5indexa@ 1002039c     libffgen:useasm.obj
 0001:0001f3c0       ??_C@_0DK@HBKJDJHH@The?5sixth?5argument?5to?5firh?5must?5@ 100203c0     libffgen:useasm.obj
 0001:0001f3fc       ??_C@_0DC@MLHGCAJH@No?5flags?5are?5valid?5for?5the?5fifth@ 100203fc     libffgen:useasm.obj
 0001:0001f430       ??_C@_0CL@PEPPBDAK@The?5fifth?5argument?5to?5firh?5isn?8t@ 10020430     libffgen:useasm.obj
 0001:0001f45c       ??_C@_0DN@JOJEKONN@The?5fifth?5argument?5to?5firh?5must?5@ 1002045c     libffgen:useasm.obj
 0001:0001f4a0       ??_C@_0HP@FIJDICNA@The?5register?5bank?5for?5firh?5sourc@ 100204a0     libffgen:useasm.obj
 0001:0001f520       ??_C@_0EG@FDFDPJHP@The?5register?5banks?5for?5source?50?5@ 10020520     libffgen:useasm.obj
 0001:0001f568       ??_C@_0CD@HKCNPMGG@Maximum?5repeat?5count?5on?5firh?5is?5@ 10020568     libffgen:useasm.obj
 0001:0001f58c       ??_C@_0DP@DKFIGMEP@The?5destination?5argument?5to?5firh@ 1002058c     libffgen:useasm.obj
 0001:0001f5cc       ??_C@_0DF@BDOGECIG@The?5range?5of?5the?5nineth?5argument@ 100205cc     libffgen:useasm.obj
 0001:0001f604       ??_C@_0DI@PJONGPDL@The?5nineth?5argument?5to?5firhh?5mus@ 10020604     libffgen:useasm.obj
 0001:0001f63c       ??_C@_0DG@KGIDPMLA@The?5range?5of?5the?5eighth?5argument@ 1002063c     libffgen:useasm.obj
 0001:0001f674       ??_C@_0DI@LLOOLALL@The?5eighth?5argument?5to?5firhh?5mus@ 10020674     libffgen:useasm.obj
 0001:0001f6ac       ??_C@_0DO@EEFEJEHK@The?5seventh?5argument?5to?5firhh?5mu@ 100206ac     libffgen:useasm.obj
 0001:0001f6ec       ??_C@_0DL@OHNCDOMJ@The?5sixth?5argument?5to?5firhh?5must@ 100206ec     libffgen:useasm.obj
 0001:0001f728       ??_C@_0DD@MDIEJBGI@No?5flags?5are?5valid?5for?5the?5fifth@ 10020728     libffgen:useasm.obj
 0001:0001f75c       ??_C@_0CM@DLIOMDAE@The?5fifth?5argument?5to?5firhh?5isn?8@ 1002075c     libffgen:useasm.obj
 0001:0001f788       ??_C@_0DO@NGNIOBOG@The?5fifth?5argument?5to?5firhh?5must@ 10020788     libffgen:useasm.obj
 0001:0001f7c8       ??_C@_0IA@FCFJDLLG@The?5register?5bank?5for?5firhh?5sour@ 100207c8     libffgen:useasm.obj
 0001:0001f848       ??_C@_0EH@HPAOOKCK@The?5register?5banks?5for?5source?50?5@ 10020848     libffgen:useasm.obj
 0001:0001f890       ??_C@_0CE@BFKJCNOD@Maximum?5repeat?5count?5on?5firhh?5is@ 10020890     libffgen:useasm.obj
 0001:0001f8b4       ??_C@_0CI@CPDCNICP@firhh?5isn?8t?5available?5on?5this?5pr@ 100208b4     libffgen:useasm.obj
 0001:0001f8dc       ??_C@_0DK@PJMBECMK@On?5this?5core?5SMP?5result?5format?5c@ 100208dc     libffgen:useasm.obj
 0001:0001f918       ??_C@_0DJ@PFEOBFIJ@Valid?5values?5for?5argument?5?$CFd?5to?5@ 10020918     libffgen:useasm.obj
 0001:0001f954       ??_C@_0CL@LOGACLKI@The?5maximum?5number?5of?5a?5drc?5regi@ 10020954     libffgen:useasm.obj
 0001:0001f980       ??_C@_0DJ@KMKOLKOO@No?5flags?5are?5valid?5for?5a?5depende@ 10020980     libffgen:useasm.obj
 0001:0001f9c0       ??_C@_0EE@BEFGELHF@A?5dependent?5read?5counter?5registe@ 100209c0     libffgen:useasm.obj
 0001:0001fa08       ??_C@_0FI@CPMJEANO@The?5fourth?5argument?5to?5a?5sampler@ 10020a08     libffgen:useasm.obj
 0001:0001fa60       ??_C@_0FD@LADDBKEH@The?5destination?5for?5a?5SMP?5must?5b@ 10020a60     libffgen:useasm.obj
 0001:0001fab4       ??_C@_0CM@KHPAMMAK@The?5destination?5for?5an?5SMP?5can?8t@ 10020ab4     libffgen:useasm.obj
 0001:0001fae0       ??_C@_0DC@EEBJMIBO@A?5?$CFs?5instruction?5can?8t?5be?5predic@ 10020ae0     libffgen:useasm.obj
 0001:0001fb14       ??_C@_0DC@OJMFLOPA@A?5repeat?5count?5isn?8t?5supported?5o@ 10020b14     libffgen:useasm.obj
 0001:0001fb48       ??_C@_0FD@KGBKPKPH@The?5last?5argument?5to?5a?5load?5inst@ 10020b48     libffgen:useasm.obj
 0001:0001fb9c       ??_C@_0CL@NHIEGIGG@The?5destination?5for?5an?5LD?5can?8t?5@ 10020b9c     libffgen:useasm.obj
 0001:0001fbc8       ??_C@_0FD@DHDGKGAN@The?5destination?5for?5an?5LD?5must?5b@ 10020bc8     libffgen:useasm.obj
 0001:0001fc1c       ??_C@_0DD@ECJPHDDF@A?5load?1store?5can?8t?5be?5both?5pre?9?5@ 10020c1c     libffgen:useasm.obj
 0001:0001fc50       ??_C@_0FC@LJJNHLCE@?$CFs?5can?8t?5be?5used?5with?5non?9pre?1po@ 10020c50     libffgen:useasm.obj
 0001:0001fca8       ??_C@_0EN@GCEEDLLB@Pre?1post?9increment?5can?8t?5be?5spec@ 10020ca8     libffgen:useasm.obj
 0001:0001fcf8       ??_C@_0ED@IMFMHAAP@Source?51?5can?8t?5be?5immediate?5for?5@ 10020cf8     libffgen:useasm.obj
 0001:0001fd3c       ??_C@_0CA@BFMOGGHL@?$CFs?5isn?8t?5supported?5on?5this?5core?$AA@ 10020d3c     libffgen:useasm.obj
 0001:0001fd5c       ??_C@_0DC@DNHACGFH@?4fcfill?5and?5?4bypassl1?5can?8t?5be?5s@ 10020d5c     libffgen:useasm.obj
 0001:0001fd90       ??_C@_0DD@BEGMGHDH@?4bpcache?5and?5?4bypassl1?5can?8t?5be?5@ 10020d90     libffgen:useasm.obj
 0001:0001fdc4       ??_C@_0DB@JCFACDNN@?4bpcache?5and?5?4fcfill?5can?8t?5be?5sp@ 10020dc4     libffgen:useasm.obj
 0001:0001fdf8       ??_C@_0DD@COOIGJEM@Pn?5isn?8t?5a?5valid?5predicate?5for?5b@ 10020df8     libffgen:useasm.obj
 0001:0001fe2c       ??_C@_0DI@ONNLHFNB@The?5argument?5to?5a?5branch?5must?5be@ 10020e2c     libffgen:useasm.obj
 0001:0001fe64       ??_C@_0DI@LKENEFMD@Only?5drc0?5can?5be?5used?5with?5PBE?5d@ 10020e64     libffgen:useasm.obj
 0001:0001fe9c       ??_C@_0BL@DDAKDDCD@Invalid?5data?5path?5selector?$AA@ 10020e9c     libffgen:useasm.obj
 0001:0001feb8       ??_C@_0CM@EIBHGDCN@No?5flags?5are?5valid?5for?5a?5data?5pa@ 10020eb8     libffgen:useasm.obj
 0001:0001fee4       ??_C@_0CG@LCIGPPNF@A?5data?5path?5selector?5is?5not?5inde@ 10020ee4     libffgen:useasm.obj
 0001:0001ff0c       ??_C@_0DI@IKADLPJL@The?5second?5argument?5to?5idf?5must?5@ 10020f0c     libffgen:useasm.obj
 0001:0001ff44       ??_C@_0CG@EBPDKBAA@The?5maximum?5drc?5register?5number?5@ 10020f44     libffgen:useasm.obj
 0001:0001ff6c       ??_C@_0CG@NKPGJMIA@No?5flags?5are?5valid?5for?5a?5drc?5reg@ 10020f6c     libffgen:useasm.obj
 0001:0001ff94       ??_C@_0CA@BNCKADBN@A?5drc?5register?5is?5not?5indexable?$AA@ 10020f94     libffgen:useasm.obj
 0001:0001ffb4       ??_C@_0DB@EIJIPLBA@The?5first?5argument?5to?5idf?5must?5b@ 10020fb4     libffgen:useasm.obj
 0001:0001ffe8       ??_C@_0CL@HOIKEHND@The?5argument?5to?5wdf?5must?5be?5a?5dr@ 10020fe8     libffgen:useasm.obj
 0001:00020014       ??_C@_0DI@ECFOFJCH@The?5last?5argument?5to?5an?5emit?5mus@ 10021014     libffgen:useasm.obj
 0001:00020050       ??_C@_0EE@FPKMHEIB@The?5maximum?5immediate?5value?5for?5@ 10021050     libffgen:useasm.obj
 0001:00020094       ??_C@_0DJ@EENABCEN@The?5first?5argument?5to?5an?5emit?5mu@ 10021094     libffgen:useasm.obj
 0001:000200d0       ??_C@_0CF@OIPADGLP@?$CFs?5isn?8t?5supported?5on?5this?5proce@ 100210d0     libffgen:useasm.obj
 0001:000200f8       ??_C@_0CL@BLKOKIML@No?5flags?5are?5valid?5for?5argument?5@ 100210f8     libffgen:useasm.obj
 0001:00020128       ??_C@_0FK@GPIOMEID@Argument?5?$CFd?5to?5smoa?5is?5not?5a?5leg@ 10021128     libffgen:useasm.obj
 0001:00020184       ??_C@_0CM@OICCJGCF@Argument?5?$CFd?5to?5smoa?5must?5be?5an?5a@ 10021184     libffgen:useasm.obj
 0001:000201b0       ??_C@_0CL@BPCDNEHJ@No?5flags?5are?5valid?5for?5argument?5@ 100211b0     libffgen:useasm.obj
 0001:000201dc       ??_C@_0CF@KHLJFLDD@Argument?5?$CFd?5to?5smoa?5can?8t?5be?5ind@ 100211dc     libffgen:useasm.obj
 0001:00020208       ??_C@_0EB@LMPOCDMD@Argument?5?$CFd?5to?5smoa?5is?5out?5of?5ra@ 10021208     libffgen:useasm.obj
 0001:0002024c       ??_C@_0CP@JENPMIGB@Argument?5?$CFd?5to?5smoa?5must?5be?5an?5i@ 1002124c     libffgen:useasm.obj
 0001:00020280       ??_C@_0EI@CHCGIOOA@Loading?5the?5MOE?5state?5from?5regis@ 10021280     libffgen:useasm.obj
 0001:000202c8       ??_C@_0DA@OPFKEKGA@Argument?5?$CFd?5to?5smlsi?5should?5be?5a@ 100212c8     libffgen:useasm.obj
 0001:000202f8       ??_C@_0EG@BJPEDDED@Argument?5?$CFd?5to?5smlsi?5is?5out?5of?5r@ 100212f8     libffgen:useasm.obj
 0001:00020340       ??_C@_0DA@FCAKILOF@Argument?5?$CFd?5to?5smlsi?5must?5be?5an?5@ 10021340     libffgen:useasm.obj
 0001:00020370       ??_C@_0CM@LFIFLNIO@No?5flags?5are?5valid?5for?5argument?5@ 10021370     libffgen:useasm.obj
 0001:0002039c       ??_C@_0CG@PJFPKLPN@Argument?5?$CFd?5to?5smlsi?5can?8t?5be?5in@ 1002139c     libffgen:useasm.obj
 0001:000203c4       ??_C@_0DP@NNLBIBNI@Argument?5?$CFd?5to?5smlsi?5is?5out?5of?5r@ 100213c4     libffgen:useasm.obj
 0001:00020404       ??_C@_0CL@MJEEEJFH@Argument?5?$CFd?5to?5smlsi?5isn?8t?5a?5val@ 10021404     libffgen:useasm.obj
 0001:00020430       ??_C@_0DM@BDMFEIMC@Argument?5?$CFd?5uses?5component?5selec@ 10021430     libffgen:useasm.obj
 0001:0002046c       ??_C@_0DN@CBDPLAND@Argument?5?$CFd?5to?5smlsi?5must?5be?5an?5@ 1002146c     libffgen:useasm.obj
 0001:000204b0       ??_C@_0EH@PIBJEHLO@Loading?5the?5MOE?5state?5from?5regis@ 100214b0     libffgen:useasm.obj
 0001:000204f8       ??_C@_0CJ@GGNGAINM@No?5flags?5are?5valid?5for?5argument?5@ 100214f8     libffgen:useasm.obj
 0001:00020524       ??_C@_0CD@DAICKOIL@Argument?5?$CFd?5to?5?$CFs?5can?8t?5be?5index@ 10021524     libffgen:useasm.obj
 0001:00020548       ??_C@_0DL@DAGJDBAJ@Argument?5?$CFd?5to?5?$CFs?5is?5out?5of?5rang@ 10021548     libffgen:useasm.obj
 0001:00020584       ??_C@_0DN@OPLIFLFN@Argument?5?$CFd?5to?5imo?5is?5out?5of?5ran@ 10021584     libffgen:useasm.obj
 0001:000205c4       ??_C@_0DH@LBKJPHME@Argument?5?$CFd?5to?5smr?1smbo?1imo?5must@ 100215c4     libffgen:useasm.obj
 0001:00020600       ??_C@_0EC@LGDHIHKO@Loading?5the?5MOE?5state?5from?5regis@ 10021600     libffgen:useasm.obj
 0001:00020644       ??_C@_03DKPPLHHB@imo?$AA@  10021644     libffgen:useasm.obj
 0001:00020648       ??_C@_04OHNFNFAF@smbo?$AA@ 10021648     libffgen:useasm.obj
 0001:00020650       ??_C@_03PKDHGMJG@smr?$AA@  10021650     libffgen:useasm.obj
 0001:00020654       ??_C@_0CM@PAFKAACO@No?5flags?5are?5valid?5for?5argument?5@ 10021654     libffgen:useasm.obj
 0001:00020680       ??_C@_0CG@JIFDPGCJ@Argument?5?$CFd?5to?5setfc?5can?8t?5be?5in@ 10021680     libffgen:useasm.obj
 0001:000206a8       ??_C@_0DA@FIKLGADO@Argument?5?$CFd?5to?5setfc?5is?5must?5be?5@ 100216a8     libffgen:useasm.obj
 0001:000206d8       ??_C@_0DA@PNIDFAOJ@Argument?5?$CFd?5to?5setfc?5must?5be?5an?5@ 100216d8     libffgen:useasm.obj
 0001:00020708       ??_C@_0DC@IGFMAGID@Only?5?$CFd?5mutex?$CIes?$CJ?5are?5supported?5@ 10021708     libffgen:useasm.obj
 0001:0002073c       ??_C@_0CE@FKFABDHJ@An?5immediate?5value?5can?8t?5be?5inde@ 1002173c     libffgen:useasm.obj
 0001:00020760       ??_C@_0CK@FKJKMHCB@No?5flags?5are?5valid?5for?5the?5argum@ 10021760     libffgen:useasm.obj
 0001:0002078c       ??_C@_0CI@GKLFIIMC@The?5argument?5to?5?$CFs?5must?5be?5an?5im@ 1002178c     libffgen:useasm.obj
 0001:000207b4       ??_C@_0DB@KGKPELKC@The?5third?5argument?5to?5ldr?5must?5b@ 100217b4     libffgen:useasm.obj
 0001:000207e8       ??_C@_0EP@HFAIINHO@The?5destination?5for?5ldr?5must?5be?5@ 100217e8     libffgen:useasm.obj
 0001:00020838       ??_C@_0CJ@PBDIHBBP@The?5destination?5for?5ldr?5can?8t?5be@ 10021838     libffgen:useasm.obj
 0001:00020868       ??_C@_0EI@IMBJAMEN@The?5maximum?5immediate?5value?5for?5@ 10021868     libffgen:useasm.obj
 0001:000208b0       ??_C@_0DP@EOJFCBDD@The?5seventh?5argument?5to?5atst8?5mu@ 100218b0     libffgen:useasm.obj
 0001:000208f0       ??_C@_0DC@GPFGCALA@An?5integer?5source?5selector?5value@ 100218f0     libffgen:useasm.obj
 0001:00020924       ??_C@_0DM@KLBODCDM@The?5sixth?5argument?5to?5atst8?5must@ 10021924     libffgen:useasm.obj
 0001:00020960       ??_C@_0EF@HHNKPNHB@No?5flags?5except?5disable?5writebac@ 10021960     libffgen:useasm.obj
 0001:000209a8       ??_C@_0CG@EAILMAJF@A?5predicate?5register?5is?5not?5inde@ 100219a8     libffgen:useasm.obj
 0001:000209d0       ??_C@_0DP@IJEBNLPN@The?5destination?5argument?5to?5atst@ 100219d0     libffgen:useasm.obj
 0001:00020a10       ??_C@_0DJ@CANNFGLC@The?5fifth?5argument?5to?5depthf?5mus@ 10021a10     libffgen:useasm.obj
 0001:00020a4c       ??_C@_0DO@JJIFGFHO@The?5fourth?5argument?5to?5depthf?5mu@ 10021a4c     libffgen:useasm.obj
 0001:00020a8c       ??_C@_0DG@DJLDOPBE@The?5maximum?5monitor?5supported?5on@ 10021a8c     libffgen:useasm.obj
 0001:00020ac4       ??_C@_0CM@EANNIMNI@Monitors?5aren?8t?5supported?5on?5thi@ 10021ac4     libffgen:useasm.obj
 0001:00020af0       ??_C@_0DA@NGKNOLIJ@The?5argument?5to?5setm?5must?5be?5an?5@ 10021af0     libffgen:useasm.obj
 0001:00020b20       ??_C@_0CK@FLEIDBJB@The?5maximum?5immediate?5value?5for?5@ 10021b20     libffgen:useasm.obj
 0001:00020b4c       ??_C@_0CP@KDAJINNH@The?5argument?5to?5wop?5must?5be?5an?5i@ 10021b4c     libffgen:useasm.obj
 0001:00020b7c       ??_C@_0BI@KBNBGPKO@Label?5?$CFs?5is?5not?5defined?$AA@ 10021b7c     libffgen:useasm.obj
 0001:00020b98       ??_C@_0FE@IHGKPDOF@c?3?2data?2jatin?2powervr_build?2ddk1@ 10021b98     libffgen:useopt.obj
 0001:00020bec       ??_C@_05IFLALIBK@optdw?$AA@ 10021bec     libffgen:source.obj
 0001:00020bf4       ??_C@_03LIEDBED@s16?$AA@   10021bf4     libffgen:source.obj
 0001:00020bf8       ??_C@_04GHDHELMI@off8?$AA@ 10021bf8     libffgen:source.obj
 0001:00020c00       ??_C@_08LLIKPMEL@labeloff?$AA@ 10021c00     libffgen:source.obj
 0001:00020c0c       ??_C@_08EPOLLDFJ@fltcoeff?$AA@ 10021c0c     libffgen:source.obj
 0001:00020c18       ??_C@_04ODJBGLAL@swiz?$AA@ 10021c18     libffgen:source.obj
 0001:00020c20       ??_C@_02JJPIJCBA@am?$AA@   10021c20     libffgen:source.obj
 0001:00020c24       ??_C@_03HOKBAJJB@DRC?$AA@  10021c24     libffgen:source.obj
 0001:00020d78       ??_C@_02NCGPMEBG@?$DL?6?$AA@ 10021d78     libffgen:source.obj
 0001:00020d7c       ??_C@_05IKIGCGFN@?5?$DN?5?$CFs?$AA@ 10021d7c     libffgen:source.obj
 0001:00020d84       ??_C@_02BNFKEMBG@st?$AA@   10021d84     libffgen:source.obj
 0001:00020d88       ??_C@_0CF@GKLIFJCO@PrintInstruction?3?5Reg?5was?5null?5?$CI@ 10021d88     libffgen:source.obj
 0001:00020db0       ??_C@_02FNOLPAKA@?$FN?0?$AA@ 10021db0     libffgen:source.obj
 0001:00020db4       ??_C@_01DNKMNLPK@?$HM?$AA@ 10021db4     libffgen:source.obj
 0001:00020db8       ??_C@_01HNPIGOCE@?$CG?$AA@ 10021db8     libffgen:source.obj
 0001:00020dbc       ??_C@_05GONFBBNP@?4test?$AA@ 10021dbc     libffgen:source.obj
 0001:00020dc4       ??_C@_06MKLKBADG@?4rpt?$CFu?$AA@ 10021dc4     libffgen:source.obj
 0001:00020dcc       ??_C@_08EALCOMAA@?4fetch?$CFu?$AA@ 10021dcc     libffgen:source.obj
 0001:00020dd8       ??_C@_04JAFNDJDI@p?$CFu?5?$AA@ 10021dd8     libffgen:source.obj
 0001:00020de0       ??_C@_05CLENLJBF@?$CBp?$CFu?5?$AA@ 10021de0     libffgen:source.obj
 0001:00020de8       ??_C@_02NDKNKOCB@?3?6?$AA@ 10021de8     libffgen:source.obj
 0001:00020dec       ??_C@_05KNGEMANF@?$CF4u?3?5?$AA@ 10021dec     libffgen:source.obj
 0001:00020df4       ??_C@_04PFOHOKJK@?5?5?5?5?$AA@ 10021df4     libffgen:source.obj
 0001:00020dfc       ??_C@_06GGLIPOFD@?5?5?5?5?5?5?$AA@ 10021dfc     libffgen:source.obj
 0001:00020e04       ??_C@_0DM@JIMMHBN@?5?$CK?$CK?$CK?$CK?$CK?$CK?$CK?$CK?$CK?$CK?$CK?$CK?$CK?$CK?$CK?$CK?$CK?$CK?$CK?$CK?$CK?$CK?$CK?$CK?$CK?$CK?$CK?$CK?$CK?$CK?$CK@ 10021e04     libffgen:source.obj
 0001:00020e40       ??_C@_01NBENCBCI@?$CK?$AA@ 10021e40     libffgen:source.obj
 0001:00020e44       ??_C@_04JHMNIPCI@?5?$CK?$CK?5?$AA@ 10021e44     libffgen:source.obj
 0001:00020e4c       ??_C@_0DK@CCMOKFHB@?1?$CK?$CK?$CK?$CK?$CK?$CK?$CK?$CK?$CK?$CK?$CK?$CK?$CK?$CK?$CK?$CK?$CK?$CK?$CK?$CK?$CK?$CK?$CK?$CK?$CK?$CK?$CK?$CK?$CK?$CK?$CK@ 10021e4c     libffgen:source.obj
 0001:00020e88       ??_C@_01EEMJAFIK@?6?$AA@   10021e88     libffgen:source.obj
 0001:00020e8c       ??_C@_04POGNIBOL@?5?$CK?1?6?$AA@ 10021e8c     libffgen:source.obj
 0001:00020e94       ??_C@_03IGLEHIBP@?1?$CK?5?$AA@ 10021e94     libffgen:source.obj
 0001:00020e98       ??_C@_03PCJIPBFG@?4?$CFu?$AA@ 10021e98     libffgen:source.obj
 0001:00020e9c       ??_C@_0BC@FJKPDHOO@?4bytemask?$CFd?$CFd?$CFd?$CFd?$AA@ 10021e9c     libffgen:source.obj
 0001:00020eb0       ??_C@_02JPEJKMKI@?4h?$AA@  10021eb0     libffgen:source.obj
 0001:00020eb4       ??_C@_02PLCFGJKM@?4l?$AA@  10021eb4     libffgen:source.obj
 0001:00020eb8       ??_C@_0N@EJAJPGAH@?$CFs?$FL?$CFs?5?$CL?5?$CD?$CFu?$FN?$AA@ 10021eb8     libffgen:source.obj
 0001:00020ec8       ??_C@_03HGCBCCP@i?4h?$AA@  10021ec8     libffgen:source.obj
 0001:00020ecc       ??_C@_03GDAONHCL@i?4l?$AA@ 10021ecc     libffgen:source.obj
 0001:00020ed0       ??_C@_06PHKAGBKB@?$CFs?$FL?$CFu?$FN?$AA@ 10021ed0     libffgen:source.obj
 0001:00020ed8       ??_C@_06PDCNBNBD@?$CFs?$FL?$CFs?$FN?$AA@ 10021ed8     libffgen:source.obj
 0001:00020ee0       ??_C@_0N@KEEAPGMC@?$CFs?$FL?$CFu?5?$CFc?5?$CFu?$FN?$AA@ 10021ee0     libffgen:source.obj
 0001:00020ef0       ??_C@_0N@NHFKIPEI@?$CFs?$FL?$CFs?5?$CFc?5?$CFu?$FN?$AA@ 10021ef0     libffgen:source.obj
 0001:00020f00       ??_C@_0CI@IDCGLGFO@PrintReg?3?5Error?0?5reg?5type?5out?5of@ 10021f00     libffgen:source.obj
 0001:00020f28       ??_C@_04EEFHOPMO@?$CFs?$CFf?$AA@ 10021f28     libffgen:source.obj
 0001:00020f30       ??_C@_06KEGKAONF@?$CFs0x?$CFx?$AA@ 10021f30     libffgen:source.obj
 0001:00020f38       ??_C@_04CFLIKOFM@?$CFs?$CFu?$AA@ 10021f38     libffgen:source.obj
 0001:00020f40       ??_C@_0N@IINDHOMC@?$CFs?$CI?$CFu?5?$CFc?5?$CFu?$CJ?$AA@ 10021f40     libffgen:source.obj
 0001:00020f50       ??_C@_05NNFHCGPF@?$CFs?4?$CFs?$AA@ 10021f50     libffgen:source.obj
 0001:00020f58       ??_C@_02OMFHPFAG@lh?$AA@   10021f58     libffgen:source.obj
 0001:00020f60       ??_C@_0GD@GIHFPGCF@smlsi?5?$CD?$CFu?0?5?$CD?$CFu?0?5?$CD?$CFu?0?5?$CD?$CFu?0?5increm@ 10021f60     libffgen:source.obj
 0001:00020fc4       ??_C@_0BK@IHKBOHFI@smbo?5?$CD?$CFu?0?5?$CD?$CFu?0?5?$CD?$CFu?0?5?$CD?$CFu?$DL?6?$AA@ 10021fc4     libffgen:source.obj
 0001:00020fe0       ??_C@_04LNIFONHD@?$CK?1?6?6?$AA@ 10021fe0     libffgen:source.obj
 0001:00020fe8       ??_C@_0BP@GLAFHHCP@?7Outputs?5redirected?5to?5inputs?6?$AA@ 10021fe8     libffgen:source.obj
 0001:00021008       ??_C@_0BM@LHCBPBLI@?7Temps?5Size?5?5?5?5?5?5?5?5?5?5?5?$DN?5?$CFu?6?$AA@ 10022008     libffgen:source.obj
 0001:00021024       ??_C@_0BM@NGFAGAFN@?7?5?5Mem?5Constants?5Size?5?$DN?5?$CFu?6?$AA@ 10022024     libffgen:source.obj
 0001:00021040       ??_C@_0BM@GCJDPHJN@?7?5?5Sec?5attribs?5size?5?5?5?$DN?5?$CFu?6?$AA@ 10022040     libffgen:source.obj
 0001:0002105c       ??_C@_0BM@PEIPDFJC@?7Constants?5?5?5size?5?5?5?5?5?$DN?5?$CFu?6?$AA@ 1002205c     libffgen:source.obj
 0001:00021078       ??_C@_0BM@KDPKKEDC@?7Outputs?5Size?5?5?5?5?5?5?5?5?5?$DN?5?$CFu?6?$AA@ 10022078     libffgen:source.obj
 0001:00021094       ??_C@_0BM@FCMJJKIG@?7Inputs?5Size?5?5?5?5?5?5?5?5?5?5?$DN?5?$CFu?6?$AA@ 10022094     libffgen:source.obj
 0001:000210b0       ??_C@_0BN@FILPKBFI@?6?7Num?5instructions?5?5?5?5?5?$DN?5?$CFu?6?$AA@ 100220b0     libffgen:source.obj
 0001:000210d0       ??_C@_0CE@PGHCKEHJ@?6?7Constants?5Register?5description@ 100220d0     libffgen:source.obj
 0001:000210f4       ??_C@_02KGHIDFGE@?$HN?6?$AA@ 100220f4     libffgen:source.obj
 0001:000210f8       ??_C@_03BKPMHLPH@?$CFud?$AA@ 100220f8     libffgen:source.obj
 0001:000210fc       ??_C@_0CL@CEMAKOAB@?6?7Output?5Texture?5coordinate?5dime@ 100220fc     libffgen:source.obj
 0001:00021128       ??_C@_0CB@LEMOEDJI@?6?7Output?5Register?5descriptions?6?6@ 10022128     libffgen:source.obj
 0001:0002114c       ??_C@_0CC@PKCJHBHM@?1?$CK?6?7Input?5Register?5descriptions?6@ 1002214c     libffgen:source.obj
 0001:00021170       ??_C@_0BB@HKGMBMCF@?7?5bytes?5?$FL?$CFu?4?4?$CFu?$FN?$AA@ 10022170     libffgen:source.obj
 0001:00021184       ??_C@_0CO@DJKNGCMD@?7UNKNOWN?5?5?5?5?5?5?5?5?5?5?5?5?5?5?5?5?5?5?5?5?5?5?5?5@ 10022184     libffgen:source.obj
 0001:000211b4       ??_C@_0CO@IBBMNGOH@?7PMXPOINTSIZE?5?5?5?5?5?5?5?5?5?5?5?5?5?5?5?5?5?5?5@ 100221b4     libffgen:source.obj
 0001:000211e4       ??_C@_0CO@CPCLLCIL@?7PMXFOGPARAM?5?5?5?5?5?5?5?5?5?5?5?5?5?5?5?5?5?5?5?5@ 100221e4     libffgen:source.obj
 0001:00021214       ??_C@_0CO@BAKCDDEL@?7OBJECTPLANEQ?5?5?5?5?5?5?5?5?5?5?5?5?5?5?5?5?5?5?5@ 10022214     libffgen:source.obj
 0001:00021244       ??_C@_0CO@HNCEMABB@?7OBJECTPLANER?5?5?5?5?5?5?5?5?5?5?5?5?5?5?5?5?5?5?5@ 10022244     libffgen:source.obj
 0001:00021274       ??_C@_0CO@KGCJCGKF@?7OBJECTPLANET?5?5?5?5?5?5?5?5?5?5?5?5?5?5?5?5?5?5?5@ 10022274     libffgen:source.obj
 0001:000212a4       ??_C@_0CO@FJKGJBCH@?7OBJECTPLANES?5?5?5?5?5?5?5?5?5?5?5?5?5?5?5?5?5?5?5@ 100222a4     libffgen:source.obj
 0001:000212d4       ??_C@_0CO@IFPBFGFL@?7EYEPLANEQ?5?5?5?5?5?5?5?5?5?5?5?5?5?5?5?5?5?5?5?5?5?5@ 100222d4     libffgen:source.obj
 0001:00021304       ??_C@_0CO@NPJAGJDL@?7EYEPLANER?5?5?5?5?5?5?5?5?5?5?5?5?5?5?5?5?5?5?5?5?5?5@ 10022304     libffgen:source.obj
 0001:00021334       ??_C@_0CO@GLFCBHPL@?7EYEPLANET?5?5?5?5?5?5?5?5?5?5?5?5?5?5?5?5?5?5?5?5?5?5@ 10022334     libffgen:source.obj
 0001:00021364       ??_C@_0CO@FPGAHOCE@?7EYEPLANES?5?5?5?5?5?5?5?5?5?5?5?5?5?5?5?5?5?5?5?5?5?5@ 10022364     libffgen:source.obj
 0001:00021394       ??_C@_0CO@GAKEIELA@?7BACKLIGHTPRODUCT?5?5?5?5?5?5?5?5?5?5?5?5?5?5?5@ 10022394     libffgen:source.obj
 0001:000213c4       ??_C@_0CO@EDHMKFKC@?7FRONTLIGHTPRODUCT?5?5?5?5?5?5?5?5?5?5?5?5?5?5@ 100223c4     libffgen:source.obj
 0001:000213f4       ??_C@_0CO@LOLEGNNL@?7BACKLIGHTMODELPRODUCT?5?5?5?5?5?5?5?5?5?5@ 100223f4     libffgen:source.obj
 0001:00021424       ??_C@_0CO@OIALALEP@?7FRONTLIGHTMODELPRODUCT?5?5?5?5?5?5?5?5?5@ 10022424     libffgen:source.obj
 0001:00021454       ??_C@_0CO@BBOKCHLD@?7LIGHTMODEL?5?5?5?5?5?5?5?5?5?5?5?5?5?5?5?5?5?5?5?5?5@ 10022454     libffgen:source.obj
 0001:00021484       ??_C@_0CO@ONFNEHPC@?7LIGHTSOURCE?57?5?5?5?5?5?5?5?5?5?5?5?5?5?5?5?5?5?5@ 10022484     libffgen:source.obj
 0001:000214b4       ??_C@_0CO@NLKPNHAB@?7LIGHTSOURCE?56?5?5?5?5?5?5?5?5?5?5?5?5?5?5?5?5?5?5@ 100224b4     libffgen:source.obj
 0001:000214e4       ??_C@_0CO@IALIGGBE@?7LIGHTSOURCE?55?5?5?5?5?5?5?5?5?5?5?5?5?5?5?5?5?5?5@ 100224e4     libffgen:source.obj
 0001:00021514       ??_C@_0CO@LGEKPGOH@?7LIGHTSOURCE?54?5?5?5?5?5?5?5?5?5?5?5?5?5?5?5?5?5?5@ 10022514     libffgen:source.obj
 0001:00021544       ??_C@_0CO@DGJHAEDO@?7LIGHTSOURCE?53?5?5?5?5?5?5?5?5?5?5?5?5?5?5?5?5?5?5@ 10022544     libffgen:source.obj
 0001:00021574       ??_C@_0CO@GFJEMN@?7LIGHTSOURCE?52?5?5?5?5?5?5?5?5?5?5?5?5?5?5?5?5?5?5@ 10022574     libffgen:source.obj
 0001:000215a4       ??_C@_0CO@FLHCCFNI@?7LIGHTSOURCE?51?5?5?5?5?5?5?5?5?5?5?5?5?5?5?5?5?5?5@ 100225a4     libffgen:source.obj
 0001:000215d4       ??_C@_0CO@GNIALFCL@?7LIGHTSOURCE?50?5?5?5?5?5?5?5?5?5?5?5?5?5?5?5?5?5?5@ 100225d4     libffgen:source.obj
 0001:00021604       ??_C@_0CO@LEELLGJJ@?7LIGHTSOURCE?5?5?5?5?5?5?5?5?5?5?5?5?5?5?5?5?5?5?5?5@ 10022604     libffgen:source.obj
 0001:00021634       ??_C@_0CO@LJLPFIBA@?7BACKMATERIAL?5?5?5?5?5?5?5?5?5?5?5?5?5?5?5?5?5?5?5@ 10022634     libffgen:source.obj
 0001:00021664       ??_C@_0CO@IOPKNJEL@?7FRONTMATERIAL?5?5?5?5?5?5?5?5?5?5?5?5?5?5?5?5?5?5@ 10022664     libffgen:source.obj
 0001:00021694       ??_C@_0CO@NMAPFPHI@?7POINT?5?5?5?5?5?5?5?5?5?5?5?5?5?5?5?5?5?5?5?5?5?5?5?5?5?5@ 10022694     libffgen:source.obj
 0001:000216c4       ??_C@_0CO@JMLNLHNN@?7CLIPPLANE?5?5?5?5?5?5?5?5?5?5?5?5?5?5?5?5?5?5?5?5?5?5@ 100226c4     libffgen:source.obj
 0001:000216f4       ??_C@_0DF@DKJMMFAG@?7MODELVIEWMATRIXINVERSETRANSPOSE@ 100226f4     libffgen:source.obj
 0001:0002172c       ??_C@_0CO@GLJGDEPF@?7MODELVIEWMATRIXINVERSETRANSPOSE@ 1002272c     libffgen:source.obj
 0001:0002175c       ??_C@_0CO@LDDCGPFD@?7TEXTUREMATRIX?5?5?5?5?5?5?5?5?5?5?5?5?5?5?5?5?5?5@ 1002275c     libffgen:source.obj
 0001:0002178c       ??_C@_0CO@KKIJPMJK@?7MODELVIEWPROJECTIONMATRIX?5?5?5?5?5?5@ 1002278c     libffgen:source.obj
 0001:000217bc       ??_C@_0CO@PLJFBLNK@?7PROJECTMATRIX?5?5?5?5?5?5?5?5?5?5?5?5?5?5?5?5?5?5@ 100227bc     libffgen:source.obj
 0001:000217ec       ??_C@_0CO@IODLKAAK@?7MODELVIEWMATRIXPALETTE?5?5?5?5?5?5?5?5?5@ 100227ec     libffgen:source.obj
 0001:0002181c       ??_C@_0CO@NGOOMBAJ@?7MODELVIEWMATRIX?5?5?5?5?5?5?5?5?5?5?5?5?5?5?5?5@ 1002281c     libffgen:source.obj
 0001:0002184c       ??_C@_0CN@KNEMBCLF@?7POINTSPRITE?5?$CIDUMMY?5TEXCOORD?$CJ?5?5?5@ 1002284c     libffgen:source.obj
 0001:0002187c       ??_C@_0CN@EKAJDHA@?7FOGFRAGCOORD?5?5?5?5?5?5?5?5?5?5?5?5?5?5?5?5?5?5?5@ 1002287c     libffgen:source.obj
 0001:000218ac       ??_C@_0CN@NFHHKHNN@?7TEXCOORD?5?5?5?5?5?5?5?5?5?5?5?5?5?5?5?5?5?5?5?5?5?5?5@ 100228ac     libffgen:source.obj
 0001:000218dc       ??_C@_0CN@GHMHNPLB@?7BACKSECONDARYCOLOR?5?5?5?5?5?5?5?5?5?5?5?5?5@ 100228dc     libffgen:source.obj
 0001:0002190c       ??_C@_0CN@KGEDNNHN@?7FRONTSECONDARYCOLOR?5?5?5?5?5?5?5?5?5?5?5?5@ 1002290c     libffgen:source.obj
 0001:0002193c       ??_C@_0CN@KBLEPOEO@?7BACKCOLOR?5?5?5?5?5?5?5?5?5?5?5?5?5?5?5?5?5?5?5?5?5?5@ 1002293c     libffgen:source.obj
 0001:0002196c       ??_C@_0CN@NJLLJAEH@?7FRONTCOLOR?5?5?5?5?5?5?5?5?5?5?5?5?5?5?5?5?5?5?5?5?5@ 1002296c     libffgen:source.obj
 0001:0002199c       ??_C@_0CN@GLNFBGFE@?7CLIPVERTEX?5?5?5?5?5?5?5?5?5?5?5?5?5?5?5?5?5?5?5?5?5@ 1002299c     libffgen:source.obj
 0001:000219cc       ??_C@_0CN@GKGHBGPE@?7POINTSIZE?5?5?5?5?5?5?5?5?5?5?5?5?5?5?5?5?5?5?5?5?5?5@ 100229cc     libffgen:source.obj
 0001:000219fc       ??_C@_0CN@LLMJJDBO@?7POSITION?5?5?5?5?5?5?5?5?5?5?5?5?5?5?5?5?5?5?5?5?5?5?5@ 100229fc     libffgen:source.obj
 0001:00021a2c       ??_C@_0CO@MOBAOHDP@?7SPECIAL_POINTSIZE?5?5?5?5?5?5?5?5?5?5?5?5?5?5@ 10022a2c     libffgen:source.obj
 0001:00021a5c       ??_C@_0CO@PGPFENO@?7SPECIAL_VERTEXMATRIXINDEX?5?5?5?5?5?5@ 10022a5c     libffgen:source.obj
 0001:00021a8c       ??_C@_0CO@EFLFJLDK@?7SPECIAL_VERTEXBLENDWEIGHT?5?5?5?5?5?5@ 10022a8c     libffgen:source.obj
 0001:00021abc       ??_C@_0CO@PJIFOGID@?7FOGCOORD?5?5?5?5?5?5?5?5?5?5?5?5?5?5?5?5?5?5?5?5?5?5?5@ 10022abc     libffgen:source.obj
 0001:00021aec       ??_C@_0CO@HLJNDPPP@?7MULTITEXCOORD7?5?5?5?5?5?5?5?5?5?5?5?5?5?5?5?5?5@ 10022aec     libffgen:source.obj
 0001:00021b1c       ??_C@_0CO@IKEHDKFF@?7MULTITEXCOORD6?5?5?5?5?5?5?5?5?5?5?5?5?5?5?5?5?5@ 10022b1c     libffgen:source.obj
 0001:00021b4c       ??_C@_0CO@EDFIDCOK@?7MULTITEXCOORD5?5?5?5?5?5?5?5?5?5?5?5?5?5?5?5?5?5@ 10022b4c     libffgen:source.obj
 0001:00021b7c       ??_C@_0CO@LCICDHEA@?7MULTITEXCOORD4?5?5?5?5?5?5?5?5?5?5?5?5?5?5?5?5?5@ 10022b7c     libffgen:source.obj
 0001:00021bac       ??_C@_0CO@KBHCFNF@?7MULTITEXCOORD3?5?5?5?5?5?5?5?5?5?5?5?5?5?5?5?5?5@ 10022bac     libffgen:source.obj
 0001:00021bdc       ??_C@_0CO@PLMNCAHP@?7MULTITEXCOORD2?5?5?5?5?5?5?5?5?5?5?5?5?5?5?5?5?5@ 10022bdc     libffgen:source.obj
 0001:00021c0c       ??_C@_0CO@DCNCCIMA@?7MULTITEXCOORD1?5?5?5?5?5?5?5?5?5?5?5?5?5?5?5?5?5@ 10022c0c     libffgen:source.obj
 0001:00021c3c       ??_C@_0CO@MDAICNGK@?7MULTITEXCOORD0?5?5?5?5?5?5?5?5?5?5?5?5?5?5?5?5?5@ 10022c3c     libffgen:source.obj
 0001:00021c6c       ??_C@_0CO@IJHGJBGP@?7VERTEX?5?5?5?5?5?5?5?5?5?5?5?5?5?5?5?5?5?5?5?5?5?5?5?5?5@ 10022c6c     libffgen:source.obj
 0001:00021c9c       ??_C@_0CO@PLHCABAD@?7NORMAL?5?5?5?5?5?5?5?5?5?5?5?5?5?5?5?5?5?5?5?5?5?5?5?5?5@ 10022c9c     libffgen:source.obj
 0001:00021ccc       ??_C@_0CO@NFLBMNLL@?7SECONDARYCOLOR?5?5?5?5?5?5?5?5?5?5?5?5?5?5?5?5?5@ 10022ccc     libffgen:source.obj
 0001:00021cfc       ??_C@_0CO@MMEMGEKN@?7COLOR?5?5?5?5?5?5?5?5?5?5?5?5?5?5?5?5?5?5?5?5?5?5?5?5?5?5@ 10022cfc     libffgen:source.obj
 0001:00021d2c       ??_C@_03IJLIBDBM@mem?$AA@  10022d2c     libffgen:source.obj
 0001:00021d30       ??_C@_03NIMKIGOO@?$CK?1?6?$AA@ 10022d30     libffgen:source.obj
 0001:00021d34       ??_C@_03JFDPLKFJ@?$HN?$DL?6?$AA@ 10022d34     libffgen:source.obj
 0001:00021d38       ??_C@_08OKLGPPBM@0x?$CF08X?0?5?$AA@ 10022d38     libffgen:source.obj
 0001:00021d44       ??_C@_02NOKNKGCL@?7?7?$AA@ 10022d44     libffgen:source.obj
 0001:00021d48       ??_C@_0CA@OAEBPFB@FFTNLGenDesc?5sFFTNLGenDesc?5?$DN?5?$HL?6?$AA@ 10022d48     libffgen:source.obj
 0001:00021d68       ??_C@_0BA@ODFKFIDP@TNL?5program?5?$CFu?6?$AA@ 10022d68     libffgen:source.obj
 0001:00021d78       ??_C@_0BN@CNBOJKAD@?$DN?$DN?$DN?$DN?$DN?$DN?$DN?$DN?$DN?$DN?$DN?$DN?$DN?$DN?$DN?$DN?$DN?$DN?$DN?$DN?$DN?$DN?$DN?$DN?$DN?$DN?$DN?6?$AA@ 10022d78     libffgen:source.obj
 0001:00021d98       ??_C@_03OJNPLEDH@?1?$CK?6?$AA@ 10022d98     libffgen:source.obj
 0001:00021d9c       ??_C@_0DA@LDGDHJAC@FFTNLDumpFFTNLDescription?3?5Faile@ 10022d9c     libffgen:source.obj
 0001:00021e0c       ??_C@_0P@IACOIGLH@End?5of?5program?$AA@ 10022e0c     libffgen:codegen.obj
 0001:00021e1c       ??_C@_0CA@GKDNEABO@Unrecogised?5output?5register?5?$CFd?6?$AA@ 10022e1c     libffgen:codegen.obj
 0001:00021e40       ??_C@_0EP@ONCCMAI@c?3?2data?2jatin?2powervr_build?2ddk1@ 10022e40     libffgen:codegen.obj
 0001:00021e90       ??_C@_0ED@DEEDBAIC@FFTNLGenTexturing?3?5Dimension?5of?5@ 10022e90     libffgen:codegen.obj
 0001:00021ed4       ??_C@_0CB@IEAJPHFE@Redirect?5output?5reg?5to?5input?5reg@ 10022ed4     libffgen:codegen.obj
 0001:00021ef8       ??_C@_0EI@CLLCOHLE@FFTNLRedirectOutputRegisterWrite@ 10022ef8     libffgen:codegen.obj
 0001:00021f40       ??_C@_0DL@ECBKIPGG@FFTNLRedirectOutputRegisterWrite@ 10022f40     libffgen:codegen.obj
 0001:00021f7c       ??_C@_0BH@LMMCLBCC@Calculate?5eye?5position?$AA@ 10022f7c     libffgen:codegen.obj
 0001:00021f94       ??_C@_09EPPKEDM@MV?5Matrix?$AA@ 10022f94     libffgen:codegen.obj
 0001:00021fa0       ??_C@_0BH@PLMPKNH@Calculate?5Eye?5position?$AA@ 10022fa0     libffgen:codegen.obj
 0001:00021fb8       ??_C@_0CB@EGGMGBKD@Normalise?5supplied?5normal?5vector@ 10022fb8     libffgen:codegen.obj
 0001:00021fdc       ??_C@_0BC@NDNIKMLH@Normalise?5normals?$AA@ 10022fdc     libffgen:codegen.obj
 0001:00021ff0       ??_C@_0BI@HPNAAMDF@Pass?5through?5the?5normal?$AA@ 10022ff0     libffgen:codegen.obj
 0001:00022008       ??_C@_0BK@NFEIADPI@Pass?5through?5the?5position?$AA@ 10023008     libffgen:codegen.obj
 0001:00022024       ??_C@_0CB@OJGIHKGB@No?5transformation?5?9?5pass?5through@ 10023024     libffgen:codegen.obj
 0001:00022048       ??_C@_0DA@EBFKIOIO@Transform?5the?5eye?5position?5by?5pr@ 10023048     libffgen:codegen.obj
 0001:00022078       ??_C@_0BC@JADMGONK@Projection?5matrix?$AA@ 10023078     libffgen:codegen.obj
 0001:0002208c       ??_C@_0CB@CHDFKHHG@Multiply?5normal?5?5by?5blend?5weight@ 1002308c     libffgen:codegen.obj
 0001:000220b0       ??_C@_0DA@LDEDLAN@Multiply?5normal?5?5by?5blend?5weight@ 100230b0     libffgen:codegen.obj
 0001:000220e0       ??_C@_0CF@ICKPHBEG@Transform?5the?5the?5normal?5by?5the?5@ 100230e0     libffgen:codegen.obj
 0001:00022108       ??_C@_0BE@GIAEEKOE@ITMV?5matrix?5palette?$AA@ 10023108     libffgen:codegen.obj
 0001:0002211c       ??_C@_0CC@PNPKLBPI@Multiply?5position?5by?5blend?5weigh@ 1002311c     libffgen:codegen.obj
 0001:00022140       ??_C@_0DB@LKKMBIBN@Multiply?5position?5by?5blend?5weigh@ 10023140     libffgen:codegen.obj
 0001:00022174       ??_C@_0CF@GKPDHNCO@Transform?5the?5the?5position?5by?5th@ 10023174     libffgen:codegen.obj
 0001:0002219c       ??_C@_0BC@HKKMIJAG@MV?5matrix?5palette?$AA@ 1002319c     libffgen:codegen.obj
 0001:000221b0       ??_C@_09MLECJNKA@MV?5matrix?$AA@ 100231b0     libffgen:codegen.obj
 0001:000221bc       ??_C@_0CD@EKEHCEAI@?6?5?5?5?5?5?5?9?9?9?9?9?9?5Matrix?5?$CFd?5?9?9?9?9?9?9?6?5@ 100231bc     libffgen:codegen.obj
 0001:000221e0       ??_C@_0BA@ONANMFJF@Vertex?5Blending?$AA@ 100231e0     libffgen:codegen.obj
 0001:000221f0       ??_C@_0P@MJEAACLN@Unpack?5indices?$AA@ 100231f0     libffgen:codegen.obj
 0001:00022200       ??_C@_0CB@FBDKBHC@?6?5?5?5?5?5?5Clamp?5matrix?5indices?5?6?5?5?5@ 10023200     libffgen:codegen.obj
 0001:00022228       ??_C@_0HA@EIEEADBD@?6?5?5?5?5?5?5Reuse?5of?5MV?5matrix?5for?5no@ 10023228     libffgen:codegen.obj
 0001:00022298       ??_C@_0BP@CLJLEPCI@Matrix?5palette?5Vertex?5Blending?$AA@ 10023298     libffgen:codegen.obj
 0001:000222b8       ??_C@_0BJ@IEODCOHA@Matrix?5index?5clamp?5value?$AA@ 100232b8     libffgen:codegen.obj
 0001:000222d4       ??_C@_0DF@MAIOIMHG@Transform?5the?5the?5normal?5by?5the?5@ 100232d4     libffgen:codegen.obj
 0001:0002230c       ??_C@_0M@DGLABAHO@ITMV?5matrix?$AA@ 1002330c     libffgen:codegen.obj
 0001:00022318       ??_C@_0BC@ENBCCJDP@Transform?5Normals?$AA@ 10023318     libffgen:codegen.obj
 0001:0002232c       ??_C@_0CG@GGAHKDOG@Transform?5the?5the?5position?5by?5th@ 1002332c     libffgen:codegen.obj
 0001:00022354       ??_C@_0L@DNHKCKNL@MVP?5Matrix?$AA@ 10023354     libffgen:codegen.obj
 0001:00022360       ??_C@_0BI@KIFEHIED@Standard?5Transformation?$AA@ 10023360     libffgen:codegen.obj
 0001:00022378       ??_C@_0DB@OHBLJCLA@Illegal?5setup?5of?5transformation?5@ 10023378     libffgen:codegen.obj
 0001:000223ac       ??_C@_0BA@KEMAKNHM@Clip?5plane?5calc?$AA@ 100233ac     libffgen:codegen.obj
 0001:000223bc       ??_C@_0M@BLMFDEGP@Clip?5planes?$AA@ 100233bc     libffgen:codegen.obj
 0001:000223c8       ??_C@_0O@HBGOANLF@User?5Clipping?$AA@ 100233c8     libffgen:codegen.obj
 0001:000223d8       ??_C@_0CB@IDPANOHL@Illegal?5setup?5of?5clipping?5state?6@ 100233d8     libffgen:codegen.obj
 0001:000223fc       ??_C@_0CC@ENNMODJA@Pass?5through?5the?5secondary?5colou@ 100233fc     libffgen:codegen.obj
 0001:00022420       ??_C@_0BI@KELALIOO@Pass?5through?5the?5colour?$AA@ 10023420     libffgen:codegen.obj
 0001:00022438       ??_C@_07CLODDAIM@Colours?$AA@ 10023438     libffgen:codegen.obj
 0001:00022440       ??_C@_0BO@CGOKJAM@Clamp?5colour?5channel?53?5to?51?40?$AA@ 10023440     libffgen:codegen.obj
 0001:00022460       ??_C@_0BO@BFBFLNEP@Clamp?5colour?5channel?52?5to?51?40?$AA@ 10023460     libffgen:codegen.obj
 0001:00022480       ??_C@_0BO@CMJIIBIK@Clamp?5colour?5channel?51?5to?51?40?$AA@ 10023480     libffgen:codegen.obj
 0001:000224a0       ??_C@_0BO@DLODJFMJ@Clamp?5colour?5channel?50?5to?51?40?$AA@ 100234a0     libffgen:codegen.obj
 0001:000224c0       ??_C@_0BO@LKNCMOGJ@Clamp?5colour?5channel?53?5to?50?40?$AA@ 100234c0     libffgen:codegen.obj
 0001:000224e0       ??_C@_0BO@KNKJNKCK@Clamp?5colour?5channel?52?5to?50?40?$AA@ 100234e0     libffgen:codegen.obj
 0001:00022500       ??_C@_0BO@JECEOGOP@Clamp?5colour?5channel?51?5to?50?40?$AA@ 10023500     libffgen:codegen.obj
 0001:00022520       ??_C@_0BO@IDFPPCKM@Clamp?5colour?5channel?50?5to?50?40?$AA@ 10023520     libffgen:codegen.obj
 0001:00022540       ??_C@_0CG@LJNBHMBM@Illegal?5setup?5of?5fog?5enables?$DP?5?$CI?$CF@ 10023540     libffgen:codegen.obj
 0001:00022568       ??_C@_0BL@DFFPPPMN@Pass?5through?5the?5fog?5coord?$AA@ 10023568     libffgen:codegen.obj
 0001:00022584       ??_C@_09NLKABCGF@Square?5it?$AA@ 10023584     libffgen:codegen.obj
 0001:00022590       ??_C@_0DH@MPANBPOG@FOG?5EXP2?5?9?5Multiply?5eye?5distance@ 10023590     libffgen:codegen.obj
 0001:000225c8       ??_C@_0BG@EONNLBKJ@Get?5exponential?5value?$AA@ 100235c8     libffgen:codegen.obj
 0001:000225e0       ??_C@_0DG@NFOPLGGO@FOG?5EXP?5?9?5Multiply?5eye?5distance?5@ 100235e0     libffgen:codegen.obj
 0001:00022618       ??_C@_0FM@PEHMBOCC@Linear?5Fog?5?9?5Multiple?5fog?5coord?5@ 10023618     libffgen:codegen.obj
 0001:00022678       ??_C@_0EH@KAKLLBOP@FFTNLGenFog?3?5FOGCOORD?5or?5FOGCOOR@ 10023678     libffgen:codegen.obj
 0001:000226c0       ??_C@_0CA@FBKENJDA@Calculate?5range?5fog?5distance?4?4?4?$AA@ 100236c0     libffgen:codegen.obj
 0001:000226e0       ??_C@_0L@OPPFCILO@Fog?5Params?$AA@ 100236e0     libffgen:codegen.obj
 0001:000226ec       ??_C@_03JPDFGHP@Fog?$AA@   100236ec     libffgen:codegen.obj
 0001:000226f0       ??_C@_0CA@OOFFNHGE@Calculate?5normalised?5eye?5vector?$AA@ 100236f0     libffgen:codegen.obj
 0001:00022710       ??_C@_0DO@KCKEGFAC@lights?5and?5the?5texture?5generatio@ 10023710     libffgen:codegen.obj
 0001:00022750       ??_C@_0EG@FJENDPOA@Calculate?5eye?5to?5vertex?5vector?5u@ 10023750     libffgen:codegen.obj
 0001:00022798       ??_C@_0BF@GCMNLHLK@Vertex?5to?5Eye?5Vector?$AA@ 10023798     libffgen:codegen.obj
 0001:000227b0       ??_C@_0BM@CHDLEFEL@Pass?5through?5the?5point?5size?$AA@ 100237b0     libffgen:codegen.obj
 0001:000227cc       ??_C@_0BN@KFLIBCPG@Clamp?5the?5result?5if?5required?$AA@ 100237cc     libffgen:codegen.obj
 0001:000227ec       ??_C@_0CD@LLEGIENP@Test?5if?5size?5is?5within?5min?5and?5m@ 100237ec     libffgen:codegen.obj
 0001:00022810       ??_C@_0CN@HNMACHJM@Multiply?5attenuation?5by?5requeste@ 10023810     libffgen:codegen.obj
 0001:00022840       ??_C@_0CH@LABFJDID@Multiply?5attenuation?5by?5the?5poin@ 10023840     libffgen:codegen.obj
 0001:00022868       ??_C@_0BG@FJNHHMID@Calculate?5attenuation?$AA@ 10023868     libffgen:codegen.obj
 0001:00022880       ??_C@_0CI@OCCNBPHJ@?5tDistAtten?5?$DN?51?40?0?5?$HMPe?$HM?0?5?$HMPe?$HM?$FO2?0@ 10023880     libffgen:codegen.obj
 0001:000228a8       ??_C@_0L@FPLAOIEA@Point?5size?$AA@ 100238a8     libffgen:codegen.obj
 0001:000228b4       ??_C@_0N@HIBMEMNP@Point?5params?$AA@ 100238b4     libffgen:codegen.obj
 0001:000228c4       ??_C@_06KANFALAM@Points?$AA@ 100238c4     libffgen:codegen.obj
 0001:000228cc       ??_C@_0BP@BNLBENAL@Transform?5by?5texture?5matrix?5?$CFd?$AA@ 100238cc     libffgen:codegen.obj
 0001:000228ec       ??_C@_0P@PKLHGBMJ@Texture?5Matrix?$AA@ 100238ec     libffgen:codegen.obj
 0001:000228fc       ??_C@_0BO@JAFHPKIC@Texture?5matrix?5transformation?$AA@ 100238fc     libffgen:codegen.obj
 0001:0002291c       ??_C@_0P@HNCOOFJG@Reflection?5Map?$AA@ 1002391c     libffgen:codegen.obj
 0001:0002292c       ??_C@_0BH@MCNFCKIF@Reflection?5Map?5tex?5gen?$AA@ 1002392c     libffgen:codegen.obj
 0001:00022944       ??_C@_0N@KILGKFH@Position?5Map?$AA@ 10023944     libffgen:codegen.obj
 0001:00022954       ??_C@_0BF@IKEELLF@Position?5Map?5tex?5gen?$AA@ 10023954     libffgen:codegen.obj
 0001:0002296c       ??_C@_0L@DJHDICEL@Normal?5Map?$AA@ 1002396c     libffgen:codegen.obj
 0001:00022978       ??_C@_0BD@MLPNOID@Normal?5Map?5tex?5gen?$AA@ 10023978     libffgen:codegen.obj
 0001:0002298c       ??_C@_0CI@FDNNJHBP@generate?5sphere?5map?5texture?5coor@ 1002398c     libffgen:codegen.obj
 0001:000229b8       ??_C@_0EP@CLFPLMJH@compute?5m?3?5r?$FLtT2?$FN?5?$DN?$CI?$CI0?45f?5?$CK?51?1sq@ 100239b8     libffgen:codegen.obj
 0001:00022a08       ??_C@_0BD@FNCNFONL@Sphere?5Map?5tex?5gen?$AA@ 10023a08     libffgen:codegen.obj
 0001:00022a1c       ??_C@_0CD@LENOOMFO@?5compute?5r?3?5r?$FLtT3?$FN?5?$DN?5r?4x?0?5r?4y?0?5r@ 10023a1c     libffgen:codegen.obj
 0001:00022a40       ??_C@_0CI@BBLKPMCO@Get?5angle?5between?5eye?5vector?5and@ 10023a40     libffgen:codegen.obj
 0001:00022a68       ??_C@_0CE@NCCPACHK@Sphere?5?$CL?5Reflection?5map?5common?5c@ 10023a68     libffgen:codegen.obj
 0001:00022a8c       ??_C@_0O@IHPGOCE@Object?5Linear?$AA@ 10023a8c     libffgen:codegen.obj
 0001:00022a9c       ??_C@_0BG@CKPHPBLK@Object?5Linear?5tex?5gen?$AA@ 10023a9c     libffgen:codegen.obj
 0001:00022ab4       ??_C@_0L@EAPMGLA@Eye?5Linear?$AA@ 10023ab4     libffgen:codegen.obj
 0001:00022ac0       ??_C@_0BD@DLKLDGHI@Eye?5Linear?5tex?5gen?$AA@ 10023ac0     libffgen:codegen.obj
 0001:00022ad4       ??_C@_0N@MDCPJLLL@Pass?5through?$AA@ 10023ad4     libffgen:codegen.obj
 0001:00022ae4       ??_C@_0CB@LFNMKELF@Pass?5through?5texture?5coordinates@ 10023ae4     libffgen:codegen.obj
 0001:00022b08       ??_C@_09CLMKIHFD@Texturing?$AA@ 10023b08     libffgen:codegen.obj
 0001:00022b14       ??_C@_0CA@PINIOJIJ@Generate?5?$CFs?5texture?5coordinates?$AA@ 10023b14     libffgen:codegen.obj
 0001:00022b34       ??_C@_0BL@MAEMHHOJ@Gen?5?$CFs?5texture?5coordinates?$AA@ 10023b34     libffgen:codegen.obj
 0001:00022b50       ??_C@_0DK@OONLNJOH@FFTNLGenTexturing?3?5?$CFs?5texture?5en@ 10023b50     libffgen:codegen.obj
 0001:00022b90       ??_C@_0EL@BONGIIND@c?3?2data?2jatin?2powervr_build?2ddk1@ 10023b90     libffgen:reg.obj
 0001:00022be0       ??_C@_0GJ@LCFPJFAA@GetReg?3?5Reg?5space?5must?5be?5reserv@ 10023be0     libffgen:reg.obj
 0001:00022c4c       ??_C@_0DL@HGGCFMD@GetReg?3?5Load?5offsets?5not?5valid?5f@ 10023c4c     libffgen:reg.obj
 0001:00022c88       ??_C@_0FJ@JMBFGGAD@GetReg?3?5Can?5only?5reget?5constants@ 10023c88     libffgen:reg.obj
 0001:00022ce8       ??_C@_0FJ@IPHPFJFP@GetReg?3?5Load?5offset?5?$CL?5size?5?$CI?$CFd?5?$CL@ 10023ce8     libffgen:reg.obj
 0001:00022d48       ??_C@_0FN@GHKIOENE@GetReg?3?5If?5sizes?5match?5for?5exist@ 10023d48     libffgen:reg.obj
 0001:00022da8       ??_C@_0DH@GOPDPMPC@GetReg?3?5Can?8t?5alloc?5space?5for?5th@ 10023da8     libffgen:reg.obj
 0001:00022de0       ??_C@_0FD@KDOOHEOL@GetReg?3?5Can?8t?5reget?5register?5wit@ 10023de0     libffgen:reg.obj
 0001:00022e34       ??_C@_0CD@OGFFNGFJ@GetReg?3?5Invalid?5reg?5type?5?$CI?$CFs?0?5?$CFd@ 10023e34     libffgen:reg.obj
 0001:00022e58       ??_C@_0BN@DAICFPHG@GetReg?3?5Size?5was?50?5?$CI?$CFs?0?5?$CFd?$CJ?6?$AA@ 10023e58     libffgen:reg.obj
 0001:00022e78       ??_C@_0DI@MODDCAAB@GetReg?3?5Load?5offsets?5only?5valid?5@ 10023e78     libffgen:reg.obj
 0001:00022eb0       ??_C@_0BL@DDDFGMDF@Failed?5to?5alloc?5const?5reg?6?$AA@ 10023eb0     libffgen:reg.obj
 0001:00022ecc       ??_C@_0BN@OKIFANLI@Failed?5to?5alloc?5offset?5reg?5?6?$AA@ 10023ecc     libffgen:reg.obj
 0001:00022eec       ??_C@_0CI@PEIAICB@This?5load?5size?5currently?5not?5sup@ 10023eec     libffgen:reg.obj
 0001:00022f14       __real@3fe0000000000000    10023f14     libffgen:reg.obj
 0001:00022f1c       ??_C@_0BN@BPFEAGPL@Failed?5to?5alloc?5address?5reg?6?$AA@ 10023f1c     libffgen:reg.obj
 0001:00022f3c       ??_C@_0BH@GMOGLMGO@Store?5the?5?$CFs?5to?5memory?$AA@ 10023f3c     libffgen:reg.obj
 0001:00022f54       ??_C@_0BI@ONMJPNJJ@Load?5the?5?$CFs?5from?5memory?$AA@ 10023f54     libffgen:reg.obj
 0001:00022f6c       ??_C@_0CO@IDEIBDON@LoadConstant?$CI?$CJ?3?5Can?8t?5handle?5neg@ 10023f6c     libffgen:reg.obj
 0001:00022f9c       ??_C@_0CB@EHLOELJD@LoadConstant?$CI?$CJ?3?5No?5data?5to?5load?6@ 10023f9c     libffgen:reg.obj
 0001:00022fc0       ??_C@_0BO@OADPCFIM@input?5index?5?$CK?5stride?5?$CL?5offset?$AA@ 10023fc0     libffgen:reg.obj
 0001:00022fe0       ??_C@_0BL@DMGPOLHL@mov?5input?5offset?5into?5temp?$AA@ 10023fe0     libffgen:reg.obj
 0001:00022ffc       ??_C@_0BL@PAKBHIML@Failed?5to?5malloc?5register?6?$AA@ 10023ffc     libffgen:reg.obj
 0001:00023018       ??_C@_0DH@EJMHHDML@StoreReg?3?5Original?5register?5is?5n@ 10024018     libffgen:reg.obj
 0001:00023050       ??_C@_0CP@LJNGDANE@StoreReg?3?5Can?5not?5store?5to?5secon@ 10024050     libffgen:reg.obj
 0001:00023080       ??_C@_0EG@GNPHFHHF@StoreReg?3?5size?5?$CL?5offset?5is?5great@ 10024080     libffgen:reg.obj
 0001:000230c8       ??_C@_0BP@IPHFMPFA@StoreReg?3?5Size?5was?50?5?$CI?$CFs?0?5?$CFd?$CJ?6?$AA@ 100240c8     libffgen:reg.obj
 0001:000230e8       ??_C@_09CCMBOHAD@unpcks8u8?$AA@ 100240e8     libffgen:usetab.obj
 0001:000230f4       ??_C@_09KJAMGOBB@unpcku8s8?$AA@ 100240f4     libffgen:usetab.obj
 0001:00023100       ??_C@_08JOEIIECE@statomic?$AA@ 10024100     libffgen:usetab.obj
 0001:0002310c       ??_C@_08JBIKDIKP@ldatomic?$AA@ 1002410c     libffgen:usetab.obj
 0001:00023118       ??_C@_06MJKBIGOG@cndend?$AA@ 10024118     libffgen:usetab.obj
 0001:00023120       ??_C@_05FIIFAEGG@cndlt?$AA@ 10024120     libffgen:usetab.obj
 0001:00023128       ??_C@_05NEPPEJDD@cndsm?$AA@ 10024128     libffgen:usetab.obj
 0001:00023130       ??_C@_05CPKAEPDK@cndef?$AA@ 10024130     libffgen:usetab.obj
 0001:00023138       ??_C@_05EPPPOACL@cndst?$AA@ 10024138     libffgen:usetab.obj
 0001:00023140       ??_C@_07KHFILGPJ@isubu32?$AA@ 10024140     libffgen:usetab.obj
 0001:00023148       ??_C@_06JKELAJFH@isub32?$AA@ 10024148     libffgen:usetab.obj
 0001:00023150       ??_C@_05NCHGGDHJ@sprvv?$AA@ 10024150     libffgen:usetab.obj
 0001:00023158       ??_C@_06HFBPFKMP@idxscw?$AA@ 10024158     libffgen:usetab.obj
 0001:00023160       ??_C@_06IGIKOIK@idxscr?$AA@ 10024160     libffgen:usetab.obj
 0001:00023168       ??_C@_0L@JLOMIJPI@vpckc10c10?$AA@ 10024168     libffgen:usetab.obj
 0001:00023174       ??_C@_0L@JNIAMPCG@vpckc10f32?$AA@ 10024174     libffgen:usetab.obj
 0001:00023180       ??_C@_0L@PKGINOEM@vpckc10f16?$AA@ 10024180     libffgen:usetab.obj
 0001:0002318c       ??_C@_0L@PONMFEDE@vpckf32c10?$AA@ 1002418c     libffgen:usetab.obj
 0001:00023198       ??_C@_0L@PILABCOK@vpckf32f32?$AA@ 10024198     libffgen:usetab.obj
 0001:000231a4       ??_C@_0L@JPFIADIA@vpckf32f16?$AA@ 100241a4     libffgen:usetab.obj
 0001:000231b0       ??_C@_0L@PIJPKECN@vpckf32s16?$AA@ 100241b0     libffgen:usetab.obj
 0001:000231bc       ??_C@_0L@NNPEPLPB@vpckf32u16?$AA@ 100241bc     libffgen:usetab.obj
 0001:000231c8       ??_C@_09PGEODABJ@vpckf32o8?$AA@ 100241c8     libffgen:usetab.obj
 0001:000231d4       ??_C@_09ODHCGKAN@vpckf32s8?$AA@ 100241d4     libffgen:usetab.obj
 0001:000231e0       ??_C@_09OHPPBGLP@vpckf32u8?$AA@ 100241e0     libffgen:usetab.obj
 0001:000231ec       ??_C@_0L@EGJEFDPP@vpckf16c10?$AA@ 100241ec     libffgen:usetab.obj
 0001:000231f8       ??_C@_0L@EAPIBFCB@vpckf16f32?$AA@ 100241f8     libffgen:usetab.obj
 0001:00023204       ??_C@_0L@CHBAAEEL@vpckf16f16?$AA@ 10024204     libffgen:usetab.obj
 0001:00023210       ??_C@_0L@EANHKDOG@vpckf16s16?$AA@ 10024210     libffgen:usetab.obj
 0001:0002321c       ??_C@_0L@GFLMPMDK@vpckf16u16?$AA@ 1002421c     libffgen:usetab.obj
 0001:00023228       ??_C@_09DOMPECO@vpckf16o8?$AA@ 10024228     libffgen:usetab.obj
 0001:00023234       ??_C@_09BGNAKODK@vpckf16s8?$AA@ 10024234     libffgen:usetab.obj
 0001:00023240       ??_C@_09BCFNNCII@vpckf16u8?$AA@ 10024240     libffgen:usetab.obj
 0001:0002324c       ??_C@_0L@HFBOKGEI@vpcks16f32?$AA@ 1002424c     libffgen:usetab.obj
 0001:00023258       ??_C@_0L@BCPGLHCC@vpcks16f16?$AA@ 10024258     libffgen:usetab.obj
 0001:00023264       ??_C@_0L@HFDBBAIP@vpcks16s16?$AA@ 10024264     libffgen:usetab.obj
 0001:00023270       ??_C@_0L@FAFKEPFD@vpcks16u16?$AA@ 10024270     libffgen:usetab.obj
 0001:0002327c       ??_C@_09FAPHGHAG@vpcks16o8?$AA@ 1002427c     libffgen:usetab.obj
 0001:00023288       ??_C@_09EFMLDNBC@vpcks16s8?$AA@ 10024288     libffgen:usetab.obj
 0001:00023294       ??_C@_09EBEGEBKA@vpcks16u8?$AA@ 10024294     libffgen:usetab.obj
 0001:000232a0       ??_C@_0L@BGMOJDHC@vpcku16f32?$AA@ 100242a0     libffgen:usetab.obj
 0001:000232ac       ??_C@_0L@HBCGICBI@vpcku16f16?$AA@ 100242ac     libffgen:usetab.obj
 0001:000232b8       ??_C@_0L@BGOBCFLF@vpcku16s16?$AA@ 100242b8     libffgen:usetab.obj
 0001:000232c4       ??_C@_0L@DDIKHKGJ@vpcku16u16?$AA@ 100242c4     libffgen:usetab.obj
 0001:000232d0       ??_C@_09IGKOIEBL@vpcku16o8?$AA@ 100242d0     libffgen:usetab.obj
 0001:000232dc       ??_C@_09JDJCNOAP@vpcku16s8?$AA@ 100242dc     libffgen:usetab.obj
 0001:000232e8       ??_C@_09JHBPKCLN@vpcku16u8?$AA@ 100242e8     libffgen:usetab.obj
 0001:000232f4       ??_C@_09HNLHPHGL@vpcko8f32?$AA@ 100242f4     libffgen:usetab.obj
 0001:00023300       ??_C@_09BKFPOGAB@vpcko8f16?$AA@ 10024300     libffgen:usetab.obj
 0001:0002330c       ??_C@_09HNJIEBKM@vpcko8s16?$AA@ 1002430c     libffgen:usetab.obj
 0001:00023318       ??_C@_09FIPDBOHA@vpcko8u16?$AA@ 10024318     libffgen:usetab.obj
 0001:00023324       ??_C@_08JEJLGJEL@vpcko8o8?$AA@ 10024324     libffgen:usetab.obj
 0001:00023330       ??_C@_08IBKHDDFP@vpcko8s8?$AA@ 10024330     libffgen:usetab.obj
 0001:0002333c       ??_C@_08IFCKEPON@vpcko8u8?$AA@ 1002433c     libffgen:usetab.obj
 0001:00023348       ??_C@_09JKDDFIL@vpcks8f32?$AA@ 10024348     libffgen:usetab.obj
 0001:00023354       ??_C@_09GOELCEOB@vpcks8f16?$AA@ 10024354     libffgen:usetab.obj
 0001:00023360       ??_C@_09JIMIDEM@vpcks8s16?$AA@ 10024360     libffgen:usetab.obj
 0001:0002336c       ??_C@_09CMOHNMJA@vpcks8u16?$AA@ 1002436c     libffgen:usetab.obj
 0001:00023378       ??_C@_08DBILBDMI@vpcks8o8?$AA@ 10024378     libffgen:usetab.obj
 0001:00023384       ??_C@_08CELHEJNM@vpcks8s8?$AA@ 10024384     libffgen:usetab.obj
 0001:00023390       ??_C@_08CADKDFGO@vpcks8u8?$AA@ 10024390     libffgen:usetab.obj
 0001:0002339c       ??_C@_09NPPKNGJG@vpcku8f32?$AA@ 1002439c     libffgen:usetab.obj
 0001:000233a8       ??_C@_09LIBCMHPM@vpcku8f16?$AA@ 100243a8     libffgen:usetab.obj
 0001:000233b4       ??_C@_09NPNFGAFB@vpcku8s16?$AA@ 100243b4     libffgen:usetab.obj
 0001:000233c0       ??_C@_09PKLODPIN@vpcku8u16?$AA@ 100243c0     libffgen:usetab.obj
 0001:000233cc       ??_C@_08LOMLOGGI@vpcku8o8?$AA@ 100243cc     libffgen:usetab.obj
 0001:000233d8       ??_C@_08KLPHLMHM@vpcku8s8?$AA@ 100243d8     libffgen:usetab.obj
 0001:000233e4       ??_C@_08KPHKMAMO@vpcku8u8?$AA@ 100243e4     libffgen:usetab.obj
 0001:000233f0       ??_C@_04DGGKFKKC@vexp?$AA@ 100243f0     libffgen:usetab.obj
 0001:000233f8       ??_C@_04FHIICEEL@vlog?$AA@ 100243f8     libffgen:usetab.obj
 0001:00023400       ??_C@_04OOOKOLCE@vrsq?$AA@ 10024400     libffgen:usetab.obj
 0001:00023408       ??_C@_04OLNHHJBF@vrcp?$AA@ 10024408     libffgen:usetab.obj
 0001:00023410       ??_C@_07IFLIPEJM@vf16sub?$AA@ 10024410     libffgen:usetab.obj
 0001:00023418       ??_C@_06BKGGAFJG@vf16dp?$AA@ 10024418     libffgen:usetab.obj
 0001:00023420       ??_C@_07JOHMCFEH@vf16max?$AA@ 10024420     libffgen:usetab.obj
 0001:00023428       ??_C@_07IMPHMBCI@vf16min?$AA@ 10024428     libffgen:usetab.obj
 0001:00023430       ??_C@_07OFMNCMJC@vf16dsy?$AA@ 10024430     libffgen:usetab.obj
 0001:00023438       ??_C@_07PMNGBNND@vf16dsx?$AA@ 10024438     libffgen:usetab.obj
 0001:00023440       ??_C@_07POCLHEPF@vf16frc?$AA@ 10024440     libffgen:usetab.obj
 0001:00023448       ??_C@_07DEBGAFEJ@vf16add?$AA@ 10024448     libffgen:usetab.obj
 0001:00023450       ??_C@_07KLPNPJLO@vf16mul?$AA@ 10024450     libffgen:usetab.obj
 0001:00023458       ??_C@_07HIALHIBK@vf16mad?$AA@ 10024458     libffgen:usetab.obj
 0001:00023460       ??_C@_04DDDELBGB@vsub?$AA@ 10024460     libffgen:usetab.obj
 0001:00023468       ??_C@_03PAAOMFKJ@vdp?$AA@  10024468     libffgen:usetab.obj
 0001:0002346c       ??_C@_04FDEBGJGP@vdsy?$AA@ 1002446c     libffgen:usetab.obj
 0001:00023474       ??_C@_04EKFKFICO@vdsx?$AA@ 10024474     libffgen:usetab.obj
 0001:0002347c       ??_C@_04CIPAGALK@vmax?$AA@ 1002447c     libffgen:usetab.obj
 0001:00023484       ??_C@_04DKHLIENF@vmin?$AA@ 10024484     libffgen:usetab.obj
 0001:0002348c       ??_C@_04EIKHDBAI@vfrc?$AA@ 1002448c     libffgen:usetab.obj
 0001:00023494       ??_C@_04ICJKEALE@vadd?$AA@ 10024494     libffgen:usetab.obj
 0001:0002349c       ??_C@_04BNHBLMED@vmul?$AA@ 1002449c     libffgen:usetab.obj
 0001:000234a4       ??_C@_04MOIHDNOH@vmad?$AA@ 100244a4     libffgen:usetab.obj
 0001:000234ac       ??_C@_07PJIFHDOJ@vmovcu8?$AA@ 100244ac     libffgen:usetab.obj
 0001:000234b4       ??_C@_05IPANMIKP@vmovc?$AA@ 100244b4     libffgen:usetab.obj
 0001:000234bc       ??_C@_04LMONGADO@vmov?$AA@ 100244bc     libffgen:usetab.obj
 0001:000234c4       ??_C@_05HKPHADDM@vmov4?$AA@ 100244c4     libffgen:usetab.obj
 0001:000234cc       ??_C@_05DFLGJFPL@vmov3?$AA@ 100244cc     libffgen:usetab.obj
 0001:000234d4       ??_C@_05LKKHNEHN@vssq4?$AA@ 100244d4     libffgen:usetab.obj
 0001:000234dc       ??_C@_05PFOGECLK@vssq3?$AA@ 100244dc     libffgen:usetab.obj
 0001:000234e4       ??_C@_05IBKMJGII@vsub4?$AA@ 100244e4     libffgen:usetab.obj
 0001:000234ec       ??_C@_05MOONAAEP@vsub3?$AA@ 100244ec     libffgen:usetab.obj
 0001:000234f4       ??_C@_05HHKEBOCC@vadd4?$AA@ 100244f4     libffgen:usetab.obj
 0001:000234fc       ??_C@_05DIOFIIOF@vadd3?$AA@ 100244fc     libffgen:usetab.obj
 0001:00023504       ??_C@_05FEOCJCGB@vmul4?$AA@ 10024504     libffgen:usetab.obj
 0001:0002350c       ??_C@_05BLKDAEKG@vmul3?$AA@ 1002450c     libffgen:usetab.obj
 0001:00023514       ??_C@_05IFIKADBB@vmad4?$AA@ 10024514     libffgen:usetab.obj
 0001:0002351c       ??_C@_05MKMLJFNG@vmad3?$AA@ 1002451c     libffgen:usetab.obj
 0001:00023524       ??_C@_04BENAOGHO@vdp4?$AA@ 10024524     libffgen:usetab.obj
 0001:0002352c       ??_C@_04FLJBHALJ@vdp3?$AA@ 1002452c     libffgen:usetab.obj
 0001:00023534       ??_C@_09NODGMHNE@emitvcbst?$AA@ 10024534     libffgen:usetab.obj
 0001:00023540       ??_C@_0L@FBFICDMG@emitvcbvtx?$AA@ 10024540     libffgen:usetab.obj
 0001:0002354c       ??_C@_09PIDAEGKH@emitmtest?$AA@ 1002454c     libffgen:usetab.obj
 0001:00023558       ??_C@_0L@JIHCAFMB@emitmtevtx?$AA@ 10024558     libffgen:usetab.obj
 0001:00023564       ??_C@_03PENBPHC@cfi?$AA@   10024564     libffgen:usetab.obj
 0001:00023568       ??_C@_02POBAIDHK@ci?$AA@   10024568     libffgen:usetab.obj
 0001:0002356c       ??_C@_02HJIIJPLF@cf?$AA@   1002456c     libffgen:usetab.obj
 0001:00023570       ??_C@_05PACJMPIO@moest?$AA@ 10024570     libffgen:usetab.obj
 0001:00023578       ??_C@_06FOOALFNH@fnrm16?$AA@ 10024578     libffgen:usetab.obj
 0001:00023580       ??_C@_06DJAIKELN@fnrm32?$AA@ 10024580     libffgen:usetab.obj
 0001:00023588       ??_C@_06KNGBBCNH@sablnd?$AA@ 10024588     libffgen:usetab.obj
 0001:00023590       ??_C@_06DPIIDNJL@fpsub8?$AA@ 10024590     libffgen:usetab.obj
 0001:00023598       ??_C@_06MJIALFDB@fpadd8?$AA@ 10024598     libffgen:usetab.obj
 0001:000235a0       ??_C@_06OKMGDJHC@fpmul8?$AA@ 100245a0     libffgen:usetab.obj
 0001:000235a8       ??_C@_06BELDBAKP@isubu8?$AA@ 100245a8     libffgen:usetab.obj
 0001:000235b0       ??_C@_06CCEGFCNB@iaddu8?$AA@ 100245b0     libffgen:usetab.obj
 0001:000235b8       ??_C@_04HIHJCIAG@fpma?$AA@ 100245b8     libffgen:usetab.obj
 0001:000235c0       ??_C@_06BODAOOPP@movmsk?$AA@ 100245c0     libffgen:usetab.obj
 0001:000235c8       ??_C@_04CFJGHAMN@movc?$AA@ 100245c8     libffgen:usetab.obj
 0001:000235d0       ??_C@_07BANDBPIA@iaddu32?$AA@ 100245d0     libffgen:usetab.obj
 0001:000235d8       ??_C@_06DBFEDEDN@imov16?$AA@ 100245d8     libffgen:usetab.obj
 0001:000235e0       ??_C@_06MNLAAEHH@imulu8?$AA@ 100245e0     libffgen:usetab.obj
 0001:000235e8       ??_C@_05KNHGNCD@imul8?$AA@ 100245e8     libffgen:usetab.obj
 0001:000235f0       ??_C@_05NPJJGJMK@isub8?$AA@ 100245f0     libffgen:usetab.obj
 0001:000235f8       ??_C@_05CJJBOBGA@iadd8?$AA@ 100245f8     libffgen:usetab.obj
 0001:00023600       ??_C@_06KMLOELCJ@iadd32?$AA@ 10024600     libffgen:usetab.obj
 0001:00023608       ??_C@_07EIGBPOGB@imulu16?$AA@ 10024608     libffgen:usetab.obj
 0001:00023610       ??_C@_07MALAKHJD@isubu16?$AA@ 10024610     libffgen:usetab.obj
 0001:00023618       ??_C@_07HHDLAOOK@iaddu16?$AA@ 10024618     libffgen:usetab.obj
 0001:00023620       ??_C@_06CEKAAMOF@imul16?$AA@ 10024620     libffgen:usetab.obj
 0001:00023628       ??_C@_06PNKDBIDN@isub16?$AA@ 10024628     libffgen:usetab.obj
 0001:00023630       ??_C@_06MLFGFKED@iadd16?$AA@ 10024630     libffgen:usetab.obj
 0001:00023638       ??_C@_05OJCDMDMI@asop2?$AA@ 10024638     libffgen:usetab.obj
 0001:00023640       ??_C@_04BNKIMGJI@lrp2?$AA@ 10024640     libffgen:usetab.obj
 0001:00023648       ??_C@_04DGIFJFFL@lrp1?$AA@ 10024648     libffgen:usetab.obj
 0001:00023650       ??_C@_04JEDFNLGM@alrp?$AA@ 10024650     libffgen:usetab.obj
 0001:00023658       ??_C@_05BLLJMLJF@arsop?$AA@ 10024658     libffgen:usetab.obj
 0001:00023660       ??_C@_04IILBKMIG@asop?$AA@ 10024660     libffgen:usetab.obj
 0001:00023668       ??_C@_04OBPEPKPD@asub?$AA@ 10024668     libffgen:usetab.obj
 0001:00023670       ??_C@_04FAFKALCG@aadd?$AA@ 10024670     libffgen:usetab.obj
 0001:00023678       ??_C@_07NOKJPFJG@aintrp2?$AA@ 10024678     libffgen:usetab.obj
 0001:00023680       ??_C@_07PFIEKGFF@aintrp1?$AA@ 10024680     libffgen:usetab.obj
 0001:00023688       ??_C@_04HDJKLMOD@phas?$AA@ 10024688     libffgen:usetab.obj
 0001:00023690       ??_C@_04IPMEAKK@setm?$AA@  10024690     libffgen:usetab.obj
 0001:00023698       ??_C@_03EEOHENCN@wop?$AA@  10024698     libffgen:usetab.obj
 0001:0002369c       ??_C@_06CNLPFHCD@depthf?$AA@ 1002469c     libffgen:usetab.obj
 0001:000236a4       ??_C@_05LMCKLHKJ@atst8?$AA@ 100246a4     libffgen:usetab.obj
 0001:000236ac       ??_C@_05FFPFIJHE@ptoff?$AA@ 100246ac     libffgen:usetab.obj
 0001:000236b4       ??_C@_06GIPMBBEA@pcoeff?$AA@ 100246b4     libffgen:usetab.obj
 0001:000236bc       ??_C@_03OJMAPEGJ@str?$AA@  100246bc     libffgen:usetab.obj
 0001:000236c0       ??_C@_03PNJMBANA@ldr?$AA@  100246c0     libffgen:usetab.obj
 0001:000236c4       ??_C@_07KLENHKKM@fsubflr?$AA@ 100246c4     libffgen:usetab.obj
 0001:000236cc       ??_C@_07EOGFDLKI@release?$AA@ 100246cc     libffgen:usetab.obj
 0001:000236d4       ??_C@_04MKMCLCOO@lock?$AA@ 100246d4     libffgen:usetab.obj
 0001:000236dc       ??_C@_06OPKGODIN@fddpc4?$AA@ 100246dc     libffgen:usetab.obj
 0001:000236e4       ??_C@_06KAOHHFEK@fddpc3?$AA@ 100246e4     libffgen:usetab.obj
 0001:000236ec       ??_C@_05FCEHFDPG@fddpc?$AA@ 100246ec     libffgen:usetab.obj
 0001:000236f4       ??_C@_05KHLNJIGF@fddp4?$AA@ 100246f4     libffgen:usetab.obj
 0001:000236fc       ??_C@_05OIPMAOKC@fddp3?$AA@ 100246fc     libffgen:usetab.obj
 0001:00023704       ??_C@_04PLAKPAFB@fddp?$AA@ 10024704     libffgen:usetab.obj
 0001:0002370c       ??_C@_05GGKGEFIE@fdpc4?$AA@ 1002470c     libffgen:usetab.obj
 0001:00023714       ??_C@_05CJOHNDED@fdpc3?$AA@ 10024714     libffgen:usetab.obj
 0001:0002371c       ??_C@_04IBMKLKGP@fdpc?$AA@ 1002471c     libffgen:usetab.obj
 0001:00023724       ??_C@_04HEDAHBPM@fdp4?$AA@ 10024724     libffgen:usetab.obj
 0001:0002372c       ??_C@_04DLHBOHDL@fdp3?$AA@ 1002472c     libffgen:usetab.obj
 0001:00023734       ??_C@_05HEIOGBDD@setfc?$AA@ 10024734     libffgen:usetab.obj
 0001:0002373c       ??_C@_05DBFBNMJD@smlsi?$AA@ 1002473c     libffgen:usetab.obj
 0001:00023744       ??_C@_04HBIOGLNI@smoa?$AA@ 10024744     libffgen:usetab.obj
 0001:0002374c       ??_C@_06EOEAAGLO@u16tnz?$AA@ 1002474c     libffgen:usetab.obj
 0001:00023754       ??_C@_05NKPLKFJF@u16tz?$AA@ 10024754     libffgen:usetab.obj
 0001:0002375c       ??_C@_04FMGLMKJC@ftnz?$AA@ 1002475c     libffgen:usetab.obj
 0001:00023764       ??_C@_03EGNONJMM@ftz?$AA@  10024764     libffgen:usetab.obj
 0001:00023768       ??_C@_03GJPGFFDI@nop?$AA@  10024768     libffgen:usetab.obj
 0001:0002376c       ??_C@_03FGBGECCC@dma?$AA@  1002476c     libffgen:usetab.obj
 0001:00023770       ??_C@_03ODCMFNNH@sms?$AA@  10024770     libffgen:usetab.obj
 0001:00023774       ??_C@_03BJDMMCMD@ams?$AA@  10024774     libffgen:usetab.obj
 0001:00023778       ??_C@_03DHGNGCAI@smm?$AA@  10024778     libffgen:usetab.obj
 0001:0002377c       ??_C@_03MNHNPNBM@amm?$AA@  1002477c     libffgen:usetab.obj
 0001:00023780       ??_C@_03JEAJBGIL@sda?$AA@  10024780     libffgen:usetab.obj
 0001:00023784       ??_C@_03DILMFJIH@sdm?$AA@  10024784     libffgen:usetab.obj
 0001:00023788       ??_C@_07KLCMLLPD@setpneq?$AA@ 10024788     libffgen:usetab.obj
 0001:00023790       ??_C@_07DCGPGNGK@setplte?$AA@ 10024790     libffgen:usetab.obj
 0001:00023798       ??_C@_06IKNJBMPL@setplt?$AA@ 10024798     libffgen:usetab.obj
 0001:000237a0       ??_C@_06PIHPNDDB@setpeq?$AA@ 100247a0     libffgen:usetab.obj
 0001:000237a8       ??_C@_07OFGOOKGL@setpgte?$AA@ 100247a8     libffgen:usetab.obj
 0001:000237b0       ??_C@_06IGIMPDBK@setpgt?$AA@ 100247b0     libffgen:usetab.obj
 0001:000237b8       ??_C@_04FDNECGOD@fsub?$AA@ 100247b8     libffgen:usetab.obj
 0001:000237c0       ??_C@_04DGLGBLMD@fssq?$AA@ 100247c0     libffgen:usetab.obj
 0001:000237c8       ??_C@_04OCHKNHDG@fadd?$AA@ 100247c8     libffgen:usetab.obj
 0001:000237d0       ??_C@_04HNJBCLMB@fmul?$AA@ 100247d0     libffgen:usetab.obj
 0001:000237d8       ??_C@_04NMANPHLM@fmov?$AA@ 100247d8     libffgen:usetab.obj
 0001:000237e0       ??_C@_03CNBJFNFA@mov?$AA@  100247e0     libffgen:usetab.obj
 0001:000237e4       ??_C@_07OLONFCKE@emitpds?$AA@ 100247e4     libffgen:usetab.obj
 0001:000237ec       ??_C@_0O@LEENHJNO@emitprimitive?$AA@ 100247ec     libffgen:usetab.obj
 0001:000237fc       ??_C@_07DBFEHHMD@emitvtx?$AA@ 100247fc     libffgen:usetab.obj
 0001:00023804       ??_C@_06GCOMBHEL@emitst?$AA@ 10024804     libffgen:usetab.obj
 0001:0002380c       ??_C@_07MBBIDM@emitpix?$AA@ 1002480c     libffgen:usetab.obj
 0001:00023814       ??_C@_08MCBPOJOO@emitpix2?$AA@ 10024814     libffgen:usetab.obj
 0001:00023820       ??_C@_08OJDCLKCN@emitpix1?$AA@ 10024820     libffgen:usetab.obj
 0001:0002382c       ??_C@_04LDGNGHLO@limm?$AA@ 1002482c     libffgen:usetab.obj
 0001:00023834       ??_C@_03FECKBHBL@wdf?$AA@  10024834     libffgen:usetab.obj
 0001:00023838       ??_C@_03OEOMDHLH@idf?$AA@  10024838     libffgen:usetab.obj
 0001:0002383c       ??_C@_0L@JODEDCHK@bexception?$AA@ 1002483c     libffgen:usetab.obj
 0001:00023848       ??_C@_04PMKEFCPM@lapc?$AA@ 10024848     libffgen:usetab.obj
 0001:00023850       ??_C@_02FGOECCNH@br?$AA@   10024850     libffgen:usetab.obj
 0001:00023854       ??_C@_02DHALGDEF@ba?$AA@   10024854     libffgen:usetab.obj
 0001:00023858       ??_C@_04GAAFJDCP@eldq?$AA@ 10024858     libffgen:usetab.obj
 0001:00023860       ??_C@_04FHLAHFDL@eldd?$AA@ 10024860     libffgen:usetab.obj
 0001:00023868       ??_C@_04GCOCNAN@sttq?$AA@  10024868     libffgen:usetab.obj
 0001:00023870       ??_C@_04DBJLMLBJ@sttd?$AA@ 10024870     libffgen:usetab.obj
 0001:00023878       ??_C@_04FAHEIKIL@sttw?$AA@ 10024878     libffgen:usetab.obj
 0001:00023880       ??_C@_04GHMBGMJP@sttb?$AA@ 10024880     libffgen:usetab.obj
 0001:00023888       ??_C@_04LEIHHKMB@ldtq?$AA@ 10024888     libffgen:usetab.obj
 0001:00023890       ??_C@_04IDDCJMNF@ldtd?$AA@ 10024890     libffgen:usetab.obj
 0001:00023898       ??_C@_04OCNNNNEH@ldtw?$AA@ 10024898     libffgen:usetab.obj
 0001:000238a0       ??_C@_04NFGIDLFD@ldtb?$AA@ 100248a0     libffgen:usetab.obj
 0001:000238a8       ??_C@_04BEBLNPMF@stlq?$AA@ 100248a8     libffgen:usetab.obj
 0001:000238b0       ??_C@_04CDKODJNB@stld?$AA@ 100248b0     libffgen:usetab.obj
 0001:000238b8       ??_C@_04ECEBHIED@stlw?$AA@ 100248b8     libffgen:usetab.obj
 0001:000238c0       ??_C@_04HFPEJOFH@stlb?$AA@ 100248c0     libffgen:usetab.obj
 0001:000238c8       ??_C@_04KGLCIIAJ@ldlq?$AA@ 100248c8     libffgen:usetab.obj
 0001:000238d0       ??_C@_04JBAHGOBN@ldld?$AA@ 100248d0     libffgen:usetab.obj
 0001:000238d8       ??_C@_04PAOICPIP@ldlw?$AA@ 100248d8     libffgen:usetab.obj
 0001:000238e0       ??_C@_04MHFNMJJL@ldlb?$AA@ 100248e0     libffgen:usetab.obj
 0001:000238e8       ??_C@_04BMMDEMJG@staq?$AA@ 100248e8     libffgen:usetab.obj
 0001:000238f0       ??_C@_04CLHGKKIC@stad?$AA@ 100248f0     libffgen:usetab.obj
 0001:000238f8       ??_C@_04EKJJOLBA@staw?$AA@ 100248f8     libffgen:usetab.obj
 0001:00023900       ??_C@_04HNCMANAE@stab?$AA@ 10024900     libffgen:usetab.obj
 0001:00023908       ??_C@_04KOGKBLFK@ldaq?$AA@ 10024908     libffgen:usetab.obj
 0001:00023910       ??_C@_04JJNPPNEO@ldad?$AA@ 10024910     libffgen:usetab.obj
 0001:00023918       ??_C@_04PIDALMNM@ldaw?$AA@ 10024918     libffgen:usetab.obj
 0001:00023920       ??_C@_04MPIFFKMI@ldab?$AA@ 10024920     libffgen:usetab.obj
 0001:00023928       ??_C@_09KIDJGAAM@smp3dgrad?$AA@ 10024928     libffgen:usetab.obj
 0001:00023934       ??_C@_09OEOGLLI@smp2dgrad?$AA@ 10024934     libffgen:usetab.obj
 0001:00023940       ??_C@_09DPKGHBCF@smp1dgrad?$AA@ 10024940     libffgen:usetab.obj
 0001:0002394c       ??_C@_0N@IMLLGHGO@smp3dreplace?$AA@ 1002494c     libffgen:usetab.obj
 0001:0002395c       ??_C@_0N@GDHJAMFA@smp2dreplace?$AA@ 1002495c     libffgen:usetab.obj
 0001:0002396c       ??_C@_0N@IIEOLHFD@smp1dreplace?$AA@ 1002496c     libffgen:usetab.obj
 0001:0002397c       ??_C@_09OCECLLHE@smp3dbias?$AA@ 1002497c     libffgen:usetab.obj
 0001:00023988       ??_C@_09EEDFLAMA@smp2dbias?$AA@ 10024988     libffgen:usetab.obj
 0001:00023994       ??_C@_09HFNNKKFN@smp1dbias?$AA@ 10024994     libffgen:usetab.obj
 0001:000239a0       ??_C@_05OOKKMHDJ@smp3d?$AA@ 100249a0     libffgen:usetab.obj
 0001:000239a8       ??_C@_05OPGIKNAO@smp2d?$AA@ 100249a8     libffgen:usetab.obj
 0001:000239b0       ??_C@_05ONCOBDFH@smp1d?$AA@ 100249b0     libffgen:usetab.obj
 0001:000239b8       ??_C@_06GGGOMLOL@ssum16?$AA@ 100249b8     libffgen:usetab.obj
 0001:000239c0       ??_C@_05COGELEAH@firhh?$AA@ 100249c0     libffgen:usetab.obj
 0001:000239c8       ??_C@_04JDNAGPBH@firh?$AA@ 100249c8     libffgen:usetab.obj
 0001:000239d0       ??_C@_05FCKLBLAM@bilin?$AA@ 100249d0     libffgen:usetab.obj
 0001:000239d8       ??_C@_05DINMDKHN@firvh?$AA@ 100249d8     libffgen:usetab.obj
 0001:000239e0       ??_C@_04EHJBFAMI@firv?$AA@ 100249e0     libffgen:usetab.obj
 0001:000239e8       ??_C@_07DLAPIEBJ@adifsum?$AA@ 100249e8     libffgen:usetab.obj
 0001:000239f0       ??_C@_04FNGKAKMF@adif?$AA@ 100249f0     libffgen:usetab.obj
 0001:000239f8       ??_C@_04CHNIFDFF@idiv?$AA@ 100249f8     libffgen:usetab.obj
 0001:00023a00       ??_C@_05EIKDCMOM@ima32?$AA@ 10024a00     libffgen:usetab.obj
 0001:00023a08       ??_C@_04DFCMAMPF@imae?$AA@ 10024a08     libffgen:usetab.obj
 0001:00023a10       ??_C@_05CPELDNIG@ima16?$AA@ 10024a10     libffgen:usetab.obj
 0001:00023a18       ??_C@_04DKDJCPOM@ima8?$AA@ 10024a18     libffgen:usetab.obj
 0001:00023a20       ??_C@_0L@DAOCLPMG@u16dot4off?$AA@ 10024a20     libffgen:usetab.obj
 0001:00023a2c       ??_C@_0L@ICMCGDNG@u16dot3off?$AA@ 10024a2c     libffgen:usetab.obj
 0001:00023a38       ??_C@_09GIAJOEKF@u8dot4off?$AA@ 10024a38     libffgen:usetab.obj
 0001:00023a44       ??_C@_09NKCJDILF@u8dot3off?$AA@ 10024a44     libffgen:usetab.obj
 0001:00023a50       ??_C@_07EFHPPAJH@u16dot4?$AA@ 10024a50     libffgen:usetab.obj
 0001:00023a58       ??_C@_07KDOGGFA@u16dot3?$AA@ 10024a58     libffgen:usetab.obj
 0001:00023a60       ??_C@_06NDMPFPGO@u8dot4?$AA@ 10024a60     libffgen:usetab.obj
 0001:00023a68       ??_C@_06JMIOMJKJ@u8dot3?$AA@ 10024a68     libffgen:usetab.obj
 0001:00023a70       ??_C@_04EEHAHIMI@sop3?$AA@ 10024a70     libffgen:usetab.obj
 0001:00023a78       ??_C@_06GEKMOMGC@sop2wm?$AA@ 10024a78     libffgen:usetab.obj
 0001:00023a80       ??_C@_04FNGLEJIJ@sop2?$AA@ 10024a80     libffgen:usetab.obj
 0001:00023a88       ??_C@_03HBHPADEG@rlp?$AA@  10024a88     libffgen:usetab.obj
 0001:00023a8c       ??_C@_03JFEOOAEC@rol?$AA@  10024a8c     libffgen:usetab.obj
 0001:00023a90       ??_C@_03BGJPHNPI@asr?$AA@  10024a90     libffgen:usetab.obj
 0001:00023a94       ??_C@_03PMPMKOHN@shr?$AA@  10024a94     libffgen:usetab.obj
 0001:00023a98       ??_C@_03CILNJBKC@shl?$AA@  10024a98     libffgen:usetab.obj
 0001:00023a9c       ??_C@_0M@CDGCCNBB@unpckc10c10?$AA@ 10024a9c     libffgen:usetab.obj
 0001:00023aa8       ??_C@_09KNIBBCKD@unpcku8u8?$AA@ 10024aa8     libffgen:usetab.obj
 0001:00023ab4       ??_C@_0M@MLPMEEHP@unpcks16c10?$AA@ 10024ab4     libffgen:usetab.obj
 0001:00023ac0       ??_C@_0L@GDPGIBDB@unpcks16o8?$AA@ 10024ac0     libffgen:usetab.obj
 0001:00023acc       ??_C@_0L@HGMKNLCF@unpcks16s8?$AA@ 10024acc     libffgen:usetab.obj
 0001:00023ad8       ??_C@_0L@HCEHKHJH@unpcks16u8?$AA@ 10024ad8     libffgen:usetab.obj
 0001:00023ae4       ??_C@_0M@MNLPLEGG@unpcks16s16?$AA@ 10024ae4     libffgen:usetab.obj
 0001:00023af0       ??_C@_0M@OINEOLLK@unpcks16u16?$AA@ 10024af0     libffgen:usetab.obj
 0001:00023afc       ??_C@_0M@KKHIBDML@unpcks16f16?$AA@ 10024afc     libffgen:usetab.obj
 0001:00023b08       ??_C@_0M@KICMHBEF@unpcku16c10?$AA@ 10024b08     libffgen:usetab.obj
 0001:00023b14       ??_C@_0L@LFKPGCCM@unpcku16o8?$AA@ 10024b14     libffgen:usetab.obj
 0001:00023b20       ??_C@_0L@KAJDDIDI@unpcku16s8?$AA@ 10024b20     libffgen:usetab.obj
 0001:00023b2c       ??_C@_0L@KEBOEEIK@unpcku16u8?$AA@ 10024b2c     libffgen:usetab.obj
 0001:00023b38       ??_C@_0M@KOGPIBFM@unpcku16s16?$AA@ 10024b38     libffgen:usetab.obj
 0001:00023b44       ??_C@_0M@ILAENOIA@unpcku16u16?$AA@ 10024b44     libffgen:usetab.obj
 0001:00023b50       ??_C@_0M@MJKICGPB@unpcku16f16?$AA@ 10024b50     libffgen:usetab.obj
 0001:00023b5c       ??_C@_0M@POBKPHBG@unpckf16c10?$AA@ 10024b5c     libffgen:usetab.obj
 0001:00023b68       ??_C@_0L@DAONBCBJ@unpckf16o8?$AA@ 10024b68     libffgen:usetab.obj
 0001:00023b74       ??_C@_0L@CFNBEIAN@unpckf16s8?$AA@ 10024b74     libffgen:usetab.obj
 0001:00023b80       ??_C@_0L@CBFMDELP@unpckf16u8?$AA@ 10024b80     libffgen:usetab.obj
 0001:00023b8c       ??_C@_0M@PIFJAHAP@unpckf16s16?$AA@ 10024b8c     libffgen:usetab.obj
 0001:00023b98       ??_C@_0M@NNDCFIND@unpckf16u16?$AA@ 10024b98     libffgen:usetab.obj
 0001:00023ba4       ??_C@_0M@JPJOKAKC@unpckf16f16?$AA@ 10024ba4     libffgen:usetab.obj
 0001:00023bb0       ??_C@_0M@EGFCPANN@unpckf32c10?$AA@ 10024bb0     libffgen:usetab.obj
 0001:00023bbc       ??_C@_0L@MFEPNGCO@unpckf32o8?$AA@ 10024bbc     libffgen:usetab.obj
 0001:00023bc8       ??_C@_0L@NAHDIMDK@unpckf32s8?$AA@ 10024bc8     libffgen:usetab.obj
 0001:00023bd4       ??_C@_0L@NEPOPAII@unpckf32u8?$AA@ 10024bd4     libffgen:usetab.obj
 0001:00023be0       ??_C@_0M@EABBAAME@unpckf32s16?$AA@ 10024be0     libffgen:usetab.obj
 0001:00023bec       ??_C@_0M@GFHKFPBI@unpckf32u16?$AA@ 10024bec     libffgen:usetab.obj
 0001:00023bf8       ??_C@_0M@CHNGKHGJ@unpckf32f16?$AA@ 10024bf8     libffgen:usetab.obj
 0001:00023c04       ??_C@_0M@EADOLGAD@unpckf32f32?$AA@ 10024c04     libffgen:usetab.obj
 0001:00023c10       ??_C@_09DDFDIML@pckc10s16?$AA@ 10024c10     libffgen:usetab.obj
 0001:00023c1c       ??_C@_09CGFOGHBH@pckc10u16?$AA@ 10024c1c     libffgen:usetab.obj
 0001:00023c28       ??_C@_09GEPCJPGG@pckc10f16?$AA@ 10024c28     libffgen:usetab.obj
 0001:00023c34       ??_C@_09DBKIOAM@pckc10f32?$AA@ 10024c34     libffgen:usetab.obj
 0001:00023c40       ??_C@_08IDEMMIKL@pcko8s16?$AA@ 10024c40     libffgen:usetab.obj
 0001:00023c4c       ??_C@_08KGCHJHHH@pcko8u16?$AA@ 10024c4c     libffgen:usetab.obj
 0001:00023c58       ??_C@_08OEILGPAG@pcko8f16?$AA@ 10024c58     libffgen:usetab.obj
 0001:00023c64       ??_C@_08IDGDHOGM@pcko8f32?$AA@ 10024c64     libffgen:usetab.obj
 0001:00023c70       ??_C@_08PHFIAKEL@pcks8s16?$AA@ 10024c70     libffgen:usetab.obj
 0001:00023c7c       ??_C@_08NCDDFFJH@pcks8u16?$AA@ 10024c7c     libffgen:usetab.obj
 0001:00023c88       ??_C@_08JAJPKNOG@pcks8f16?$AA@ 10024c88     libffgen:usetab.obj
 0001:00023c94       ??_C@_08PHHHLMIM@pcks8f32?$AA@ 10024c94     libffgen:usetab.obj
 0001:00023ca0       ??_C@_08CBABOJFG@pcku8s16?$AA@ 10024ca0     libffgen:usetab.obj
 0001:00023cac       ??_C@_08EGKLGIK@pcku8u16?$AA@ 10024cac     libffgen:usetab.obj
 0001:00023cb8       ??_C@_08EGMGEOPL@pcku8f16?$AA@ 10024cb8     libffgen:usetab.obj
 0001:00023cc4       ??_C@_08CBCOFPJB@pcku8f32?$AA@ 10024cc4     libffgen:usetab.obj
 0001:00023cd0       ??_C@_09OLKLFBKF@pcks16s16?$AA@ 10024cd0     libffgen:usetab.obj
 0001:00023cdc       ??_C@_09MOMAAOHJ@pcks16u16?$AA@ 10024cdc     libffgen:usetab.obj
 0001:00023ce8       ??_C@_09IMGMPGAI@pcks16f16?$AA@ 10024ce8     libffgen:usetab.obj
 0001:00023cf4       ??_C@_09OLIEOHGC@pcks16f32?$AA@ 10024cf4     libffgen:usetab.obj
 0001:00023d00       ??_C@_09IIHLGEJP@pcku16s16?$AA@ 10024d00     libffgen:usetab.obj
 0001:00023d0c       ??_C@_09KNBADLED@pcku16u16?$AA@ 10024d0c     libffgen:usetab.obj
 0001:00023d18       ??_C@_09OPLMMDDC@pcku16f16?$AA@ 10024d18     libffgen:usetab.obj
 0001:00023d24       ??_C@_09IIFENCFI@pcku16f32?$AA@ 10024d24     libffgen:usetab.obj
 0001:00023d30       ??_C@_09NOENOCMM@pckf16s16?$AA@ 10024d30     libffgen:usetab.obj
 0001:00023d3c       ??_C@_09PLCGLNBA@pckf16u16?$AA@ 10024d3c     libffgen:usetab.obj
 0001:00023d48       ??_C@_09LJIKEFGB@pckf16f16?$AA@ 10024d48     libffgen:usetab.obj
 0001:00023d54       ??_C@_09NOGCFEAL@pckf16f32?$AA@ 10024d54     libffgen:usetab.obj
 0001:00023d60       ??_C@_03HMHMOHCI@efo?$AA@  10024d60     libffgen:usetab.obj
 0001:00023d64       ??_C@_07BJAGEKCG@fmaxmin?$AA@ 10024d64     libffgen:usetab.obj
 0001:00023d6c       ??_C@_07IHOEOAG@fminmax?$AA@ 10024d6c     libffgen:usetab.obj
 0001:00023d74       ??_C@_06ICDMGFKB@fmad16?$AA@ 10024d74     libffgen:usetab.obj
 0001:00023d7c       ??_C@_04DDKBPOON@fdsy?$AA@ 10024d7c     libffgen:usetab.obj
 0001:00023d84       ??_C@_04CKLKMPKM@fdsx?$AA@ 10024d84     libffgen:usetab.obj
 0001:00023d8c       ??_C@_04EIBAPHDI@fmax?$AA@ 10024d8c     libffgen:usetab.obj
 0001:00023d94       ??_C@_04FKJLBDFH@fmin?$AA@ 10024d94     libffgen:usetab.obj
 0001:00023d9c       ??_C@_03KABHJCDG@fdp?$AA@  10024d9c     libffgen:usetab.obj
 0001:00023da0       ??_C@_04EBKFHEMK@fcos?$AA@ 10024da0     libffgen:usetab.obj
 0001:00023da8       ??_C@_04OKFNDDPL@fsin?$AA@ 10024da8     libffgen:usetab.obj
 0001:00023db0       ??_C@_05OBEHOPDB@fsqrt?$AA@ 10024db0     libffgen:usetab.obj
 0001:00023db8       ??_C@_04FGIKMNCA@fexp?$AA@ 10024db8     libffgen:usetab.obj
 0001:00023dc0       ??_C@_04DHGILDMJ@flog?$AA@ 10024dc0     libffgen:usetab.obj
 0001:00023dc8       ??_C@_04IOAKHMKG@frsq?$AA@ 10024dc8     libffgen:usetab.obj
 0001:00023dd0       ??_C@_04ILDHOOJH@frcp?$AA@ 10024dd0     libffgen:usetab.obj
 0001:00023dd8       ??_C@_04CIEHKGIK@ffrc?$AA@ 10024dd8     libffgen:usetab.obj
 0001:00023de0       ??_C@_04MMLCCJDO@fmsa?$AA@ 10024de0     libffgen:usetab.obj
 0001:00023de8       ??_C@_04DDLIGMHP@fadm?$AA@ 10024de8     libffgen:usetab.obj
 0001:00023df0       ??_C@_04KOGHKKGF@fmad?$AA@ 10024df0     libffgen:usetab.obj
 0001:00023df8       ??_C@_0BA@LLCLJIP@float?5immediate?$AA@ 10024df8     libffgen:usetab.obj
 0001:00023e08       ??_C@_0BA@GKADHLJN@named?5temporary?$AA@ 10024e08     libffgen:usetab.obj
 0001:00023e18       ??_C@_0BC@EOODDAGN@filter?5coefficent?$AA@ 10024e18     libffgen:usetab.obj
 0001:00023e2c       ??_C@_0BE@FBIDIDIB@8?9bit?5source?5select?$AA@ 10024e2c     libffgen:usetab.obj
 0001:00023e40       ??_C@_0N@KBLPGIGB@address?5mode?$AA@ 10024e40     libffgen:usetab.obj
 0001:00023e50       ??_C@_09DBIHEPNC@clipplane?$AA@ 10024e50     libffgen:usetab.obj
 0001:00023e5c       ??_C@_09OKBKKDGM@predicate?$AA@ 10024e5c     libffgen:usetab.obj
 0001:00023e68       ??_C@_04OHHBHOGB@link?$AA@ 10024e68     libffgen:usetab.obj
 0001:00023e70       ??_C@_09MBGEJPJA@immediate?$AA@ 10024e70     libffgen:usetab.obj
 0001:00023e7c       ??_C@_08LEPPLCNF@internal?$AA@ 10024e7c     libffgen:usetab.obj
 0001:00023e88       ??_C@_08KFDOCAEB@constant?$AA@ 10024e88     libffgen:usetab.obj
 0001:00023e94       ??_C@_06FJKEMHGD@global?$AA@ 10024e94     libffgen:usetab.obj
 0001:00023e9c       ??_C@_0BE@EDPEAKOB@secondary?5attribute?$AA@ 10024e9c     libffgen:usetab.obj
 0001:00023eb0       ??_C@_0BC@FEBGALFK@primary?5attribute?$AA@ 10024eb0     libffgen:usetab.obj
 0001:00023ec4       ??_C@_06DKIGHACF@output?$AA@ 10024ec4     libffgen:usetab.obj
 0001:00023ecc       ??_C@_09CAHPDAG@temporary?$AA@ 10024ecc     libffgen:usetab.obj
 0001:00023ed8       pszTypeToString            10024ed8     libffgen:usetab.obj
 0001:00023f30       g_pfHardwareConstants      10024f30     libffgen:usetab.obj
 0001:00024010       g_asUseInstDesc            10025010     libffgen:usetab.obj
 0001:00025168       g_auNonVecSpecialRegistersInvalidForNonBitwise 10026168     libffgen:specialregs.obj
 0001:00025174       g_uNonVecSpecialRegistersInvalidForNonBitwiseCount 10026174     libffgen:specialregs.obj
 0001:00025178       ??_C@_0CJ@EIHLMMOJ@EncodeInstruction?3?5Reg?5?$CFd?5was?5nu@ 10026178     libffgen:inst.obj
 0001:000251a4       ??_C@_0BI@CELJOCLM@Enable?5dest?5base?5offset?$AA@ 100261a4     libffgen:inst.obj
 0001:000251c0       ??_C@_0FA@KPBPOIEA@Instruction?5below?5can?8t?5have?5exi@ 100261c0     libffgen:inst.obj
 0001:00025210       ??_C@_0BJ@PBBOCFKH@Disable?5dest?5base?5offset?$AA@ 10026210     libffgen:inst.obj
 0001:00025230       ??_C@_0EM@BHJIJFGC@c?3?2data?2jatin?2powervr_build?2ddk1@ 10026230     libffgen:inst.obj
 0001:0002527c       ??_C@_0DP@JOJOOGOB@Possible?5optimisation?$DP?5?9?5Switch?5@ 1002627c     libffgen:inst.obj
 0001:000252bc       ??_C@_0DP@GFPDICLF@StoreInstructionfn?3?5Failed?5to?5al@ 100262bc     libffgen:inst.obj
 0001:000252fc       ??_C@_0CI@JFGMKCCF@StoreInstruction?3?5Reg?5?$CFd?5was?5nul@ 100262fc     libffgen:inst.obj
 0001:00025324       ??_C@_0DN@CJDNBDCF@StoreInstruction?3?5Failed?5to?5allo@ 10026324     libffgen:inst.obj
 0001:00025364       ??_C@_0BH@PFOEBINC@Issue?5outstanding?5WDFs?$AA@ 10026364     libffgen:inst.obj
 0001:0002537c       ??_C@_0CM@CACCDEMK@GetLabel?3?5Error?0?5couldn?8t?5alloc?5@ 1002637c     libffgen:inst.obj
 0001:000253a8       ??_C@_0L@CAOHOGLG@?$CFs_LABEL?$CFu?$AA@ 100263a8     libffgen:inst.obj
 0001:000253b4       ??_C@_0CM@PALIDHOL@GetLabel?3?5Error?0?5couldn?8t?5alloc?5@ 100263b4     libffgen:inst.obj
 0001:000253e0       ??_C@_0CC@IONBMNAK@Move?5source?5vector?5into?5temporar@ 100263e0     libffgen:inst.obj
 0001:00025404       ??_C@_0DH@FBCAJPKC@Following?5code?5need?5to?5be?5aligne@ 10026404     libffgen:inst.obj
 0001:0002543c       ??_C@_0BH@JCIFADOE@Enable?5dest?5increments?$AA@ 1002643c     libffgen:inst.obj
 0001:00025454       ??_C@_0BI@FFADPMMG@Disable?5dest?5increments?$AA@ 10026454     libffgen:inst.obj
 0001:0002546c       ??_C@_0CM@NKIDJECP@IF_PRED?3?5Error?0?5maximum?5nested?5d@ 1002646c     libffgen:inst.obj
 0001:00025498       ??_C@_0CK@GJDOIHFF@END_PRED?3?5Error?0?5condition?5stack@ 10026498     libffgen:inst.obj
 0001:000254c8       ??_C@_0EE@NHNLBFH@COMMENT?3?5Warning?5comment?5buffer?5@ 100264c8     libffgen:inst.obj
 0001:00025510       ??_C@_0EG@NONJPEMB@NEW_BLOCK?3?5Warning?5comment?5buffe@ 10026510     libffgen:inst.obj
 0001:00025558       ??_C@_0BD@KNHKDHAM@Restore?5the?5normal?$AA@ 10026558     libffgen:lighting.obj
 0001:0002556c       ??_C@_0O@OBACKCAK@Light?5Product?$AA@ 1002656c     libffgen:lighting.obj
 0001:0002557c       ??_C@_05JODGIKH@Light?$AA@ 1002657c     libffgen:lighting.obj
 0001:00025584       ??_C@_0P@HCGDDOH@Temp?5size?5?$DN?5?$CFd?$AA@ 10026584     libffgen:lighting.obj
 0001:00025594       ??_C@_0BB@GLNHJEJ@?$CFs?5Light?5?$CFd?5?$CI?$CFs?$CJ?$AA@ 10026594     libffgen:lighting.obj
 0001:000255a8       ??_C@_0BB@JFNLKFCP@without?5Specular?$AA@ 100265a8     libffgen:lighting.obj
 0001:000255bc       ??_C@_0O@ODJOONP@with?5Specular?$AA@ 100265bc     libffgen:lighting.obj
 0001:000255cc       ??_C@_0P@EFHPIEJN@Infinite?5Point?$AA@ 100265cc     libffgen:lighting.obj
 0001:000255dc       ??_C@_0M@BDIGANNJ@Local?5Point?$AA@ 100265dc     libffgen:lighting.obj
 0001:000255e8       ??_C@_0O@MMKOGHI@Infinite?5Spot?$AA@ 100265e8     libffgen:lighting.obj
 0001:000255f8       ??_C@_0L@EGIHIBEN@Local?5Spot?$AA@ 100265f8     libffgen:lighting.obj
 0001:00025604       ??_C@_0DJ@FCDMIGGI@Invert?5the?5normal?5for?5calculatin@ 10026604     libffgen:lighting.obj
 0001:00025640       ??_C@_0BL@KNCGAANN@Use?5diffuse?5material?5alpha?$AA@ 10026640     libffgen:lighting.obj
 0001:0002565c       ??_C@_0BI@EHJKGKMF@Use?5vertex?5colour?5alpha?$AA@ 1002665c     libffgen:lighting.obj
 0001:00025674       ??_C@_0CH@EONMBKHI@Scene?5colour?5?9?5Use?5light?5model?5p@ 10026674     libffgen:lighting.obj
 0001:0002569c       ??_C@_0BE@MJHGKBLI@Light?5Model?5Product?$AA@ 1002669c     libffgen:lighting.obj
 0001:000256b0       ??_C@_0DG@FCGODNCJ@Scene?5colour?5?9?5Use?5vertex?5colour@ 100266b0     libffgen:lighting.obj
 0001:000256e8       ??_C@_0DH@NGDPMDEN@Scene?5colour?5?9?5Use?5vertex?5colour@ 100266e8     libffgen:lighting.obj
 0001:00025720       ??_C@_0M@DCEJEFAF@Light?5Model?$AA@ 10026720     libffgen:lighting.obj
 0001:0002572c       ??_C@_08CPBFELGP@Material?$AA@ 1002672c     libffgen:lighting.obj
 0001:00025738       ??_C@_0CJ@FCJPOOPD@Zero?5seperate?5specular?5reg?5?$CInon?5@ 10026738     libffgen:lighting.obj
 0001:00025764       ??_C@_0BE@PHMJKILD@Lighting?5front?5face?$AA@ 10026764     libffgen:lighting.obj
 0001:00025778       ??_C@_0BD@IHLDDDDM@Lighting?5back?5face?$AA@ 10026778     libffgen:lighting.obj
 0001:00025790       ??_C@_0FA@MDMBIAOD@c?3?2data?2jatin?2powervr_build?2ddk1@ 10026790     libffgen:lighting.obj
 0001:000257e0       ??_C@_0N@CEILCPKB@End?5of?5light?$AA@ 100267e0     libffgen:lighting.obj
 0001:000257f0       ??_C@_0DG@FCGOHAJD@Load?5reg?5with?51?40?5to?5get?5round?5r@ 100267f0     libffgen:lighting.obj
 0001:00025828       ??_C@_0BI@CFPAIJCH@Set?5specular?5coeff?5to?50?$AA@ 10026828     libffgen:lighting.obj
 0001:00025840       ??_C@_0BB@JHGCHADD@NoSpecLightCoeff?$AA@ 10026840     libffgen:lighting.obj
 0001:00025854       ??_C@_0BJ@HDJNOKLO@Calculate?5specular?5coeff?$AA@ 10026854     libffgen:lighting.obj
 0001:00025870       ??_C@_0P@CCJHPFLG@SpecLightCoeff?$AA@ 10026870     libffgen:lighting.obj
 0001:00025880       ??_C@_0CD@HLLCFIJC@Do?5we?5need?5to?5calc?5specular?5coef@ 10026880     libffgen:lighting.obj
 0001:000258a8       ??_C@_0EN@OCFLHMLI@Set?5predicate?5for?5specular?5test?5@ 100268a8     libffgen:lighting.obj
 0001:000258f8       ??_C@_0BK@OHEOCDDF@Calc?5specular?5half?5angle?5?$AA@ 100268f8     libffgen:lighting.obj
 0001:00025914       ??_C@_0BO@MIKNJBAA@Normalise?5specular?5half?5angle?$AA@ 10026914     libffgen:lighting.obj
 0001:00025934       ??_C@_0BG@GJMHPMIM@Load?5light?5half?5angle?$AA@ 10026934     libffgen:lighting.obj
 0001:0002594c       ??_C@_0CN@FAAJJLEL@Local?5viewer?5enabled?5?3?5h_i?5?$DN?5?$CIVP@ 1002694c     libffgen:lighting.obj
 0001:0002597c       ??_C@_0BI@BJHLPANM@Clamp?5diff?5angle?5to?50?40?$AA@ 1002697c     libffgen:lighting.obj
 0001:00025994       ??_C@_0BF@HKIFJBJI@Move?5onto?5next?5light?$AA@ 10026994     libffgen:lighting.obj
 0001:000259ac       ??_C@_0M@PMCFJDGB@AmbientOnly?$AA@ 100269ac     libffgen:lighting.obj
 0001:000259b8       ??_C@_0EE@KEIMPFOB@Check?5if?5it?8s?5worth?5calculating?5@ 100269b8     libffgen:lighting.obj
 0001:00025a00       ??_C@_0GF@FHLDJOLL@Test?5result?5?9?5?$CB?$CB?5shift?5this?5test@ 10026a00     libffgen:lighting.obj
 0001:00025a68       ??_C@_0EF@EMBOGPNI@Calculate?5angle?5between?5normal?5a@ 10026a68     libffgen:lighting.obj
 0001:00025ab0       ??_C@_0DK@CGKPLDHE@Calculate?5angle?5between?5normal?5a@ 10026ab0     libffgen:lighting.obj
 0001:00025aec       ??_C@_0CB@FDFDOGMJ@Normalise?5vertex?5to?5light?5vector@ 10026aec     libffgen:lighting.obj
 0001:00025b10       ??_C@_0L@KCMDIALA@EndOfLight?$AA@ 10026b10     libffgen:lighting.obj
 0001:00025b1c       ??_C@_0CH@FGCBILAO@Calculate?5ambient?5components?5of?5@ 10026b1c     libffgen:lighting.obj
 0001:00025b44       ??_C@_0BI@JAJKGEDI@Calculate?5local?5ambient?$AA@ 10026b44     libffgen:lighting.obj
 0001:00025b5c       ??_C@_0CH@PGHAKFN@Calculate?5diffuse?5components?5of?5@ 10026b5c     libffgen:lighting.obj
 0001:00025b84       ??_C@_0BI@CCMKNPCE@Calculate?5local?5diffuse?$AA@ 10026b84     libffgen:lighting.obj
 0001:00025b9c       ??_C@_0CI@DCMHGBOG@Calculate?5specular?5components?5of@ 10026b9c     libffgen:lighting.obj
 0001:00025bc4       ??_C@_0BJ@OECLFEPJ@Calculate?5local?5specular?$AA@ 10026bc4     libffgen:lighting.obj
 0001:00025be0       ??_C@_0BN@KMMADCKC@Attenuate?5light?5coefficients?$AA@ 10026be0     libffgen:lighting.obj
 0001:00025c00       ??_C@_0DA@JGABDEMF@Local?5viewer?5disabled?5?3h_i?5?$DN?5?$CIVP@ 10026c00     libffgen:lighting.obj
 0001:00025c30       ??_C@_07JBEAGHEM@?$CIatt_i?$CJ?$AA@ 10026c30     libffgen:lighting.obj
 0001:00025c38       ??_C@_0BP@KEMKENJA@Calculate?5distance?5attenuation?$AA@ 10026c38     libffgen:lighting.obj
 0001:00025c58       ??_C@_0DE@KMFGIAFA@Setup?5distance?5vector?5?5?$DN?5?$HL1?0?5?$HMVP@ 10026c58     libffgen:lighting.obj
 0001:00025c90       ??_C@_0EO@ICIMPIAM@Get?5vertex?5to?5light?5vector?5?$CIfsub@ 10026c90     libffgen:lighting.obj
 0001:00025ce0       ??_C@_0CP@MHGPMFFM@Calculate?5attenuation?5due?5to?5spo@ 10026ce0     libffgen:lighting.obj
 0001:00025d10       ??_C@_0EL@HKGFEGHF@If?5vertex?5falls?5outside?5of?5?$CIcosi@ 10026d10     libffgen:lighting.obj
 0001:00025d60       ??_C@_0FA@JFACKHEB@Calculate?5angle?5between?5light?5to@ 10026d60     libffgen:lighting.obj
 0001:00025db0       ??_C@_0CL@PCMLNOCJ@Add?5spotlight?5calc?5to?5distance?5a@ 10026db0     libffgen:lighting.obj
 0001:00025e04       InitAccumUSECodeBlocks     10026e04 f   accum.obj
 0001:000263f8       FreeAccumUSECodeBlocks     100273f8 f   accum.obj
 0001:00026444       SetupBGObject              10027444 f   accum.obj
 0001:00026ac8       SendAccumulateObject       10027ac8 f   accum.obj
 0001:000280d8       SetUSEExecutionAddress     100290d8 f i accum.obj
 0001:000282ac       CreateBufObjState          100292ac f   bufobj.obj
 0001:00028318       FreeBufObjState            10029318 f   bufobj.obj
 0001:000283e4       ReclaimBufferObjectMemKRM  100293e4 f   bufobj.obj
 0001:00028420       DestroyBufferObjectGhostKRM 10029420 f   bufobj.obj
 0001:0002845c       SetupBufObjNameArray       1002945c f   bufobj.obj
 0001:000286f4       glBindBuffer               100296f4 f   bufobj.obj
 0001:00029250       glDeleteBuffers            1002a250 f   bufobj.obj
 0001:00029ab8       glGenBuffers               1002aab8 f   bufobj.obj
 0001:0002a260       glBufferData               1002b260 f   bufobj.obj
 0001:0002b22c       glBufferSubData            1002c22c f   bufobj.obj
 0001:0002bf20       glMapBufferOES             1002cf20 f   bufobj.obj
 0001:0002c8d8       glUnmapBufferOES           1002d8d8 f   bufobj.obj
 0001:0002cdd4       InitClearUSECodeBlocks     1002ddd4 f   clear.obj
 0001:0002d278       FreeClearUSECodeBlocks     1002e278 f   clear.obj
 0001:0002d2ac       SendClearPrims             1002e2ac f   clear.obj
 0001:0002ec64       glClear                    1002fc64 f   clear.obj
 0001:0002f820       glClearColor               10030820 f   clear.obj
 0001:0002fb70       glClearColorx              10030b70 f   clear.obj
 0001:0002ff38       glClearDepthf              10030f38 f   clear.obj
 0001:000301f4       glClearDepthx              100311f4 f   clear.obj
 0001:000304d4       glClearStencil             100314d4 f   clear.obj
 0001:000307a4       BuildSOP2WM                100317a4 f i clear.obj
 0001:0003098c       glDrawTexsOES              1003198c f   drawtex.obj
 0001:00031a8c       glDrawTexiOES              10032a8c f   drawtex.obj
 0001:00031d8c       glDrawTexfOES              10032d8c f   drawtex.obj
 0001:00032050       glDrawTexxOES              10033050 f   drawtex.obj
 0001:0003239c       glDrawTexsvOES             1003339c f   drawtex.obj
 0001:000326c0       glDrawTexivOES             100336c0 f   drawtex.obj
 0001:000329cc       glDrawTexfvOES             100339cc f   drawtex.obj
 0001:00032cb4       glDrawTexxvOES             10033cb4 f   drawtex.obj
 0001:00033bf4       AttachAllUsedResourcesToCurrentSurface 10034bf4 f   drawvarray.obj
 0001:00033f40       AttachAllUsedBOsAndVAOToCurrentKick 10034f40 f   drawvarray.obj
 0001:00034110       glDrawArrays               10035110 f   drawvarray.obj
 0001:0003ac5c       glDrawElements             1003bc5c f   drawvarray.obj
 0001:0003f9d4       glMultiDrawArraysEXT       100409d4 f   drawvarray.obj
 0001:00045760       glMultiDrawElementsEXT     10046760 f   drawvarray.obj
 0001:0004b720       IsColorAttachmentTwiddled  1004c720 f   fbo.obj
 0001:0004b8d0       GetColorAttachmentMemFormat 1004c8d0 f   fbo.obj
 0001:0004bad8       FlushAttachableIfNeeded    1004cad8 f   fbo.obj
 0001:0004bc44       DestroyFBOAttachableRenderSurface 1004cc44 f   fbo.obj
 0001:0004bdd8       SetupRenderBufferNameArray 1004cdd8 f   fbo.obj
 0001:0004bf40       SetupFrameBufferObjectNameArray 1004cf40 f   fbo.obj
 0001:0004c0cc       CreateFrameBufferState     1004d0cc f   fbo.obj
 0001:0004c1a0       FreeFrameBufferState       1004d1a0 f   fbo.obj
 0001:0004c29c       RemoveFrameBufferAttachment 1004d29c f   fbo.obj
 0001:0004c50c       ChangeDrawableParams       1004d50c f   fbo.obj
 0001:0004ca28       GetFrameBufferCompleteness 1004da28 f   fbo.obj
 0001:0004df60       FBOAttachableHasBeenModified 1004ef60 f   fbo.obj
 0001:0004e164       glIsRenderbufferOES        1004f164 f   fbo.obj
 0001:0004e798       glBindRenderbufferOES      1004f798 f   fbo.obj
 0001:0004f104       glDeleteRenderbuffersOES   10050104 f   fbo.obj
 0001:0004f940       glGenRenderbuffersOES      10050940 f   fbo.obj
 0001:0004fc64       glRenderbufferStorageOES   10050c64 f   fbo.obj
 0001:00050b1c       SetupRenderbufferFromEGLImage 10051b1c f   fbo.obj
 0001:00050e20       glGetRenderbufferParameterivOES 10051e20 f   fbo.obj
 0001:00051868       glIsFramebufferOES         10052868 f   fbo.obj
 0001:00051e9c       glBindFramebufferOES       10052e9c f   fbo.obj
 0001:00052a64       glDeleteFramebuffersOES    10053a64 f   fbo.obj
 0001:000532a4       glGenFramebuffersOES       100542a4 f   fbo.obj
 0001:00053a24       glCheckFramebufferStatusOES 10054a24 f   fbo.obj
 0001:00053e78       glFramebufferTexture2DOES  10054e78 f   fbo.obj
 0001:000548c4       glFramebufferRenderbufferOES 100558c4 f   fbo.obj
 0001:000550b8       glGetFramebufferAttachmentParameterivOES 100560b8 f   fbo.obj
 0001:00055a5c       glGenerateMipmapOES        10056a5c f   fbo.obj
 0001:00055f90       DestroyHashedBlendState    10056f90 f   fftex.obj
 0001:000560cc       AddFFTextureBinding        100570cc f   fftex.obj
 0001:000562a8       ValidateFFTextureConstants 100572a8 f   fftex.obj
 0001:000564e4       ValidateFFTextureBlending  100574e4 f   fftex.obj
 0001:00057418       CreateIntegerFragmentProgramFromFF 10058418 f   fftexhw.obj
 0001:0005e5b4       DestroyFFTNLCode           1005f5b4 f   fftnlgles.obj
 0001:0005e6dc       InitFFTNLState             1005f6dc f   fftnlgles.obj
 0001:0005eb7c       FreeFFTNLState             1005fb7c f   fftnlgles.obj
 0001:0005ec08       SetupFFTNLShaderOutputs    1005fc08 f   fftnlgles.obj
 0001:0005f3f8       SetupBuildFFTNLShaderConstants 100603f8 f   fftnlgles.obj
 0001:0006184c       SetupFFTNLShader           1006284c f   fftnlgles.obj
 0001:00063ebc       glFogfv                    10064ebc f   fog.obj
 0001:000645ec       glFogf                     100655ec f   fog.obj
 0001:000648dc       glFogxv                    100658dc f   fog.obj
 0001:00064c84       glFogx                     10065c84 f   fog.obj
 0001:00064fc8       glIsTexture                10065fc8 f   get.obj
 0001:000655fc       glIsBuffer                 100665fc f   get.obj
 0001:00065c18       glGetBufferParameteriv     10066c18 f   get.obj
 0001:000662c8       glGetBufferPointervOES     100672c8 f   get.obj
 0001:0006689c       glGetMaterialfv            1006789c f   get.obj
 0001:00066db8       glGetMaterialxv            10067db8 f   get.obj
 0001:000670f8       glGetLightfv               100680f8 f   get.obj
 0001:000676ac       glGetLightxv               100686ac f   get.obj
 0001:00067a30       glGetTexEnvfv              10068a30 f   get.obj
 0001:000688dc       glGetTexEnvxv              100698dc f   get.obj
 0001:00068c34       glGetTexEnviv              10069c34 f   get.obj
 0001:00068f48       glGetClipPlanef            10069f48 f   get.obj
 0001:00069438       glGetClipPlanex            1006a438 f   get.obj
 0001:0006995c       glGetTexParameteriv        1006a95c f   get.obj
 0001:0006a22c       glGetTexParameterfv        1006b22c f   get.obj
 0001:0006a4e0       glGetTexParameterxv        1006b4e0 f   get.obj
 0001:0006a79c       glGetTexGenivOES           1006b79c f   get.obj
 0001:0006aaa0       glGetTexGenfvOES           1006baa0 f   get.obj
 0001:0006ada4       glGetTexGenxvOES           1006bda4 f   get.obj
 0001:0006b090       glGetFixedv                1006c090 f   get.obj
 0001:000702e0       glGetFloatv                100712e0 f   get.obj
 0001:00070594       glGetBooleanv              10071594 f   get.obj
 0001:00070848       glGetPointerv              10071848 f   get.obj
 0001:00070c64       glIsEnabled                10071c64 f   get.obj
 0001:00070f30       glGetIntegerv              10071f30 f   get.obj
 0001:000711e4       glGetError                 100721e4 f   get.obj
 0001:000714b0       glGetString                100724b0 f   get.obj
 0001:00071848       HardwareMakeTextureMipmapLevels 10072848 f   makemips.obj
 0001:00072ba8       MakeTextureMipmapLevels    10073ba8 f   makemips.obj
 0001:00074304       PickMatrixProcs            10075304 f   matrix.obj
 0001:000749e4       PickInvTransposeProcs      100759e4 f   matrix.obj
 0001:00074a20       TransposeMatrix            10075a20 f   matrix.obj
 0001:00074ba8       ComputeInverseTranspose    10075ba8 f   matrix.obj
 0001:00074ce4       InvertTransposeMatrix      10075ce4 f   matrix.obj
 0001:00075970       CopyMatrix                 10076970 f   matrix.obj
 0001:00075b10       MakeIdentity               10076b10 f   matrix.obj
 0001:00075c54       MultMatrix                 10076c54 f   matrix.obj
 0001:0007605c       DoMultMatrix               1007705c f   matrix.obj
 0001:000762d8       DoLoadMatrix               100772d8 f   matrix.obj
 0001:000764fc       MultiplyMatrix             100774fc f   matrix.obj
 0001:000767a4       ScaleMatrix                100777a4 f   matrix.obj
 0001:000769f4       TranslateMatrix            100779f4 f   matrix.obj
 0001:00076c08       PushModelViewMatrix        10077c08 f   matrix.obj
 0001:00076cb4       PopModelViewMatrix         10077cb4 f   matrix.obj
 0001:00076d48       LoadIdentityModelViewMatrix 10077d48 f   matrix.obj
 0001:00076e08       PushMatrixPaletteMatrix    10077e08 f   matrix.obj
 0001:00076e20       PopMatrixPaletteMatrix     10077e20 f   matrix.obj
 0001:00076e38       LoadIdentityMatrixPaletteMatrix 10077e38 f   matrix.obj
 0001:00076f14       PushProjectionMatrix       10077f14 f   matrix.obj
 0001:00076fbc       PopProjectionMatrix        10077fbc f   matrix.obj
 0001:00077050       LoadIdentityProjectionMatrix 10078050 f   matrix.obj
 0001:000770f4       PushTextureMatrix          100780f4 f   matrix.obj
 0001:000771d0       PopTextureMatrix           100781d0 f   matrix.obj
 0001:00077298       LoadIdentityTextureMatrix  10078298 f   matrix.obj
 0001:00077328       InitTransformState         10078328 f   matrix.obj
 0001:00077888       FreeTransformState         10078888 f   matrix.obj
 0001:000779ec       glCurrentPaletteMatrixOES  100789ec f   matrix.obj
 0001:00077d44       glLoadPaletteFromModelViewMatrixOES 10078d44 f   matrix.obj
 0001:00078040       GetFrameTime               10079040 f   metrics.obj
 0001:00078138       InitMetrics                10079138 f   metrics.obj
 0001:000781c0       OutputMetrics              100791c0 f   metrics.obj
 0001:0007bb4c       Clampf                     1007cb4c f   misc.obj
 0001:0007bbb8       Clampi                     1007cbb8 f   misc.obj
 0001:0007bc1c       FloatToHWByte              1007cc1c f   misc.obj
 0001:0007be28       ColorConvertToHWFormat     1007ce28 f   misc.obj
 0001:0007bedc       ColorConvertFromHWFormat   1007cedc f   misc.obj
 0001:0007bf9c       Normalize                  1007cf9c f   misc.obj
 0001:0007c16c       FloorLog2                  1007d16c f   misc.obj
 0001:0007c1c0       Floor                      1007d1c0 f   misc.obj
 0001:0007c230       glFinish                   1007d230 f   misc.obj
 0001:0007c6e4       glFlush                    1007d6e4 f   misc.obj
 0001:0007c9e0       glHint                     1007d9e0 f   misc.obj
 0001:0007d03c       glQueryMatrixxOES          1007e03c f   misc.obj
 0001:0007d4c4       SetError                   1007e4c4 f   misc.obj
 0001:0007d500       GetApplicationHints        1007e500 f   misc.obj
 0001:0007daa8       BuildExtensionString       1007eaa8 f   misc.obj
 0001:0007dbf4       DestroyExtensionString     1007ebf4 f   misc.obj
 0001:0007dc50       ConvertData                1007ec50 f   misc.obj
 0001:0007e828       CreateNamesArray           1007f828 f   names.obj
 0001:0007ef20       NamesArrayGenNames         1007ff20 f   names.obj
 0001:0007f458       NamesArrayMapFunction      10080458 f   names.obj
 0001:0007f768       DestroyNamesArray          10080768 f   names.obj
 0001:0007fa78       InsertNamedItem            10080a78 f   names.obj
 0001:0007ffa0       NamedItemAddRef            10080fa0 f   names.obj
 0001:00080410       NamedItemDelRef            10081410 f   names.obj
 0001:000808c0       NamedItemDelRefByName      100818c0 f   names.obj
 0001:00080c9c       GetStridedSurfaceData      10081c9c f   pixop.obj
 0001:000812ac       glPixelStorei              100822ac f   pixop.obj
 0001:00081944       SetupReadPixelsSpanInfo    10082944 f   pixop.obj
 0001:00082104       glReadPixels               10083104 f   pixop.obj
 0001:000835a8       InitProfileData            100845a8 f   profile.obj
 0001:00083638       AddToStateMetric           10084638 f   profile.obj
 0001:00083a20       ProfileOutputTotals        10084a20 f   profile.obj
 0001:0008563c       InitScissorUSECodeBlocks   1008663c f   scissor.obj
 0001:00085aa4       FreeScissorUSECodeBlocks   10086aa4 f   scissor.obj
 0001:00085ac8       SendDrawMaskRect           10086ac8 f   scissor.obj
 0001:000871a8       SendDrawMaskForPrimitive   100881a8 f   scissor.obj
 0001:00087730       SendDrawMaskForClear       10088730 f   scissor.obj
 0001:00087980       glScissor                  10088980 f   scissor.obj
 0001:0008817c       WaitForTA                  1008917c f   sgxif.obj
 0001:000884a0       PrepareToDraw              100894a0 f   sgxif.obj
 0001:00089af8       KickUnFlushed_ScheduleTA   1008aaf8 f   sgxif.obj
 0001:00089b8c       KickLimit_ScheduleTA       1008ab8c f   sgxif.obj
 0001:00089bf8       ScheduleTA                 1008abf8 f   sgxif.obj
 0001:0008b9bc       DestroyHashedPDSVariant    1008c9bc f   shader.obj
 0001:0008ba6c       ReclaimUSEShaderVariantMemKRM 1008ca6c f   shader.obj
 0001:0008bca8       DestroyUSECodeVariantGhostKRM 1008cca8 f   shader.obj
 0001:0008bce4       DestroyVertexVariants      1008cce4 f   shader.obj
 0001:0008bdbc       FreeShader                 1008cdbc f   shader.obj
 0001:0008be24       FreeProgramState           1008ce24 f   shader.obj
 0001:0008bf04       SpanPack16                 1008cf04 f   spanpack.obj
 0001:0008c004       SpanPack32                 1008d004 f   spanpack.obj
 0001:0008c104       SpanPackARGB4444toRGBA4444 1008d104 f   spanpack.obj
 0001:0008c1d8       SpanPackARGB1555toRGBA5551 1008d1d8 f   spanpack.obj
 0001:0008c2ac       SpanPackARGB8888toABGR8888 1008d2ac f   spanpack.obj
 0001:0008c388       SpanPackARGB8888toXBGR8888 1008d388 f   spanpack.obj
 0001:0008c45c       SpanPackARGB8888toRGB565   1008d45c f   spanpack.obj
 0001:0008c568       SpanPackARGB8888toARGB4444 1008d568 f   spanpack.obj
 0001:0008c6a4       SpanPackARGB8888toARGB1555 1008d6a4 f   spanpack.obj
 0001:0008c7ec       SpanPackARGB8888toLuminanceAlpha 1008d7ec f   spanpack.obj
 0001:0008c8c0       SpanPackARGB8888toLuminance 1008d8c0 f   spanpack.obj
 0001:0008c988       SpanPackAXXX8888toAlpha    1008d988 f   spanpack.obj
 0001:0008ca50       SpanPackABGR8888toARGB8888 1008da50 f   spanpack.obj
 0001:0008cb2c       SpanPackABGR8888toXBGR8888 1008db2c f   spanpack.obj
 0001:0008cc00       SpanPackABGR8888toRGB565   1008dc00 f   spanpack.obj
 0001:0008cd14       SpanPackABGR8888toARGB4444 1008dd14 f   spanpack.obj
 0001:0008ce58       SpanPackABGR8888toARGB1555 1008de58 f   spanpack.obj
 0001:0008cfa8       SpanPackABGR8888toLuminanceAlpha 1008dfa8 f   spanpack.obj
 0001:0008d088       SpanPackABGR8888toLuminance 1008e088 f   spanpack.obj
 0001:0008d150       SpanPackARGB4444toABGR8888 1008e150 f   spanpack.obj
 0001:0008d2dc       SpanPackARGB4444toXBGR8888 1008e2dc f   spanpack.obj
 0001:0008d440       SpanPackARGB4444toARGB8888 1008e440 f   spanpack.obj
 0001:0008d5cc       SpanPackARGB4444toRGB565   1008e5cc f   spanpack.obj
 0001:0008d748       SpanPackARGB4444toARGB1555 1008e748 f   spanpack.obj
 0001:0008d8f8       SpanPackARGB4444toLuminanceAlpha 1008e8f8 f   spanpack.obj
 0001:0008da20       SpanPackARGB4444toLuminance 1008ea20 f   spanpack.obj
 0001:0008db04       SpanPackARGB4444toAlpha    1008eb04 f   spanpack.obj
 0001:0008dbe8       SpanPackARGB1555toABGR8888 1008ebe8 f   spanpack.obj
 0001:0008ddb0       SpanPackARGB1555toXBGR8888 1008edb0 f   spanpack.obj
 0001:0008df54       SpanPackARGB1555toARGB8888 1008ef54 f   spanpack.obj
 0001:0008e11c       SpanPackARGB1555toRGB565   1008f11c f   spanpack.obj
 0001:0008e228       SpanPackARGB1555toARGB4444 1008f228 f   spanpack.obj
 0001:0008e370       SpanPackARGB1555toLuminanceAlpha 1008f370 f   spanpack.obj
 0001:0008e490       SpanPackARGB1555toLuminance 1008f490 f   spanpack.obj
 0001:0008e578       SpanPackARGB1555toAlpha    1008f578 f   spanpack.obj
 0001:0008e64c       SpanPackRGB565toXBGR8888   1008f64c f   spanpack.obj
 0001:0008e7f8       SpanPackRGB565toLuminance  1008f7f8 f   spanpack.obj
 0001:0008e8e4       SpanPackXBGR8888toABGR8888 1008f8e4 f   spanpack.obj
 0001:0008e9a8       glEnable                   1008f9a8 f   state.obj
 0001:000906d8       glDisable                  100916d8 f   state.obj
 0001:00092448       glAlphaFunc                10093448 f   state.obj
 0001:00092804       glAlphaFuncx               10093804 f   state.obj
 0001:00092ad0       glBlendEquationOES         10093ad0 f   state.obj
 0001:00092fa0       glBlendEquationSeparateOES 10093fa0 f   state.obj
 0001:00093660       glBlendFuncSeparateOES     10094660 f   state.obj
 0001:00093c08       glBlendFunc                10094c08 f   state.obj
 0001:00093ec4       glCullFace                 10094ec4 f   state.obj
 0001:000941fc       glDepthFunc                100951fc f   state.obj
 0001:00094688       glDepthMask                10095688 f   state.obj
 0001:000949e8       glLineWidth                100959e8 f   state.obj
 0001:00094ef4       glLineWidthx               10095ef4 f   state.obj
 0001:0009542c       glPointSize                1009642c f   state.obj
 0001:00095910       glPointSizex               10096910 f   state.obj
 0001:00095bd8       glPointParameterfv         10096bd8 f   state.obj
 0001:00096118       glPointParameterf          10097118 f   state.obj
 0001:000963fc       glPointParameterxv         100973fc f   state.obj
 0001:00096720       glPointParameterx          10097720 f   state.obj
 0001:00096a2c       glFrontFace                10097a2c f   state.obj
 0001:00096d3c       glLogicOp                  10097d3c f   state.obj
 0001:000971d4       glPolygonOffset            100981d4 f   state.obj
 0001:00097530       glPolygonOffsetx           10098530 f   state.obj
 0001:000978d0       glShadeModel               100988d0 f   state.obj
 0001:00097d80       glStencilFunc              10098d80 f   state.obj
 0001:000982d8       glStencilOp                100992d8 f   state.obj
 0001:000989dc       glStencilMask              100999dc f   state.obj
 0001:00098d08       glColorMask                10099d08 f   state.obj
 0001:000990b0       glSampleCoverage           1009a0b0 f   state.obj
 0001:000993a8       glSampleCoveragex          1009a3a8 f   state.obj
 0001:000996bc       HashTableCreate            1009a6bc f   statehash.obj
 0001:00099818       HashTableDestroy           1009a818 f   statehash.obj
 0001:000998d0       HashFunc                   1009a8d0 f   statehash.obj
 0001:000999b0       HashTableSearch            1009a9b0 f   statehash.obj
 0001:00099c98       ValidateHashTableInsert    1009ac98 f   statehash.obj
 0001:0009a02c       HashTableInsert            1009b02c f   statehash.obj
 0001:0009a21c       HashTableDelete            1009b21c f   statehash.obj
 0001:0009a474       CopyTexturePVRTC           1009b474 f   tex.obj
 0001:0009a650       CopyTextureETC1            1009b650 f   tex.obj
 0001:0009a7f8       CopyTexture8888BGRAto8888RGBA 1009b7f8 f   tex.obj
 0001:0009a91c       CopyTexture32Bits          1009b91c f   tex.obj
 0001:0009aa10       CopyTexture16Bits          1009ba10 f   tex.obj
 0001:0009ab04       CopyTexture8Bits           1009bb04 f   tex.obj
 0001:0009abdc       CopyTexture5551            1009bbdc f   tex.obj
 0001:0009acec       CopyTexture4444            1009bcec f   tex.obj
 0001:0009adfc       CopyTexture888X            1009bdfc f   tex.obj
 0001:0009af48       CopyTexture888to565        1009bf48 f   tex.obj
 0001:0009b0a4       CopyTexture565toRGBX8888   1009c0a4 f   tex.obj
 0001:0009b270       CopyTexture5551to4444      1009c270 f   tex.obj
 0001:0009b420       CopyTexture5551toBGRA8888  1009c420 f   tex.obj
 0001:0009b61c       CopyTexture5551toRGBA8888  1009c61c f   tex.obj
 0001:0009b818       CopyTexture4444to5551      1009c818 f   tex.obj
 0001:0009ba30       CopyTexture4444toBGRA8888  1009ca30 f   tex.obj
 0001:0009bc2c       CopyTexture4444toRGBA8888  1009cc2c f   tex.obj
 0001:0009be38       CopyTextureRGBA8888to5551  1009ce38 f   tex.obj
 0001:0009bfe8       CopyTextureBGRA8888to5551  1009cfe8 f   tex.obj
 0001:0009c190       CopyTextureRGBA8888to4444  1009d190 f   tex.obj
 0001:0009c340       CopyTextureBGRA8888to4444  1009d340 f   tex.obj
 0001:0009c4e8       SetTextureFormat           1009d4e8 f   tex.obj
 0001:0009c664       glActiveTexture            1009d664 f   tex.obj
 0001:0009c96c       BindTexture                1009d96c f   tex.obj
 0001:0009ccd8       glBindTexture              1009dcd8 f   tex.obj
 0001:0009d4d0       glDeleteTextures           1009e4d0 f   tex.obj
 0001:0009deec       glGenTextures              1009eeec f   tex.obj
 0001:0009e66c       glTexImage2D               1009f66c f   tex.obj
 0001:0009f7e8       glTexSubImage2D            100a07e8 f   tex.obj
 0001:000a2354       glCompressedTexImage2D     100a3354 f   tex.obj
 0001:000a4ba4       glCompressedTexSubImage2D  100a5ba4 f   tex.obj
 0001:000a57a8       glCopyTexImage2D           100a67a8 f   tex.obj
 0001:000a760c       glCopyTexSubImage2D        100a860c f   tex.obj
 0001:000aae54       glTexEnvfv                 100abe54 f   tex.obj
 0001:000ab5cc       glTexEnvf                  100ac5cc f   tex.obj
 0001:000ab974       glTexEnvxv                 100ac974 f   tex.obj
 0001:000ac1a0       glTexEnvx                  100ad1a0 f   tex.obj
 0001:000ac548       glTexEnviv                 100ad548 f   tex.obj
 0001:000acd94       glTexEnvi                  100add94 f   tex.obj
 0001:000ad124       glTexParameterf            100ae124 f   tex.obj
 0001:000adb68       glTexParameterx            100aeb68 f   tex.obj
 0001:000ade2c       glTexParameteri            100aee2c f   tex.obj
 0001:000ae0e8       glTexParameterfv           100af0e8 f   tex.obj
 0001:000ae3ac       glTexParameteriv           100af3ac f   tex.obj
 0001:000ae670       glTexParameterxv           100af670 f   tex.obj
 0001:000ae934       glTexGeniOES               100af934 f   tex.obj
 0001:000aec88       glTexGenivOES              100afc88 f   tex.obj
 0001:000aef40       glTexGenfOES               100aff40 f   tex.obj
 0001:000af1f4       glTexGenfvOES              100b01f4 f   tex.obj
 0001:000af4b4       glTexGenxOES               100b04b4 f   tex.obj
 0001:000af760       glTexGenxvOES              100b0760 f   tex.obj
 0001:000afa20       InitTexCombineState        100b0a20 f   texcombine.obj
 0001:000afc14       TexEnvCombine              100b0c14 f   texcombine.obj
 0001:000b065c       PrepareHWTQTextureUpload   100b165c f   texdata.obj
 0001:000b1560       HWTQTextureUpload          100b2560 f   texdata.obj
 0001:000b16c4       PrepareHWTQTextureNormalBlit 100b26c4 f   texdata.obj
 0001:000b228c       HWTQTextureNormalBlit      100b328c f   texdata.obj
 0001:000b2488       GetMipMapOffset            100b3488 f   texdata.obj
 0001:000b2548       GetCompressedMipMapOffset  100b3548 f   texdata.obj
 0001:000b26b4       TranslateLevel             100b36b4 f   texdata.obj
 0001:000b2e20       ReadBackTextureData        100b3e20 f   texdata.obj
 0001:000b34e4       SetupTwiddleFns            100b44e4 f   texdata.obj
 0001:000b35b8       CopyTextureData            100b45b8 f   texdata.obj
 0001:000b3a94       CreateTextureMemory        100b4a94 f   texmgmt.obj
 0001:000b4280       SetupTextureRenderTargetControlWords 100b5280 f   texmgmt.obj
 0001:000b45c4       TexMgrGhostTexture         100b55c4 f   texmgmt.obj
 0001:000b48e8       TextureRemoveResident      100b58e8 f   texmgmt.obj
 0001:000b4924       TextureMakeResident        100b5924 f   texmgmt.obj
 0001:000b5380       UnloadInconsistentTexture  100b6380 f   texmgmt.obj
 0001:000b59fc       IsTextureConsistent        100b69fc f   texmgmt.obj
 0001:000b6248       TextureCreatePBufferLevel  100b7248 f   texmgmt.obj
 0001:000b66a0       TextureCreateImageLevel    100b76a0 f   texmgmt.obj
 0001:000b6cac       TextureCreateLevel         100b7cac f   texmgmt.obj
 0001:000b7278       CreateTexture              100b8278 f   texmgmt.obj
 0001:000b7504       CreateTextureManager       100b8504 f   texmgmt.obj
 0001:000b7d38       CreateTextureState         100b8d38 f   texmgmt.obj
 0001:000b7f40       SetupTexNameArray          100b8f40 f   texmgmt.obj
 0001:000b8374       ReleaseTextureManager      100b9374 f   texmgmt.obj
 0001:000b8484       FreeTextureState           100b9484 f   texmgmt.obj
 0001:000b8610       SetupTextureState          100b9610 f   texmgmt.obj
 0001:000b9564       ReleasePbufferFromTexture  100ba564 f   texrender.obj
 0001:000b960c       GLESBindTexImage           100ba60c f   texrender.obj
 0001:000b9804       GLESReleaseTexImage        100ba804 f   texrender.obj
 0001:000b9860       InitLightingState          100ba860 f   tnlapi.obj
 0001:000b9d74       FreeLightingState          100bad74 f   tnlapi.obj
 0001:000b9df8       SetupTransformLightingProcs 100badf8 f   tnlapi.obj
 0001:000b9f04       glLightModelfv             100baf04 f   tnlapi.obj
 0001:000ba434       glLightModelf              100bb434 f   tnlapi.obj
 0001:000ba878       glLightModelxv             100bb878 f   tnlapi.obj
 0001:000badfc       glLightModelx              100bbdfc f   tnlapi.obj
 0001:000bb240       glLightf                   100bc240 f   tnlapi.obj
 0001:000bbc1c       glLightfv                  100bcc1c f   tnlapi.obj
 0001:000bbed0       glLightx                   100bced0 f   tnlapi.obj
 0001:000bc1e0       glLightxv                  100bd1e0 f   tnlapi.obj
 0001:000bc54c       Materialfv                 100bd54c f   tnlapi.obj
 0001:000bc994       glMaterialf                100bd994 f   tnlapi.obj
 0001:000bcc6c       glMaterialfv               100bdc6c f   tnlapi.obj
 0001:000bcf18       glMaterialx                100bdf18 f   tnlapi.obj
 0001:000bd210       glMaterialxv               100be210 f   tnlapi.obj
 0001:000bd590       ApplyViewport              100be590 f   tnlapi.obj
 0001:000bd740       glViewport                 100be740 f   tnlapi.obj
 0001:000bded0       ApplyDepthRange            100beed0 f   tnlapi.obj
 0001:000be054       glDepthRangef              100bf054 f   tnlapi.obj
 0001:000be2fc       glDepthRangex              100bf2fc f   tnlapi.obj
 0001:000be5e0       glMatrixMode               100bf5e0 f   tnlapi.obj
 0001:000bea3c       glFrustumf                 100bfa3c f   tnlapi.obj
 0001:000bf124       glFrustumx                 100c0124 f   tnlapi.obj
 0001:000bf6c8       glOrthof                   100c06c8 f   tnlapi.obj
 0001:000bfe38       glOrthox                   100c0e38 f   tnlapi.obj
 0001:000c03e4       glLoadIdentity             100c13e4 f   tnlapi.obj
 0001:000c08d4       glLoadMatrixf              100c18d4 f   tnlapi.obj
 0001:000c1024       glLoadMatrixx              100c2024 f   tnlapi.obj
 0001:000c18b0       glMultMatrixf              100c28b0 f   tnlapi.obj
 0001:000c1eac       glMultMatrixx              100c2eac f   tnlapi.obj
 0001:000c25f4       glRotatef                  100c35f4 f   tnlapi.obj
 0001:000c2dbc       glRotatex                  100c3dbc f   tnlapi.obj
 0001:000c3328       glScalef                   100c4328 f   tnlapi.obj
 0001:000c382c       glScalex                   100c482c f   tnlapi.obj
 0001:000c3d84       glTranslatef               100c4d84 f   tnlapi.obj
 0001:000c4288       glTranslatex               100c5288 f   tnlapi.obj
 0001:000c47e0       glPushMatrix               100c57e0 f   tnlapi.obj
 0001:000c4cdc       glPopMatrix                100c5cdc f   tnlapi.obj
 0001:000c51c0       glClipPlanef               100c61c0 f   tnlapi.obj
 0001:000c56b0       glClipPlanex               100c66b0 f   tnlapi.obj
 0001:000c5b90       AddInstruction             100c6b90 f   useasmgles.obj
 0001:000c5e10       FreeUSEASMInstructionList  100c6e10 f   useasmgles.obj
 0001:000c5ee0       DuplicateUSEASMInstructionList 100c6ee0 f   useasmgles.obj
 0001:000c609c       AssembleUSEASMInstructions 100c709c f   useasmgles.obj
 0001:000c65a8       GetFBBlendType             100c75a8 f   usegles.obj
 0001:000c679c       WriteEOTUSSECode           100c779c f   usegles.obj
 0001:000c69fc       GetStateCopyUSEAddress     100c79fc f   usegles.obj
 0001:000c6aa8       InitSpecialUSECodeBlocks   100c7aa8 f   usegles.obj
 0001:000c71bc       FreeSpecialUSECodeBlocks   100c81bc f   usegles.obj
 0001:000c724c       SetupUSEVertexShader       100c824c f   usegles.obj
 0001:000c8988       SetupUSEFragmentShader     100c9988 f   usegles.obj
 0001:000cc890       WriteUSEVertexShaderMemConsts 100cd890 f   usegles.obj
 0001:000ccab8       BuildLIMM                  100cdab8 f i usegles.obj
 0001:000ccb78       BuildUNPCKF32              100cdb78 f i usegles.obj
 0001:000ccc04       BuildPCKUNPCK              100cdc04 f i usegles.obj
 0001:000ccd78       BuildMAD                   100cdd78 f i usegles.obj
 0001:000cce04       BuildFARITH                100cde04 f i usegles.obj
 0001:000cd07c       EncodeDmaBurst             100ce07c f   validate.obj
 0001:000cd388       OutputTerminateState       100ce388 f   validate.obj
 0001:000cd9bc       SetupPixelEventProgram     100ce9bc f   validate.obj
 0001:000ce0dc       ReclaimPDSVariantMemKRM    100cf0dc f   validate.obj
 0001:000ce114       DestroyPDSVariantGhostKRM  100cf114 f   validate.obj
 0001:000ce150       DestroyHashedPDSFragSA     100cf150 f   validate.obj
 0001:000ce1a4       PatchPregenMTEStateCopyPrograms 100cf1a4 f   validate.obj
 0001:000ce494       WriteMTEStateCopyPrograms  100cf494 f   validate.obj
 0001:000ce794       SetupStateUpdate           100cf794 f   validate.obj
 0001:000ceabc       SetupMTEPregenBuffer       100cfabc f   validate.obj
 0001:000ceb78       SetupPDSVertexPregenBuffer 100cfb78 f   validate.obj
 0001:000cedf8       ValidateState              100cfdf8 f   validate.obj
 0001:000d25b8       GLES1EmitState             100d35b8 f   validate.obj
 0001:000dba10       PDSMTEStateCopySetDMA0     100dca10 f i validate.obj
 0001:000dba2c       PDSMTEStateCopySetDMA1     100dca2c f i validate.obj
 0001:000dba4c       PDSMTEStateCopySetDMA2     100dca4c f i validate.obj
 0001:000dba6c       PDSMTEStateCopySetDMA3     100dca6c f i validate.obj
 0001:000dba8c       PDSMTEStateCopySetUSE0     100dca8c f i validate.obj
 0001:000dbaac       PDSMTEStateCopySetUSE1     100dcaac f i validate.obj
 0001:000dbacc       PDSAuxiliaryVertexSetUSE0  100dcacc f i validate.obj
 0001:000dbae8       PDSAuxiliaryVertexSetUSE1  100dcae8 f i validate.obj
 0001:000dbb08       PDSAuxiliaryVertexSetUSE2  100dcb08 f i validate.obj
 0001:000dbb28       PDSAuxiliaryVertexSetSTREAM0 100dcb28 f i validate.obj
 0001:000dbb48       PDSAuxiliaryVertexSetSTREAM1 100dcb48 f i validate.obj
 0001:000dbb68       PDSAuxiliaryVertexSetSTREAM2 100dcb68 f i validate.obj
 0001:000dbb88       PDSAuxiliaryVertexSetSTREAM3 100dcb88 f i validate.obj
 0001:000dbba8       PDSAuxiliaryVertexSetSTREAM4 100dcba8 f i validate.obj
 0001:000dbbc8       PDSAuxiliaryVertexSetSTREAM5 100dcbc8 f i validate.obj
 0001:000dbbe8       PDSAuxiliaryVertexSetSTREAM6 100dcbe8 f i validate.obj
 0001:000dbc08       PDSAuxiliaryVertexSetSTREAM7 100dcc08 f i validate.obj
 0001:000dc290       glClientActiveTexture      100dd290 f   vertex.obj
 0001:000dc570       glEnableClientState        100dd570 f   vertex.obj
 0001:000dcb20       glDisableClientState       100ddb20 f   vertex.obj
 0001:000dd0cc       glColor4f                  100de0cc f   vertex.obj
 0001:000dd3f8       glColor4x                  100de3f8 f   vertex.obj
 0001:000dd770       glColor4ub                 100de770 f   vertex.obj
 0001:000ddaf0       glMultiTexCoord4f          100deaf0 f   vertex.obj
 0001:000dde68       glMultiTexCoord4x          100dee68 f   vertex.obj
 0001:000de234       glNormal3f                 100df234 f   vertex.obj
 0001:000de50c       glNormal3x                 100df50c f   vertex.obj
 0001:000de810       glColorPointer             100df810 f   vertex.obj
 0001:000df1b4       glNormalPointer            100e01b4 f   vertex.obj
 0001:000dfbac       glTexCoordPointer          100e0bac f   vertex.obj
 0001:000e05f4       glVertexPointer            100e15f4 f   vertex.obj
 0001:000e0fec       glPointSizePointerOES      100e1fec f   vertex.obj
 0001:000e1990       glMatrixIndexPointerOES    100e2990 f   vertex.obj
 0001:000e22ec       glWeightPointerOES         100e32ec f   vertex.obj
 0001:000e2cb0       InitVertexArrayState       100e3cb0 f   vertex.obj
 0001:000e308c       InitialiseYUVCoefficients  100e408c f   texyuv.obj
 0001:000e3a20       CopyYUVRegisters           100e4a20 f   texyuv.obj
 0001:000e3b1c       CreateExternalTextureState 100e4b1c f   texyuv.obj
 0001:000e42cc       GetNumStreamDevices        100e52cc f   texstream.obj
 0001:000e4334       FreeTexStreamState         100e5334 f   texstream.obj
 0001:000e447c       glGetTexStreamDeviceAttributeivIMG 100e547c f   texstream.obj
 0001:000e5310       glTexBindStreamIMG         100e6310 f   texstream.obj
 0001:000e590c       glGetTexStreamDeviceNameIMG 100e690c f   texstream.obj
 0001:000e5da4       ReleaseImageFromTexture    100e6da4 f   eglimage.obj
 0001:000e66bc       glEGLImageTargetTexture2DOES 100e76bc f   eglimage.obj
 0001:000e7288       glEGLImageTargetRenderbufferStorageOES 100e8288 f   eglimage.obj
 0001:000e7c74       ReleaseImageFromRenderbuffer 100e8c74 f   eglimage.obj
 0001:000e7cac       GLESGetImageSource         100e8cac f   eglimage.obj
 0001:000e86e8       CreateVertexArrayObjectState 100e96e8 f   vertexarrobj.obj
 0001:000e87bc       ReclaimVAOMemKRM           100e97bc f   vertexarrobj.obj
 0001:000e87f8       DestroyVAOGhostKRM         100e97f8 f   vertexarrobj.obj
 0001:000e8834       FreeVertexArrayObjectState 100e9834 f   vertexarrobj.obj
 0001:000e8ca8       SetupVertexArrayObjectNameArray 100e9ca8 f   vertexarrobj.obj
 0001:000e8d70       glBindVertexArrayOES       100e9d70 f   vertexarrobj.obj
 0001:000e95a0       glDeleteVertexArraysOES    100ea5a0 f   vertexarrobj.obj
 0001:000e9dd8       glGenVertexArraysOES       100eadd8 f   vertexarrobj.obj
 0001:000ea528       glIsVertexArrayOES         100eb528 f   vertexarrobj.obj
 0001:000eab4c       OGL_GetTLSID               100ebb4c f   wince6_tls.obj
 0001:000eab70       OGL_GetTLSValue            100ebb70 f   wince6_tls.obj
 0001:000eabc4       OGL_SetTLSValue            100ebbc4 f   wince6_tls.obj
 0001:000eac3c       GetCurrentThreadId         100ebc3c f i wince6_tls.obj
 0001:000eac64       TlsAlloc                   100ebc64 f i wince6_tls.obj
 0001:000eac90       eglGetError                100ebc90 f   eglentrypoints.obj
 0001:000eacb4       eglGetDisplay              100ebcb4 f   eglentrypoints.obj
 0001:000eace4       eglInitialize              100ebce4 f   eglentrypoints.obj
 0001:000ead1c       eglTerminate               100ebd1c f   eglentrypoints.obj
 0001:000ead4c       eglQueryString             100ebd4c f   eglentrypoints.obj
 0001:000ead80       eglGetProcAddress          100ebd80 f   eglentrypoints.obj
 0001:000eadb0       eglGetConfigs              100ebdb0 f   eglentrypoints.obj
 0001:000eadec       eglChooseConfig            100ebdec f   eglentrypoints.obj
 0001:000eae30       eglGetConfigAttrib         100ebe30 f   eglentrypoints.obj
 0001:000eae6c       eglCreateWindowSurface     100ebe6c f   eglentrypoints.obj
 0001:000eaea8       eglCreatePixmapSurface     100ebea8 f   eglentrypoints.obj
 0001:000eaee4       eglCreatePbufferSurface    100ebee4 f   eglentrypoints.obj
 0001:000eaf1c       eglDestroySurface          100ebf1c f   eglentrypoints.obj
 0001:000eaf50       eglQuerySurface            100ebf50 f   eglentrypoints.obj
 0001:000eaf8c       eglCreateContext           100ebf8c f   eglentrypoints.obj
 0001:000eafc8       eglDestroyContext          100ebfc8 f   eglentrypoints.obj
 0001:000eaffc       eglMakeCurrent             100ebffc f   eglentrypoints.obj
 0001:000eb038       eglGetCurrentContext       100ec038 f   eglentrypoints.obj
 0001:000eb05c       eglGetCurrentSurface       100ec05c f   eglentrypoints.obj
 0001:000eb08c       eglGetCurrentDisplay       100ec08c f   eglentrypoints.obj
 0001:000eb0b0       eglQueryContext            100ec0b0 f   eglentrypoints.obj
 0001:000eb0ec       eglWaitGL                  100ec0ec f   eglentrypoints.obj
 0001:000eb110       eglWaitNative              100ec110 f   eglentrypoints.obj
 0001:000eb140       eglSwapBuffers             100ec140 f   eglentrypoints.obj
 0001:000eb174       eglCopyBuffers             100ec174 f   eglentrypoints.obj
 0001:000eb1ac       eglSwapInterval            100ec1ac f   eglentrypoints.obj
 0001:000eb1e0       eglSurfaceAttrib           100ec1e0 f   eglentrypoints.obj
 0001:000eb21c       eglBindTexImage            100ec21c f   eglentrypoints.obj
 0001:000eb254       eglReleaseTexImage         100ec254 f   eglentrypoints.obj
 0001:000eb28c       PDSGeneratePixelEventProgram 100ec28c f   pds.obj
 0001:000eb450       PDSGeneratePixelShaderSAProgram 100ec450 f   pds.obj
 0001:000ebbbc       PDSGenerateStaticPixelShaderSAProgram 100ecbbc f   pds.obj
 0001:000ec13c       PDSGeneratePixelShaderProgram 100ed13c f   pds.obj
 0001:000ec8f0       PDSGenerateStateCopyProgram 100ed8f0 f   pds.obj
 0001:000ece14       PDSGenerateVertexShaderSAProgram 100ede14 f   pds.obj
 0001:000ed350       PDSGenerateStaticVertexShaderProgram 100ee350 f   pds.obj
 0001:000edf3c       PDSGenerateVertexShaderProgram 100eef3c f   pds.obj
 0001:000ef5e4       PDSPatchVertexShaderProgram 100f05e4 f   pds.obj
 0001:000ef7a0       PDSGenerateConstUploadProgram 100f07a0 f   pds.obj
 0001:000efd4c       PDSGenerateTerminateStateProgram 100f0d4c f   pds.obj
 0001:000f020c       PDSPatchTerminateStateProgram 100f120c f   pds.obj
 0001:000f0794       PDSGeneratePixelEventProgramTileXY 100f1794 f   pds.obj
 0001:000f08ec       PDSGetPixeventProgSize     100f18ec f   pds.obj
 0001:000f0904       PDSGetPixeventTileXYProgSize 100f1904 f   pds.obj
 0001:000f091c       PDSPixelEventSetPTOFF0     100f191c f i pds.obj
 0001:000f0938       PDSPixelEventSetPTOFF1     100f1938 f i pds.obj
 0001:000f0958       PDSPixelEventSetPTOFF2     100f1958 f i pds.obj
 0001:000f0978       PDSPixelEventSetEOT0       100f1978 f i pds.obj
 0001:000f0998       PDSPixelEventSetEOT1       100f1998 f i pds.obj
 0001:000f09b8       PDSPixelEventSetEOT2       100f19b8 f i pds.obj
 0001:000f09d8       PDSPixelEventSetEOR0       100f19d8 f i pds.obj
 0001:000f09f8       PDSPixelEventSetEOR1       100f19f8 f i pds.obj
 0001:000f0a18       PDSPixelEventSetEOR2       100f1a18 f i pds.obj
 0001:000f0a38       PDSEncodeMOVS              100f1a38 f i pds.obj
 0001:000f0ac0       PDSEncodeHALT              100f1ac0 f i pds.obj
 0001:000f0ae8       PDSEncodeADD               100f1ae8 f i pds.obj
 0001:000f0b50       PDSEncodeMUL               100f1b50 f i pds.obj
 0001:000f0bb8       PDSEncodeSHL               100f1bb8 f i pds.obj
 0001:000f0c18       PDSEncodeSHR               100f1c18 f i pds.obj
 0001:000f0c78       PDSEncodeMOVSA             100f1c78 f i pds.obj
 0001:000f0d04       PDSPixelEvent_TileXYSetPTOFF0 100f1d04 f i pds.obj
 0001:000f0d20       PDSPixelEvent_TileXYSetPTOFF1 100f1d20 f i pds.obj
 0001:000f0d40       PDSPixelEvent_TileXYSetPTOFF2 100f1d40 f i pds.obj
 0001:000f0d60       PDSPixelEvent_TileXYSetEOT0 100f1d60 f i pds.obj
 0001:000f0d80       PDSPixelEvent_TileXYSetEOT1 100f1d80 f i pds.obj
 0001:000f0da0       PDSPixelEvent_TileXYSetEOT2 100f1da0 f i pds.obj
 0001:000f0dc0       PDSPixelEvent_TileXYSetEOR0 100f1dc0 f i pds.obj
 0001:000f0de0       PDSPixelEvent_TileXYSetEOR1 100f1de0 f i pds.obj
 0001:000f0e00       PDSPixelEvent_TileXYSetEOR2 100f1e00 f i pds.obj
 0001:000f0e20       WritePTOffUSSECode         100f1e20 f   pixevent.obj
 0001:000f0e80       WriteEndOfRenderUSSECode   100f1e80 f   pixevent.obj
 0001:000f0f58       WriteEndOfTileUSSECode     100f1f58 f   pixevent.obj
 0001:000f1154       WritePBEEmitState          100f2154 f   pixeventpbesetup.obj
 0001:000f17a8       USEGenCalculateStateSize   100f27a8 f   usegen.obj
 0001:000f1840       USEGenWriteStateEmitFragment 100f2840 f   usegen.obj
 0001:000f1958       USEGenWriteEndVtxShaderFragment 100f2958 f   usegen.obj
 0001:000f1a10       USEGenWriteEndVtxShaderGBFragment 100f2a10 f   usegen.obj
 0001:000f1e38       USEGenWriteStateEmitProgram 100f2e38 f   usegen.obj
 0001:000f1f2c       USEGenWriteAccum2PProgram  100f2f2c f   usegen.obj
 0001:000f1fe8       USEGenWriteSpecialObjVtxProgram 100f2fe8 f   usegen.obj
 0001:000f24a8       USEGenWriteClearPixelProgram 100f34a8 f   usegen.obj
 0001:000f2558       BuildMOV                   100f3558 f i usegen.obj
 0001:000f26b0       BuildEMITMTE               100f36b0 f i usegen.obj
 0001:000f2754       BuildEMIT                  100f3754 f i usegen.obj
 0001:000f28e4       BuildSMLSI                 100f38e4 f i usegen.obj
 0001:000f2964       CBUF_GetBufferSpace        100f3964 f   buffers.obj
 0001:000f347c       CBUF_UpdateBufferPos       100f447c f   buffers.obj
 0001:000f3644       CBUF_GetBufferDeviceAddress 100f4644 f   buffers.obj
 0001:000f36fc       CBUF_UpdateBufferCommittedPrimOffsets 100f46fc f   buffers.obj
 0001:000f38b0       CBUF_UpdateVIBufferCommittedPrimOffsets 100f48b0 f   buffers.obj
 0001:000f3a18       CBUF_UpdateBufferCommittedHWOffsets 100f4a18 f   buffers.obj
 0001:000f3ad8       CBUF_UpdateTACtrlKickBase  100f4ad8 f   buffers.obj
 0001:000f3bc0       CBUF_CreateBuffer          100f4bc0 f   buffers.obj
 0001:000f3f70       CBUF_DestroyBuffer         100f4f70 f   buffers.obj
 0001:000f3fac       UCH_CodeHeapCreate         100f4fac f   codeheap.obj
 0001:000f41cc       UCH_CodeHeapDestroy        100f51cc f   codeheap.obj
 0001:000f4380       UCH_CodeHeapFreeFunc       100f5380 f   codeheap.obj
 0001:000f497c       UCH_CodeHeapAllocateFunc   100f597c f   codeheap.obj
 0001:000f55b0       UCH_TrackCodeHeapAllocate  100f65b0 f   codeheap.obj
 0001:000f5794       UCH_TrackCodeHeapFree      100f6794 f   codeheap.obj
 0001:000f589c       DeTwiddleAddress16bpp      100f689c f   twiddle.obj
 0001:000f79c8       ReadBackTwiddle16bpp       100f89c8 f   twiddle.obj
 0001:000f7dc8       DeTwiddleAddress32bpp      100f8dc8 f   twiddle.obj
 0001:000f9cb0       ReadBackTwiddle32bpp       100facb0 f   twiddle.obj
 0001:000fa0b0       ReadBackTwiddle8bpp        100fb0b0 f   twiddle.obj
 0001:000fa2a0       ReadBackTwiddleETC1        100fb2a0 f   twiddle.obj
 0001:000fa3e0       DeTwiddleAddress8bpp       100fb3e0 f   twiddle.obj
 0001:000fa768       DeTwiddleAddressETC1       100fb768 f   twiddle.obj
 0001:000faba8       KRM_Initialize             100fbba8 f   kickresource.obj
 0001:000faee0       KRM_Attach                 100fbee0 f   kickresource.obj
 0001:000fb454       KRM_IsResourceInUse        100fc454 f   kickresource.obj
 0001:000fb854       KRM_IsResourceNeeded       100fc854 f   kickresource.obj
 0001:000fba00       KRM_WaitUntilResourceIsNotNeeded 100fca00 f   kickresource.obj
 0001:000fbc98       KRM_WaitForAllResources    100fcc98 f   kickresource.obj
 0001:000fbdc0       KRM_GhostResource          100fcdc0 f   kickresource.obj
 0001:000fbee0       KRM_ReclaimUnneededResources 100fcee0 f   kickresource.obj
 0001:000fc0d0       KRM_DestroyUnneededGhosts  100fd0d0 f   kickresource.obj
 0001:000fc43c       KRM_RemoveResourceFromAllLists 100fd43c f   kickresource.obj
 0001:000fc4bc       KRM_RemoveAttachmentPointReferences 100fd4bc f   kickresource.obj
 0001:000fc6fc       KRM_Destroy                100fd6fc f   kickresource.obj
 0001:000fc828       KRM_FlushUnKickedResource  100fd828 f   kickresource.obj
 0001:000fca28       CalculatePixelDMSInfo      100fda28 f   dmscalc.obj
 0001:000fce78       CalculateVertexDMSInfo     100fde78 f   dmscalc.obj
 0001:000fd0a0       FFGenDumpDisassembly       100fe0a0 f   libffgen:ffgen.obj
 0001:000fd300       FFGenGenerateTNLProgram    100fe300 f   libffgen:ffgen.obj
 0001:000fd870       FFGenFreeProgram           100fe870 f   libffgen:ffgen.obj
 0001:000fd964       FFGenCreateContext         100fe964 f   libffgen:ffgen.obj
 0001:000fdad0       FFGenDestroyContext        100fead0 f   libffgen:ffgen.obj
 0001:000fdc3c       UseDecodeInstruction       100fec3c f   libffgen:usedisasm.obj
 0001:00107d6c       UseDisassembleInstruction  10108d6c f   libffgen:usedisasm.obj
 0001:00109db4       UseDisassembler            1010adb4 f   libffgen:usedisasm.obj
 0001:00109ec0       GetCurrentProcess          1010aec0 f i libffgen:usedisasm.obj
 0001:00109ed8       UseAsmGetCoreDesc          1010aed8 f   libffgen:utils.obj
 0001:00109f84       IsRevisionValid            1010af84 f   libffgen:utils.obj
 0001:00109fe4       FixBRN21697                1010afe4 f   libffgen:utils.obj
 0001:0010a030       FixBRN21713                1010b030 f   libffgen:utils.obj
 0001:0010a07c       FixBRN23062                1010b07c f   libffgen:utils.obj
 0001:0010a0c8       FixBRN23164                1010b0c8 f   libffgen:utils.obj
 0001:0010a114       FixBRN23461                1010b114 f   libffgen:utils.obj
 0001:0010a160       FixBRN23960                1010b160 f   libffgen:utils.obj
 0001:0010a1ac       FixBRN24895                1010b1ac f   libffgen:utils.obj
 0001:0010a1f8       FixBRN25355                1010b1f8 f   libffgen:utils.obj
 0001:0010a244       FixBRN25060                1010b244 f   libffgen:utils.obj
 0001:0010a290       FixBRN25580                1010b290 f   libffgen:utils.obj
 0001:0010a2dc       FixBRN25582                1010b2dc f   libffgen:utils.obj
 0001:0010a328       FixBRN26570                1010b328 f   libffgen:utils.obj
 0001:0010a374       FixBRN27005                1010b374 f   libffgen:utils.obj
 0001:0010a3c0       FixBRN26681                1010b3c0 f   libffgen:utils.obj
 0001:0010a40c       FixBRN27984                1010b40c f   libffgen:utils.obj
 0001:0010a458       FixBRN29643                1010b458 f   libffgen:utils.obj
 0001:0010a4a4       FixBRN30871                1010b4a4 f   libffgen:utils.obj
 0001:0010a4f0       FixBRN30898                1010b4f0 f   libffgen:utils.obj
 0001:0010a53c       IsEnhancedNoSched          1010b53c f   libffgen:utils.obj
 0001:0010a58c       IsHighPrecisionFIR         1010b58c f   libffgen:utils.obj
 0001:0010a5dc       IsLoadMOEStateFromRegisters 1010b5dc f   libffgen:utils.obj
 0001:0010a62c       IsPerInstMoeIncrements     1010b62c f   libffgen:utils.obj
 0001:0010a67c       IsFClampInstruction        1010b67c f   libffgen:utils.obj
 0001:0010a6cc       IsSqrtSinCosInstruction    1010b6cc f   libffgen:utils.obj
 0001:0010a71c       IsIMA32Instruction         1010b71c f   libffgen:utils.obj
 0001:0010a76c       IsIDIVInstruction          1010b76c f   libffgen:utils.obj
 0001:0010a7bc       SupportsExtendedLoad       1010b7bc f   libffgen:utils.obj
 0001:0010a80c       SupportsLDSTExtendedCacheModes 1010b80c f   libffgen:utils.obj
 0001:0010a860       SupportsSTNoReadBeforeWrite 1010b860 f   libffgen:utils.obj
 0001:0010a8b4       SupportsSMPResultFormatConvert 1010b8b4 f   libffgen:utils.obj
 0001:0010a908       HasNewEfoOptions           1010b908 f   libffgen:utils.obj
 0001:0010a958       HasPackMultipleRoundModes  1010b958 f   libffgen:utils.obj
 0001:0010a9a8       HasDualIssue               1010b9a8 f   libffgen:utils.obj
 0001:0010a9f8       HasUnlimitedPhases         1010b9f8 f   libffgen:utils.obj
 0001:0010aa48       HasNoInstructionPairing    1010ba48 f   libffgen:utils.obj
 0001:0010aa98       NumberOfMutexesSupported   1010ba98 f   libffgen:utils.obj
 0001:0010aacc       NumberOfMonitorsSupported  1010bacc f   libffgen:utils.obj
 0001:0010ab00       NumberOfProgramCounterBits 1010bb00 f   libffgen:utils.obj
 0001:0010ab34       NumberOfInternalRegisters  1010bb34 f   libffgen:utils.obj
 0001:0010ab68       SupportsAlphaToCoverage    1010bb68 f   libffgen:utils.obj
 0001:0010abb8       SupportsFmad16Swizzles     1010bbb8 f   libffgen:utils.obj
 0001:0010ac08       SupportsFnormalise         1010bc08 f   libffgen:utils.obj
 0001:0010ac58       SupportsPCF                1010bc58 f   libffgen:utils.obj
 0001:0010aca8       SupportsRawSample          1010bca8 f   libffgen:utils.obj
 0001:0010acf8       SupportsNopTrigger         1010bcf8 f   libffgen:utils.obj
 0001:0010ad48       SupportsBranchException    1010bd48 f   libffgen:utils.obj
 0001:0010ad98       SupportsExtSyncEnd         1010bd98 f   libffgen:utils.obj
 0001:0010ade8       SupportsMOEStore           1010bde8 f   libffgen:utils.obj
 0001:0010ae38       SupportsCFI                1010be38 f   libffgen:utils.obj
 0001:0010ae88       SupportsVCB                1010be88 f   libffgen:utils.obj
 0001:0010aed8       SupportsVEC34              1010bed8 f   libffgen:utils.obj
 0001:0010af28       SupportsBranchPwait        1010bf28 f   libffgen:utils.obj
 0001:0010af78       SupportsRawSampleBoth      1010bf78 f   libffgen:utils.obj
 0001:0010afc8       ReducedSMPRepeatCount      1010bfc8 f   libffgen:utils.obj
 0001:0010b01c       IMA32Is32x16Plus32         1010c01c f   libffgen:utils.obj
 0001:0010b070       SupportsTESTSUB32          1010c070 f   libffgen:utils.obj
 0001:0010b0c4       NoRepeatMaskOnBitwiseInstructions 1010c0c4 f   libffgen:utils.obj
 0001:0010b118       NoRepeatMaskOnSMPInstructions 1010c118 f   libffgen:utils.obj
 0001:0010b16c       SupportSkipInvalidOnIDFInstruction 1010c16c f   libffgen:utils.obj
 0001:0010b1c0       SupportsAllAnyInstancesFlagOnBranchInstruction 1010c1c0 f   libffgen:utils.obj
 0001:0010b214       SupportsLDSTAtomicOps      1010c214 f   libffgen:utils.obj
 0001:0010b268       SupportsIntegerConditionalInstructions 1010c268 f   libffgen:utils.obj
 0001:0010b2bc       SupportsQwordLDST          1010c2bc f   libffgen:utils.obj
 0001:0010b310       SupportsIDXSC              1010c310 f   libffgen:utils.obj
 0001:0010b364       SupportsTESTSABLND         1010c364 f   libffgen:utils.obj
 0001:0010b3b8       SupportsLDRSTRRepeat       1010c3b8 f   libffgen:utils.obj
 0001:0010b40c       SupportsSTRPredicate       1010c40c f   libffgen:utils.obj
 0001:0010b460       SupportsLDRSTRExtendedImmediate 1010c460 f   libffgen:utils.obj
 0001:0010b4b4       SupportsIndexTwoBanks      1010c4b4 f   libffgen:utils.obj
 0001:0010b508       SupportsSPRVV              1010c508 f   libffgen:utils.obj
 0001:0010b55c       IsInvalidSpecialRegisterForNonBitwiseInstructions 1010c55c f   libffgen:utils.obj
 0001:0010b608       UseAsmInitInst             1010c608 f   libffgen:utils.obj
 0001:0010b644       UseAsmInitReg              1010c644 f   libffgen:utils.obj
 0001:0010b684       FloatToCstIndex            1010c684 f   libffgen:useasm.obj
 0001:0010b758       UseAssembleInstruction     1010c758 f   libffgen:useasm.obj
 0001:00129058       UseGetOpcodeArgumentCount  1012a058 f   libffgen:useasm.obj
 0001:00129088       UseIsTextureSampleOpcode   1012a088 f   libffgen:useasm.obj
 0001:001290d8       UseAcceptsSkipinvOpcode    1012a0d8 f   libffgen:useasm.obj
 0001:00129108       UseAcceptsNoSchedOpcode    1012a108 f   libffgen:useasm.obj
 0001:00129138       UseAcceptsNoSchedEnhancedOpcode 1012a138 f   libffgen:useasm.obj
 0001:00129168       UseGetNameOpcode           1012a168 f   libffgen:useasm.obj
 0001:00129198       CheckUndefinedLabels       1012a198 f   libffgen:useasm.obj
 0001:00129278       UseAssembler               1012a278 f   libffgen:useasm.obj
 0001:00129350       UseoptBitVecSize           1012a350 f   libffgen:useopt.obj
 0001:00129384       UseoptGetBit               1012a384 f   libffgen:useopt.obj
 0001:00129400       UseoptSetBit               1012a400 f   libffgen:useopt.obj
 0001:001294d8       InitSopSpec                1012a4d8 f   libffgen:useopt.obj
 0001:0012962c       EncodeSopSpec              1012a62c f   libffgen:useopt.obj
 0001:0012a82c       UseoptProgram              1012b82c f   libffgen:useopt.obj
 0001:00131750       UseoptAssembler            10132750 f   libffgen:useopt.obj
 0001:001317b8       PrintInstruction           101327b8 f   libffgen:source.obj
 0001:001341c8       DumpSource                 101351c8 f   libffgen:source.obj
 0001:00134eec       DumpFFTNLDescription       10135eec f   libffgen:source.obj
 0001:001350d0       FFTNLGenerateCode          101360d0 f   libffgen:codegen.obj
 0001:0013e7f0       FFGENDestroyCode           1013f7f0 f   libffgen:codegen.obj
 0001:0013e998       ReleaseReg                 1013f998 f   libffgen:reg.obj
 0001:0013f070       GetRegfn                   10140070 f   libffgen:reg.obj
 0001:001416e0       StoreRegfn                 101426e0 f   libffgen:reg.obj
 0001:001418f0       DestroyRegList             101428f0 f   libffgen:reg.obj
 0001:001419f8       OpcodeArgumentCount        101429f8 f   libffgen:usetab.obj
 0001:00141a38       OpcodeName                 10142a38 f   libffgen:usetab.obj
 0001:00141a74       OpcodeAcceptsSkipInv       10142a74 f   libffgen:usetab.obj
 0001:00141ad0       OpcodeAcceptsNoSched       10142ad0 f   libffgen:usetab.obj
 0001:00141b2c       OpcodeAcceptsNoSchedEnhanced 10142b2c f   libffgen:usetab.obj
 0001:00141b88       OpcodeDescFlags            10142b88 f   libffgen:usetab.obj
 0001:00141bc8       DestroyInstructionList     10142bc8 f   libffgen:inst.obj
 0001:00141c24       AddUniFlexInstructionToList 10142c24 f   libffgen:inst.obj
 0001:00141d0c       EncodeInstructionfn        10142d0c f   libffgen:inst.obj
 0001:00144430       EncodeInstructionList      10145430 f   libffgen:inst.obj
 0001:0014453c       GetDRC                     1014553c f   libffgen:inst.obj
 0001:0014464c       IssueOutstandingWDFs       1014564c f   libffgen:inst.obj
 0001:001447a0       GetLabel                   101457a0 f   libffgen:inst.obj
 0001:001449d4       DestroyLabelList           101459d4 f   libffgen:inst.obj
 0001:00144ac4       M4x4                       10145ac4 f   libffgen:inst.obj
 0001:0014705c       M4x3                       1014805c f   libffgen:inst.obj
 0001:00147600       IF_PRED                    10148600 f   libffgen:inst.obj
 0001:00147888       ELSE_PRED                  10148888 f   libffgen:inst.obj
 0001:00147aa8       END_PRED                   10148aa8 f   libffgen:inst.obj
 0001:00147c94       COMMENT                    10148c94 f   libffgen:inst.obj
 0001:00147da4       NEW_BLOCK                  10148da4 f   libffgen:inst.obj
 0001:00147eb4       FFTNLGenOptimisedLighting  10148eb4 f   libffgen:lighting.obj
 0001:001531d0       PVRSRVDebugAssertFail      101541d0 f   srvclum:SRVCLUM.dll
 0001:001531e0       PVRSRVDebugPrintf          101541e0 f   srvclum:SRVCLUM.dll
 0001:001531f0       PVRSRVFreeUserModeMemTracking 101541f0 f   srvclum:SRVCLUM.dll
 0001:00153200       PVRSRVMetricsTimeNow       10154200 f   srvclum:SRVCLUM.dll
 0001:00153210       PVRSRVCallocUserModeMemTracking 10154210 f   srvclum:SRVCLUM.dll
 0001:00153220       PVRSRVMemCopy              10154220 f   srvclum:SRVCLUM.dll
 0001:00153230       PVRSRVUnlockMutex          10154230 f   srvclum:SRVCLUM.dll
 0001:00153240       PVRSRVLockMutex            10154240 f   srvclum:SRVCLUM.dll
 0001:00153250       PVRSRVAllocUserModeMemTracking 10154250 f   srvclum:SRVCLUM.dll
 0001:00153260       PVRSRVMemSet               10154260 f   srvclum:SRVCLUM.dll
 0001:00153270       PVRSRVDestroyMutex         10154270 f   srvclum:SRVCLUM.dll
 0001:00153280       PVRSRVCreateMutex          10154280 f   srvclum:SRVCLUM.dll
 0001:00153290       PVRSRVReallocUserModeMemTracking 10154290 f   srvclum:SRVCLUM.dll
 0001:001532a0       PVRSRVTrace                101542a0 f   srvclum:SRVCLUM.dll
 0001:001532b0       PVRSRVPollForValue         101542b0 f   srvclum:SRVCLUM.dll
 0001:001532c0       SGXQueueTransfer           101542c0 f   srvclum:SRVCLUM.dll
 0001:001532d0       PVRSRVFreeAppHintState     101542d0 f   srvclum:SRVCLUM.dll
 0001:001532e0       PVRSRVGetAppHint           101542e0 f   srvclum:SRVCLUM.dll
 0001:001532f0       PVRSRVCreateAppHintState   101542f0 f   srvclum:SRVCLUM.dll
 0001:00153300       PVRSRVDeInitProfileOutput  10154300 f   srvclum:SRVCLUM.dll
 0001:00153310       PVRSRVProfileOutput        10154310 f   srvclum:SRVCLUM.dll
 0001:00153320       PVRSRVInitProfileOutput    10154320 f   srvclum:SRVCLUM.dll
 0001:00153330       PVRSRVClientEvent          10154330 f   srvclum:SRVCLUM.dll
 0001:00153340       PVRSRVEventObjectWait      10154340 f   srvclum:SRVCLUM.dll
 0001:00153350       SGXKickTA                  10154350 f   srvclum:SRVCLUM.dll
 0001:00153360       PVRSRVCloseBCDevice        10154360 f   srvclum:SRVCLUM.dll
 0001:00153370       PVRSRVUnmapDeviceClassMemory 10154370 f   srvclum:SRVCLUM.dll
 0001:00153380       PVRSRVEnumerateDeviceClass 10154380 f   srvclum:SRVCLUM.dll
 0001:00153390       PVRSRVMapDeviceClassMemory 10154390 f   srvclum:SRVCLUM.dll
 0001:001533a0       PVRSRVGetBCBuffer          101543a0 f   srvclum:SRVCLUM.dll
 0001:001533b0       PVRSRVGetBCBufferInfo      101543b0 f   srvclum:SRVCLUM.dll
 0001:001533c0       PVRSRVOpenBCDevice         101543c0 f   srvclum:SRVCLUM.dll
 0001:001533d0       PVRSRVAllocDeviceMem       101543d0 f   srvclum:SRVCLUM.dll
 0001:001533e0       PVRSRVFreeUserModeMem      101543e0 f   srvclum:SRVCLUM.dll
 0001:001533f0       PVRSRVAllocUserModeMem     101543f0 f   srvclum:SRVCLUM.dll
 0001:00153400       PVRSRVFreeDeviceMem        10154400 f   srvclum:SRVCLUM.dll
 0001:00153410       PVRSRVCallocUserModeMem    10154410 f   srvclum:SRVCLUM.dll
 0001:00153420       PVRSRVReallocUserModeMem   10154420 f   srvclum:SRVCLUM.dll
 0001:00153430       KEGLFreeDeviceMemTrack     10154430 f   libimgegl:libIMGEGL.dll
 0001:00153440       KEGLAllocDeviceMemTrack    10154440 f   libimgegl:libIMGEGL.dll
 0001:00153450       KEGLGetDrawableParameters  10154450 f   libimgegl:libIMGEGL.dll
 0001:00153460       KEGLDestroyRenderSurface   10154460 f   libimgegl:libIMGEGL.dll
 0001:00153470       KEGLUnbindImage            10154470 f   libimgegl:libIMGEGL.dll
 0001:00153480       KEGLCreateRenderSurface    10154480 f   libimgegl:libIMGEGL.dll
 0001:00153490       KEGLResizeRenderSurface    10154490 f   libimgegl:libIMGEGL.dll
 0001:001534a0       KEGLSurfaceUnbind          101544a0 f   libimgegl:libIMGEGL.dll
 0001:001534b0       KEGLSurfaceBind            101544b0 f   libimgegl:libIMGEGL.dll
 0001:001534c0       KEGLBindImage              101544c0 f   libimgegl:libIMGEGL.dll
 0001:001534d0       KEGLGetImageSource         101544d0 f   libimgegl:libIMGEGL.dll
 0001:001534e0       IMGeglGetError             101544e0 f   libimgegl:libIMGEGL.dll
 0001:001534f0       IMGeglGetDisplay           101544f0 f   libimgegl:libIMGEGL.dll
 0001:00153500       IMGeglInitialize           10154500 f   libimgegl:libIMGEGL.dll
 0001:00153510       IMGeglTerminate            10154510 f   libimgegl:libIMGEGL.dll
 0001:00153520       IMGeglQueryString          10154520 f   libimgegl:libIMGEGL.dll
 0001:00153530       IMGeglGetProcAddress       10154530 f   libimgegl:libIMGEGL.dll
 0001:00153540       IMGeglGetConfigs           10154540 f   libimgegl:libIMGEGL.dll
 0001:00153550       IMGeglChooseConfig         10154550 f   libimgegl:libIMGEGL.dll
 0001:00153560       IMGeglGetConfigAttrib      10154560 f   libimgegl:libIMGEGL.dll
 0001:00153570       IMGeglCreateWindowSurface  10154570 f   libimgegl:libIMGEGL.dll
 0001:00153580       IMGeglCreatePixmapSurface  10154580 f   libimgegl:libIMGEGL.dll
 0001:00153590       IMGeglCreatePbufferSurface 10154590 f   libimgegl:libIMGEGL.dll
 0001:001535a0       IMGeglDestroySurface       101545a0 f   libimgegl:libIMGEGL.dll
 0001:001535b0       IMGeglQuerySurface         101545b0 f   libimgegl:libIMGEGL.dll
 0001:001535c0       IMGeglCreateContext        101545c0 f   libimgegl:libIMGEGL.dll
 0001:001535d0       IMGeglDestroyContext       101545d0 f   libimgegl:libIMGEGL.dll
 0001:001535e0       IMGeglMakeCurrent          101545e0 f   libimgegl:libIMGEGL.dll
 0001:001535f0       IMGeglGetCurrentContext    101545f0 f   libimgegl:libIMGEGL.dll
 0001:00153600       IMGeglGetCurrentSurface    10154600 f   libimgegl:libIMGEGL.dll
 0001:00153610       IMGeglGetCurrentDisplay    10154610 f   libimgegl:libIMGEGL.dll
 0001:00153620       IMGeglQueryContext         10154620 f   libimgegl:libIMGEGL.dll
 0001:00153630       IMGeglWaitGL               10154630 f   libimgegl:libIMGEGL.dll
 0001:00153640       IMGeglWaitNative           10154640 f   libimgegl:libIMGEGL.dll
 0001:00153650       IMGeglSwapBuffers          10154650 f   libimgegl:libIMGEGL.dll
 0001:00153660       IMGeglCopyBuffers          10154660 f   libimgegl:libIMGEGL.dll
 0001:00153670       IMGeglSwapInterval         10154670 f   libimgegl:libIMGEGL.dll
 0001:00153680       IMGeglSurfaceAttrib        10154680 f   libimgegl:libIMGEGL.dll
 0001:00153690       IMGeglBindTexImage         10154690 f   libimgegl:libIMGEGL.dll
 0001:001536a0       IMGeglReleaseTexImage      101546a0 f   libimgegl:libIMGEGL.dll
 0001:001536b0       __GetUserKData             101546b0 f   coredll:COREDLL.dll
 0001:001536c0       TlsGetValue                101546c0 f   coredll:COREDLL.dll
 0001:001536d0       TlsCall                    101546d0 f   coredll:COREDLL.dll
 0001:001536e0       TlsSetValue                101546e0 f   coredll:COREDLL.dll
 0001:001536f0       OutputDebugStringW         101546f0 f   coredll:COREDLL.dll
 0001:00153700       TerminateProcess           10154700 f   coredll:COREDLL.dll
 0001:00153710       PVRUniFlexDestroyContext   10154710 f   usc:USC.dll
 0001:00153720       PVRUniFlexCreateContext    10154720 f   usc:USC.dll
 0001:00153730       PVRCleanupUniflexHw        10154730 f   usc:USC.dll
 0001:00153740       PVRUniFlexCompileToHw      10154740 f   usc:USC.dll
 0001:00153750       PVRUniFlexInitInst         10154750 f   usc:USC.dll
 0001:00153760       DllMain                    10154760 f   corelib0:dllmain.obj
 0001:00153798       _DllMainCRTStartup         10154798 f   corelib0:pegdmain.obj
 0001:00153930       __security_init_cookie     10154930 f   corelib0:seccinit.obj
 0001:001539cc       __GSHandlerCheck           101549cc f   corelib0:gshandler.obj
 0001:00153a10       __GSHandlerCheckCommon     10154a10 f   corelib0:gshandler.obj
 0001:00153ab0       __security_check_cookie    10154ab0 f   corelib0:armsecgs.obj
 0001:00153ac0       __gsfailure                10154ac0     corelib0:armsecgs.obj
 0001:00153b04       exit                       10154b04 f   corelib0:cexit.obj
 0001:00153c24       _exit                      10154c24 f   corelib0:cexit.obj
 0001:00153c44       _cexit                     10154c44 f   corelib0:cexit.obj
 0001:00153c5c       _c_exit                    10154c5c f   corelib0:cexit.obj
 0001:00153c74       _initterm                  10154c74 f   corelib0:crt0dat.obj
 0001:00153cc0       _cinit                     10154cc0 f   corelib0:crt0dat.obj
 0001:00153cf0       __crt_ExitProcess          10154cf0 f   corelib0:exitproc_proxy.obj
 0001:00153d1c       _onexit                    10154d1c f   corelib0:onexit.obj
 0001:00153ef8       atexit                     10154ef8 f   corelib0:onexit.obj
 0001:00153f48       memset                     10154f48 f   corelib1:COREDLL.dll
 0001:00153f58       memcpy                     10154f58 f   corelib1:COREDLL.dll
 0001:00153f68       strcmp                     10154f68 f   corelib1:COREDLL.dll
 0001:00153f78       fopen                      10154f78 f   corelib1:COREDLL.dll
 0001:00153f88       vsprintf                   10154f88 f   corelib1:COREDLL.dll
 0001:00153f98       fprintf                    10154f98 f   corelib1:COREDLL.dll
 0001:00153fa8       fclose                     10154fa8 f   corelib1:COREDLL.dll
 0001:00153fb8       cos                        10154fb8 f   corelib1:COREDLL.dll
 0001:00153fc8       sqrt                       10154fc8 f   corelib1:COREDLL.dll
 0001:00153fd8       floor                      10154fd8 f   corelib1:COREDLL.dll
 0001:00153fe8       frexp                      10154fe8 f   corelib1:COREDLL.dll
 0001:00153ff8       strcat                     10154ff8 f   corelib1:COREDLL.dll
 0001:00154008       strlen                     10155008 f   corelib1:COREDLL.dll
 0001:00154018       sprintf                    10155018 f   corelib1:COREDLL.dll
 0001:00154028       abs                        10155028 f   corelib1:COREDLL.dll
 0001:00154038       sin                        10155038 f   corelib1:COREDLL.dll
 0001:00154048       strcpy                     10155048 f   corelib1:COREDLL.dll
 0001:00154058       printf                     10155058 f   corelib1:COREDLL.dll
 0001:00154068       setjmp                     10155068 f   corelib1:COREDLL.dll
 0001:00154078       longjmp                    10155078 f   corelib1:COREDLL.dll
 0001:00154088       log                        10155088 f   corelib1:COREDLL.dll
 0001:00154098       _XcptFilter                10155098 f   corelib1:COREDLL.dll
 0001:001540a8       __C_specific_handler       101550a8 f   corelib1:COREDLL.dll
 0001:001540b8       __security_gen_cookie2     101550b8 f   corelib1:COREDLL.dll
 0001:001540c8       __report_gsfailure         101550c8 f   corelib1:COREDLL.dll
 0001:001540d8       free                       101550d8 f   corelib1:COREDLL.dll
 0001:001540e8       realloc                    101550e8 f   corelib1:COREDLL.dll
 0001:001540f8       malloc                     101550f8 f   corelib1:COREDLL.dll
 0001:00154108       _msize                     10155108 f   corelib1:COREDLL.dll
 0001:00154118       DisableThreadLibraryCalls  10155118 f   coredll:COREDLL.dll
 0001:0015419c       __IMPORT_DESCRIPTOR_SRVCLUM 1015519c     srvclum:SRVCLUM.dll
 0001:001541b0       __IMPORT_DESCRIPTOR_libIMGEGL 101551b0     libimgegl:libIMGEGL.dll
 0001:001541c4       __IMPORT_DESCRIPTOR_COREDLL 101551c4     coredll:COREDLL.dll
 0001:001541d8       __IMPORT_DESCRIPTOR_USC    101551d8     usc:USC.dll
 0001:001541ec       __NULL_IMPORT_DESCRIPTOR   101551ec     srvclum:SRVCLUM.dll
 0002:00000000       __imp_DisableThreadLibraryCalls 10157000     coredll:COREDLL.dll
 0002:00000004       __imp_TlsGetValue          10157004     coredll:COREDLL.dll
 0002:00000008       __imp_TlsCall              10157008     coredll:COREDLL.dll
 0002:0000000c       __imp_TlsSetValue          1015700c     coredll:COREDLL.dll
 0002:00000010       __imp_OutputDebugStringW   10157010     coredll:COREDLL.dll
 0002:00000014       __imp_TerminateProcess     10157014     coredll:COREDLL.dll
 0002:00000018       __imp_memset               10157018     corelib1:COREDLL.dll
 0002:0000001c       __imp_memcpy               1015701c     corelib1:COREDLL.dll
 0002:00000020       __imp___rt_udiv            10157020     corelib1:COREDLL.dll
 0002:00000024       __imp_strcmp               10157024     corelib1:COREDLL.dll
 0002:00000028       __imp_fopen                10157028     corelib1:COREDLL.dll
 0002:0000002c       __imp_vsprintf             1015702c     corelib1:COREDLL.dll
 0002:00000030       __imp_fprintf              10157030     corelib1:COREDLL.dll
 0002:00000034       __imp_fclose               10157034     corelib1:COREDLL.dll
 0002:00000038       __imp_cos                  10157038     corelib1:COREDLL.dll
 0002:0000003c       __imp_sqrt                 1015703c     corelib1:COREDLL.dll
 0002:00000040       __imp___rt_sdiv            10157040     corelib1:COREDLL.dll
 0002:00000044       __imp_floor                10157044     corelib1:COREDLL.dll
 0002:00000048       __imp_frexp                10157048     corelib1:COREDLL.dll
 0002:0000004c       __imp_strcat               1015704c     corelib1:COREDLL.dll
 0002:00000050       __imp_strlen               10157050     corelib1:COREDLL.dll
 0002:00000054       __imp_sprintf              10157054     corelib1:COREDLL.dll
 0002:00000058       __imp_abs                  10157058     corelib1:COREDLL.dll
 0002:0000005c       __imp_sin                  1015705c     corelib1:COREDLL.dll
 0002:00000060       __imp_strcpy               10157060     corelib1:COREDLL.dll
 0002:00000064       __imp_printf               10157064     corelib1:COREDLL.dll
 0002:00000068       __imp_setjmp               10157068     corelib1:COREDLL.dll
 0002:0000006c       __imp_longjmp              1015706c     corelib1:COREDLL.dll
 0002:00000070       __imp_log                  10157070     corelib1:COREDLL.dll
 0002:00000074       __imp__XcptFilter          10157074     corelib1:COREDLL.dll
 0002:00000078       __imp___C_specific_handler 10157078     corelib1:COREDLL.dll
 0002:0000007c       __imp___security_gen_cookie2 1015707c     corelib1:COREDLL.dll
 0002:00000080       __imp___report_gsfailure   10157080     corelib1:COREDLL.dll
 0002:00000084       __imp_free                 10157084     corelib1:COREDLL.dll
 0002:00000088       __imp_realloc              10157088     corelib1:COREDLL.dll
 0002:0000008c       __imp_malloc               1015708c     corelib1:COREDLL.dll
 0002:00000090       __imp__msize               10157090     corelib1:COREDLL.dll
 0002:00000094       __imp___GetUserKData       10157094     coredll:COREDLL.dll
 0002:00000098       \177COREDLL_NULL_THUNK_DATA 10157098     coredll:COREDLL.dll
 0002:0000009c       __imp_PVRSRVReallocUserModeMem 1015709c     srvclum:SRVCLUM.dll
 0002:000000a0       __imp_PVRSRVCallocUserModeMem 101570a0     srvclum:SRVCLUM.dll
 0002:000000a4       __imp_PVRSRVFreeDeviceMem  101570a4     srvclum:SRVCLUM.dll
 0002:000000a8       __imp_PVRSRVAllocUserModeMem 101570a8     srvclum:SRVCLUM.dll
 0002:000000ac       __imp_PVRSRVFreeUserModeMem 101570ac     srvclum:SRVCLUM.dll
 0002:000000b0       __imp_PVRSRVAllocDeviceMem 101570b0     srvclum:SRVCLUM.dll
 0002:000000b4       __imp_PVRSRVOpenBCDevice   101570b4     srvclum:SRVCLUM.dll
 0002:000000b8       __imp_PVRSRVGetBCBufferInfo 101570b8     srvclum:SRVCLUM.dll
 0002:000000bc       __imp_PVRSRVGetBCBuffer    101570bc     srvclum:SRVCLUM.dll
 0002:000000c0       __imp_PVRSRVMapDeviceClassMemory 101570c0     srvclum:SRVCLUM.dll
 0002:000000c4       __imp_PVRSRVEnumerateDeviceClass 101570c4     srvclum:SRVCLUM.dll
 0002:000000c8       __imp_PVRSRVUnmapDeviceClassMemory 101570c8     srvclum:SRVCLUM.dll
 0002:000000cc       __imp_PVRSRVCloseBCDevice  101570cc     srvclum:SRVCLUM.dll
 0002:000000d0       __imp_SGXKickTA            101570d0     srvclum:SRVCLUM.dll
 0002:000000d4       __imp_PVRSRVEventObjectWait 101570d4     srvclum:SRVCLUM.dll
 0002:000000d8       __imp_PVRSRVClientEvent    101570d8     srvclum:SRVCLUM.dll
 0002:000000dc       __imp_PVRSRVInitProfileOutput 101570dc     srvclum:SRVCLUM.dll
 0002:000000e0       __imp_PVRSRVProfileOutput  101570e0     srvclum:SRVCLUM.dll
 0002:000000e4       __imp_PVRSRVDeInitProfileOutput 101570e4     srvclum:SRVCLUM.dll
 0002:000000e8       __imp_PVRSRVCreateAppHintState 101570e8     srvclum:SRVCLUM.dll
 0002:000000ec       __imp_PVRSRVGetAppHint     101570ec     srvclum:SRVCLUM.dll
 0002:000000f0       __imp_PVRSRVFreeAppHintState 101570f0     srvclum:SRVCLUM.dll
 0002:000000f4       __imp_SGXQueueTransfer     101570f4     srvclum:SRVCLUM.dll
 0002:000000f8       __imp_PVRSRVDebugAssertFail 101570f8     srvclum:SRVCLUM.dll
 0002:000000fc       __imp_PVRSRVPollForValue   101570fc     srvclum:SRVCLUM.dll
 0002:00000100       __imp_PVRSRVTrace          10157100     srvclum:SRVCLUM.dll
 0002:00000104       __imp_PVRSRVReallocUserModeMemTracking 10157104     srvclum:SRVCLUM.dll
 0002:00000108       __imp_PVRSRVCreateMutex    10157108     srvclum:SRVCLUM.dll
 0002:0000010c       __imp_PVRSRVDestroyMutex   1015710c     srvclum:SRVCLUM.dll
 0002:00000110       __imp_PVRSRVMemSet         10157110     srvclum:SRVCLUM.dll
 0002:00000114       __imp_PVRSRVAllocUserModeMemTracking 10157114     srvclum:SRVCLUM.dll
 0002:00000118       __imp_PVRSRVLockMutex      10157118     srvclum:SRVCLUM.dll
 0002:0000011c       __imp_PVRSRVUnlockMutex    1015711c     srvclum:SRVCLUM.dll
 0002:00000120       __imp_PVRSRVMemCopy        10157120     srvclum:SRVCLUM.dll
 0002:00000124       __imp_PVRSRVCallocUserModeMemTracking 10157124     srvclum:SRVCLUM.dll
 0002:00000128       __imp_PVRSRVMetricsTimeNow 10157128     srvclum:SRVCLUM.dll
 0002:0000012c       __imp_PVRSRVFreeUserModeMemTracking 1015712c     srvclum:SRVCLUM.dll
 0002:00000130       __imp_PVRSRVDebugPrintf    10157130     srvclum:SRVCLUM.dll
 0002:00000134       \177SRVCLUM_NULL_THUNK_DATA 10157134     srvclum:SRVCLUM.dll
 0002:00000138       __imp_PVRUniFlexCompileToHw 10157138     usc:USC.dll
 0002:0000013c       __imp_PVRCleanupUniflexHw  1015713c     usc:USC.dll
 0002:00000140       __imp_PVRUniFlexCreateContext 10157140     usc:USC.dll
 0002:00000144       __imp_PVRUniFlexDestroyContext 10157144     usc:USC.dll
 0002:00000148       __imp_PVRUniFlexInitInst   10157148     usc:USC.dll
 0002:0000014c       \177USC_NULL_THUNK_DATA    1015714c     usc:USC.dll
 0002:00000150       __imp_IMGeglCopyBuffers    10157150     libimgegl:libIMGEGL.dll
 0002:00000154       __imp_IMGeglWaitGL         10157154     libimgegl:libIMGEGL.dll
 0002:00000158       __imp_IMGeglSwapInterval   10157158     libimgegl:libIMGEGL.dll
 0002:0000015c       __imp_IMGeglSurfaceAttrib  1015715c     libimgegl:libIMGEGL.dll
 0002:00000160       __imp_IMGeglBindTexImage   10157160     libimgegl:libIMGEGL.dll
 0002:00000164       __imp_IMGeglWaitNative     10157164     libimgegl:libIMGEGL.dll
 0002:00000168       __imp_IMGeglSwapBuffers    10157168     libimgegl:libIMGEGL.dll
 0002:0000016c       __imp_IMGeglReleaseTexImage 1015716c     libimgegl:libIMGEGL.dll
 0002:00000170       __imp_IMGeglQueryContext   10157170     libimgegl:libIMGEGL.dll
 0002:00000174       __imp_IMGeglGetCurrentDisplay 10157174     libimgegl:libIMGEGL.dll
 0002:00000178       __imp_IMGeglGetCurrentSurface 10157178     libimgegl:libIMGEGL.dll
 0002:0000017c       __imp_IMGeglGetCurrentContext 1015717c     libimgegl:libIMGEGL.dll
 0002:00000180       __imp_IMGeglMakeCurrent    10157180     libimgegl:libIMGEGL.dll
 0002:00000184       __imp_IMGeglDestroyContext 10157184     libimgegl:libIMGEGL.dll
 0002:00000188       __imp_IMGeglCreateContext  10157188     libimgegl:libIMGEGL.dll
 0002:0000018c       __imp_IMGeglQuerySurface   1015718c     libimgegl:libIMGEGL.dll
 0002:00000190       __imp_IMGeglCreatePbufferSurface 10157190     libimgegl:libIMGEGL.dll
 0002:00000194       __imp_IMGeglCreatePixmapSurface 10157194     libimgegl:libIMGEGL.dll
 0002:00000198       __imp_IMGeglCreateWindowSurface 10157198     libimgegl:libIMGEGL.dll
 0002:0000019c       __imp_IMGeglGetConfigAttrib 1015719c     libimgegl:libIMGEGL.dll
 0002:000001a0       __imp_IMGeglChooseConfig   101571a0     libimgegl:libIMGEGL.dll
 0002:000001a4       __imp_IMGeglGetConfigs     101571a4     libimgegl:libIMGEGL.dll
 0002:000001a8       __imp_IMGeglGetProcAddress 101571a8     libimgegl:libIMGEGL.dll
 0002:000001ac       __imp_IMGeglQueryString    101571ac     libimgegl:libIMGEGL.dll
 0002:000001b0       __imp_IMGeglTerminate      101571b0     libimgegl:libIMGEGL.dll
 0002:000001b4       __imp_IMGeglInitialize     101571b4     libimgegl:libIMGEGL.dll
 0002:000001b8       __imp_IMGeglGetDisplay     101571b8     libimgegl:libIMGEGL.dll
 0002:000001bc       __imp_IMGeglGetError       101571bc     libimgegl:libIMGEGL.dll
 0002:000001c0       __imp_KEGLGetImageSource   101571c0     libimgegl:libIMGEGL.dll
 0002:000001c4       __imp_KEGLBindImage        101571c4     libimgegl:libIMGEGL.dll
 0002:000001c8       __imp_KEGLSurfaceBind      101571c8     libimgegl:libIMGEGL.dll
 0002:000001cc       __imp_KEGLSurfaceUnbind    101571cc     libimgegl:libIMGEGL.dll
 0002:000001d0       __imp_KEGLResizeRenderSurface 101571d0     libimgegl:libIMGEGL.dll
 0002:000001d4       __imp_KEGLCreateRenderSurface 101571d4     libimgegl:libIMGEGL.dll
 0002:000001d8       __imp_KEGLUnbindImage      101571d8     libimgegl:libIMGEGL.dll
 0002:000001dc       __imp_KEGLDestroyRenderSurface 101571dc     libimgegl:libIMGEGL.dll
 0002:000001e0       __imp_KEGLGetDrawableParameters 101571e0     libimgegl:libIMGEGL.dll
 0002:000001e4       __imp_KEGLAllocDeviceMemTrack 101571e4     libimgegl:libIMGEGL.dll
 0002:000001e8       __imp_KEGLFreeDeviceMemTrack 101571e8     libimgegl:libIMGEGL.dll
 0002:000001ec       __imp_IMGeglDestroySurface 101571ec     libimgegl:libIMGEGL.dll
 0002:000001f0       \177libIMGEGL_NULL_THUNK_DATA 101571f0     libimgegl:libIMGEGL.dll
 0002:000001f8       __security_cookie          101571f8     corelib0:seccinit.obj
 0002:000001fc       __security_cookie_complement 101571fc     corelib0:seccinit.obj
 0002:00000208       ui32TextureMemCurrent      10157208     texmgmt.obj
 0002:0000020c       ui32TextureMemHWM          1015720c     texmgmt.obj
 0002:00000214       _exitflag                  10157214     corelib0:cexit.obj
 0002:00000218       __onexitend                10157218     <common>
 0002:0000021c       __onexitbegin              1015721c     <common>
 0002:00000220       _pRawDllMain               10157220     <common>

 entry point at        0001:00153798

 Static symbols

 0001:0002706c       SetupVerticesAndShaderForAccum 1002806c f   accum.obj
 0001:000275fc       SetupVerticesForAccum      100285fc f   accum.obj
 0001:00028480       DisposeBufObject           10029480 f   bufobj.obj
 0001:000284b0       FreeBufferObject           100294b0 f   bufobj.obj
 0001:000285d8       WaitUntilBufObjNotUsed     100295d8 f   bufobj.obj
 0001:0002918c       CreateBufferObject         1002a18c f   bufobj.obj
 0001:0002d9e0       SetupVerticesAndShaderForClear 1002e9e0 f   clear.obj
 0001:0002df84       SetupVerticesForClear      1002ef84 f   clear.obj
 0001:0002e5c0       GetClearSize               1002f5c0 f   clear.obj
 0001:0002e818       SetupFragmentShaderForClear 1002f818 f   clear.obj
 0001:00030c84       DrawTexture                10031c84 f   drawtex.obj
 0001:00033024       WriteDirect16Indices       10034024 f   drawvarray.obj
 0001:000335d0       WriteLineStripOrLoop16Indices 100345d0 f   drawvarray.obj
 0001:00033d84       AttachTextureDependency    10034d84 f   drawvarray.obj
 0001:00037b08       GetNumIndices              10038b08 f   drawvarray.obj
 0001:00037cb0       PickDrawArraysProc         10038cb0 f   drawvarray.obj
 0001:00037f48       CreateSequentialStaticIndices 10038f48 f   drawvarray.obj
 0001:00038108       DrawVertexArray            10039108 f   drawvarray.obj
 0001:000382b4       CopyVArrayData             100392b4 f   drawvarray.obj
 0001:000387c8       SetupStreamPointers        100397c8 f   drawvarray.obj
 0001:00038a94       GetVertexIndexBufferSpace  10039a94 f   drawvarray.obj
 0001:00038d7c       CreateLineStripStaticIndices 10039d7c f   drawvarray.obj
 0001:00038f78       DrawArraysBatchedStaticIndices 10039f78 f   drawvarray.obj
 0001:000390ec       GetVArrayBatchRewindCount  1003a0ec f   drawvarray.obj
 0001:00039208       DrawArraysAutoIndices      1003a208 f   drawvarray.obj
 0001:00039760       DrawBatchOnVBuffer         1003a760 f   drawvarray.obj
 0001:0003a2ac       CopyVArrayDataDeindex      1003b2ac f   drawvarray.obj
 0001:0003a850       HandlePrimitiveTypeChange  1003b850 f   drawvarray.obj
 0001:0003ecf8       DrawElementsIndexBO        1003fcf8 f   drawvarray.obj
 0001:0003ef54       PickDrawElementsProc       1003ff54 f   drawvarray.obj
 0001:0003f4ec       DrawElementsDeindex        100404ec f   drawvarray.obj
 0001:0003f5c4       DetermineMinAndMaxIndices  100405c4 f   drawvarray.obj
 0001:0003f814       TransformIndicesTo16Bits   10040814 f   drawvarray.obj
 0001:00043f10       PickMultiDrawArraysProc    10044f10 f   drawvarray.obj
 0001:000440b8       MultiDrawArraysAutoIndices 100450b8 f   drawvarray.obj
 0001:0004472c       MultiDrawBatchOnVBuffer    1004572c f   drawvarray.obj
 0001:00045334       MultiDrawVertexArray       10046334 f   drawvarray.obj
 0001:0004742c       MultiDrawElementsIndexBO   1004842c f   drawvarray.obj
 0001:00047758       PickMultiDrawElementsProc  10048758 f   drawvarray.obj
 0001:00047a0c       MultiDrawElementsDeindex   10048a0c f   drawvarray.obj
 0001:00047d44       GLESCreateGC               10048d44 f   eglglue.obj
 0001:00047ea8       _GLES1CreateContext        10048ea8 f   eglglue.obj
 0001:00047edc       _GLES1DestroyContext       10048edc f   eglglue.obj
 0001:00047ef4       InitContext                10048ef4 f   eglglue.obj
 0001:0004938c       FreeContextSharedState     1004a38c f   eglglue.obj
 0001:000497cc       CreateSharedState          1004a7cc f   eglglue.obj
 0001:0004a034       DeInitContext              1004b034 f   eglglue.obj
 0001:0004a31c       GLESDestroyGC              1004b31c f   eglglue.obj
 0001:0004a39c       GLESMakeCurrentGC          1004b39c f   eglglue.obj
 0001:0004a6ac       GLESMakeUnCurrentGC        1004b6ac f   eglglue.obj
 0001:0004a780       GLESFlushBuffersGC         1004b780 f   eglglue.obj
 0001:0004aabc       GLESMarkRenderSurfaceAsInvalid 1004babc f   eglglue.obj
 0001:0004ab88       GLESInsertFenceSyncGC      1004bb88 f   eglglue.obj
 0001:0004ac1c       GLESRemoveFenceSyncGC      1004bc1c f   eglglue.obj
 0001:0004ac6c       GLESGetProcAddress         1004bc6c f   eglglue.obj
 0001:0004bdfc       DisposeRenderBuffer        1004cdfc f   fbo.obj
 0001:0004be60       FreeRenderBuffer           1004ce60 f   fbo.obj
 0001:0004bf64       DisposeFrameBufferObject   1004cf64 f   fbo.obj
 0001:0004bfc8       FreeFrameBuffer            1004cfc8 f   fbo.obj
 0001:0004c4d0       FrameBufferHasBeenModified 1004d4d0 f   fbo.obj
 0001:0004cb28       ComputeFrameBufferCompleteness 1004db28 f   fbo.obj
 0001:0004dfc4       NotifyFrameBuffer          1004efc4 f   fbo.obj
 0001:0004f074       CreateRenderBufferObject   10050074 f   fbo.obj
 0001:000529c4       CreateFrameBufferObject    100539c4 f   fbo.obj
 0001:000567e4       SetupBlendingOPs           100577e4 f   fftex.obj
 0001:0005707c       ReuseHashedBlendState      1005807c f   fftex.obj
 0001:00057e10       AllocateTempReg            10058e10 f   fftexhw.obj
 0001:00057f04       IntegerCopy                10058f04 f   fftexhw.obj
 0001:00057fd0       SetupBaseColour            10058fd0 f   fftexhw.obj
 0001:00058294       SetupTwoSidedColour        10059294 f   fftexhw.obj
 0001:000588c4       EncodeYUVColourSpaceConversion 100598c4 f   fftexhw.obj
 0001:00058ef4       DeallocateTempReg          10059ef4 f   fftexhw.obj
 0001:00058fb4       EncodeYUV420ColourSpaceConversion 10059fb4 f   fftexhw.obj
 0001:000596b8       IntegerSetupTextureBlend   1005a6b8 f   fftexhw.obj
 0001:000599ac       EncodeGeneralColorBlend    1005a9ac f   fftexhw.obj
 0001:0005a038       SetupColourSourceRegTypeNum 1005b038 f   fftexhw.obj
 0001:0005a2dc       EncodeDOT3                 1005b2dc f   fftexhw.obj
 0001:0005a6a4       LoadFPMASpecialConstant    1005b6a4 f   fftexhw.obj
 0001:0005a73c       EncodeFPMA                 1005b73c f   fftexhw.obj
 0001:0005ad2c       EncodeFPMAReplace          1005bd2c f   fftexhw.obj
 0001:0005ae5c       EncodeGeneralAlphaBlend    1005be5c f   fftexhw.obj
 0001:0005b3ec       SetupAlphaSourceRegTypeNum 1005c3ec f   fftexhw.obj
 0001:0005b690       EncodeRestrictedBlend      1005c690 f   fftexhw.obj
 0001:0005bfc4       GetSOP2SourceTypeFromColorSrc 1005cfc4 f   fftexhw.obj
 0001:0005c0b0       GetSOP2SourceTypeFromAlphaSrc 1005d0b0 f   fftexhw.obj
 0001:0005c19c       SetupSourcesForSOP2        1005d19c f   fftexhw.obj
 0001:0005c3e8       SetupSOP2ColorSource       1005d3e8 f   fftexhw.obj
 0001:0005c5f4       SetSOP2SourceAssignment    1005d5f4 f   fftexhw.obj
 0001:0005c628       GetSOP2SourceAssignment    1005d628 f   fftexhw.obj
 0001:0005c664       SetupSOP2AlphaSource       1005d664 f   fftexhw.obj
 0001:0005c870       EncodeGeneralADDSIGNEDBlend 1005d870 f   fftexhw.obj
 0001:0005cef0       IntegerCombineColorAndAlpha 1005def0 f   fftexhw.obj
 0001:0005d198       IntegerScaleColorAndAlpha  1005e198 f   fftexhw.obj
 0001:0005d4f0       IntegerADDSIGNEDSOP2       1005e4f0 f   fftexhw.obj
 0001:0005d7c0       CalculateSourceInformation 1005e7c0 f   fftexhw.obj
 0001:0005e134       IntegerConvertTextureFormat 1005f134 f   fftexhw.obj
 0001:0005e48c       PickRestrictedBlend        1005f48c f   fftexhw.obj
 0001:0005e944       FFGENMalloc                1005f944 f   fftnlgles.obj
 0001:0005e988       FFGENCalloc                1005f988 f   fftnlgles.obj
 0001:0005e9cc       FFGENRealloc               1005f9cc f   fftnlgles.obj
 0001:0005ea14       FFGENFree                  1005fa14 f   fftnlgles.obj
 0001:0005ea3c       FFGENPrintf                1005fa3c f   fftnlgles.obj
 0001:0005eaa0       UniFlexAlloc               1005faa0 f   fftnlgles.obj
 0001:0005eadc       UniFlexFree                1005fadc f   fftnlgles.obj
 0001:0005eafc       UniFlexPrint               1005fafc f   fftnlgles.obj
 0001:00061738       UpdateFFTNLShaderConstantsSize 10062738 f   fftnlgles.obj
 0001:00061b24       GetFFTNLGenDesc            10062b24 f   fftnlgles.obj
 0001:000627b4       SetupFFTNLShaderInputs     100637b4 f   fftnlgles.obj
 0001:00062980       SetupFFTNLShaderCode       10063980 f   fftnlgles.obj
 0001:00063084       CompileFFGenUniFlexCode    10064084 f   fftnlgles.obj
 0001:0006416c       Fogfv                      1006516c f   fog.obj
 0001:00066b50       GetMaterialfv              10067b50 f   get.obj
 0001:000673ac       GetLightfv                 100683ac f   get.obj
 0001:00067ce4       GetTexEnvfv                10068ce4 f   get.obj
 0001:00068050       GetTexEnvCombine           10069050 f   get.obj
 0001:00069c20       GetTexParameter            1006ac20 f   get.obj
 0001:0006b34c       DoGet                      1006c34c f   get.obj
 0001:0006f8d4       GetBlendEquation           100708d4 f   get.obj
 0001:0006f954       GetBlendFactor             10070954 f   get.obj
 0001:0006fa70       GetStencilOp               10070a70 f   get.obj
 0001:0006fb50       IsEnabled                  10070b50 f   get.obj
 0001:00072478       HardwareMipGen             10073478 f   makemips.obj
 0001:00072894       SetupMipmapTextureControlWords 10073894 f   makemips.obj
 0001:000732f4       MakeMapLevel8bpp           100742f4 f   makemips.obj
 0001:00073618       MakeMapLevel16bpp          10074618 f   makemips.obj
 0001:00073d54       MakeMapLevel32bpp          10074d54 f   makemips.obj
 0001:00074358       XForm2                     10075358 f   matrix.obj
 0001:000744a4       XForm3                     100754a4 f   matrix.obj
 0001:00074660       XForm4                     10075660 f   matrix.obj
 0001:0007654c       PickMatrixType             1007754c f   matrix.obj
 0001:0007d41c       ConvertToFixedWithMantissa 1007e41c f   misc.obj
 0001:0007dbdc       GetExternalExtensionString 1007ebdc f   misc.obj
 0001:0007f340       LOCK_NAMES_ARRAY           10080340 f   names.obj
 0001:0007f374       UNLOCK_NAMES_ARRAY         10080374 f   names.obj
 0001:0007f3a8       LookupItemByName           100803a8 f   names.obj
 0001:00080750       RemoveItemFromList         10081750 f   names.obj
 0001:000811fc       BytesPerPixel              100821fc f   pixop.obj
 0001:00081cd8       ClipReadPixels             10082cd8 f   pixop.obj
 0001:00081f44       ElementsPerGroup           10082f44 f   pixop.obj
 0001:00082058       BytesPerElement            10083058 f   pixop.obj
 0001:000831dc       CheckReadPixelArgs         100841dc f   pixop.obj
 0001:00083f14       DrawCallProfiling          10084f14 f   profile.obj
 0001:000844ac       DisplayStateMetricTable    100854ac f   profile.obj
 0001:000849c0       PrintMetricStateRow        100859c0 f   profile.obj
 0001:00084c70       DestroyStateMetricData     10085c70 f   profile.obj
 0001:00084ce8       DisplayRedundantCallInfo   10085ce8 f   profile.obj
 0001:00086464       CalcRegionClip             10087464 f   scissor.obj
 0001:0008664c       SetupVerticesAndShaderForDrawmask 1008764c f   scissor.obj
 0001:00086bdc       SetupVerticesForDrawmask   10087bdc f   scissor.obj
 0001:00089264       StartFrame                 1008a264 f   sgxif.obj
 0001:000896d0       GLESInitRegs               1008a6d0 f   sgxif.obj
 0001:000898d0       SetupZLSRegs               1008a8d0 f   sgxif.obj
 0001:00089d58       WaitForRender              1008ad58 f   sgxif.obj
 0001:0008a20c       ValidateMemory             1008b20c f   sgxif.obj
 0001:0008a238       DoKickTA                   1008b238 f   sgxif.obj
 0001:0008baa0       DestroyUSEShaderVariant    1008caa0 f   shader.obj
 0001:0008be44       DisposePrograms            1008ce44 f   shader.obj
 0001:000926f0       SetUpAlphaTestParams       100936f0 f   state.obj
 0001:0009391c       BlendFuncSeparate          1009491c f   state.obj
 0001:000956d8       PointSize                  100966d8 f   state.obj
 0001:00095e88       PointParameterfv           10096e88 f   state.obj
 0001:00099b30       HashTableDeleteUnsafe      1009ab30 f   statehash.obj
 0001:00099ee0       CheckIsEntryInUse          1009aee0 f   statehash.obj
 0001:0009f564       CheckTexImageArgs          100a0564 f   tex.obj
 0001:0009f6d4       IsLegalRangeTex            100a06d4 f   tex.obj
 0001:000a1cc0       CheckTexSubImageArgs       100a2cc0 f   tex.obj
 0001:000a20c4       UpdateEGLImage             100a30c4 f   tex.obj
 0001:000a3ae4       Copy888Palette4Span        100a4ae4 f   tex.obj
 0001:000a3ca4       Copy888Palette4Level1xN    100a4ca4 f   tex.obj
 0001:000a3f28       Copy888Palette8Span        100a4f28 f   tex.obj
 0001:000a4024       Copy8888Palette4Span       100a5024 f   tex.obj
 0001:000a410c       Copy8888Palette4Level1xN   100a510c f   tex.obj
 0001:000a424c       Copy8888Palette8Span       100a524c f   tex.obj
 0001:000a42dc       Copy565Palette4Span        100a52dc f   tex.obj
 0001:000a43b4       Copy565Palette4Level1xN    100a53b4 f   tex.obj
 0001:000a44dc       Copy565Palette8Span        100a54dc f   tex.obj
 0001:000a4564       Copy4444Palette4Span       100a5564 f   tex.obj
 0001:000a4674       Copy4444Palette4Level1xN   100a5674 f   tex.obj
 0001:000a47e0       Copy4444Palette8Span       100a57e0 f   tex.obj
 0001:000a4884       Copy5551Palette4Span       100a5884 f   tex.obj
 0001:000a4994       Copy5551Palette4Level1xN   100a5994 f   tex.obj
 0001:000a4b00       Copy5551Palette8Span       100a5b00 f   tex.obj
 0001:000ab0f0       TexEnvfv                   100ac0f0 f   tex.obj
 0001:000abc20       TexEnvxv                   100acc20 f   tex.obj
 0001:000ac7fc       TexEnviv                   100ad7fc f   tex.obj
 0001:000ad3e8       TexParameterfv             100ae3e8 f   tex.obj
 0001:000aebd4       TexGenfv                   100afbd4 f   tex.obj
 0001:000b36a4       PrepareHWTQTextureBufferBlit 100b46a4 f   texdata.obj
 0001:000b3898       HWTQTextureBufferBlit      100b4898 f   texdata.obj
 0001:000b52c0       IsTextureConsistentWithMipMaps 100b62c0 f   texmgmt.obj
 0001:000b7638       ReclaimTextureMemKRM       100b8638 f   texmgmt.obj
 0001:000b7890       DestroyTextureGhostKRM     100b8890 f   texmgmt.obj
 0001:000b79c4       TexStreamUnbindBufferDevice 100b89c4 f   texmgmt.obj
 0001:000b7c08       CreateDummyTextures        100b8c08 f   texmgmt.obj
 0001:000b7e9c       InitTextureState           100b8e9c f   texmgmt.obj
 0001:000b7f64       DisposeTexObj              100b8f64 f   texmgmt.obj
 0001:000b7fc8       FreeTexture                100b8fc8 f   texmgmt.obj
 0001:000b83c8       DestroyDummyTextures       100b93c8 f   texmgmt.obj
 0001:000b8f48       SetupEGLImageArbitraryStride 100b9f48 f   texmgmt.obj
 0001:000b9108       SetupExternalTextureState  100ba108 f   texmgmt.obj
 0001:000bb530       Lightfv                    100bc530 f   tnlapi.obj
 0001:000bbab4       TransformLightDirection    100bcab4 f   tnlapi.obj
 0001:000bef54       Frustumf                   100bff54 f   tnlapi.obj
 0001:000bfbd8       Orthof                     100c0bd8 f   tnlapi.obj
 0001:000c2afc       Rotatef                    100c3afc f   tnlapi.obj
 0001:000c5600       CalcClipPlane              100c6600 f   tnlapi.obj
 0001:000c63f0       UseAssemblerError          100c73f0 f   useasmgles.obj
 0001:000c6464       UseAssemblerSetLabelAddress 100c7464 f   useasmgles.obj
 0001:000c648c       UseAssemblerGetLabelName   100c748c f   useasmgles.obj
 0001:000c64c0       UseAssemblerGetLabelAddress 100c74c0 f   useasmgles.obj
 0001:000c64f4       UseasmRealloc              100c74f4 f   useasmgles.obj
 0001:000c6544       UseasmAlloc                100c7544 f   useasmgles.obj
 0001:000c6588       UseasmFree                 100c7588 f   useasmgles.obj
 0001:000c6754       ReplaceDestinationAlpha    100c7754 f   usegles.obj
 0001:000c6b80       InitPixelEventUSECodeBlocks 100c7b80 f   usegles.obj
 0001:000c6eb4       InitStateCopyUSECodeBlocks 100c7eb4 f   usegles.obj
 0001:000c71f4       FreePixelEventUSECodeBlocks 100c81f4 f   usegles.obj
 0001:000c7228       FreeStateCopyUSECodeBlocks 100c8228 f   usegles.obj
 0001:000c772c       CreateVertexUnpackUSECode  100c872c f   usegles.obj
 0001:000ca374       CreateFBBlendUSEASMCode    100cb374 f   usegles.obj
 0001:000cabbc       CreateLogicalOpsUSEASMCode 100cbbbc f   usegles.obj
 0001:000cb8ec       CreateColorMaskUSEASMCode  100cc8ec f   usegles.obj
 0001:000cbb40       CreateFogUSEASMCode        100ccb40 f   usegles.obj
 0001:000cbea4       SetupIteratorsAndTextureLookups 100ccea4 f   usegles.obj
 0001:000cded0       SetupPBEStateEmit          100ceed0 f   validate.obj
 0001:000d0ebc       GenerateVertexCompileMask  100d1ebc f   validate.obj
 0001:000d1110       SetupVAOAttribPointers     100d2110 f   validate.obj
 0001:000d1210       SetupVAOAttribStreams      100d2210 f   validate.obj
 0001:000d1728       SetupRenderState           100d2728 f   validate.obj
 0001:000d23ac       UpdateMVP                  100d33ac f   validate.obj
 0001:000d240c       MoveFFTNLShaderToTop       100d340c f   validate.obj
 0001:000d2504       PropagateDirtyConstants    100d3504 f   validate.obj
 0001:000d4644       WritePDSPixelShaderProgram 100d5644 f   validate.obj
 0001:000d58ec       PatchAuxiliaryPDSVertexShaderProgram 100d68ec f   validate.obj
 0001:000d6004       WritePDSStaticVertexShaderProgram 100d7004 f   validate.obj
 0001:000d71c4       WritePDSVertexShaderProgramWithVAO 100d81c4 f   validate.obj
 0001:000d9288       WritePDSUSEShaderSAProgram 100da288 f   validate.obj
 0001:000d99f4       LoadSecondaryAttributes    100da9f4 f   validate.obj
 0001:000da02c       WriteStaticPDSPixelSAProgram 100db02c f   validate.obj
 0001:000dadf8       WriteMTEState              100dbdf8 f   validate.obj
 0001:000db648       WriteVDMControlStream      100dc648 f   validate.obj
 0001:000dbc28       Copy1Byte                  100dcc28 f   vertex.obj
 0001:000dbca8       Copy3Bytes                 100dcca8 f   vertex.obj
 0001:000dbd58       Copy1Short                 100dcd58 f   vertex.obj
 0001:000dbdd8       Copy3Shorts                100dcdd8 f   vertex.obj
 0001:000dbe88       Copy1Long                  100dce88 f   vertex.obj
 0001:000dbf08       Copy2Longs                 100dcf08 f   vertex.obj
 0001:000dbfa0       Copy3Longs                 100dcfa0 f   vertex.obj
 0001:000dc050       Copy4Longs                 100dd050 f   vertex.obj
 0001:000dc118       MemCopy1Byte               100dd118 f   vertex.obj
 0001:000dc140       MemCopy3Bytes              100dd140 f   vertex.obj
 0001:000dc170       MemCopy1Short              100dd170 f   vertex.obj
 0001:000dc1a0       MemCopy3Shorts             100dd1a0 f   vertex.obj
 0001:000dc1d0       MemCopy1Long               100dd1d0 f   vertex.obj
 0001:000dc200       MemCopy2Longs              100dd200 f   vertex.obj
 0001:000dc230       MemCopy3Longs              100dd230 f   vertex.obj
 0001:000dc260       MemCopy4Longs              100dd260 f   vertex.obj
 0001:000e32e4       SetupYUVCoefficients       100e42e4 f   texyuv.obj
 0001:000e49ec       FindBufferDevice           100e59ec f   texstream.obj
 0001:000e4a98       AddBufferDevice            100e5a98 f   texstream.obj
 0001:000e5294       CreateTextureStreamState   100e6294 f   texstream.obj
 0001:000e894c       FreeVertexArrayObjectInternalPointers 100e994c f   vertexarrobj.obj
 0001:000e8ba4       WaitUntilVAONotUsed        100e9ba4 f   vertexarrobj.obj
 0001:000e8ccc       DisposeVertexArrayObject   100e9ccc f   vertexarrobj.obj
 0001:000e8cfc       FreeVertexArrayObject      100e9cfc f   vertexarrobj.obj
 0001:000e94bc       CreateVertexArrayObject    100ea4bc f   vertexarrobj.obj
 0001:000ec720       PDSEncodeSimpleMOVS        100ed720 f   pds.obj
 0001:000f029c       PDSGetNextConstant         100f129c f   pds.obj
 0001:000f03dc       PDSGetTemps                100f13dc f   pds.obj
 0001:000f0468       PDSGetConstants            100f1468 f   pds.obj
 0001:000f04f4       PDSGetDS0ConstantOffset    100f14f4 f   pds.obj
 0001:000f0564       PDSGetDS1ConstantOffset    100f1564 f   pds.obj
 0001:000f05d8       PDSSetDS0Constant          100f15d8 f   pds.obj
 0001:000f0620       PDSSetDS1Constant          100f1620 f   pds.obj
 0001:000f0668       PDSGetNumConstants         100f1668 f   pds.obj
 0001:000f1754       FloorLog2                  100f2754 f   pixeventpbesetup.obj
 0001:000f2cec       CheckPDSBufferSpace        100f3cec f   buffers.obj
 0001:000f2e88       GetBufferSpaceLeftInBytes  100f3e88 f   buffers.obj
 0001:000f2f88       CheckUSSEBufferSpace       100f3f88 f   buffers.obj
 0001:000f3148       ExtraSizeForAlignment      100f4148 f   buffers.obj
 0001:000f31bc       CheckVIBufferSpace         100f41bc f   buffers.obj
 0001:000f32dc       GetTotalBufferSpaceLeftInBytes 100f42dc f   buffers.obj
 0001:000f3360       CheckTACtrlBufferSpace     100f4360 f   buffers.obj
 0001:000f44b0       CodeHeapIsSane             100f54b0 f   codeheap.obj
 0001:000f4608       CodeHeapInsertBlockInFreeList 100f5608 f   codeheap.obj
 0001:000f536c       FindFreeBlock              100f636c f   codeheap.obj
 0001:000f5958       InitLookupTable32          100f6958 f   twiddle.obj
 0001:000f5c78       TwiddleSmallTexture16bpp   100f6c78 f   twiddle.obj
 0001:000f60c8       Write8x8Pixels16bpp        100f70c8 f   twiddle.obj
 0001:000f6b0c       RecursiveTwid16bpp         100f7b0c f   twiddle.obj
 0001:000f6c74       Twiddle32x3216bpp          100f7c74 f   twiddle.obj
 0001:000f7280       TwiddleRectangularTexture16bpp 100f8280 f   twiddle.obj
 0001:000f7930       GetRectangularOffset       100f8930 f   twiddle.obj
 0001:000f7c48       Untwiddle16Bpp             100f8c48 f   twiddle.obj
 0001:000f7e84       TwiddleSmallTexture32bpp   100f8e84 f   twiddle.obj
 0001:000f82fc       Write8x8Pixels32bpp        100f92fc f   twiddle.obj
 0001:000f8e40       RecursiveTwid32bpp         100f9e40 f   twiddle.obj
 0001:000f8fa8       Twiddle32x3232bpp          100f9fa8 f   twiddle.obj
 0001:000f95e0       TwiddleRectangularTexture32bpp 100fa5e0 f   twiddle.obj
 0001:000f9f30       Untwiddle32bpp             100faf30 f   twiddle.obj
 0001:000fa180       getTwiddledAddress         100fb180 f   twiddle.obj
 0001:000fa638       getUV                      100fb638 f   twiddle.obj
 0001:000fb1ec       KRM_ENTER_CRITICAL_SECTION 100fc1ec f   kickresource.obj
 0001:000fb220       KRM_EXIT_CRITICAL_SECTION  100fc220 f   kickresource.obj
 0001:000fb254       AllocAttachment            100fc254 f   kickresource.obj
 0001:000fb514       IsResourceInUse            100fc514 f   kickresource.obj
 0001:000fb73c       IsKickFinished             100fc73c f   kickresource.obj
 0001:000fb8f4       IsResourceNeeded           100fc8f4 f   kickresource.obj
 0001:000fbaa4       WaitUntilResourceIsNotNeeded 100fcaa4 f   kickresource.obj
 0001:000fbb94       IsResourceKicked           100fcb94 f   kickresource.obj
 0001:000fbf7c       ReclaimUnneededResourcesInList 100fcf7c f   kickresource.obj
 0001:000fc164       RemoveResourceFromAllLists 100fd164 f   kickresource.obj
 0001:000fc328       FreeAttachment             100fd328 f   kickresource.obj
 0001:000fc560       RemoveAttachmentPointReferencesInList 100fd560 f   kickresource.obj
 0001:000fcfe0       GetMaxInstancesInAttributes 100fdfe0 f   dmscalc.obj
 0001:000fdb88       FFTNLDestroyEntry          100feb88 f   libffgen:ffgen.obj
 0001:000fe070       DecodeLdSt                 100ff070 f   libffgen:usedisasm.obj
 0001:000fe528       DecodeSrc0                 100ff528 f   libffgen:usedisasm.obj
 0001:000fe5b4       DecodeSrc0WithNum          100ff5b4 f   libffgen:usedisasm.obj
 0001:000fe634       DecodeRegister             100ff634 f   libffgen:usedisasm.obj
 0001:000fe90c       DecodeIndex                100ff90c f   libffgen:usedisasm.obj
 0001:000fea6c       AdjustRegisterNumberUnits  100ffa6c f   libffgen:usedisasm.obj
 0001:000fea94       DecodeSrc0Bank             100ffa94 f   libffgen:usedisasm.obj
 0001:000feb80       DecodeSrc12                100ffb80 f   libffgen:usedisasm.obj
 0001:000fec58       DecodeSrc12WithNum         100ffc58 f   libffgen:usedisasm.obj
 0001:000fecf4       DecodeSrc12Bank            100ffcf4 f   libffgen:usedisasm.obj
 0001:000feedc       SetupDRCSource             100ffedc f   libffgen:usedisasm.obj
 0001:000fef28       DecodeLdStCacheFlags       100fff28 f   libffgen:usedisasm.obj
 0001:000fef90       DecodeComplexOpInstruction 100fff90 f   libffgen:usedisasm.obj
 0001:000ff2b4       DecodeDest                 101002b4 f   libffgen:usedisasm.obj
 0001:000ff338       DecodeDestWithNum          10100338 f   libffgen:usedisasm.obj
 0001:000ff3f8       DecodeDestBank             101003f8 f   libffgen:usedisasm.obj
 0001:000ff564       DecodeRepeatCountMask      10100564 f   libffgen:usedisasm.obj
 0001:000ff604       DecodeFloatInstruction     10100604 f   libffgen:usedisasm.obj
 0001:000ffd28       DecodeMovcInstruction      10100d28 f   libffgen:usedisasm.obj
 0001:00100178       DecodeEfoInstruction       10101178 f   libffgen:usedisasm.obj
 0001:00100484       DecodeSmp                  10101484 f   libffgen:usedisasm.obj
 0001:00100928       SetupIntSrcSel             10101928 f   libffgen:usedisasm.obj
 0001:00100974       DecodeFIRHInstruction      10101974 f   libffgen:usedisasm.obj
 0001:00100f64       SetupImmediateSource       10101f64 f   libffgen:usedisasm.obj
 0001:00100fb0       SignExt                    10101fb0 f   libffgen:usedisasm.obj
 0001:00101018       DecodePCKInstruction       10102018 f   libffgen:usedisasm.obj
 0001:001013c4       DecodeBitwiseInstruction   101023c4 f   libffgen:usedisasm.obj
 0001:001017b0       RotateLeft                 101027b0 f   libffgen:usedisasm.obj
 0001:001017f8       DecodeTestInstruction      101027f8 f   libffgen:usedisasm.obj
 0001:00101e24       DecodeTestOpcode           10102e24 f   libffgen:usedisasm.obj
 0001:00101e78       DecodeRLPInstruction       10102e78 f   libffgen:usedisasm.obj
 0001:001020a8       DecodeSOP2Instruction      101030a8 f   libffgen:usedisasm.obj
 0001:00102668       DecodeSOPWMInstruction     10103668 f   libffgen:usedisasm.obj
 0001:00102abc       DecodeSOP3Instruction      10103abc f   libffgen:usedisasm.obj
 0001:0010354c       DecodeIMA8Instruction      1010454c f   libffgen:usedisasm.obj
 0001:00103a50       DecodeDOT34Instruction     10104a50 f   libffgen:usedisasm.obj
 0001:00104130       DecodeIMAEInstruction      10105130 f   libffgen:usedisasm.obj
 0001:00104638       DecodeIMA16Instruction     10105638 f   libffgen:usedisasm.obj
 0001:00104ac4       DecodeADIFFIRVBILINInstruction 10105ac4 f   libffgen:usedisasm.obj
 0001:00104bc0       DecodeFIRVInstruction      10105bc0 f   libffgen:usedisasm.obj
 0001:00104ecc       DecodeStandardIntegerInstructionModifiers 10105ecc f   libffgen:usedisasm.obj
 0001:00104ffc       DecodeSSUM16Instruction    10105ffc f   libffgen:usedisasm.obj
 0001:001052e4       DecodeADIFInstruction      101062e4 f   libffgen:usedisasm.obj
 0001:001054ac       DecodeBILINInstruction     101064ac f   libffgen:usedisasm.obj
 0001:00105720       DecodeSpecialInstruction   10106720 f   libffgen:usedisasm.obj
 0001:00105850       DecodeFlowControl          10106850 f   libffgen:usedisasm.obj
 0001:00105ea0       DecodeOther2               10106ea0 f   libffgen:usedisasm.obj
 0001:00105eec       DecodeMoeControlInstruction 10106eec f   libffgen:usedisasm.obj
 0001:0010676c       SetupAddressModeSource     1010776c f   libffgen:usedisasm.obj
 0001:001067b8       DecodeSpecialOtherInstruction 101077b8 f   libffgen:usedisasm.obj
 0001:0010694c       DecodeLDRSTRInstruction    1010794c f   libffgen:usedisasm.obj
 0001:00106ba4       DecodeWOPInstruction       10107ba4 f   libffgen:usedisasm.obj
 0001:00106c54       DecodeMutexInstruction     10107c54 f   libffgen:usedisasm.obj
 0001:00106d50       DecodeLIMMInstruction      10107d50 f   libffgen:usedisasm.obj
 0001:00106eec       DecodeEMITInstruction      10107eec f   libffgen:usedisasm.obj
 0001:00107330       DecodeSETMInstruction      10108330 f   libffgen:usedisasm.obj
 0001:00107434       DecodeWDFInstruction       10108434 f   libffgen:usedisasm.obj
 0001:001074e4       DecodeIDFInstruction       101084e4 f   libffgen:usedisasm.obj
 0001:001075b4       DecodeVistestInstruction   101085b4 f   libffgen:usedisasm.obj
 0001:00107684       DecodeATST8Instruction     10108684 f   libffgen:usedisasm.obj
 0001:0010797c       DecodeDEPTHFInstruction    1010897c f   libffgen:usedisasm.obj
 0001:00107bcc       DecodePTCTRLInstruction    10108bcc f   libffgen:usedisasm.obj
 0001:00108024       usedisasm_asprintf         10109024 f   libffgen:usedisasm.obj
 0001:00108074       PrintStandardInstruction   10109074 f   libffgen:usedisasm.obj
 0001:0010828c       PrintDestRegister          1010928c f   libffgen:usedisasm.obj
 0001:001082ec       BasePrintRegister          101092ec f   libffgen:usedisasm.obj
 0001:00108a70       PrintFlags                 10109a70 f   libffgen:usedisasm.obj
 0001:00108b04       PrintSwizzle               10109b04 f   libffgen:usedisasm.obj
 0001:00108bdc       PrintSourceRegister        10109bdc f   libffgen:usedisasm.obj
 0001:00108d64       PrintPredicate             10109d64 f   libffgen:usedisasm.obj
 0001:00108db0       PrintInstructionFlags      10109db0 f   libffgen:usedisasm.obj
 0001:001090f8       PrintTest                  1010a0f8 f   libffgen:usedisasm.obj
 0001:00109378       PrintWriteMask             1010a378 f   libffgen:usedisasm.obj
 0001:00109404       IsDestinationMaskDefault   1010a404 f   libffgen:usedisasm.obj
 0001:00109484       DisassembleLdSt            1010a484 f   libffgen:usedisasm.obj
 0001:001097b0       DisassembleEfoInstruction  1010a7b0 f   libffgen:usedisasm.obj
 0001:00109ae4       DisassembleEMITInstruction 1010aae4 f   libffgen:usedisasm.obj
 0001:00109cb8       DisassembleIDFInstruction  1010acb8 f   libffgen:usedisasm.obj
 0001:0010c430       FixupLabelAddresses        1010d430 f   libffgen:useasm.obj
 0001:0010c704       SetLabelAddress            1010d704 f   libffgen:useasm.obj
 0001:0010caa0       AssembleDot34              1010daa0 f   libffgen:useasm.obj
 0001:0010df08       CheckArgFlags              1010ef08 f   libffgen:useasm.obj
 0001:0010e390       CheckFlags                 1010f390 f   libffgen:useasm.obj
 0001:0010ef40       EncodeDest                 1010ff40 f   libffgen:useasm.obj
 0001:0010efc4       EncodeArgument             1010ffc4 f   libffgen:useasm.obj
 0001:0010f180       EncodeDestBank             10110180 f   libffgen:useasm.obj
 0001:0010f448       GetRegisterTypeName        10110448 f   libffgen:useasm.obj
 0001:0010f4c8       GPIRegistersUseTempBank    101104c8 f   libffgen:useasm.obj
 0001:0010f518       EncodeSrc0Bank             10110518 f   libffgen:useasm.obj
 0001:0010f66c       IsValidSrc0Bank            1011066c f   libffgen:useasm.obj
 0001:0010f7d0       EncodeSrc12Bank            101107d0 f   libffgen:useasm.obj
 0001:0010fad8       CheckAndEncodeRegisterNumber 10110ad8 f   libffgen:useasm.obj
 0001:00110028       EncodeIndex                10111028 f   libffgen:useasm.obj
 0001:001101a8       CheckAndEncodeGlobalRegisterNumber 101111a8 f   libffgen:useasm.obj
 0001:00110368       CheckAndEncodeImmediate    10111368 f   libffgen:useasm.obj
 0001:00110434       CheckSignedImmediate       10111434 f   libffgen:useasm.obj
 0001:0011054c       EncodeSrc0                 1011154c f   libffgen:useasm.obj
 0001:001105d0       EncodeSrc1                 101115d0 f   libffgen:useasm.obj
 0001:00110654       EncodeSrc2                 10111654 f   libffgen:useasm.obj
 0001:001106d8       EncodePredicate            101116d8 f   libffgen:useasm.obj
 0001:00110878       EncodeTestInstruction      10111878 f   libffgen:useasm.obj
 0001:00111434       EncodeUnusedSource         10112434 f   libffgen:useasm.obj
 0001:001114cc       EncodeTestInstruction_AluOp 101124cc f   libffgen:useasm.obj
 0001:0011199c       EncodeTestInstruction_FloatAluOp 1011299c f   libffgen:useasm.obj
 0001:00111be0       EncodeTestInstruction_Repeat 10112be0 f   libffgen:useasm.obj
 0001:00111f04       CheckTestSourceBankRestrictions 10112f04 f   libffgen:useasm.obj
 0001:00111f8c       EncodeFloatInstruction     10112f8c f   libffgen:useasm.obj
 0001:00112adc       EncodeFloatMod             10113adc f   libffgen:useasm.obj
 0001:00112b48       EncodeFloatRepeats         10113b48 f   libffgen:useasm.obj
 0001:00112cd0       EncodeSOP2Instruction      10113cd0 f   libffgen:useasm.obj
 0001:00114000       EncodePackInstruction      10115000 f   libffgen:useasm.obj
 0001:00114e90       CheckByteMask              10115e90 f   libffgen:useasm.obj
 0001:00114f3c       EncodeBitwiseInstruction   10115f3c f   libffgen:useasm.obj
 0001:00115810       ExpandMacros               10116810 f   libffgen:useasm.obj
 0001:00117060       IntSrcSel                  10118060 f   libffgen:useasm.obj
 0001:001170d4       EncodeFDPCInstruction      101180d4 f   libffgen:useasm.obj
 0001:00117540       EncodeFDDPInstruction      10118540 f   libffgen:useasm.obj
 0001:00117a5c       EncodeFDDPCInstruction     10118a5c f   libffgen:useasm.obj
 0001:001180cc       EncodeMovcInstruction      101190cc f   libffgen:useasm.obj
 0001:00118610       EncodeMOVCTest             10119610 f   libffgen:useasm.obj
 0001:00118780       EncodeEfoInstruction       10119780 f   libffgen:useasm.obj
 0001:00118cc0       EncodeSOPWMInstruction     10119cc0 f   libffgen:useasm.obj
 0001:00119890       EncodeLRP1Instruction      1011a890 f   libffgen:useasm.obj
 0001:0011a778       EncodeLRP2Instruction      1011b778 f   libffgen:useasm.obj
 0001:0011b754       EncodeSOP3Instruction      1011c754 f   libffgen:useasm.obj
 0001:0011cce4       EncodeFPMAInstruction      1011dce4 f   libffgen:useasm.obj
 0001:0011d8dc       EncodeIMA16Instruction     1011e8dc f   libffgen:useasm.obj
 0001:0011e2c8       EncodeIMAEInstruction      1011f2c8 f   libffgen:useasm.obj
 0001:0011ed94       EncodeADIFInstruction      1011fd94 f   libffgen:useasm.obj
 0001:0011f218       EncodeSSUM16Instruction    10120218 f   libffgen:useasm.obj
 0001:0011fbc0       EncodeFIRVInstruction      10120bc0 f   libffgen:useasm.obj
 0001:00120468       EncodeFIRVHInstruction     10121468 f   libffgen:useasm.obj
 0001:00120ac0       EncodeBILINInstruction     10121ac0 f   libffgen:useasm.obj
 0001:001213e0       EncodeFIRHInstruction      101223e0 f   libffgen:useasm.obj
 0001:00121d7c       EncodeFIRHHInstruction     10122d7c f   libffgen:useasm.obj
 0001:001227a8       EncodeSMPInstruction       101237a8 f   libffgen:useasm.obj
 0001:001230e0       EncodeSMPInstruction_RepeatCount 101240e0 f   libffgen:useasm.obj
 0001:00123218       EncodeLDSTInstruction      10124218 f   libffgen:useasm.obj
 0001:00123e8c       EncodeLDSTCacheFlags       10124e8c f   libffgen:useasm.obj
 0001:00123ff0       EncodeLAPCInstruction      10124ff0 f   libffgen:useasm.obj
 0001:00124134       EncodeBranchInstruction    10125134 f   libffgen:useasm.obj
 0001:00124524       GetLabelAddress            10125524 f   libffgen:useasm.obj
 0001:001247b0       EncodeIDFInstruction       101257b0 f   libffgen:useasm.obj
 0001:00124ab8       EncodeWDFInstruction       10125ab8 f   libffgen:useasm.obj
 0001:00124c5c       EncodeEmitInstruction      10125c5c f   libffgen:useasm.obj
 0001:0012553c       EncodeEmitInstructionSource 1012653c f   libffgen:useasm.obj
 0001:0012569c       EncodeSMOAInstruction      1012669c f   libffgen:useasm.obj
 0001:00125c4c       EncodeSMLSIInstruction     10126c4c f   libffgen:useasm.obj
 0001:00126600       EncodeMOEInstruction       10127600 f   libffgen:useasm.obj
 0001:00126b88       EncodeSETFCInstruction     10127b88 f   libffgen:useasm.obj
 0001:00126e18       EncodeLIMMInstruction      10127e18 f   libffgen:useasm.obj
 0001:00127128       EncodeMOVInstruction       10128128 f   libffgen:useasm.obj
 0001:00127634       EncodeMutexInstruction     10128634 f   libffgen:useasm.obj
 0001:00127850       EncodeLDRSTRInstruction    10128850 f   libffgen:useasm.obj
 0001:00127de4       EncodeLDRSTRGlobalRegisterNumber 10128de4 f   libffgen:useasm.obj
 0001:00127ed4       EncodePTOFFPCOEFFInstruction 10128ed4 f   libffgen:useasm.obj
 0001:00128130       EncodeATST8Instruction     10129130 f   libffgen:useasm.obj
 0001:0012874c       EncodeDEPTHFInstruction    1012974c f   libffgen:useasm.obj
 0001:00128b60       EncodeSETMInstruction      10129b60 f   libffgen:useasm.obj
 0001:00128d74       EncodePaddingInstruction   10129d74 f   libffgen:useasm.obj
 0001:00128e90       EncodeWOPInstruction       10129e90 f   libffgen:useasm.obj
 0001:00129604       UseoptInitReg              1012a604 f   libffgen:useopt.obj
 0001:001296a8       EncodeSop2Spec             1012a6a8 f   libffgen:useopt.obj
 0001:0012a044       MakeAlphaSel               1012b044 f   libffgen:useopt.obj
 0001:0012a0bc       EncodeSop3Spec             1012b0bc f   libffgen:useopt.obj
 0001:0012a7f0       SetRepeatMask              1012b7f0 f   libffgen:useopt.obj
 0001:0012a970       FixUseoptData              1012b970 f   libffgen:useopt.obj
 0001:0012ab10       FreeOptState               1012bb10 f   libffgen:useopt.obj
 0001:0012abb8       _UseoptFree                1012bbb8 f   libffgen:useopt.obj
 0001:0012ac18       InitOptState               1012bc18 f   libffgen:useopt.obj
 0001:0012afec       UseoptAlloc                1012bfec f   libffgen:useopt.obj
 0001:0012b09c       IsNode                     1012c09c f   libffgen:useopt.obj
 0001:0012b2dc       RegToNode                  1012c2dc f   libffgen:useopt.obj
 0001:0012b3ac       OptimiseBlock              1012c3ac f   libffgen:useopt.obj
 0001:0012b7cc       UseoptRequire              1012c7cc f   libffgen:useopt.obj
 0001:0012b818       UseoptAbort                1012c818 f   libffgen:useopt.obj
 0001:0012b8b8       IsProgEnd                  1012c8b8 f   libffgen:useopt.obj
 0001:0012b900       SetProgEnd                 1012c900 f   libffgen:useopt.obj
 0001:0012b95c       IsBranch                   1012c95c f   libffgen:useopt.obj
 0001:0012b9ac       GetBranchLabel             1012c9ac f   libffgen:useopt.obj
 0001:0012ba20       GetLastInst                1012ca20 f   libffgen:useopt.obj
 0001:0012ba90       GetNextInst                1012ca90 f   libffgen:useopt.obj
 0001:0012bb04       IsMultiPart                1012cb04 f   libffgen:useopt.obj
 0001:0012bbb8       GetInstStart               1012cbb8 f   libffgen:useopt.obj
 0001:0012bc28       SetRegValues               1012cc28 f   libffgen:useopt.obj
 0001:0012bda8       NodeToReg                  1012cda8 f   libffgen:useopt.obj
 0001:0012beb0       InsertBefore               1012ceb0 f   libffgen:useopt.obj
 0001:0012bfec       EmitMove                   1012cfec f   libffgen:useopt.obj
 0001:0012c150       SetInstFlags               1012d150 f   libffgen:useopt.obj
 0001:0012c2c0       SetRepeatCount             1012d2c0 f   libffgen:useopt.obj
 0001:0012c30c       PeepHoleBlock              1012d30c f   libffgen:useopt.obj
 0001:0012c400       IsLabel                    1012d400 f   libffgen:useopt.obj
 0001:0012c448       IsBlockEnd                 1012d448 f   libffgen:useopt.obj
 0001:0012c490       PeepHole                   1012d490 f   libffgen:useopt.obj
 0001:0012c57c       GetPredicate               1012d57c f   libffgen:useopt.obj
 0001:0012c5c8       GetRepeatCount             1012d5c8 f   libffgen:useopt.obj
 0001:0012c614       PeepHoleSop2               1012d614 f   libffgen:useopt.obj
 0001:0012c9d0       GetInstFlags               1012d9d0 f   libffgen:useopt.obj
 0001:0012ca7c       AllocSopSpec               1012da7c f   libffgen:useopt.obj
 0001:0012cac0       ExtractSop2Spec            1012dac0 f   libffgen:useopt.obj
 0001:0012d310       GetWriteMask               1012e310 f   libffgen:useopt.obj
 0001:0012d384       IsPack                     1012e384 f   libffgen:useopt.obj
 0001:0012d3d4       CompIntSrcSel              1012e3d4 f   libffgen:useopt.obj
 0001:0012d484       IsMove                     1012e484 f   libffgen:useopt.obj
 0001:0012d808       DeleteInst                 1012e808 f   libffgen:useopt.obj
 0001:0012d8dc       RemoveInst                 1012e8dc f   libffgen:useopt.obj
 0001:0012da08       Sop2AddMult                1012ea08 f   libffgen:useopt.obj
 0001:0012e020       EqualRegs                  1012f020 f   libffgen:useopt.obj
 0001:0012e0a0       Sop2MultAdd                1012f0a0 f   libffgen:useopt.obj
 0001:0012e6d0       ElimUnusedAlpha            1012f6d0 f   libffgen:useopt.obj
 0001:0012ede0       Sop2Scaling                1012fde0 f   libffgen:useopt.obj
 0001:0012efd8       IsScalingSop               1012ffd8 f   libffgen:useopt.obj
 0001:0012f374       EliminateMovesBlock        10130374 f   libffgen:useopt.obj
 0001:0012f4ec       EliminateMoves             101304ec f   libffgen:useopt.obj
 0001:0012f9c8       IsTest                     101309c8 f   libffgen:useopt.obj
 0001:0012fa0c       IsFullWrite                10130a0c f   libffgen:useopt.obj
 0001:0012fa64       SubstInstSrc               10130a64 f   libffgen:useopt.obj
 0001:0012fce0       CanUseSrc                  10130ce0 f   libffgen:useopt.obj
 0001:001300f8       UsesSrc0                   101310f8 f   libffgen:useopt.obj
 0001:00130248       FindRegRepl                10131248 f   libffgen:useopt.obj
 0001:0013033c       FirstSrcIdx                1013133c f   libffgen:useopt.obj
 0001:00130388       SetRegRepl                 10131388 f   libffgen:useopt.obj
 0001:00130418       UpdateNodeRepl             10131418 f   libffgen:useopt.obj
 0001:00130638       MunchMovs                  10131638 f   libffgen:useopt.obj
 0001:00130a08       ExtractNodeRepl            10131a08 f   libffgen:useopt.obj
 0001:00130af8       GetNodeRepl                10131af8 f   libffgen:useopt.obj
 0001:00130c70       IsOutput                   10131c70 f   libffgen:useopt.obj
 0001:00130d74       FindBranchTarget           10131d74 f   libffgen:useopt.obj
 0001:00130e18       NewBlock                   10131e18 f   libffgen:useopt.obj
 0001:00130eb8       SplitBlock                 10131eb8 f   libffgen:useopt.obj
 0001:00130fb8       CutList                    10131fb8 f   libffgen:useopt.obj
 0001:00131030       FlattenBlocks              10132030 f   libffgen:useopt.obj
 0001:001310dc       JoinBlock                  101320dc f   libffgen:useopt.obj
 0001:00131244       AppendList                 10132244 f   libffgen:useopt.obj
 0001:0013133c       FormRepeatsBlock           1013233c f   libffgen:useopt.obj
 0001:001316ac       IsRepeating                101326ac f   libffgen:useopt.obj
 0001:001316f8       IsMOEControl               101326f8 f   libffgen:useopt.obj
 0001:00132e2c       PrintIndent                10133e2c f   libffgen:source.obj
 0001:00132ecc       PrintSpaceForInstrNum      10133ecc f   libffgen:source.obj
 0001:00132f34       PrintNewBlock              10133f34 f   libffgen:source.obj
 0001:00133254       PrintComment               10134254 f   libffgen:source.obj
 0001:00133378       AlignText                  10134378 f   libffgen:source.obj
 0001:00133490       PrintReg                   10134490 f   libffgen:source.obj
 0001:00134078       PrintSMLSI                 10135078 f   libffgen:source.obj
 0001:00134120       PrintSMBO                  10135120 f   libffgen:source.obj
 0001:00134440       DumpBindingInfo            10135440 f   libffgen:source.obj
 0001:00135740       FFTNLAssignOutputRegisters 10136740 f   libffgen:codegen.obj
 0001:00136044       FFTNLCalculateTexCoordDimensions 10137044 f   libffgen:codegen.obj
 0001:00136364       FFTNLCalculateClipPlaneRequirements 10137364 f   libffgen:codegen.obj
 0001:00136470       FFTNLRedirectOutputRegisterWrites 10137470 f   libffgen:codegen.obj
 0001:00136b34       FFTNLGenTransformation     10137b34 f   libffgen:codegen.obj
 0001:00138d7c       FFTNLGenClipping           10139d7c f   libffgen:codegen.obj
 0001:00139084       FFTNLGenColours            1013a084 f   libffgen:codegen.obj
 0001:0013a200       FFTNLGenFog                1013b200 f   libffgen:codegen.obj
 0001:0013afc8       FFTNLGenVertexToEyeVector  1013bfc8 f   libffgen:codegen.obj
 0001:0013b574       FFTNLGenPoints             1013c574 f   libffgen:codegen.obj
 0001:0013c5f0       FFTNLGenTexturing          1013d5f0 f   libffgen:codegen.obj
 0001:0013e388       FFTNLGenLinearTexGenCode   1013f388 f   libffgen:codegen.obj
 0001:0013e540       FFTNLGenTexPassthroughCode 1013f540 f   libffgen:codegen.obj
 0001:0013eab0       AddRegToList               1013fab0 f   libffgen:reg.obj
 0001:0013ec44       CompressFreeList           1013fc44 f   libffgen:reg.obj
 0001:0013fc98       GetTemp                    10140c98 f   libffgen:reg.obj
 0001:0013ffe0       LoadConstant               10140fe0 f   libffgen:reg.obj
 0001:001400b4       LoadStoreConstant          101410b4 f   libffgen:reg.obj
 0001:001412ac       RelativeAddressingSA       101422ac f   libffgen:reg.obj
 0001:00142318       AddInstToList              10143318 f   libffgen:inst.obj
 0001:00142414       EncodeReg                  10143414 f   libffgen:inst.obj
 0001:00142594       GetUseInst                 10143594 f   libffgen:inst.obj
 0001:001426bc       CheckRegUsage              101436bc f   libffgen:inst.obj
 0001:00142e74       StoreUniFlexInstruction    10143e74 f   libffgen:inst.obj
 0001:00143eb8       SplitUniflexInst           10144eb8 f   libffgen:inst.obj
 0001:001440b4       StoreInstruction           101450b4 f   libffgen:inst.obj
 0001:00144d0c       SetupNoSchedForInternalRegs 10145d0c f   libffgen:inst.obj
 0001:00144f40       M4x4_efos                  10145f40 f   libffgen:inst.obj
 0001:00146510       M4x4_dp4                   10147510 f   libffgen:inst.obj
 0001:0014ac18       FFTNLGenPointInfiniteLighting 1014bc18 f   libffgen:lighting.obj
 0001:0014c208       FFTNLAddAmbientLight       1014d208 f   libffgen:lighting.obj
 0001:0014caa0       FFTNLAddDiffuseLight       1014daa0 f   libffgen:lighting.obj
 0001:0014d338       FFTNLAddSpecularLight      1014e338 f   libffgen:lighting.obj
 0001:0014dbd0       FFTNLGenPointLocalLighting 1014ebd0 f   libffgen:lighting.obj
 0001:0014f73c       FFTNLGenSpotInfiniteLighting 1015073c f   libffgen:lighting.obj
 0001:00151048       FFTNLGenSpotLocalLighting  10152048 f   libffgen:lighting.obj
 0001:001537e8       _DllMainCRTStartupHelper   101547e8 f   corelib0:pegdmain.obj
 0001:00153b24       doexit                     10154b24 f   corelib0:cexit.obj
